 DipServer

 Timestamp is 4f9a3730 (Fri Apr 27 09:05:36 2012)

 Preferred load address is 10000000

 Start         Length     Name                   Class
 0001:00000000 000542c5H .text                   CODE
 0001:000542d0 00001f85H .text$x                 CODE
 0001:00056255 0002830bH .textbss                CODE
 0002:00000000 00001d7cH .rdata                  DATA
 0002:00001d80 00001218H .xdata$x                DATA
 0002:00002fa0 000006c7H .edata                  DATA
 0003:00000000 00000104H .CRT$XCA                DATA
 0003:00000104 00000134H .CRT$XCU                DATA
 0003:00000238 00000104H .CRT$XCZ                DATA
 0003:0000033c 00000104H .CRT$XIA                DATA
 0003:00000440 0000010eH .CRT$XIC                DATA
 0003:00000550 00000104H .CRT$XIY                DATA
 0003:00000654 00000104H .CRT$XIZ                DATA
 0003:00000758 00000104H .CRT$XPA                DATA
 0003:0000085c 00000104H .CRT$XPX                DATA
 0003:00000960 00000104H .CRT$XPZ                DATA
 0003:00000a64 00000104H .CRT$XTA                DATA
 0003:00000b68 00000104H .CRT$XTB                DATA
 0003:00000c6c 00000104H .CRT$XTZ                DATA
 0003:00000d70 00000beeH .data                   DATA
 0003:00001960 0018a258H .bss                    DATA
 0004:00000000 00000050H .idata$2                DATA
 0004:00000050 00000014H .idata$3                DATA
 0004:00000064 0000053cH .idata$4                DATA
 0004:000005a0 0000053cH .idata$5                DATA
 0004:00000adc 00001744H .idata$6                DATA

  Address         Publics by Value              Rva+Base     Lib:Object

 0001:00002bf0       ?InitThisTribe@BasicDiploRelation@@UAEXPAD00@Z 10003bf0 f   BasicDiploRelation.obj
 0001:00002c20       ?InitThisTribe2@BasicDiploRelation@@UAEXPAD000@Z 10003c20 f   BasicDiploRelation.obj
 0001:00002c50       ?GetAmountOfPropositions@BasicDiploRelation@@UAEHXZ 10003c50 f   BasicDiploRelation.obj
 0001:00002c80       ?GetPossibility@BasicDiploRelation@@UAEKHPAD0@Z 10003c80 f   BasicDiploRelation.obj
 0001:00002cc0       ?PerformPossibility@BasicDiploRelation@@UAEXK@Z 10003cc0 f   BasicDiploRelation.obj
 0001:00002cf0       ?ProcessTribe@BasicDiploRelation@@UAEXXZ 10003cf0 f   BasicDiploRelation.obj
 0001:00002d20       ?PerformCommand@BasicDiploRelation@@UAEXPADH@Z 10003d20 f   BasicDiploRelation.obj
 0001:00002d50       ?GetSaveData@BasicDiploRelation@@UAEHPAE_N@Z 10003d50 f   BasicDiploRelation.obj
 0001:00002d90       ?SetSaveData@BasicDiploRelation@@UAEXPAEH@Z 10003d90 f   BasicDiploRelation.obj
 0001:00002dc0       ?Init@BasicDiploRelation@@UAEXXZ 10003dc0 f   BasicDiploRelation.obj
 0001:00002e30       ?Free@BasicDiploRelation@@UAEXXZ 10003e30 f   BasicDiploRelation.obj
 0001:00002e60       ??2@YAPAXI@Z               10003e60 f i BasicDiploRelation.obj
 0001:00002eb0       ??3@YAXPAX@Z               10003eb0 f i BasicDiploRelation.obj
 0001:00002f00       ?InitThisTribe2@DIP_SimpleBuilding@@UAEXPAD000@Z 10003f00 f   DIP_SimpleBuilding.obj
 0001:00003090       ?InitThisTribe@DIP_SimpleBuilding@@UAEXPAD00@Z 10004090 f   DIP_SimpleBuilding.obj
 0001:00003f40       ?GetAmountOfPropositions@DIP_SimpleBuilding@@UAEHXZ 10004f40 f   DIP_SimpleBuilding.obj
 0001:00003f80       ?GetPossibility@DIP_SimpleBuilding@@UAEKHPAD0@Z 10004f80 f   DIP_SimpleBuilding.obj
 0001:00004050       ?PerformPossibility@DIP_SimpleBuilding@@UAEXK@Z 10005050 f   DIP_SimpleBuilding.obj
 0001:000043e0       ?PerformCommand@DIP_SimpleBuilding@@UAEXPADH@Z 100053e0 f   DIP_SimpleBuilding.obj
 0001:00006160       ?PerformProduceUnitsCommend@DIP_SimpleBuilding@@QAEXXZ 10007160 f   DIP_SimpleBuilding.obj
 0001:00006460       ?PerformStorms@DIP_SimpleBuilding@@QAEXXZ 10007460 f   DIP_SimpleBuilding.obj
 0001:00006780       ?PerformKillers@DIP_SimpleBuilding@@QAEXXZ 10007780 f   DIP_SimpleBuilding.obj
 0001:00006aa0       ?PerformTomahawks@DIP_SimpleBuilding@@QAEXXZ 10007aa0 f   DIP_SimpleBuilding.obj
 0001:00006dc0       ?PerformFiring@DIP_SimpleBuilding@@QAEXXZ 10007dc0 f   DIP_SimpleBuilding.obj
 0001:000070e0       ?PerformRazvedka@DIP_SimpleBuilding@@QAEXXZ 100080e0 f   DIP_SimpleBuilding.obj
 0001:00007450       ?ProcessTribe@DIP_SimpleBuilding@@UAEXXZ 10008450 f   DIP_SimpleBuilding.obj
 0001:00008930       ?Replace@DString@@QAEXPADH@Z 10009930 f i DIP_SimpleBuilding.obj
 0001:000089a0       ?Replace@DString@@QAAXPAD0ZZ 100099a0 f i DIP_SimpleBuilding.obj
 0001:00008a30       ?CreateAbilityPage@DIP_SimpleBuilding@@QAEXXZ 10009a30 f   DIP_SimpleBuilding.obj
 0001:00009060       ?CreateRadialPosition@@YAXPAH0HHHHH@Z 1000a060 f   DIP_SimpleBuilding.obj
 0001:00009180       ?ProcessDance@DIP_SimpleBuilding@@QAEXXZ 1000a180 f   DIP_SimpleBuilding.obj
 0001:000095c0       ?ShowNoMoney@DIP_SimpleBuilding@@QAEXXZ 1000a5c0 f   DIP_SimpleBuilding.obj
 0001:00009790       ?GetSaveData@DIP_SimpleBuilding@@UAEHPAE_N@Z 1000a790 f   DIP_SimpleBuilding.obj
 0001:00009950       ?SetSaveData@DIP_SimpleBuilding@@UAEXPAEH@Z 1000a950 f   DIP_SimpleBuilding.obj
 0001:00009ac0       ?Init@DIP_SimpleBuilding@@UAEXXZ 1000aac0 f   DIP_SimpleBuilding.obj
 0001:00009b70       ?Free@DIP_SimpleBuilding@@UAEXXZ 1000ab70 f   DIP_SimpleBuilding.obj
 0001:00009c00       ?CheckDipBuilding@@YAXEH@Z 1000ac00 f   DIP_SimpleBuilding.obj
 0001:00009d10       ?ReadWinString@@YA_NPAVGFILE@@PADH@Z 1000ad10 f   DipInit.obj
 0001:00009e00       ??0DiplomacySystem@@QAE@XZ 1000ae00 f   DiplomacySystem.obj
 0001:00009ec0       ?AddDipFriends@@YAXGPAUGAMEOBJ@@@Z 1000aec0 f   DiplomacySystem.obj
 0001:00009f60       ?SetDipTalkRadius@@YAXGH@Z 1000af60 f   DiplomacySystem.obj
 0001:0000a000       ?SetDipEasyTalk@@YAXG_N@Z  1000b000 f   DiplomacySystem.obj
 0001:0000a070       ?AddDipCenter@@YAGPAD000@Z 1000b070 f   DiplomacySystem.obj
 0001:0000a0f0       ?AddDipCenter@DiplomacySystem@@QAEGPAD000@Z 1000b0f0 f   DiplomacySystem.obj
 0001:0000a290       ??0DIP_SimpleBuilding@@QAE@XZ 1000b290 f i DiplomacySystem.obj
 0001:0000a2f0       ??0BasicDiploRelation@@QAE@XZ 1000b2f0 f i DiplomacySystem.obj
 0001:0000a330       ?ResearchMap@DiplomacySystem@@QAEXXZ 1000b330 f   DiplomacySystem.obj
 0001:0000ac00       ?PerformCommand@DiplomacySystem@@QAEXPADH@Z 1000bc00 f   DiplomacySystem.obj
 0001:0000aca0       ?Norma@@YAHHH@Z            1000bca0 f   DiplomacySystem.obj
 0001:0000ad00       ?SetZone@@YAXPAUGAMEOBJ@@HHH@Z 1000bd00 f   DiplomacySystem.obj
 0001:0000ad60       ?SetAIForDiplo@@YA_NEHH@Z  1000bd60 f   DiplomacySystem.obj
 0001:0000adb0       ?SetAI@DiplomacySystem@@QAE_NEHH@Z 1000bdb0 f   DiplomacySystem.obj
 0001:0000ae60       ?Process@DiplomacySystem@@QAEXXZ 1000be60 f   DiplomacySystem.obj
 0001:0000f1d0       ?CreateContactsList@DiplomacySystem@@QAE_N_N@Z 100101d0 f   DiplomacySystem.obj
 0001:0000f4a0       ?AddWalker@DiplomacySystem@@QAEXG@Z 100104a0 f   DiplomacySystem.obj
 0001:0000f5e0       ?AddCannon@DiplomacySystem@@QAEXPAUGAMEOBJ@@E@Z 100105e0 f   DiplomacySystem.obj
 0001:0000f7f0       ?AddStorm@DiplomacySystem@@QAEXPAUGAMEOBJ@@EH@Z 100107f0 f   DiplomacySystem.obj
 0001:0000f9b0       ?AddFirers@DiplomacySystem@@QAEXPAUGAMEOBJ@@E@Z 100109b0 f   DiplomacySystem.obj
 0001:0000fba0       ?AddKillers@DiplomacySystem@@QAEXPAUGAMEOBJ@@E_N@Z 10010ba0 f   DiplomacySystem.obj
 0001:0000fd90       ?AddTomahawks@DiplomacySystem@@QAEXPAUGAMEOBJ@@EGHH@Z 10010d90 f   DiplomacySystem.obj
 0001:00010080       ?AddStorm@@YAXPAUGAMEOBJ@@EH@Z 10011080 f   DiplomacySystem.obj
 0001:000100d0       ?AddCannon@@YAXPAUGAMEOBJ@@E@Z 100110d0 f   DiplomacySystem.obj
 0001:00010120       ?AddTomahawks@@YAXPAUGAMEOBJ@@EGHH@Z 10011120 f   DiplomacySystem.obj
 0001:00010180       ?AddFirers@@YAXPAUGAMEOBJ@@E@Z 10011180 f   DiplomacySystem.obj
 0001:000101d0       ?AddPsKillers@@YAXPAUGAMEOBJ@@E_N@Z 100111d0 f   DiplomacySystem.obj
 0001:00010220       ?AddNewZooGroup@DiplomacySystem@@QAEXPAUZooGroup@@@Z 10011220 f   DiplomacySystem.obj
 0001:000102f0       ?AddZooBirthZone@DiplomacySystem@@QAEXPAUZooBirthZone@@@Z 100112f0 f   DiplomacySystem.obj
 0001:000103c0       ?AddAnimals@@YA_NPAUGAMEOBJ@@0@Z 100113c0 f   DiplomacySystem.obj
 0001:00010680       ?ProcessZoology@DiplomacySystem@@QAEXXZ 10011680 f   DiplomacySystem.obj
 0001:00011950       ?PerformDipCommand@@YAXPADH@Z 10012950 f   DipMain.obj
 0001:000119b0       ?SaveAllDipData@@YAXPAPAEPAH@Z 100129b0 f   DipMain.obj
 0001:00012390       ?FreeSaveDipData@@YAXPAE@Z 10013390 f   DipMain.obj
 0001:00012400       ?ClearAllDipData@@YAXXZ    10013400 f   DipMain.obj
 0001:000126c0       ?LoadAllDipData@@YAXPAEH@Z 100136c0 f   DipMain.obj
 0001:00012ea0       ?InitDipForThisMap@@YAXXZ  10013ea0 f   DipMain.obj
 0001:00012ee0       ?ProcessDipRelations@@YAXXZ 10013ee0 f   DipMain.obj
 0001:00012f70       ?HandleDipRequest@@YAXPADPAVParsedRQ@@1@Z 10013f70 f   DipMain.obj
 0001:00012fa0       ?Handle_dipcomm@@YAXPADPAPADHPAVParsedRQ@@@Z 10013fa0 f   DipMain.obj
 0001:00013960       _DllMain@12                10014960 f   DipServer.obj
 0001:00013990       ??0DS_Requests@@QAE@XZ     10014990 f   DipServer.obj
 0001:00013a10       ??1DS_Requests@@QAE@XZ     10014a10 f   DipServer.obj
 0001:00013ae0       ??_GOneDS_Request@@QAEPAXI@Z 10014ae0 f i DipServer.obj
 0001:00013b50       ??0OneDS_Request@@QAE@XZ   10014b50 f   DipServer.obj
 0001:00013c00       ??1OneDS_Request@@QAE@XZ   10014c00 f   DipServer.obj
 0001:00013cd0       ?DS_Process@DS_Requests@@QAEXXZ 10014cd0 f   DipServer.obj
 0001:00014320       ?DS_SendRequest@DS_Requests@@QAEKPADH@Z 10015320 f   DipServer.obj
 0001:00014550       ?DS_GetRequestResult@DS_Requests@@QAEKKPAPADPAH@Z 10015550 f   DipServer.obj
 0001:000146f0       ?DS_CloseRequest@DS_Requests@@QAEXK@Z 100156f0 f   DipServer.obj
 0001:000147d0       ?DS_CloseAll@DS_Requests@@QAEXXZ 100157d0 f   DipServer.obj
 0001:00014970       ?DS_SendRequest@@YAKPADH@Z 10015970 f   DipServer.obj
 0001:000149c0       ?DS_Process@@YAXXZ         100159c0 f   DipServer.obj
 0001:00014a00       ?DS_GetRequestResult@@YAKKPAPADPAH@Z 10015a00 f   DipServer.obj
 0001:00014a50       ?DS_CloseRequest@@YAXK@Z   10015a50 f   DipServer.obj
 0001:00014aa0       ?DS_CloseAll@@YAXXZ        10015aa0 f   DipServer.obj
 0001:00014ae0       ??H@YAAAVDString@@PADAAV0@@Z 10015ae0 f   DString.obj
 0001:00014b90       ??4DString@@QAEAAV0@PAD@Z  10015b90 f   DString.obj
 0001:00014be0       ??HDString@@QAEAAV0@PAD@Z  10015be0 f   DString.obj
 0001:00014c30       ??HDString@@QAEAAV0@AAV0@@Z 10015c30 f   DString.obj
 0001:00014c80       ??YDString@@QAEAAV0@PAD@Z  10015c80 f   DString.obj
 0001:00014cd0       ??YDString@@QAEAAV0@AAV0@@Z 10015cd0 f   DString.obj
 0001:00014d20       ??ADString@@QAEDH@Z        10015d20 f   DString.obj
 0001:00014d80       ??8DString@@QAE_NPAD@Z     10015d80 f   DString.obj
 0001:00014df0       ??8DString@@QAE_NAAV0@@Z   10015df0 f   DString.obj
 0001:00014e70       ??0DString@@QAE@XZ         10015e70 f   DString.obj
 0001:00014ed0       ??0DString@@QAE@PAD@Z      10015ed0 f   DString.obj
 0001:00014f50       ??1DString@@QAE@XZ         10015f50 f   DString.obj
 0001:00014fe0       ?ReadFromFile@DString@@QAEXPAD@Z 10015fe0 f   DString.obj
 0001:000150c0       ?WriteToFile@DString@@QAEXPAD@Z 100160c0 f   DString.obj
 0001:00015150       ?Add@DString@@QAEXAAV1@@Z  10016150 f   DString.obj
 0001:000151f0       ?Add@DString@@QAEXPAD@Z    100161f0 f   DString.obj
 0001:00015290       ?Replace0@DString@@QAEXPAD0@Z 10016290 f   DString.obj
 0001:000153f0       ?Replace@DString@@QAEXPADAAV1@@Z 100163f0 f   DString.obj
 0001:00015450       ?Clear@DString@@QAEXXZ     10016450 f   DString.obj
 0001:000154a0       ?Assign@DString@@QAEXPAD@Z 100164a0 f   DString.obj
 0001:00015530       ?Assign@DString@@QAEXAAV1@@Z 10016530 f   DString.obj
 0001:000155a0       ?Free@DString@@QAEXXZ      100165a0 f   DString.obj
 0001:00015630       ?Allocate@DString@@QAEXH@Z 10016630 f   DString.obj
 0001:000156e0       ?ErrM@@YAXPAD@Z            100166e0 f   Economic.obj
 0001:00015740       ??0Economic@@QAE@XZ        10016740 f   Economic.obj
 0001:00015930       ??_EEconomic@@UAEPAXI@Z    10016930 f i Economic.obj
 0001:00015930       ??_GEconomic@@UAEPAXI@Z    10016930 f i Economic.obj
 0001:000159a0       ??1Economic@@UAE@XZ        100169a0 f   Economic.obj
 0001:00015fa0       ?Process@Economic@@QAEXXZ  10016fa0 f   Economic.obj
 0001:00016be0       ?ResearchMap@Economic@@QAEXXZ 10017be0 f   Economic.obj
 0001:000174f0       ?FillTradePoints@Economic@@AAEXXZ 100184f0 f   Economic.obj
 0001:00017ac0       ?EconomicDipComm@Economic@@QAEXPADPAPADHPAVParsedRQ@@@Z 10018ac0 f   Economic.obj
 0001:000182f0       ?PerformCommand@Economic@@QAEXPADH@Z 100192f0 f   Economic.obj
 0001:000187f0       ??1Peasant@@UAE@XZ         100197f0 f i Economic.obj
 0001:00018840       ?Init@Economic@@QAEXXZ     10019840 f   Economic.obj
 0001:00018b70       ?LoadNation@Economic@@AAEXPAD@Z 10019b70 f   Economic.obj
 0001:00018dd0       ?GetFreePeasant@Economic@@QAEHE@Z 10019dd0 f   Economic.obj
 0001:00018ee0       ?Mobilization@Economic@@QAEXXZ 10019ee0 f   Economic.obj
 0001:00018fe0       ?AddInPeasantList@Economic@@QAEXXZ 10019fe0 f   Economic.obj
 0001:00019010       ??0ResourceList@@QAE@XZ    1001a010 f   Economic.obj
 0001:00019110       ??_EResourceList@@UAEPAXI@Z 1001a110 f i Economic.obj
 0001:00019110       ??_GResourceList@@UAEPAXI@Z 1001a110 f i Economic.obj
 0001:00019180       ??1ResourceList@@UAE@XZ    1001a180 f   Economic.obj
 0001:000191e0       ?AddResource@ResourceList@@QAEXPADHH@Z 1001a1e0 f   Economic.obj
 0001:00019280       ?SetAmo@ResourceList@@QAEXHH@Z 1001a280 f   Economic.obj
 0001:00019300       ?GetAmo@ResourceList@@QAEHH@Z 1001a300 f   Economic.obj
 0001:00019370       ?GetName@ResourceList@@QAEPADH@Z 1001a370 f   Economic.obj
 0001:000193e0       ?AddAmo@ResourceList@@QAEXHH@Z 1001a3e0 f   Economic.obj
 0001:00019470       ?ClearAmo@ResourceList@@QAEXXZ 1001a470 f   Economic.obj
 0001:000194f0       ?First@ResourceList@@QAEXXZ 1001a4f0 f   Economic.obj
 0001:00019560       ?Next@ResourceList@@QAE_NXZ 1001a560 f   Economic.obj
 0001:000195f0       ?SetAmo@ResourceList@@QAEXH@Z 1001a5f0 f   Economic.obj
 0001:00019630       ?GetAmo@ResourceList@@QAEHXZ 1001a630 f   Economic.obj
 0001:00019670       ?AddAmo@ResourceList@@QAEXH@Z 1001a670 f   Economic.obj
 0001:000196d0       ?GetIndex@ResourceList@@QAEHPAD@Z 1001a6d0 f   Economic.obj
 0001:00019770       ?LoadValue@ResourceList@@QAEXV?$vector@HV?$allocator@H@std@@@std@@@Z 1001a770 f   Economic.obj
 0001:00019860       ?AddValueVector@ResourceList@@QAEXV?$vector@HV?$allocator@H@std@@@std@@@Z 1001a860 f   Economic.obj
 0001:00019950       ?ReadFromFile@ResourceList@@QAE_NPAVGFILE@@@Z 1001a950 f   Economic.obj
 0001:00019d00       ??0Transport@@QAE@XZ       1001ad00 f   Economic.obj
 0001:00019dc0       ??_ETransport@@UAEPAXI@Z   1001adc0 f i Economic.obj
 0001:00019dc0       ??_GTransport@@UAEPAXI@Z   1001adc0 f i Economic.obj
 0001:00019e30       ??1Transport@@UAE@XZ       1001ae30 f   Economic.obj
 0001:00019ef0       ?Process@Transport@@QAEXPAPAVWarehouse@@HPAV?$list@PAVTransport@@V?$allocator@PAVTransport@@@std@@@std@@@Z 1001aef0 f   Economic.obj
 0001:0001a0a0       ?GetEffect@Transport@@QAEHPAVWarehouse@@0PAV?$list@PAVTransport@@V?$allocator@PAVTransport@@@std@@@std@@@Z 1001b0a0 f   Economic.obj
 0001:0001a4d0       ?Load@Transport@@QAEXPAVWarehouse@@@Z 1001b4d0 f   Economic.obj
 0001:0001a730       ?UnLoad@Transport@@QAEXXZ  1001b730 f   Economic.obj
 0001:0001a8d0       ?GetTarget@Transport@@QAEPAVWarehouse@@PAPAV2@HPAV?$list@PAVTransport@@V?$allocator@PAVTransport@@@std@@@std@@@Z 1001b8d0 f   Economic.obj
 0001:0001aa60       ?ShowParams@Transport@@QAEXXZ 1001ba60 f   Economic.obj
 0001:0001acd0       ?FillParams@Transport@@QAEXPAVUnitDescription@@H@Z 1001bcd0 f   Economic.obj
 0001:0001ad50       ??0Business@@QAE@XZ        1001bd50 f   Economic.obj
 0001:0001ae30       ??_GBusiness@@UAEPAXI@Z    1001be30 f i Economic.obj
 0001:0001ae30       ??_EBusiness@@UAEPAXI@Z    1001be30 f i Economic.obj
 0001:0001aea0       ??1Business@@UAE@XZ        1001bea0 f   Economic.obj
 0001:0001af40       ?PayTax@Business@@QAEHH@Z  1001bf40 f   Economic.obj
 0001:0001afb0       ?Bay@Business@@QAE_NPAV1@H@Z 1001bfb0 f   Economic.obj
 0001:0001b040       ?Sel@Business@@QAE_NPAV1@H@Z 1001c040 f   Economic.obj
 0001:0001b100       ?GetBusiness@Business@@QAEPAV1@XZ 1001c100 f   Economic.obj
 0001:0001b130       ?FillParams@Business@@QAEXPAVUnitDescription@@H@Z 1001c130 f   Economic.obj
 0001:0001b1c0       ?Show@Business@@UAEXXZ     1001c1c0 f   Economic.obj
 0001:0001b290       ??0MobileUnit@@QAE@XZ      1001c290 f   Economic.obj
 0001:0001b2f0       ??_GMobileUnit@@UAEPAXI@Z  1001c2f0 f i Economic.obj
 0001:0001b2f0       ??_EMobileUnit@@UAEPAXI@Z  1001c2f0 f i Economic.obj
 0001:0001b360       ??1MobileUnit@@UAE@XZ      1001c360 f   Economic.obj
 0001:0001b3b0       ?MoveTo@MobileUnit@@QAEXHH@Z 1001c3b0 f   Economic.obj
 0001:0001b420       ?UpdateCoord@MobileUnit@@QAEXXZ 1001c420 f   Economic.obj
 0001:0001b450       ??0Peasant@@QAE@XZ         1001c450 f   Economic.obj
 0001:0001b4b0       ??_GPeasant@@UAEPAXI@Z     1001c4b0 f i Economic.obj
 0001:0001b4b0       ??_EPeasant@@UAEPAXI@Z     1001c4b0 f i Economic.obj
 0001:0001b520       ??0Village@@QAE@XZ         1001c520 f   Economic.obj
 0001:0001b5d0       ??_EVillage@@UAEPAXI@Z     1001c5d0 f i Economic.obj
 0001:0001b5d0       ??_GVillage@@UAEPAXI@Z     1001c5d0 f i Economic.obj
 0001:0001b640       ??1Village@@UAE@XZ         1001c640 f   Economic.obj
 0001:0001b6e0       ?Process@Village@@QAEXXZ   1001c6e0 f   Economic.obj
 0001:0001b930       ?ShowParams@Village@@QAEXXZ 1001c930 f   Economic.obj
 0001:0001b9d0       ?FillParams@Village@@QAEXPAVUnitDescription@@H@Z 1001c9d0 f   Economic.obj
 0001:0001ba60       ??0Warehouse@@QAE@XZ       1001ca60 f   Economic.obj
 0001:0001bcc0       ??_GWarehouse@@UAEPAXI@Z   1001ccc0 f i Economic.obj
 0001:0001bcc0       ??_EWarehouse@@UAEPAXI@Z   1001ccc0 f i Economic.obj
 0001:0001bd30       ??1Warehouse@@UAE@XZ       1001cd30 f   Economic.obj
 0001:0001bea0       ?ShowParams@Warehouse@@QAEXXZ 1001cea0 f   Economic.obj
 0001:0001c180       ?GetObjectA@Warehouse@@QAEPAV1@XZ 1001d180 f   Economic.obj
 0001:0001c1b0       ?GetPrice@Warehouse@@UAEHH@Z 1001d1b0 f   Economic.obj
 0001:0001c2d0       ?NeedAmo@Warehouse@@QAEHH@Z 1001d2d0 f   Economic.obj
 0001:0001c360       ?FillParams@Warehouse@@QAEXPAVUnitDescription@@H@Z 1001d360 f   Economic.obj
 0001:0001c4e0       ?ProofPrice@Warehouse@@QAEXXZ 1001d4e0 f   Economic.obj
 0001:0001c680       ?MobilizateUnit@Warehouse@@QAEXPAUGAMEOBJ@@@Z 1001d680 f   Economic.obj
 0001:0001c770       ?InsertUnitToGroup@@YAHPAUGAMEOBJ@@H@Z 1001d770 f i Economic.obj
 0001:0001c7d0       ?AddResource@Warehouse@@QAEXHH@Z 1001d7d0 f   Economic.obj
 0001:0001c870       ?CorrectPrice@Warehouse@@QAEXPAPAV1@H@Z 1001d870 f   Economic.obj
 0001:0001cc20       ?GetMinPrice@Warehouse@@QAEHPAPAV1@HH@Z 1001dc20 f   Economic.obj
 0001:0001cd60       ?MakeGovernmentOrder@Warehouse@@QAEXHH@Z 1001dd60 f   Economic.obj
 0001:0001ce10       ??0Market@@QAE@XZ          1001de10 f   Economic.obj
 0001:0001ce70       ??_GMarket@@UAEPAXI@Z      1001de70 f i Economic.obj
 0001:0001ce70       ??_EMarket@@UAEPAXI@Z      1001de70 f i Economic.obj
 0001:0001cee0       ??1Market@@UAE@XZ          1001dee0 f   Economic.obj
 0001:0001cf30       ?GetPrice@Market@@UAEHH@Z  1001df30 f   Economic.obj
 0001:0001cf90       ?FillParams@Market@@QAEXPAVUnitDescription@@H@Z 1001df90 f   Economic.obj
 0001:0001d020       ??0UnitInfo@@QAE@XZ        1001e020 f   Economic.obj
 0001:0001d070       ??_EUnitInfo@@UAEPAXI@Z    1001e070 f i Economic.obj
 0001:0001d070       ??_GUnitInfo@@UAEPAXI@Z    1001e070 f i Economic.obj
 0001:0001d0e0       ??1UnitInfo@@UAE@XZ        1001e0e0 f   Economic.obj
 0001:0001d120       ?GetUnitI@UnitInfo@@QAEPAV1@XZ 1001e120 f   Economic.obj
 0001:0001d150       ?GetDist@UnitInfo@@QAEHHH@Z 1001e150 f   Economic.obj
 0001:0001d1a0       ?UpdateCoord@UnitInfo@@QAEXXZ 1001e1a0 f   Economic.obj
 0001:0001d1d0       ?NMask@UnitInfo@@QAEEXZ    1001e1d0 f   Economic.obj
 0001:0001d210       ?NIndex@UnitInfo@@QAEGXZ   1001e210 f   Economic.obj
 0001:0001d250       ?SetIndex@UnitInfo@@QAEXH@Z 1001e250 f   Economic.obj
 0001:0001d2c0       ?GetIndex@UnitInfo@@QAEHXZ 1001e2c0 f   Economic.obj
 0001:0001d300       ??0TaxCollector@@QAE@XZ    1001e300 f   Economic.obj
 0001:0001d370       ??_ETaxCollector@@UAEPAXI@Z 1001e370 f i Economic.obj
 0001:0001d370       ??_GTaxCollector@@UAEPAXI@Z 1001e370 f i Economic.obj
 0001:0001d3e0       ??1TaxCollector@@UAE@XZ    1001e3e0 f   Economic.obj
 0001:0001d440       ?Process@TaxCollector@@QAEXPAPAVBusiness@@HPAV?$list@PAVTaxCollector@@V?$allocator@PAVTaxCollector@@@std@@@std@@@Z 1001e440 f   Economic.obj
 0001:0001d730       ?FillParams@TaxCollector@@QAEXPAVUnitDescription@@H@Z 1001e730 f   Economic.obj
 0001:0001d780       ??0Thing@@QAE@XZ           1001e780 f   Economic.obj
 0001:0001d7e0       ??0ProduceList@@QAE@XZ     1001e7e0 f   Economic.obj
 0001:0001d820       ??_EProduceList@@UAEPAXI@Z 1001e820 f i Economic.obj
 0001:0001d820       ??_GProduceList@@UAEPAXI@Z 1001e820 f i Economic.obj
 0001:0001d890       ??1ProduceList@@UAE@XZ     1001e890 f   Economic.obj
 0001:0001d8d0       ?AddThing@ProduceList@@QAEXVThing@@@Z 1001e8d0 f   Economic.obj
 0001:0001d960       ??1Thing@@QAE@XZ           1001e960 f i Economic.obj
 0001:0001d9b0       ?GetThing@ProduceList@@QAEPAVThing@@H@Z 1001e9b0 f   Economic.obj
 0001:0001da30       ?ReadPL@ProduceList@@QAE_NPAVGFILE@@@Z 1001ea30 f   Economic.obj
 0001:0001db40       ?ReadCreate@ProduceList@@QAE_NPAVGFILE@@@Z 1001eb40 f   Economic.obj
 0001:0001dee0       ?GetProduceIndex@ProduceList@@QAEHH@Z 1001eee0 f   Economic.obj
 0001:0001df80       ?GetProduceIndexByUnitName@ProduceList@@QAEHPAD@Z 1001ef80 f   Economic.obj
 0001:0001e180       ??0UnitDescription@@QAE@XZ 1001f180 f   Economic.obj
 0001:0001e260       ??_EUnitDescription@@UAEPAXI@Z 1001f260 f i Economic.obj
 0001:0001e260       ??_GUnitDescription@@UAEPAXI@Z 1001f260 f i Economic.obj
 0001:0001e2d0       ??1UnitDescription@@UAE@XZ 1001f2d0 f   Economic.obj
 0001:0001e370       ?Load@UnitDescription@@QAE_NPAD@Z 1001f370 f   Economic.obj
 0001:0001e710       ?GetRLByName@UnitDescription@@QAE?AV?$vector@HV?$allocator@H@std@@@std@@PAD@Z 1001f710 f   Economic.obj
 0001:0001e860       ?ReadRL@UnitDescription@@QAE_NPAVGFILE@@PAD@Z 1001f860 f   Economic.obj
 0001:0001ea00       ??0NamedResourceList@@QAE@XZ 1001fa00 f i Economic.obj
 0001:0001ea50       ??1NamedResourceList@@QAE@XZ 1001fa50 f i Economic.obj
 0001:0001eaa0       ?ReadCP@UnitDescription@@QAE_NPAVGFILE@@@Z 1001faa0 f   Economic.obj
 0001:0001ebb0       ??0Manufacture@@QAE@XZ     1001fbb0 f   Economic.obj
 0001:0001ec90       ??_GManufacture@@UAEPAXI@Z 1001fc90 f i Economic.obj
 0001:0001ec90       ??_EManufacture@@UAEPAXI@Z 1001fc90 f i Economic.obj
 0001:0001ed00       ??1Manufacture@@UAE@XZ     1001fd00 f   Economic.obj
 0001:0001edd0       ?FillParams@Manufacture@@QAEXPAVUnitDescription@@H@Z 1001fdd0 f   Economic.obj
 0001:0001ef10       ?Process@Manufacture@@QAEXPAPAVWarehouse@@H@Z 1001ff10 f   Economic.obj
 0001:0001f730       ?ShowParams@Manufacture@@QAEXXZ 10020730 f   Economic.obj
 0001:0001f8b0       ?CMLunitsList@Manufacture@@QAEXPAD@Z 100208b0 f   Economic.obj
 0001:0001fae0       ?CMLInProduceStack@Manufacture@@QAEXPAD@Z 10020ae0 f   Economic.obj
 0001:0001fd20       ?CMLobjectInfo@Manufacture@@QAEXPAD@Z 10020d20 f   Economic.obj
 0001:0001fe40       ?GetProductPrice@Manufacture@@QAEHH@Z 10020e40 f   Economic.obj
 0001:0001ff20       ?GetPrice@Manufacture@@UAEHH@Z 10020f20 f   Economic.obj
 0001:00020130       ??0Formation@@QAE@XZ       10021130 f   Economic.obj
 0001:00020190       ??_EFormation@@UAEPAXI@Z   10021190 f i Economic.obj
 0001:00020190       ??_GFormation@@UAEPAXI@Z   10021190 f i Economic.obj
 0001:00020200       ??1Formation@@UAE@XZ       10021200 f   Economic.obj
 0001:00020260       ??0FormationList@@QAE@XZ   10021260 f   Economic.obj
 0001:000202a0       ??_EFormationList@@UAEPAXI@Z 100212a0 f i Economic.obj
 0001:000202a0       ??_GFormationList@@UAEPAXI@Z 100212a0 f i Economic.obj
 0001:00020310       ??1FormationList@@UAE@XZ   10021310 f   Economic.obj
 0001:00020350       ?FillFromFile@FormationList@@QAEXPAD@Z 10021350 f   Economic.obj
 0001:000209d0       ??0AutoFormation@@QAE@XZ   100219d0 f   Economic.obj
 0001:00020b20       ??_GAutoFormation@@UAEPAXI@Z 10021b20 f i Economic.obj
 0001:00020b20       ??_EAutoFormation@@UAEPAXI@Z 10021b20 f i Economic.obj
 0001:00020b90       ??1AutoFormation@@UAE@XZ   10021b90 f   Economic.obj
 0001:00020bd0       ?CreateForm@AutoFormation@@QAEXXZ 10021bd0 f   Economic.obj
 0001:00020cc0       ?MoveTo@AutoFormation@@QAEXHH@Z 10021cc0 f   Economic.obj
 0001:00020d90       ?Clear@AutoFormation@@QAEXXZ 10021d90 f   Economic.obj
 0001:00020e70       ?IsFormationReady@AutoFormation@@QAE_NXZ 10021e70 f   Economic.obj
 0001:00020fb0       ??0Barrack@@QAE@XZ         10021fb0 f   Economic.obj
 0001:00021160       ??_GBarrack@@UAEPAXI@Z     10022160 f i Economic.obj
 0001:00021160       ??_EBarrack@@UAEPAXI@Z     10022160 f i Economic.obj
 0001:000211d0       ??1Barrack@@UAE@XZ         100221d0 f   Economic.obj
 0001:00021330       ?Process@Barrack@@QAEXXZ   10022330 f   Economic.obj
 0001:00021380       ?Produce@Barrack@@QAEXXZ   10022380 f   Economic.obj
 0001:00021450       ?StartProduce@Barrack@@QAE_NXZ 10022450 f   Economic.obj
 0001:00021630       ?ProduceFast@Barrack@@QAE_NPAVThing@@PAUGAMEOBJ@@@Z 10022630 f   Economic.obj
 0001:000217c0       ?FillParams@Barrack@@QAEXPAVUnitDescription@@H@Z 100227c0 f   Economic.obj
 0001:00021860       ?CMLunitsList@Barrack@@QAEXPAD@Z 10022860 f   Economic.obj
 0001:00021970       ?CMLInProduceStack@Barrack@@QAEXPAD@Z 10022970 f   Economic.obj
 0001:00021b20       ?CMLOrderList@Barrack@@QAEXPAD@Z 10022b20 f   Economic.obj
 0001:00021d20       ?CMLobjectInfo@Barrack@@QAEXPAD@Z 10022d20 f   Economic.obj
 0001:00021e70       ?GetFormationsPrice@Barrack@@QAEHHAAH@Z 10022e70 f   Economic.obj
 0001:00022130       ?GetFormationsPriceAndReservRes@Barrack@@QAEHH@Z 10023130 f   Economic.obj
 0001:000223b0       ?FillTradePoints@Barrack@@QAEXPAPAVWarehouse@@H@Z 100233b0 f   Economic.obj
 0001:00022620       ?Compare@Barrack@@SAHPBX0@Z 10023620 f   Economic.obj
 0001:00022810       ?This@Barrack@@QAEPAV1@XZ  10023810 f   Economic.obj
 0001:00022980       ??0Bearer@@QAE@XZ          10023980 f   Economic.obj
 0001:00022a80       ??_GBearer@@UAEPAXI@Z      10023a80 f i Economic.obj
 0001:00022a80       ??_EBearer@@UAEPAXI@Z      10023a80 f i Economic.obj
 0001:00022af0       ??1Bearer@@UAE@XZ          10023af0 f   Economic.obj
 0001:00022b90       ?Load@Bearer@@QAEXPAVBarrack@@@Z 10023b90 f   Economic.obj
 0001:00022ce0       ?UnLoad@Bearer@@QAEXPAVBarrack@@@Z 10023ce0 f   Economic.obj
 0001:00022df0       ?Erase@Bearer@@QAEXXZ      10023df0 f   Economic.obj
 0001:00022e60       ?Create@Bearer@@QAEXHHE@Z  10023e60 f   Economic.obj
 0001:00022f80       ??0Carrier@@QAE@XZ         10023f80 f   Economic.obj
 0001:00023010       ??_GCarrier@@UAEPAXI@Z     10024010 f i Economic.obj
 0001:00023010       ??_ECarrier@@UAEPAXI@Z     10024010 f i Economic.obj
 0001:00023080       ??1Carrier@@UAE@XZ         10024080 f   Economic.obj
 0001:000230e0       ?Process@Carrier@@QAEXXZ   100240e0 f   Economic.obj
 0001:000236f0       ??0NationParams@@QAE@XZ    100246f0 f   Economic.obj
 0001:00023750       ??1NationParams@@QAE@XZ    10024750 f   Economic.obj
 0001:00023780       ?Init@NationParams@@QAEXH@Z 10024780 f   Economic.obj
 0001:00023820       ?MoneyAdd@NationParams@@QAEXH@Z 10024820 f   Economic.obj
 0001:000238a0       ??0InterfaceOBJ@@QAE@XZ    100248a0 f   Economic.obj
 0001:000238e0       ??_GInterfaceOBJ@@UAEPAXI@Z 100248e0 f i Economic.obj
 0001:000238e0       ??_EInterfaceOBJ@@UAEPAXI@Z 100248e0 f i Economic.obj
 0001:00023950       ??1InterfaceOBJ@@UAE@XZ    10024950 f   Economic.obj
 0001:00023990       ?Show@InterfaceOBJ@@UAEXXZ 10024990 f   Economic.obj
 0001:000239c0       ?AddNewIndex@InterfaceOBJ@@SAXHPAV1@@Z 100249c0 f   Economic.obj
 0001:00023ac0       ?Show@InterfaceOBJ@@SA_NG@Z 10024ac0 f   Economic.obj
 0001:00023b90       ??0Troop@@QAE@XZ           10024b90 f   Economic.obj
 0001:00023bf0       ??_ETroop@@UAEPAXI@Z       10024bf0 f i Economic.obj
 0001:00023bf0       ??_GTroop@@UAEPAXI@Z       10024bf0 f i Economic.obj
 0001:00023c60       ??0Troop@@QAE@H@Z          10024c60 f   Economic.obj
 0001:00023d20       ?Move@Troop@@QAEXHH@Z      10024d20 f   Economic.obj
 0001:00023d90       ??1Troop@@UAE@XZ           10024d90 f   Economic.obj
 0001:00023dd0       ??0FormMovement@@QAE@XZ    10024dd0 f   Economic.obj
 0001:00023ea0       ??_EFormMovement@@UAEPAXI@Z 10024ea0 f i Economic.obj
 0001:00023ea0       ??_GFormMovement@@UAEPAXI@Z 10024ea0 f i Economic.obj
 0001:00023f10       ??1FormMovement@@UAE@XZ    10024f10 f   Economic.obj
 0001:00024070       ?ResearchMap@FormMovement@@QAEXXZ 10025070 f   Economic.obj
 0001:000242f0       ?Process@FormMovement@@QAEXXZ 100252f0 f   Economic.obj
 0001:00024500       ?FillImportantPoint@FormMovement@@QAEXXZ 10025500 f   Economic.obj
 0001:000247b0       ?GetDist@FormMovement@@QAEHPAVTroop@@0@Z 100257b0 f   Economic.obj
 0001:00024870       ?GetDist@FormMovement@@QAEHPAVTroop@@PAUImportantPoint@@@Z 10025870 f   Economic.obj
 0001:00024910       ?GetDangerCoord@FormMovement@@QAEXPAVTroop@@AAH1@Z 10025910 f   Economic.obj
 0001:00024a60       ?GetDangFor@FormMovement@@AAEHPAVTroop@@HH@Z 10025a60 f   Economic.obj
 0001:00024bd0       ?AddEnerPoint@FormMovement@@QAEXAAY1EA@EA@HHHH@Z 10025bd0 f   Economic.obj
 0001:00024d40       ??0?$vector@UResource@@V?$allocator@UResource@@@std@@@std@@QAE@ABV?$allocator@UResource@@@1@@Z 10025d40 f i Economic.obj
 0001:00024db0       ??1?$vector@UResource@@V?$allocator@UResource@@@std@@@std@@QAE@XZ 10025db0 f i Economic.obj
 0001:00024e60       ?begin@?$vector@UResource@@V?$allocator@UResource@@@std@@@std@@QAEPAUResource@@XZ 10025e60 f i Economic.obj
 0001:00024ea0       ?end@?$vector@UResource@@V?$allocator@UResource@@@std@@@std@@QAEPAUResource@@XZ 10025ea0 f i Economic.obj
 0001:00024ee0       ?size@?$vector@UResource@@V?$allocator@UResource@@@std@@@std@@QBEIXZ 10025ee0 f i Economic.obj
 0001:00024f50       ??A?$vector@UResource@@V?$allocator@UResource@@@std@@@std@@QAEAAUResource@@I@Z 10025f50 f i Economic.obj
 0001:00024fa0       ?push_back@?$vector@UResource@@V?$allocator@UResource@@@std@@@std@@QAEXABUResource@@@Z 10025fa0 f i Economic.obj
 0001:00025000       ??0?$vector@HV?$allocator@H@std@@@std@@QAE@ABV?$allocator@H@1@@Z 10026000 f i Economic.obj
 0001:00025070       ??0?$vector@HV?$allocator@H@std@@@std@@QAE@ABV01@@Z 10026070 f i Economic.obj
 0001:00025120       ??1?$vector@HV?$allocator@H@std@@@std@@QAE@XZ 10026120 f i Economic.obj
 0001:000251d0       ?reserve@?$vector@HV?$allocator@H@std@@@std@@QAEXI@Z 100261d0 f i Economic.obj
 0001:000252d0       ?begin@?$vector@HV?$allocator@H@std@@@std@@QAEPAHXZ 100262d0 f i Economic.obj
 0001:00025310       ?size@?$vector@HV?$allocator@H@std@@@std@@QBEIXZ 10026310 f i Economic.obj
 0001:00025370       ??A?$vector@HV?$allocator@H@std@@@std@@QAEAAHI@Z 10026370 f i Economic.obj
 0001:000253c0       ?push_back@?$vector@HV?$allocator@H@std@@@std@@QAEXABH@Z 100263c0 f i Economic.obj
 0001:00025420       ??0?$vector@UNamedResourceList@@V?$allocator@UNamedResourceList@@@std@@@std@@QAE@ABV?$allocator@UNamedResourceList@@@1@@Z 10026420 f i Economic.obj
 0001:00025490       ??1?$vector@UNamedResourceList@@V?$allocator@UNamedResourceList@@@std@@@std@@QAE@XZ 10026490 f i Economic.obj
 0001:00025540       ?size@?$vector@UNamedResourceList@@V?$allocator@UNamedResourceList@@@std@@@std@@QBEIXZ 10026540 f i Economic.obj
 0001:000255b0       ??A?$vector@UNamedResourceList@@V?$allocator@UNamedResourceList@@@std@@@std@@QAEAAUNamedResourceList@@I@Z 100265b0 f i Economic.obj
 0001:00025600       ?push_back@?$vector@UNamedResourceList@@V?$allocator@UNamedResourceList@@@std@@@std@@QAEXABUNamedResourceList@@@Z 10026600 f i Economic.obj
 0001:00025660       ??0?$vector@UCan_produse@@V?$allocator@UCan_produse@@@std@@@std@@QAE@ABV?$allocator@UCan_produse@@@1@@Z 10026660 f i Economic.obj
 0001:000256d0       ??1?$vector@UCan_produse@@V?$allocator@UCan_produse@@@std@@@std@@QAE@XZ 100266d0 f i Economic.obj
 0001:00025780       ?size@?$vector@UCan_produse@@V?$allocator@UCan_produse@@@std@@@std@@QBEIXZ 10026780 f i Economic.obj
 0001:000257f0       ??A?$vector@UCan_produse@@V?$allocator@UCan_produse@@@std@@@std@@QAEAAUCan_produse@@I@Z 100267f0 f i Economic.obj
 0001:00025840       ?push_back@?$vector@UCan_produse@@V?$allocator@UCan_produse@@@std@@@std@@QAEXABUCan_produse@@@Z 10026840 f i Economic.obj
 0001:000258a0       ??0?$vector@VThing@@V?$allocator@VThing@@@std@@@std@@QAE@ABV?$allocator@VThing@@@1@@Z 100268a0 f i Economic.obj
 0001:00025910       ??1?$vector@VThing@@V?$allocator@VThing@@@std@@@std@@QAE@XZ 10026910 f i Economic.obj
 0001:000259c0       ?size@?$vector@VThing@@V?$allocator@VThing@@@std@@@std@@QBEIXZ 100269c0 f i Economic.obj
 0001:00025a30       ??A?$vector@VThing@@V?$allocator@VThing@@@std@@@std@@QAEAAVThing@@I@Z 10026a30 f i Economic.obj
 0001:00025a80       ?push_back@?$vector@VThing@@V?$allocator@VThing@@@std@@@std@@QAEXABVThing@@@Z 10026a80 f i Economic.obj
 0001:00025ae0       ??0?$list@HV?$allocator@H@std@@@std@@QAE@ABV?$allocator@H@1@@Z 10026ae0 f i Economic.obj
 0001:00025b50       ??1?$list@HV?$allocator@H@std@@@std@@QAE@XZ 10026b50 f i Economic.obj
 0001:00025bf0       ?begin@?$list@HV?$allocator@H@std@@@std@@QAE?AViterator@12@XZ 10026bf0 f i Economic.obj
 0001:00025c60       ?end@?$list@HV?$allocator@H@std@@@std@@QAE?AViterator@12@XZ 10026c60 f i Economic.obj
 0001:00025cc0       ?size@?$list@HV?$allocator@H@std@@@std@@QBEIXZ 10026cc0 f i Economic.obj
 0001:00025d00       ?front@?$list@HV?$allocator@H@std@@@std@@QAEAAHXZ 10026d00 f i Economic.obj
 0001:00025d60       ?pop_front@?$list@HV?$allocator@H@std@@@std@@QAEXXZ 10026d60 f i Economic.obj
 0001:00025dc0       ?push_back@?$list@HV?$allocator@H@std@@@std@@QAEXABH@Z 10026dc0 f i Economic.obj
 0001:00025e30       ?clear@?$list@HV?$allocator@H@std@@@std@@QAEXXZ 10026e30 f i Economic.obj
 0001:00025ea0       ??0iterator@?$list@HV?$allocator@H@std@@@std@@QAE@XZ 10026ea0 f i Economic.obj
 0001:00025ef0       ??Diterator@?$list@HV?$allocator@H@std@@@std@@QBEAAHXZ 10026ef0 f i Economic.obj
 0001:00025f40       ??Eiterator@?$list@HV?$allocator@H@std@@@std@@QAEAAV012@XZ 10026f40 f i Economic.obj
 0001:00025fa0       ??Eiterator@?$list@HV?$allocator@H@std@@@std@@QAE?AV012@H@Z 10026fa0 f i Economic.obj
 0001:00026000       ??9iterator@?$list@HV?$allocator@H@std@@@std@@QBE_NABV012@@Z 10027000 f i Economic.obj
 0001:00026060       ??0?$vector@VFormation@@V?$allocator@VFormation@@@std@@@std@@QAE@ABV?$allocator@VFormation@@@1@@Z 10027060 f i Economic.obj
 0001:000260d0       ??1?$vector@VFormation@@V?$allocator@VFormation@@@std@@@std@@QAE@XZ 100270d0 f i Economic.obj
 0001:00026180       ?size@?$vector@VFormation@@V?$allocator@VFormation@@@std@@@std@@QBEIXZ 10027180 f i Economic.obj
 0001:000261f0       ??A?$vector@VFormation@@V?$allocator@VFormation@@@std@@@std@@QAEAAVFormation@@I@Z 100271f0 f i Economic.obj
 0001:00026240       ?push_back@?$vector@VFormation@@V?$allocator@VFormation@@@std@@@std@@QAEXABVFormation@@@Z 10027240 f i Economic.obj
 0001:000262a0       ??0?$vector@PAVBearer@@V?$allocator@PAVBearer@@@std@@@std@@QAE@ABV?$allocator@PAVBearer@@@1@@Z 100272a0 f i Economic.obj
 0001:00026310       ??1?$vector@PAVBearer@@V?$allocator@PAVBearer@@@std@@@std@@QAE@XZ 10027310 f i Economic.obj
 0001:000263c0       ?size@?$vector@PAVBearer@@V?$allocator@PAVBearer@@@std@@@std@@QBEIXZ 100273c0 f i Economic.obj
 0001:00026420       ??A?$vector@PAVBearer@@V?$allocator@PAVBearer@@@std@@@std@@QAEAAPAVBearer@@I@Z 10027420 f i Economic.obj
 0001:00026470       ?push_back@?$vector@PAVBearer@@V?$allocator@PAVBearer@@@std@@@std@@QAEXABQAVBearer@@@Z 10027470 f i Economic.obj
 0001:000264d0       ??0?$list@PAVVillage@@V?$allocator@PAVVillage@@@std@@@std@@QAE@ABV?$allocator@PAVVillage@@@1@@Z 100274d0 f i Economic.obj
 0001:00026540       ??1?$list@PAVVillage@@V?$allocator@PAVVillage@@@std@@@std@@QAE@XZ 10027540 f i Economic.obj
 0001:000265e0       ?begin@?$list@PAVVillage@@V?$allocator@PAVVillage@@@std@@@std@@QAE?AViterator@12@XZ 100275e0 f i Economic.obj
 0001:00026650       ?end@?$list@PAVVillage@@V?$allocator@PAVVillage@@@std@@@std@@QAE?AViterator@12@XZ 10027650 f i Economic.obj
 0001:000266b0       ?size@?$list@PAVVillage@@V?$allocator@PAVVillage@@@std@@@std@@QBEIXZ 100276b0 f i Economic.obj
 0001:000266f0       ?push_back@?$list@PAVVillage@@V?$allocator@PAVVillage@@@std@@@std@@QAEXABQAVVillage@@@Z 100276f0 f i Economic.obj
 0001:00026760       ??0iterator@?$list@PAVVillage@@V?$allocator@PAVVillage@@@std@@@std@@QAE@XZ 10027760 f i Economic.obj
 0001:000267b0       ??Diterator@?$list@PAVVillage@@V?$allocator@PAVVillage@@@std@@@std@@QBEAAPAVVillage@@XZ 100277b0 f i Economic.obj
 0001:00026800       ??Eiterator@?$list@PAVVillage@@V?$allocator@PAVVillage@@@std@@@std@@QAEAAV012@XZ 10027800 f i Economic.obj
 0001:00026860       ??9iterator@?$list@PAVVillage@@V?$allocator@PAVVillage@@@std@@@std@@QBE_NABV012@@Z 10027860 f i Economic.obj
 0001:000268c0       ??0?$list@PAVTransport@@V?$allocator@PAVTransport@@@std@@@std@@QAE@ABV?$allocator@PAVTransport@@@1@@Z 100278c0 f i Economic.obj
 0001:00026930       ??1?$list@PAVTransport@@V?$allocator@PAVTransport@@@std@@@std@@QAE@XZ 10027930 f i Economic.obj
 0001:000269d0       ?begin@?$list@PAVTransport@@V?$allocator@PAVTransport@@@std@@@std@@QAE?AViterator@12@XZ 100279d0 f i Economic.obj
 0001:00026a40       ?end@?$list@PAVTransport@@V?$allocator@PAVTransport@@@std@@@std@@QAE?AViterator@12@XZ 10027a40 f i Economic.obj
 0001:00026aa0       ?size@?$list@PAVTransport@@V?$allocator@PAVTransport@@@std@@@std@@QBEIXZ 10027aa0 f i Economic.obj
 0001:00026ae0       ?push_back@?$list@PAVTransport@@V?$allocator@PAVTransport@@@std@@@std@@QAEXABQAVTransport@@@Z 10027ae0 f i Economic.obj
 0001:00026b50       ??0iterator@?$list@PAVTransport@@V?$allocator@PAVTransport@@@std@@@std@@QAE@XZ 10027b50 f i Economic.obj
 0001:00026ba0       ??Diterator@?$list@PAVTransport@@V?$allocator@PAVTransport@@@std@@@std@@QBEAAPAVTransport@@XZ 10027ba0 f i Economic.obj
 0001:00026bf0       ??Eiterator@?$list@PAVTransport@@V?$allocator@PAVTransport@@@std@@@std@@QAEAAV012@XZ 10027bf0 f i Economic.obj
 0001:00026c50       ??9iterator@?$list@PAVTransport@@V?$allocator@PAVTransport@@@std@@@std@@QBE_NABV012@@Z 10027c50 f i Economic.obj
 0001:00026cb0       ??0?$list@PAVWarehouse@@V?$allocator@PAVWarehouse@@@std@@@std@@QAE@ABV?$allocator@PAVWarehouse@@@1@@Z 10027cb0 f i Economic.obj
 0001:00026d20       ??1?$list@PAVWarehouse@@V?$allocator@PAVWarehouse@@@std@@@std@@QAE@XZ 10027d20 f i Economic.obj
 0001:00026dc0       ?begin@?$list@PAVWarehouse@@V?$allocator@PAVWarehouse@@@std@@@std@@QAE?AViterator@12@XZ 10027dc0 f i Economic.obj
 0001:00026e30       ?end@?$list@PAVWarehouse@@V?$allocator@PAVWarehouse@@@std@@@std@@QAE?AViterator@12@XZ 10027e30 f i Economic.obj
 0001:00026e90       ?size@?$list@PAVWarehouse@@V?$allocator@PAVWarehouse@@@std@@@std@@QBEIXZ 10027e90 f i Economic.obj
 0001:00026ed0       ?push_back@?$list@PAVWarehouse@@V?$allocator@PAVWarehouse@@@std@@@std@@QAEXABQAVWarehouse@@@Z 10027ed0 f i Economic.obj
 0001:00026f40       ??0iterator@?$list@PAVWarehouse@@V?$allocator@PAVWarehouse@@@std@@@std@@QAE@XZ 10027f40 f i Economic.obj
 0001:00026f90       ??Diterator@?$list@PAVWarehouse@@V?$allocator@PAVWarehouse@@@std@@@std@@QBEAAPAVWarehouse@@XZ 10027f90 f i Economic.obj
 0001:00026fe0       ??Eiterator@?$list@PAVWarehouse@@V?$allocator@PAVWarehouse@@@std@@@std@@QAEAAV012@XZ 10027fe0 f i Economic.obj
 0001:00027040       ??9iterator@?$list@PAVWarehouse@@V?$allocator@PAVWarehouse@@@std@@@std@@QBE_NABV012@@Z 10028040 f i Economic.obj
 0001:000270a0       ??0?$list@PAVTaxCollector@@V?$allocator@PAVTaxCollector@@@std@@@std@@QAE@ABV?$allocator@PAVTaxCollector@@@1@@Z 100280a0 f i Economic.obj
 0001:00027110       ??1?$list@PAVTaxCollector@@V?$allocator@PAVTaxCollector@@@std@@@std@@QAE@XZ 10028110 f i Economic.obj
 0001:000271b0       ?begin@?$list@PAVTaxCollector@@V?$allocator@PAVTaxCollector@@@std@@@std@@QAE?AViterator@12@XZ 100281b0 f i Economic.obj
 0001:00027220       ?end@?$list@PAVTaxCollector@@V?$allocator@PAVTaxCollector@@@std@@@std@@QAE?AViterator@12@XZ 10028220 f i Economic.obj
 0001:00027280       ?push_back@?$list@PAVTaxCollector@@V?$allocator@PAVTaxCollector@@@std@@@std@@QAEXABQAVTaxCollector@@@Z 10028280 f i Economic.obj
 0001:000272f0       ??0iterator@?$list@PAVTaxCollector@@V?$allocator@PAVTaxCollector@@@std@@@std@@QAE@XZ 100282f0 f i Economic.obj
 0001:00027340       ??Diterator@?$list@PAVTaxCollector@@V?$allocator@PAVTaxCollector@@@std@@@std@@QBEAAPAVTaxCollector@@XZ 10028340 f i Economic.obj
 0001:00027390       ??Eiterator@?$list@PAVTaxCollector@@V?$allocator@PAVTaxCollector@@@std@@@std@@QAEAAV012@XZ 10028390 f i Economic.obj
 0001:000273f0       ??9iterator@?$list@PAVTaxCollector@@V?$allocator@PAVTaxCollector@@@std@@@std@@QBE_NABV012@@Z 100283f0 f i Economic.obj
 0001:00027450       ??0?$list@PAVManufacture@@V?$allocator@PAVManufacture@@@std@@@std@@QAE@ABV?$allocator@PAVManufacture@@@1@@Z 10028450 f i Economic.obj
 0001:000274c0       ??1?$list@PAVManufacture@@V?$allocator@PAVManufacture@@@std@@@std@@QAE@XZ 100284c0 f i Economic.obj
 0001:00027560       ?begin@?$list@PAVManufacture@@V?$allocator@PAVManufacture@@@std@@@std@@QAE?AViterator@12@XZ 10028560 f i Economic.obj
 0001:000275d0       ?end@?$list@PAVManufacture@@V?$allocator@PAVManufacture@@@std@@@std@@QAE?AViterator@12@XZ 100285d0 f i Economic.obj
 0001:00027630       ?size@?$list@PAVManufacture@@V?$allocator@PAVManufacture@@@std@@@std@@QBEIXZ 10028630 f i Economic.obj
 0001:00027670       ?push_back@?$list@PAVManufacture@@V?$allocator@PAVManufacture@@@std@@@std@@QAEXABQAVManufacture@@@Z 10028670 f i Economic.obj
 0001:000276e0       ??0iterator@?$list@PAVManufacture@@V?$allocator@PAVManufacture@@@std@@@std@@QAE@XZ 100286e0 f i Economic.obj
 0001:00027730       ??Diterator@?$list@PAVManufacture@@V?$allocator@PAVManufacture@@@std@@@std@@QBEAAPAVManufacture@@XZ 10028730 f i Economic.obj
 0001:00027780       ??Eiterator@?$list@PAVManufacture@@V?$allocator@PAVManufacture@@@std@@@std@@QAEAAV012@XZ 10028780 f i Economic.obj
 0001:000277e0       ??Eiterator@?$list@PAVManufacture@@V?$allocator@PAVManufacture@@@std@@@std@@QAE?AV012@H@Z 100287e0 f i Economic.obj
 0001:00027840       ??9iterator@?$list@PAVManufacture@@V?$allocator@PAVManufacture@@@std@@@std@@QBE_NABV012@@Z 10028840 f i Economic.obj
 0001:000278a0       ??0?$list@PAVMarket@@V?$allocator@PAVMarket@@@std@@@std@@QAE@ABV?$allocator@PAVMarket@@@1@@Z 100288a0 f i Economic.obj
 0001:00027910       ??1?$list@PAVMarket@@V?$allocator@PAVMarket@@@std@@@std@@QAE@XZ 10028910 f i Economic.obj
 0001:000279b0       ?begin@?$list@PAVMarket@@V?$allocator@PAVMarket@@@std@@@std@@QAE?AViterator@12@XZ 100289b0 f i Economic.obj
 0001:00027a20       ?end@?$list@PAVMarket@@V?$allocator@PAVMarket@@@std@@@std@@QAE?AViterator@12@XZ 10028a20 f i Economic.obj
 0001:00027a80       ?size@?$list@PAVMarket@@V?$allocator@PAVMarket@@@std@@@std@@QBEIXZ 10028a80 f i Economic.obj
 0001:00027ac0       ?push_back@?$list@PAVMarket@@V?$allocator@PAVMarket@@@std@@@std@@QAEXABQAVMarket@@@Z 10028ac0 f i Economic.obj
 0001:00027b30       ??0iterator@?$list@PAVMarket@@V?$allocator@PAVMarket@@@std@@@std@@QAE@XZ 10028b30 f i Economic.obj
 0001:00027b80       ??Diterator@?$list@PAVMarket@@V?$allocator@PAVMarket@@@std@@@std@@QBEAAPAVMarket@@XZ 10028b80 f i Economic.obj
 0001:00027bd0       ??Eiterator@?$list@PAVMarket@@V?$allocator@PAVMarket@@@std@@@std@@QAEAAV012@XZ 10028bd0 f i Economic.obj
 0001:00027c30       ??9iterator@?$list@PAVMarket@@V?$allocator@PAVMarket@@@std@@@std@@QBE_NABV012@@Z 10028c30 f i Economic.obj
 0001:00027c90       ??0?$list@VPeasant@@V?$allocator@VPeasant@@@std@@@std@@QAE@ABV?$allocator@VPeasant@@@1@@Z 10028c90 f i Economic.obj
 0001:00027d00       ??1?$list@VPeasant@@V?$allocator@VPeasant@@@std@@@std@@QAE@XZ 10028d00 f i Economic.obj
 0001:00027da0       ?begin@?$list@VPeasant@@V?$allocator@VPeasant@@@std@@@std@@QAE?AViterator@12@XZ 10028da0 f i Economic.obj
 0001:00027e10       ?size@?$list@VPeasant@@V?$allocator@VPeasant@@@std@@@std@@QBEIXZ 10028e10 f i Economic.obj
 0001:00027e50       ?pop_front@?$list@VPeasant@@V?$allocator@VPeasant@@@std@@@std@@QAEXXZ 10028e50 f i Economic.obj
 0001:00027eb0       ?push_back@?$list@VPeasant@@V?$allocator@VPeasant@@@std@@@std@@QAEXABVPeasant@@@Z 10028eb0 f i Economic.obj
 0001:00027f20       ??Citerator@?$list@VPeasant@@V?$allocator@VPeasant@@@std@@@std@@QBEPAVPeasant@@XZ 10028f20 f i Economic.obj
 0001:00027f70       ??0?$list@PAVBarrack@@V?$allocator@PAVBarrack@@@std@@@std@@QAE@ABV?$allocator@PAVBarrack@@@1@@Z 10028f70 f i Economic.obj
 0001:00027fe0       ??1?$list@PAVBarrack@@V?$allocator@PAVBarrack@@@std@@@std@@QAE@XZ 10028fe0 f i Economic.obj
 0001:00028080       ?begin@?$list@PAVBarrack@@V?$allocator@PAVBarrack@@@std@@@std@@QAE?AViterator@12@XZ 10029080 f i Economic.obj
 0001:000280f0       ?end@?$list@PAVBarrack@@V?$allocator@PAVBarrack@@@std@@@std@@QAE?AViterator@12@XZ 100290f0 f i Economic.obj
 0001:00028150       ?size@?$list@PAVBarrack@@V?$allocator@PAVBarrack@@@std@@@std@@QBEIXZ 10029150 f i Economic.obj
 0001:00028190       ?push_back@?$list@PAVBarrack@@V?$allocator@PAVBarrack@@@std@@@std@@QAEXABQAVBarrack@@@Z 10029190 f i Economic.obj
 0001:00028200       ??0iterator@?$list@PAVBarrack@@V?$allocator@PAVBarrack@@@std@@@std@@QAE@XZ 10029200 f i Economic.obj
 0001:00028250       ??Diterator@?$list@PAVBarrack@@V?$allocator@PAVBarrack@@@std@@@std@@QBEAAPAVBarrack@@XZ 10029250 f i Economic.obj
 0001:000282a0       ??Eiterator@?$list@PAVBarrack@@V?$allocator@PAVBarrack@@@std@@@std@@QAEAAV012@XZ 100292a0 f i Economic.obj
 0001:00028300       ??Eiterator@?$list@PAVBarrack@@V?$allocator@PAVBarrack@@@std@@@std@@QAE?AV012@H@Z 10029300 f i Economic.obj
 0001:00028360       ??9iterator@?$list@PAVBarrack@@V?$allocator@PAVBarrack@@@std@@@std@@QBE_NABV012@@Z 10029360 f i Economic.obj
 0001:000283c0       ??0?$list@PAVCarrier@@V?$allocator@PAVCarrier@@@std@@@std@@QAE@ABV?$allocator@PAVCarrier@@@1@@Z 100293c0 f i Economic.obj
 0001:00028430       ??1?$list@PAVCarrier@@V?$allocator@PAVCarrier@@@std@@@std@@QAE@XZ 10029430 f i Economic.obj
 0001:000284d0       ?begin@?$list@PAVCarrier@@V?$allocator@PAVCarrier@@@std@@@std@@QAE?AViterator@12@XZ 100294d0 f i Economic.obj
 0001:00028540       ?end@?$list@PAVCarrier@@V?$allocator@PAVCarrier@@@std@@@std@@QAE?AViterator@12@XZ 10029540 f i Economic.obj
 0001:000285a0       ?push_back@?$list@PAVCarrier@@V?$allocator@PAVCarrier@@@std@@@std@@QAEXABQAVCarrier@@@Z 100295a0 f i Economic.obj
 0001:00028610       ??0iterator@?$list@PAVCarrier@@V?$allocator@PAVCarrier@@@std@@@std@@QAE@XZ 10029610 f i Economic.obj
 0001:00028660       ??Diterator@?$list@PAVCarrier@@V?$allocator@PAVCarrier@@@std@@@std@@QBEAAPAVCarrier@@XZ 10029660 f i Economic.obj
 0001:000286b0       ??Eiterator@?$list@PAVCarrier@@V?$allocator@PAVCarrier@@@std@@@std@@QAEAAV012@XZ 100296b0 f i Economic.obj
 0001:00028710       ??9iterator@?$list@PAVCarrier@@V?$allocator@PAVCarrier@@@std@@@std@@QBE_NABV012@@Z 10029710 f i Economic.obj
 0001:00028770       ??0?$vector@VUnitDescription@@V?$allocator@VUnitDescription@@@std@@@std@@QAE@ABV?$allocator@VUnitDescription@@@1@@Z 10029770 f i Economic.obj
 0001:000287e0       ??1?$vector@VUnitDescription@@V?$allocator@VUnitDescription@@@std@@@std@@QAE@XZ 100297e0 f i Economic.obj
 0001:00028890       ?begin@?$vector@VUnitDescription@@V?$allocator@VUnitDescription@@@std@@@std@@QAEPAVUnitDescription@@XZ 10029890 f i Economic.obj
 0001:000288d0       ?end@?$vector@VUnitDescription@@V?$allocator@VUnitDescription@@@std@@@std@@QAEPAVUnitDescription@@XZ 100298d0 f i Economic.obj
 0001:00028910       ?push_back@?$vector@VUnitDescription@@V?$allocator@VUnitDescription@@@std@@@std@@QAEXABVUnitDescription@@@Z 10029910 f i Economic.obj
 0001:00028970       ??0iterator@?$list@VTransport@@V?$allocator@VTransport@@@std@@@std@@QAE@XZ 10029970 f i Economic.obj
 0001:000289c0       ?insert@?$vector@UResource@@V?$allocator@UResource@@@std@@@std@@QAEPAUResource@@PAU3@ABU3@@Z 100299c0 f i Economic.obj
 0001:00028a50       ?_Destroy@?$vector@UResource@@V?$allocator@UResource@@@std@@@std@@IAEXPAUResource@@0@Z 10029a50 f i Economic.obj
 0001:00028ac0       ?deallocate@?$allocator@UResource@@@std@@QAEXPAXI@Z 10029ac0 f i Economic.obj
 0001:00028b10       ?capacity@?$vector@HV?$allocator@H@std@@@std@@QBEIXZ 10029b10 f i Economic.obj
 0001:00028b70       ?begin@?$vector@HV?$allocator@H@std@@@std@@QBEPBHXZ 10029b70 f i Economic.obj
 0001:00028bb0       ?end@?$vector@HV?$allocator@H@std@@@std@@QAEPAHXZ 10029bb0 f i Economic.obj
 0001:00028bf0       ?end@?$vector@HV?$allocator@H@std@@@std@@QBEPBHXZ 10029bf0 f i Economic.obj
 0001:00028c30       ?insert@?$vector@HV?$allocator@H@std@@@std@@QAEPAHPAHABH@Z 10029c30 f i Economic.obj
 0001:00028cb0       ?_Destroy@?$vector@HV?$allocator@H@std@@@std@@IAEXPAH0@Z 10029cb0 f i Economic.obj
 0001:00028d20       ?_Ucopy@?$vector@HV?$allocator@H@std@@@std@@IAEPAHPBH0PAH@Z 10029d20 f i Economic.obj
 0001:00028da0       ?allocate@?$allocator@H@std@@QAEPAHIPBX@Z 10029da0 f i Economic.obj
 0001:00028df0       ?deallocate@?$allocator@H@std@@QAEXPAXI@Z 10029df0 f i Economic.obj
 0001:00028e40       ?begin@?$vector@UNamedResourceList@@V?$allocator@UNamedResourceList@@@std@@@std@@QAEPAUNamedResourceList@@XZ 10029e40 f i Economic.obj
 0001:00028e80       ?end@?$vector@UNamedResourceList@@V?$allocator@UNamedResourceList@@@std@@@std@@QAEPAUNamedResourceList@@XZ 10029e80 f i Economic.obj
 0001:00028ec0       ?insert@?$vector@UNamedResourceList@@V?$allocator@UNamedResourceList@@@std@@@std@@QAEPAUNamedResourceList@@PAU3@ABU3@@Z 10029ec0 f i Economic.obj
 0001:00028f50       ?_Destroy@?$vector@UNamedResourceList@@V?$allocator@UNamedResourceList@@@std@@@std@@IAEXPAUNamedResourceList@@0@Z 10029f50 f i Economic.obj
 0001:00028fc0       ?deallocate@?$allocator@UNamedResourceList@@@std@@QAEXPAXI@Z 10029fc0 f i Economic.obj
 0001:00029010       ?begin@?$vector@UCan_produse@@V?$allocator@UCan_produse@@@std@@@std@@QAEPAUCan_produse@@XZ 1002a010 f i Economic.obj
 0001:00029050       ?end@?$vector@UCan_produse@@V?$allocator@UCan_produse@@@std@@@std@@QAEPAUCan_produse@@XZ 1002a050 f i Economic.obj
 0001:00029090       ?insert@?$vector@UCan_produse@@V?$allocator@UCan_produse@@@std@@@std@@QAEPAUCan_produse@@PAU3@ABU3@@Z 1002a090 f i Economic.obj
 0001:00029120       ?_Destroy@?$vector@UCan_produse@@V?$allocator@UCan_produse@@@std@@@std@@IAEXPAUCan_produse@@0@Z 1002a120 f i Economic.obj
 0001:00029190       ?deallocate@?$allocator@UCan_produse@@@std@@QAEXPAXI@Z 1002a190 f i Economic.obj
 0001:000291e0       ?begin@?$vector@VThing@@V?$allocator@VThing@@@std@@@std@@QAEPAVThing@@XZ 1002a1e0 f i Economic.obj
 0001:00029220       ?end@?$vector@VThing@@V?$allocator@VThing@@@std@@@std@@QAEPAVThing@@XZ 1002a220 f i Economic.obj
 0001:00029260       ?insert@?$vector@VThing@@V?$allocator@VThing@@@std@@@std@@QAEPAVThing@@PAV3@ABV3@@Z 1002a260 f i Economic.obj
 0001:000292f0       ?_Destroy@?$vector@VThing@@V?$allocator@VThing@@@std@@@std@@IAEXPAVThing@@0@Z 1002a2f0 f i Economic.obj
 0001:00029360       ?deallocate@?$allocator@VThing@@@std@@QAEXPAXI@Z 1002a360 f i Economic.obj
 0001:000293b0       ?insert@?$list@HV?$allocator@H@std@@@std@@QAE?AViterator@12@V312@ABH@Z 1002a3b0 f i Economic.obj
 0001:000294c0       ?erase@?$list@HV?$allocator@H@std@@@std@@QAE?AViterator@12@V312@@Z 1002a4c0 f i Economic.obj
 0001:000295d0       ?erase@?$list@HV?$allocator@H@std@@@std@@QAE?AViterator@12@V312@0@Z 1002a5d0 f i Economic.obj
 0001:00029660       ?_Buynode@?$list@HV?$allocator@H@std@@@std@@IAEPAU_Node@12@PAU312@0@Z 1002a660 f i Economic.obj
 0001:00029710       ?_Freenode@?$list@HV?$allocator@H@std@@@std@@IAEXPAU_Node@12@@Z 1002a710 f i Economic.obj
 0001:00029760       ?_Next@_Acc@?$list@HV?$allocator@H@std@@@std@@SAAAPAU_Node@23@PAU423@@Z 1002a760 f i Economic.obj
 0001:00029790       ?_Value@_Acc@?$list@HV?$allocator@H@std@@@std@@SAAAHPAU_Node@23@@Z 1002a790 f i Economic.obj
 0001:000297c0       ??0const_iterator@?$list@HV?$allocator@H@std@@@std@@QAE@XZ 1002a7c0 f i Economic.obj
 0001:000297f0       ??0iterator@?$list@HV?$allocator@H@std@@@std@@QAE@PAU_Node@12@@Z 1002a7f0 f i Economic.obj
 0001:00029840       ??8iterator@?$list@HV?$allocator@H@std@@@std@@QBE_NABV012@@Z 1002a840 f i Economic.obj
 0001:00029890       ?begin@?$vector@VFormation@@V?$allocator@VFormation@@@std@@@std@@QAEPAVFormation@@XZ 1002a890 f i Economic.obj
 0001:000298d0       ?end@?$vector@VFormation@@V?$allocator@VFormation@@@std@@@std@@QAEPAVFormation@@XZ 1002a8d0 f i Economic.obj
 0001:00029910       ?insert@?$vector@VFormation@@V?$allocator@VFormation@@@std@@@std@@QAEPAVFormation@@PAV3@ABV3@@Z 1002a910 f i Economic.obj
 0001:000299a0       ?_Destroy@?$vector@VFormation@@V?$allocator@VFormation@@@std@@@std@@IAEXPAVFormation@@0@Z 1002a9a0 f i Economic.obj
 0001:00029a10       ?deallocate@?$allocator@VFormation@@@std@@QAEXPAXI@Z 1002aa10 f i Economic.obj
 0001:00029a60       ?begin@?$vector@PAVBearer@@V?$allocator@PAVBearer@@@std@@@std@@QAEPAPAVBearer@@XZ 1002aa60 f i Economic.obj
 0001:00029aa0       ?end@?$vector@PAVBearer@@V?$allocator@PAVBearer@@@std@@@std@@QAEPAPAVBearer@@XZ 1002aaa0 f i Economic.obj
 0001:00029ae0       ?insert@?$vector@PAVBearer@@V?$allocator@PAVBearer@@@std@@@std@@QAEPAPAVBearer@@PAPAV3@ABQAV3@@Z 1002aae0 f i Economic.obj
 0001:00029b60       ?_Destroy@?$vector@PAVBearer@@V?$allocator@PAVBearer@@@std@@@std@@IAEXPAPAVBearer@@0@Z 1002ab60 f i Economic.obj
 0001:00029bd0       ?deallocate@?$allocator@PAVBearer@@@std@@QAEXPAXI@Z 1002abd0 f i Economic.obj
 0001:00029c20       ?insert@?$list@PAVVillage@@V?$allocator@PAVVillage@@@std@@@std@@QAE?AViterator@12@V312@ABQAVVillage@@@Z 1002ac20 f i Economic.obj
 0001:00029d30       ?erase@?$list@PAVVillage@@V?$allocator@PAVVillage@@@std@@@std@@QAE?AViterator@12@V312@0@Z 1002ad30 f i Economic.obj
 0001:00029dc0       ?_Buynode@?$list@PAVVillage@@V?$allocator@PAVVillage@@@std@@@std@@IAEPAU_Node@12@PAU312@0@Z 1002adc0 f i Economic.obj
 0001:00029e70       ?_Freenode@?$list@PAVVillage@@V?$allocator@PAVVillage@@@std@@@std@@IAEXPAU_Node@12@@Z 1002ae70 f i Economic.obj
 0001:00029ec0       ?_Next@_Acc@?$list@PAVVillage@@V?$allocator@PAVVillage@@@std@@@std@@SAAAPAU_Node@23@PAU423@@Z 1002aec0 f i Economic.obj
 0001:00029ef0       ?_Value@_Acc@?$list@PAVVillage@@V?$allocator@PAVVillage@@@std@@@std@@SAAAPAVVillage@@PAU_Node@23@@Z 1002aef0 f i Economic.obj
 0001:00029f20       ??0const_iterator@?$list@PAVVillage@@V?$allocator@PAVVillage@@@std@@@std@@QAE@XZ 1002af20 f i Economic.obj
 0001:00029f50       ??0iterator@?$list@PAVVillage@@V?$allocator@PAVVillage@@@std@@@std@@QAE@PAU_Node@12@@Z 1002af50 f i Economic.obj
 0001:00029fa0       ??8iterator@?$list@PAVVillage@@V?$allocator@PAVVillage@@@std@@@std@@QBE_NABV012@@Z 1002afa0 f i Economic.obj
 0001:00029ff0       ?insert@?$list@PAVTransport@@V?$allocator@PAVTransport@@@std@@@std@@QAE?AViterator@12@V312@ABQAVTransport@@@Z 1002aff0 f i Economic.obj
 0001:0002a100       ?erase@?$list@PAVTransport@@V?$allocator@PAVTransport@@@std@@@std@@QAE?AViterator@12@V312@0@Z 1002b100 f i Economic.obj
 0001:0002a190       ?_Buynode@?$list@PAVTransport@@V?$allocator@PAVTransport@@@std@@@std@@IAEPAU_Node@12@PAU312@0@Z 1002b190 f i Economic.obj
 0001:0002a240       ?_Freenode@?$list@PAVTransport@@V?$allocator@PAVTransport@@@std@@@std@@IAEXPAU_Node@12@@Z 1002b240 f i Economic.obj
 0001:0002a290       ?_Next@_Acc@?$list@PAVTransport@@V?$allocator@PAVTransport@@@std@@@std@@SAAAPAU_Node@23@PAU423@@Z 1002b290 f i Economic.obj
 0001:0002a2c0       ?_Value@_Acc@?$list@PAVTransport@@V?$allocator@PAVTransport@@@std@@@std@@SAAAPAVTransport@@PAU_Node@23@@Z 1002b2c0 f i Economic.obj
 0001:0002a2f0       ??0const_iterator@?$list@PAVTransport@@V?$allocator@PAVTransport@@@std@@@std@@QAE@XZ 1002b2f0 f i Economic.obj
 0001:0002a320       ??0iterator@?$list@PAVTransport@@V?$allocator@PAVTransport@@@std@@@std@@QAE@PAU_Node@12@@Z 1002b320 f i Economic.obj
 0001:0002a370       ??8iterator@?$list@PAVTransport@@V?$allocator@PAVTransport@@@std@@@std@@QBE_NABV012@@Z 1002b370 f i Economic.obj
 0001:0002a3c0       ?insert@?$list@PAVWarehouse@@V?$allocator@PAVWarehouse@@@std@@@std@@QAE?AViterator@12@V312@ABQAVWarehouse@@@Z 1002b3c0 f i Economic.obj
 0001:0002a4d0       ?erase@?$list@PAVWarehouse@@V?$allocator@PAVWarehouse@@@std@@@std@@QAE?AViterator@12@V312@0@Z 1002b4d0 f i Economic.obj
 0001:0002a560       ?_Buynode@?$list@PAVWarehouse@@V?$allocator@PAVWarehouse@@@std@@@std@@IAEPAU_Node@12@PAU312@0@Z 1002b560 f i Economic.obj
 0001:0002a610       ?_Freenode@?$list@PAVWarehouse@@V?$allocator@PAVWarehouse@@@std@@@std@@IAEXPAU_Node@12@@Z 1002b610 f i Economic.obj
 0001:0002a660       ?_Next@_Acc@?$list@PAVWarehouse@@V?$allocator@PAVWarehouse@@@std@@@std@@SAAAPAU_Node@23@PAU423@@Z 1002b660 f i Economic.obj
 0001:0002a690       ?_Value@_Acc@?$list@PAVWarehouse@@V?$allocator@PAVWarehouse@@@std@@@std@@SAAAPAVWarehouse@@PAU_Node@23@@Z 1002b690 f i Economic.obj
 0001:0002a6c0       ??0const_iterator@?$list@PAVWarehouse@@V?$allocator@PAVWarehouse@@@std@@@std@@QAE@XZ 1002b6c0 f i Economic.obj
 0001:0002a6f0       ??0iterator@?$list@PAVWarehouse@@V?$allocator@PAVWarehouse@@@std@@@std@@QAE@PAU_Node@12@@Z 1002b6f0 f i Economic.obj
 0001:0002a740       ??8iterator@?$list@PAVWarehouse@@V?$allocator@PAVWarehouse@@@std@@@std@@QBE_NABV012@@Z 1002b740 f i Economic.obj
 0001:0002a790       ?insert@?$list@PAVTaxCollector@@V?$allocator@PAVTaxCollector@@@std@@@std@@QAE?AViterator@12@V312@ABQAVTaxCollector@@@Z 1002b790 f i Economic.obj
 0001:0002a8a0       ?erase@?$list@PAVTaxCollector@@V?$allocator@PAVTaxCollector@@@std@@@std@@QAE?AViterator@12@V312@0@Z 1002b8a0 f i Economic.obj
 0001:0002a930       ?_Buynode@?$list@PAVTaxCollector@@V?$allocator@PAVTaxCollector@@@std@@@std@@IAEPAU_Node@12@PAU312@0@Z 1002b930 f i Economic.obj
 0001:0002a9e0       ?_Freenode@?$list@PAVTaxCollector@@V?$allocator@PAVTaxCollector@@@std@@@std@@IAEXPAU_Node@12@@Z 1002b9e0 f i Economic.obj
 0001:0002aa30       ?_Next@_Acc@?$list@PAVTaxCollector@@V?$allocator@PAVTaxCollector@@@std@@@std@@SAAAPAU_Node@23@PAU423@@Z 1002ba30 f i Economic.obj
 0001:0002aa60       ?_Value@_Acc@?$list@PAVTaxCollector@@V?$allocator@PAVTaxCollector@@@std@@@std@@SAAAPAVTaxCollector@@PAU_Node@23@@Z 1002ba60 f i Economic.obj
 0001:0002aa90       ??0const_iterator@?$list@PAVTaxCollector@@V?$allocator@PAVTaxCollector@@@std@@@std@@QAE@XZ 1002ba90 f i Economic.obj
 0001:0002aac0       ??0iterator@?$list@PAVTaxCollector@@V?$allocator@PAVTaxCollector@@@std@@@std@@QAE@PAU_Node@12@@Z 1002bac0 f i Economic.obj
 0001:0002ab10       ??8iterator@?$list@PAVTaxCollector@@V?$allocator@PAVTaxCollector@@@std@@@std@@QBE_NABV012@@Z 1002bb10 f i Economic.obj
 0001:0002ab60       ?insert@?$list@PAVManufacture@@V?$allocator@PAVManufacture@@@std@@@std@@QAE?AViterator@12@V312@ABQAVManufacture@@@Z 1002bb60 f i Economic.obj
 0001:0002ac70       ?erase@?$list@PAVManufacture@@V?$allocator@PAVManufacture@@@std@@@std@@QAE?AViterator@12@V312@0@Z 1002bc70 f i Economic.obj
 0001:0002ad00       ?_Buynode@?$list@PAVManufacture@@V?$allocator@PAVManufacture@@@std@@@std@@IAEPAU_Node@12@PAU312@0@Z 1002bd00 f i Economic.obj
 0001:0002adb0       ?_Freenode@?$list@PAVManufacture@@V?$allocator@PAVManufacture@@@std@@@std@@IAEXPAU_Node@12@@Z 1002bdb0 f i Economic.obj
 0001:0002ae00       ?_Next@_Acc@?$list@PAVManufacture@@V?$allocator@PAVManufacture@@@std@@@std@@SAAAPAU_Node@23@PAU423@@Z 1002be00 f i Economic.obj
 0001:0002ae30       ?_Value@_Acc@?$list@PAVManufacture@@V?$allocator@PAVManufacture@@@std@@@std@@SAAAPAVManufacture@@PAU_Node@23@@Z 1002be30 f i Economic.obj
 0001:0002ae60       ??0const_iterator@?$list@PAVManufacture@@V?$allocator@PAVManufacture@@@std@@@std@@QAE@XZ 1002be60 f i Economic.obj
 0001:0002ae90       ??0iterator@?$list@PAVManufacture@@V?$allocator@PAVManufacture@@@std@@@std@@QAE@PAU_Node@12@@Z 1002be90 f i Economic.obj
 0001:0002aee0       ??8iterator@?$list@PAVManufacture@@V?$allocator@PAVManufacture@@@std@@@std@@QBE_NABV012@@Z 1002bee0 f i Economic.obj
 0001:0002af30       ?insert@?$list@PAVMarket@@V?$allocator@PAVMarket@@@std@@@std@@QAE?AViterator@12@V312@ABQAVMarket@@@Z 1002bf30 f i Economic.obj
 0001:0002b040       ?erase@?$list@PAVMarket@@V?$allocator@PAVMarket@@@std@@@std@@QAE?AViterator@12@V312@0@Z 1002c040 f i Economic.obj
 0001:0002b0d0       ?_Buynode@?$list@PAVMarket@@V?$allocator@PAVMarket@@@std@@@std@@IAEPAU_Node@12@PAU312@0@Z 1002c0d0 f i Economic.obj
 0001:0002b180       ?_Freenode@?$list@PAVMarket@@V?$allocator@PAVMarket@@@std@@@std@@IAEXPAU_Node@12@@Z 1002c180 f i Economic.obj
 0001:0002b1d0       ?_Next@_Acc@?$list@PAVMarket@@V?$allocator@PAVMarket@@@std@@@std@@SAAAPAU_Node@23@PAU423@@Z 1002c1d0 f i Economic.obj
 0001:0002b200       ?_Value@_Acc@?$list@PAVMarket@@V?$allocator@PAVMarket@@@std@@@std@@SAAAPAVMarket@@PAU_Node@23@@Z 1002c200 f i Economic.obj
 0001:0002b230       ??0const_iterator@?$list@PAVMarket@@V?$allocator@PAVMarket@@@std@@@std@@QAE@XZ 1002c230 f i Economic.obj
 0001:0002b260       ??0iterator@?$list@PAVMarket@@V?$allocator@PAVMarket@@@std@@@std@@QAE@PAU_Node@12@@Z 1002c260 f i Economic.obj
 0001:0002b2b0       ??8iterator@?$list@PAVMarket@@V?$allocator@PAVMarket@@@std@@@std@@QBE_NABV012@@Z 1002c2b0 f i Economic.obj
 0001:0002b300       ?end@?$list@VPeasant@@V?$allocator@VPeasant@@@std@@@std@@QAE?AViterator@12@XZ 1002c300 f i Economic.obj
 0001:0002b360       ?insert@?$list@VPeasant@@V?$allocator@VPeasant@@@std@@@std@@QAE?AViterator@12@V312@ABVPeasant@@@Z 1002c360 f i Economic.obj
 0001:0002b470       ?erase@?$list@VPeasant@@V?$allocator@VPeasant@@@std@@@std@@QAE?AViterator@12@V312@@Z 1002c470 f i Economic.obj
 0001:0002b580       ?erase@?$list@VPeasant@@V?$allocator@VPeasant@@@std@@@std@@QAE?AViterator@12@V312@0@Z 1002c580 f i Economic.obj
 0001:0002b610       ?_Buynode@?$list@VPeasant@@V?$allocator@VPeasant@@@std@@@std@@IAEPAU_Node@12@PAU312@0@Z 1002c610 f i Economic.obj
 0001:0002b6c0       ?_Freenode@?$list@VPeasant@@V?$allocator@VPeasant@@@std@@@std@@IAEXPAU_Node@12@@Z 1002c6c0 f i Economic.obj
 0001:0002b710       ?_Next@_Acc@?$list@VPeasant@@V?$allocator@VPeasant@@@std@@@std@@SAAAPAU_Node@23@PAU423@@Z 1002c710 f i Economic.obj
 0001:0002b740       ??0iterator@?$list@VPeasant@@V?$allocator@VPeasant@@@std@@@std@@QAE@PAU_Node@12@@Z 1002c740 f i Economic.obj
 0001:0002b790       ??Diterator@?$list@VPeasant@@V?$allocator@VPeasant@@@std@@@std@@QBEAAVPeasant@@XZ 1002c790 f i Economic.obj
 0001:0002b7e0       ?insert@?$list@PAVBarrack@@V?$allocator@PAVBarrack@@@std@@@std@@QAE?AViterator@12@V312@ABQAVBarrack@@@Z 1002c7e0 f i Economic.obj
 0001:0002b8f0       ?erase@?$list@PAVBarrack@@V?$allocator@PAVBarrack@@@std@@@std@@QAE?AViterator@12@V312@0@Z 1002c8f0 f i Economic.obj
 0001:0002b980       ?_Buynode@?$list@PAVBarrack@@V?$allocator@PAVBarrack@@@std@@@std@@IAEPAU_Node@12@PAU312@0@Z 1002c980 f i Economic.obj
 0001:0002ba30       ?_Freenode@?$list@PAVBarrack@@V?$allocator@PAVBarrack@@@std@@@std@@IAEXPAU_Node@12@@Z 1002ca30 f i Economic.obj
 0001:0002ba80       ?_Next@_Acc@?$list@PAVBarrack@@V?$allocator@PAVBarrack@@@std@@@std@@SAAAPAU_Node@23@PAU423@@Z 1002ca80 f i Economic.obj
 0001:0002bab0       ?_Value@_Acc@?$list@PAVBarrack@@V?$allocator@PAVBarrack@@@std@@@std@@SAAAPAVBarrack@@PAU_Node@23@@Z 1002cab0 f i Economic.obj
 0001:0002bae0       ??0const_iterator@?$list@PAVBarrack@@V?$allocator@PAVBarrack@@@std@@@std@@QAE@XZ 1002cae0 f i Economic.obj
 0001:0002bb10       ??0iterator@?$list@PAVBarrack@@V?$allocator@PAVBarrack@@@std@@@std@@QAE@PAU_Node@12@@Z 1002cb10 f i Economic.obj
 0001:0002bb60       ??8iterator@?$list@PAVBarrack@@V?$allocator@PAVBarrack@@@std@@@std@@QBE_NABV012@@Z 1002cb60 f i Economic.obj
 0001:0002bbb0       ?insert@?$list@PAVCarrier@@V?$allocator@PAVCarrier@@@std@@@std@@QAE?AViterator@12@V312@ABQAVCarrier@@@Z 1002cbb0 f i Economic.obj
 0001:0002bcc0       ?erase@?$list@PAVCarrier@@V?$allocator@PAVCarrier@@@std@@@std@@QAE?AViterator@12@V312@0@Z 1002ccc0 f i Economic.obj
 0001:0002bd50       ?_Buynode@?$list@PAVCarrier@@V?$allocator@PAVCarrier@@@std@@@std@@IAEPAU_Node@12@PAU312@0@Z 1002cd50 f i Economic.obj
 0001:0002be00       ?_Freenode@?$list@PAVCarrier@@V?$allocator@PAVCarrier@@@std@@@std@@IAEXPAU_Node@12@@Z 1002ce00 f i Economic.obj
 0001:0002be50       ?_Next@_Acc@?$list@PAVCarrier@@V?$allocator@PAVCarrier@@@std@@@std@@SAAAPAU_Node@23@PAU423@@Z 1002ce50 f i Economic.obj
 0001:0002be80       ?_Value@_Acc@?$list@PAVCarrier@@V?$allocator@PAVCarrier@@@std@@@std@@SAAAPAVCarrier@@PAU_Node@23@@Z 1002ce80 f i Economic.obj
 0001:0002beb0       ??0const_iterator@?$list@PAVCarrier@@V?$allocator@PAVCarrier@@@std@@@std@@QAE@XZ 1002ceb0 f i Economic.obj
 0001:0002bee0       ??0iterator@?$list@PAVCarrier@@V?$allocator@PAVCarrier@@@std@@@std@@QAE@PAU_Node@12@@Z 1002cee0 f i Economic.obj
 0001:0002bf30       ??8iterator@?$list@PAVCarrier@@V?$allocator@PAVCarrier@@@std@@@std@@QBE_NABV012@@Z 1002cf30 f i Economic.obj
 0001:0002bf80       ?insert@?$vector@VUnitDescription@@V?$allocator@VUnitDescription@@@std@@@std@@QAEPAVUnitDescription@@PAV3@ABV3@@Z 1002cf80 f i Economic.obj
 0001:0002c010       ?_Destroy@?$vector@VUnitDescription@@V?$allocator@VUnitDescription@@@std@@@std@@IAEXPAVUnitDescription@@0@Z 1002d010 f i Economic.obj
 0001:0002c080       ?deallocate@?$allocator@VUnitDescription@@@std@@QAEXPAXI@Z 1002d080 f i Economic.obj
 0001:0002c0d0       ??0const_iterator@?$list@VTransport@@V?$allocator@VTransport@@@std@@@std@@QAE@XZ 1002d0d0 f i Economic.obj
 0001:0002c100       ?insert@?$vector@UResource@@V?$allocator@UResource@@@std@@@std@@QAEXPAUResource@@IABU3@@Z 1002d100 f i Economic.obj
 0001:0002c400       ?destroy@?$allocator@UResource@@@std@@QAEXPAUResource@@@Z 1002d400 f i Economic.obj
 0001:0002c450       ?insert@?$vector@HV?$allocator@H@std@@@std@@QAEXPAHIABH@Z 1002d450 f i Economic.obj
 0001:0002c720       ?_Charalloc@?$allocator@H@std@@QAEPADI@Z 1002d720 f i Economic.obj
 0001:0002c770       ?construct@?$allocator@H@std@@QAEXPAHABH@Z 1002d770 f i Economic.obj
 0001:0002c7c0       ?destroy@?$allocator@H@std@@QAEXPAH@Z 1002d7c0 f i Economic.obj
 0001:0002c810       ?insert@?$vector@UNamedResourceList@@V?$allocator@UNamedResourceList@@@std@@@std@@QAEXPAUNamedResourceList@@IABU3@@Z 1002d810 f i Economic.obj
 0001:0002cb10       ?destroy@?$allocator@UNamedResourceList@@@std@@QAEXPAUNamedResourceList@@@Z 1002db10 f i Economic.obj
 0001:0002cb60       ?insert@?$vector@UCan_produse@@V?$allocator@UCan_produse@@@std@@@std@@QAEXPAUCan_produse@@IABU3@@Z 1002db60 f i Economic.obj
 0001:0002ce60       ?destroy@?$allocator@UCan_produse@@@std@@QAEXPAUCan_produse@@@Z 1002de60 f i Economic.obj
 0001:0002ceb0       ?insert@?$vector@VThing@@V?$allocator@VThing@@@std@@@std@@QAEXPAVThing@@IABV3@@Z 1002deb0 f i Economic.obj
 0001:0002d1b0       ?destroy@?$allocator@VThing@@@std@@QAEXPAVThing@@@Z 1002e1b0 f i Economic.obj
 0001:0002d200       ?_Prev@_Acc@?$list@HV?$allocator@H@std@@@std@@SAAAPAU_Node@23@PAU423@@Z 1002e200 f i Economic.obj
 0001:0002d230       ??0const_iterator@?$list@HV?$allocator@H@std@@@std@@QAE@PAU_Node@12@@Z 1002e230 f i Economic.obj
 0001:0002d270       ?_Mynode@const_iterator@?$list@HV?$allocator@H@std@@@std@@QBEPAU_Node@23@XZ 1002e270 f i Economic.obj
 0001:0002d2b0       ?insert@?$vector@VFormation@@V?$allocator@VFormation@@@std@@@std@@QAEXPAVFormation@@IABV3@@Z 1002e2b0 f i Economic.obj
 0001:0002d5b0       ?destroy@?$allocator@VFormation@@@std@@QAEXPAVFormation@@@Z 1002e5b0 f i Economic.obj
 0001:0002d600       ?insert@?$vector@PAVBearer@@V?$allocator@PAVBearer@@@std@@@std@@QAEXPAPAVBearer@@IABQAV3@@Z 1002e600 f i Economic.obj
 0001:0002d8d0       ?destroy@?$allocator@PAVBearer@@@std@@QAEXPAPAVBearer@@@Z 1002e8d0 f i Economic.obj
 0001:0002d920       ?erase@?$list@PAVVillage@@V?$allocator@PAVVillage@@@std@@@std@@QAE?AViterator@12@V312@@Z 1002e920 f i Economic.obj
 0001:0002da30       ?_Prev@_Acc@?$list@PAVVillage@@V?$allocator@PAVVillage@@@std@@@std@@SAAAPAU_Node@23@PAU423@@Z 1002ea30 f i Economic.obj
 0001:0002da60       ?_Charalloc@?$allocator@PAVVillage@@@std@@QAEPADI@Z 1002ea60 f i Economic.obj
 0001:0002dab0       ?deallocate@?$allocator@PAVVillage@@@std@@QAEXPAXI@Z 1002eab0 f i Economic.obj
 0001:0002db00       ?construct@?$allocator@PAVVillage@@@std@@QAEXPAPAVVillage@@ABQAV3@@Z 1002eb00 f i Economic.obj
 0001:0002db50       ??0const_iterator@?$list@PAVVillage@@V?$allocator@PAVVillage@@@std@@@std@@QAE@PAU_Node@12@@Z 1002eb50 f i Economic.obj
 0001:0002db90       ?_Mynode@const_iterator@?$list@PAVVillage@@V?$allocator@PAVVillage@@@std@@@std@@QBEPAU_Node@23@XZ 1002eb90 f i Economic.obj
 0001:0002dbd0       ??Eiterator@?$list@PAVVillage@@V?$allocator@PAVVillage@@@std@@@std@@QAE?AV012@H@Z 1002ebd0 f i Economic.obj
 0001:0002dc30       ?erase@?$list@PAVTransport@@V?$allocator@PAVTransport@@@std@@@std@@QAE?AViterator@12@V312@@Z 1002ec30 f i Economic.obj
 0001:0002dd40       ?_Prev@_Acc@?$list@PAVTransport@@V?$allocator@PAVTransport@@@std@@@std@@SAAAPAU_Node@23@PAU423@@Z 1002ed40 f i Economic.obj
 0001:0002dd70       ?_Charalloc@?$allocator@PAVTransport@@@std@@QAEPADI@Z 1002ed70 f i Economic.obj
 0001:0002ddc0       ?deallocate@?$allocator@PAVTransport@@@std@@QAEXPAXI@Z 1002edc0 f i Economic.obj
 0001:0002de10       ?construct@?$allocator@PAVTransport@@@std@@QAEXPAPAVTransport@@ABQAV3@@Z 1002ee10 f i Economic.obj
 0001:0002de60       ??0const_iterator@?$list@PAVTransport@@V?$allocator@PAVTransport@@@std@@@std@@QAE@PAU_Node@12@@Z 1002ee60 f i Economic.obj
 0001:0002dea0       ?_Mynode@const_iterator@?$list@PAVTransport@@V?$allocator@PAVTransport@@@std@@@std@@QBEPAU_Node@23@XZ 1002eea0 f i Economic.obj
 0001:0002dee0       ??Eiterator@?$list@PAVTransport@@V?$allocator@PAVTransport@@@std@@@std@@QAE?AV012@H@Z 1002eee0 f i Economic.obj
 0001:0002df40       ?erase@?$list@PAVWarehouse@@V?$allocator@PAVWarehouse@@@std@@@std@@QAE?AViterator@12@V312@@Z 1002ef40 f i Economic.obj
 0001:0002e050       ?_Prev@_Acc@?$list@PAVWarehouse@@V?$allocator@PAVWarehouse@@@std@@@std@@SAAAPAU_Node@23@PAU423@@Z 1002f050 f i Economic.obj
 0001:0002e080       ?_Charalloc@?$allocator@PAVWarehouse@@@std@@QAEPADI@Z 1002f080 f i Economic.obj
 0001:0002e0d0       ?deallocate@?$allocator@PAVWarehouse@@@std@@QAEXPAXI@Z 1002f0d0 f i Economic.obj
 0001:0002e120       ?construct@?$allocator@PAVWarehouse@@@std@@QAEXPAPAVWarehouse@@ABQAV3@@Z 1002f120 f i Economic.obj
 0001:0002e170       ??0const_iterator@?$list@PAVWarehouse@@V?$allocator@PAVWarehouse@@@std@@@std@@QAE@PAU_Node@12@@Z 1002f170 f i Economic.obj
 0001:0002e1b0       ?_Mynode@const_iterator@?$list@PAVWarehouse@@V?$allocator@PAVWarehouse@@@std@@@std@@QBEPAU_Node@23@XZ 1002f1b0 f i Economic.obj
 0001:0002e1f0       ??Eiterator@?$list@PAVWarehouse@@V?$allocator@PAVWarehouse@@@std@@@std@@QAE?AV012@H@Z 1002f1f0 f i Economic.obj
 0001:0002e250       ?erase@?$list@PAVTaxCollector@@V?$allocator@PAVTaxCollector@@@std@@@std@@QAE?AViterator@12@V312@@Z 1002f250 f i Economic.obj
 0001:0002e360       ?_Prev@_Acc@?$list@PAVTaxCollector@@V?$allocator@PAVTaxCollector@@@std@@@std@@SAAAPAU_Node@23@PAU423@@Z 1002f360 f i Economic.obj
 0001:0002e390       ?_Charalloc@?$allocator@PAVTaxCollector@@@std@@QAEPADI@Z 1002f390 f i Economic.obj
 0001:0002e3e0       ?deallocate@?$allocator@PAVTaxCollector@@@std@@QAEXPAXI@Z 1002f3e0 f i Economic.obj
 0001:0002e430       ?construct@?$allocator@PAVTaxCollector@@@std@@QAEXPAPAVTaxCollector@@ABQAV3@@Z 1002f430 f i Economic.obj
 0001:0002e480       ??0const_iterator@?$list@PAVTaxCollector@@V?$allocator@PAVTaxCollector@@@std@@@std@@QAE@PAU_Node@12@@Z 1002f480 f i Economic.obj
 0001:0002e4c0       ?_Mynode@const_iterator@?$list@PAVTaxCollector@@V?$allocator@PAVTaxCollector@@@std@@@std@@QBEPAU_Node@23@XZ 1002f4c0 f i Economic.obj
 0001:0002e500       ??Eiterator@?$list@PAVTaxCollector@@V?$allocator@PAVTaxCollector@@@std@@@std@@QAE?AV012@H@Z 1002f500 f i Economic.obj
 0001:0002e560       ?erase@?$list@PAVManufacture@@V?$allocator@PAVManufacture@@@std@@@std@@QAE?AViterator@12@V312@@Z 1002f560 f i Economic.obj
 0001:0002e670       ?_Prev@_Acc@?$list@PAVManufacture@@V?$allocator@PAVManufacture@@@std@@@std@@SAAAPAU_Node@23@PAU423@@Z 1002f670 f i Economic.obj
 0001:0002e6a0       ?_Charalloc@?$allocator@PAVManufacture@@@std@@QAEPADI@Z 1002f6a0 f i Economic.obj
 0001:0002e6f0       ?deallocate@?$allocator@PAVManufacture@@@std@@QAEXPAXI@Z 1002f6f0 f i Economic.obj
 0001:0002e740       ?construct@?$allocator@PAVManufacture@@@std@@QAEXPAPAVManufacture@@ABQAV3@@Z 1002f740 f i Economic.obj
 0001:0002e790       ??0const_iterator@?$list@PAVManufacture@@V?$allocator@PAVManufacture@@@std@@@std@@QAE@PAU_Node@12@@Z 1002f790 f i Economic.obj
 0001:0002e7d0       ?_Mynode@const_iterator@?$list@PAVManufacture@@V?$allocator@PAVManufacture@@@std@@@std@@QBEPAU_Node@23@XZ 1002f7d0 f i Economic.obj
 0001:0002e810       ?erase@?$list@PAVMarket@@V?$allocator@PAVMarket@@@std@@@std@@QAE?AViterator@12@V312@@Z 1002f810 f i Economic.obj
 0001:0002e920       ?_Prev@_Acc@?$list@PAVMarket@@V?$allocator@PAVMarket@@@std@@@std@@SAAAPAU_Node@23@PAU423@@Z 1002f920 f i Economic.obj
 0001:0002e950       ?_Charalloc@?$allocator@PAVMarket@@@std@@QAEPADI@Z 1002f950 f i Economic.obj
 0001:0002e9a0       ?deallocate@?$allocator@PAVMarket@@@std@@QAEXPAXI@Z 1002f9a0 f i Economic.obj
 0001:0002e9f0       ?construct@?$allocator@PAVMarket@@@std@@QAEXPAPAVMarket@@ABQAV3@@Z 1002f9f0 f i Economic.obj
 0001:0002ea40       ??0const_iterator@?$list@PAVMarket@@V?$allocator@PAVMarket@@@std@@@std@@QAE@PAU_Node@12@@Z 1002fa40 f i Economic.obj
 0001:0002ea80       ?_Mynode@const_iterator@?$list@PAVMarket@@V?$allocator@PAVMarket@@@std@@@std@@QBEPAU_Node@23@XZ 1002fa80 f i Economic.obj
 0001:0002eac0       ??Eiterator@?$list@PAVMarket@@V?$allocator@PAVMarket@@@std@@@std@@QAE?AV012@H@Z 1002fac0 f i Economic.obj
 0001:0002eb20       ?_Prev@_Acc@?$list@VPeasant@@V?$allocator@VPeasant@@@std@@@std@@SAAAPAU_Node@23@PAU423@@Z 1002fb20 f i Economic.obj
 0001:0002eb50       ?_Value@_Acc@?$list@VPeasant@@V?$allocator@VPeasant@@@std@@@std@@SAAAVPeasant@@PAU_Node@23@@Z 1002fb50 f i Economic.obj
 0001:0002eb80       ?_Charalloc@?$allocator@VPeasant@@@std@@QAEPADI@Z 1002fb80 f i Economic.obj
 0001:0002ebd0       ?deallocate@?$allocator@VPeasant@@@std@@QAEXPAXI@Z 1002fbd0 f i Economic.obj
 0001:0002ec20       ?construct@?$allocator@VPeasant@@@std@@QAEXPAVPeasant@@ABV3@@Z 1002fc20 f i Economic.obj
 0001:0002ec70       ?destroy@?$allocator@VPeasant@@@std@@QAEXPAVPeasant@@@Z 1002fc70 f i Economic.obj
 0001:0002ecc0       ??0const_iterator@?$list@VPeasant@@V?$allocator@VPeasant@@@std@@@std@@QAE@PAU_Node@12@@Z 1002fcc0 f i Economic.obj
 0001:0002ed00       ?_Mynode@const_iterator@?$list@VPeasant@@V?$allocator@VPeasant@@@std@@@std@@QBEPAU_Node@23@XZ 1002fd00 f i Economic.obj
 0001:0002ed40       ??Eiterator@?$list@VPeasant@@V?$allocator@VPeasant@@@std@@@std@@QAE?AV012@H@Z 1002fd40 f i Economic.obj
 0001:0002eda0       ??9iterator@?$list@VPeasant@@V?$allocator@VPeasant@@@std@@@std@@QBE_NABV012@@Z 1002fda0 f i Economic.obj
 0001:0002ee00       ?erase@?$list@PAVBarrack@@V?$allocator@PAVBarrack@@@std@@@std@@QAE?AViterator@12@V312@@Z 1002fe00 f i Economic.obj
 0001:0002ef10       ?_Prev@_Acc@?$list@PAVBarrack@@V?$allocator@PAVBarrack@@@std@@@std@@SAAAPAU_Node@23@PAU423@@Z 1002ff10 f i Economic.obj
 0001:0002ef40       ?_Charalloc@?$allocator@PAVBarrack@@@std@@QAEPADI@Z 1002ff40 f i Economic.obj
 0001:0002ef90       ?deallocate@?$allocator@PAVBarrack@@@std@@QAEXPAXI@Z 1002ff90 f i Economic.obj
 0001:0002efe0       ?construct@?$allocator@PAVBarrack@@@std@@QAEXPAPAVBarrack@@ABQAV3@@Z 1002ffe0 f i Economic.obj
 0001:0002f030       ??0const_iterator@?$list@PAVBarrack@@V?$allocator@PAVBarrack@@@std@@@std@@QAE@PAU_Node@12@@Z 10030030 f i Economic.obj
 0001:0002f070       ?_Mynode@const_iterator@?$list@PAVBarrack@@V?$allocator@PAVBarrack@@@std@@@std@@QBEPAU_Node@23@XZ 10030070 f i Economic.obj
 0001:0002f0b0       ?erase@?$list@PAVCarrier@@V?$allocator@PAVCarrier@@@std@@@std@@QAE?AViterator@12@V312@@Z 100300b0 f i Economic.obj
 0001:0002f1c0       ?_Prev@_Acc@?$list@PAVCarrier@@V?$allocator@PAVCarrier@@@std@@@std@@SAAAPAU_Node@23@PAU423@@Z 100301c0 f i Economic.obj
 0001:0002f1f0       ?_Charalloc@?$allocator@PAVCarrier@@@std@@QAEPADI@Z 100301f0 f i Economic.obj
 0001:0002f240       ?deallocate@?$allocator@PAVCarrier@@@std@@QAEXPAXI@Z 10030240 f i Economic.obj
 0001:0002f290       ?construct@?$allocator@PAVCarrier@@@std@@QAEXPAPAVCarrier@@ABQAV3@@Z 10030290 f i Economic.obj
 0001:0002f2e0       ??0const_iterator@?$list@PAVCarrier@@V?$allocator@PAVCarrier@@@std@@@std@@QAE@PAU_Node@12@@Z 100302e0 f i Economic.obj
 0001:0002f320       ?_Mynode@const_iterator@?$list@PAVCarrier@@V?$allocator@PAVCarrier@@@std@@@std@@QBEPAU_Node@23@XZ 10030320 f i Economic.obj
 0001:0002f360       ??Eiterator@?$list@PAVCarrier@@V?$allocator@PAVCarrier@@@std@@@std@@QAE?AV012@H@Z 10030360 f i Economic.obj
 0001:0002f3c0       ?insert@?$vector@VUnitDescription@@V?$allocator@VUnitDescription@@@std@@@std@@QAEXPAVUnitDescription@@IABV3@@Z 100303c0 f i Economic.obj
 0001:0002f6c0       ?destroy@?$allocator@VUnitDescription@@@std@@QAEXPAVUnitDescription@@@Z 100306c0 f i Economic.obj
 0001:0002f710       ?_Ucopy@?$vector@UResource@@V?$allocator@UResource@@@std@@@std@@IAEPAUResource@@PBU3@0PAU3@@Z 10030710 f i Economic.obj
 0001:0002f790       ?_Ufill@?$vector@UResource@@V?$allocator@UResource@@@std@@@std@@IAEXPAUResource@@IABU3@@Z 10030790 f i Economic.obj
 0001:0002f810       ?allocate@?$allocator@UResource@@@std@@QAEPAUResource@@IPBX@Z 10030810 f i Economic.obj
 0001:0002f860       ?_Ufill@?$vector@HV?$allocator@H@std@@@std@@IAEXPAHIABH@Z 10030860 f i Economic.obj
 0001:0002f8e0       ?_Ucopy@?$vector@UNamedResourceList@@V?$allocator@UNamedResourceList@@@std@@@std@@IAEPAUNamedResourceList@@PBU3@0PAU3@@Z 100308e0 f i Economic.obj
 0001:0002f960       ?_Ufill@?$vector@UNamedResourceList@@V?$allocator@UNamedResourceList@@@std@@@std@@IAEXPAUNamedResourceList@@IABU3@@Z 10030960 f i Economic.obj
 0001:0002f9e0       ?allocate@?$allocator@UNamedResourceList@@@std@@QAEPAUNamedResourceList@@IPBX@Z 100309e0 f i Economic.obj
 0001:0002fa30       ?_Ucopy@?$vector@UCan_produse@@V?$allocator@UCan_produse@@@std@@@std@@IAEPAUCan_produse@@PBU3@0PAU3@@Z 10030a30 f i Economic.obj
 0001:0002fab0       ?_Ufill@?$vector@UCan_produse@@V?$allocator@UCan_produse@@@std@@@std@@IAEXPAUCan_produse@@IABU3@@Z 10030ab0 f i Economic.obj
 0001:0002fb30       ?allocate@?$allocator@UCan_produse@@@std@@QAEPAUCan_produse@@IPBX@Z 10030b30 f i Economic.obj
 0001:0002fb80       ?_Ucopy@?$vector@VThing@@V?$allocator@VThing@@@std@@@std@@IAEPAVThing@@PBV3@0PAV3@@Z 10030b80 f i Economic.obj
 0001:0002fc00       ?_Ufill@?$vector@VThing@@V?$allocator@VThing@@@std@@@std@@IAEXPAVThing@@IABV3@@Z 10030c00 f i Economic.obj
 0001:0002fc80       ?allocate@?$allocator@VThing@@@std@@QAEPAVThing@@IPBX@Z 10030c80 f i Economic.obj
 0001:0002fcd0       ?_Ucopy@?$vector@VFormation@@V?$allocator@VFormation@@@std@@@std@@IAEPAVFormation@@PBV3@0PAV3@@Z 10030cd0 f i Economic.obj
 0001:0002fd50       ?_Ufill@?$vector@VFormation@@V?$allocator@VFormation@@@std@@@std@@IAEXPAVFormation@@IABV3@@Z 10030d50 f i Economic.obj
 0001:0002fdd0       ?allocate@?$allocator@VFormation@@@std@@QAEPAVFormation@@IPBX@Z 10030dd0 f i Economic.obj
 0001:0002fe20       ?_Ucopy@?$vector@PAVBearer@@V?$allocator@PAVBearer@@@std@@@std@@IAEPAPAVBearer@@PBQAV3@0PAPAV3@@Z 10030e20 f i Economic.obj
 0001:0002fea0       ?_Ufill@?$vector@PAVBearer@@V?$allocator@PAVBearer@@@std@@@std@@IAEXPAPAVBearer@@IABQAV3@@Z 10030ea0 f i Economic.obj
 0001:0002ff20       ?allocate@?$allocator@PAVBearer@@@std@@QAEPAPAVBearer@@IPBX@Z 10030f20 f i Economic.obj
 0001:0002ff70       ?destroy@?$allocator@PAVVillage@@@std@@QAEXPAPAVVillage@@@Z 10030f70 f i Economic.obj
 0001:0002ffc0       ?destroy@?$allocator@PAVTransport@@@std@@QAEXPAPAVTransport@@@Z 10030fc0 f i Economic.obj
 0001:00030010       ?destroy@?$allocator@PAVWarehouse@@@std@@QAEXPAPAVWarehouse@@@Z 10031010 f i Economic.obj
 0001:00030060       ?destroy@?$allocator@PAVTaxCollector@@@std@@QAEXPAPAVTaxCollector@@@Z 10031060 f i Economic.obj
 0001:000300b0       ?destroy@?$allocator@PAVManufacture@@@std@@QAEXPAPAVManufacture@@@Z 100310b0 f i Economic.obj
 0001:00030100       ?destroy@?$allocator@PAVMarket@@@std@@QAEXPAPAVMarket@@@Z 10031100 f i Economic.obj
 0001:00030150       ??Eiterator@?$list@VPeasant@@V?$allocator@VPeasant@@@std@@@std@@QAEAAV012@XZ 10031150 f i Economic.obj
 0001:000301b0       ??8iterator@?$list@VPeasant@@V?$allocator@VPeasant@@@std@@@std@@QBE_NABV012@@Z 100311b0 f i Economic.obj
 0001:00030200       ?destroy@?$allocator@PAVBarrack@@@std@@QAEXPAPAVBarrack@@@Z 10031200 f i Economic.obj
 0001:00030250       ?destroy@?$allocator@PAVCarrier@@@std@@QAEXPAPAVCarrier@@@Z 10031250 f i Economic.obj
 0001:000302a0       ?size@?$vector@VUnitDescription@@V?$allocator@VUnitDescription@@@std@@@std@@QBEIXZ 100312a0 f i Economic.obj
 0001:00030310       ?_Ucopy@?$vector@VUnitDescription@@V?$allocator@VUnitDescription@@@std@@@std@@IAEPAVUnitDescription@@PBV3@0PAV3@@Z 10031310 f i Economic.obj
 0001:00030390       ?_Ufill@?$vector@VUnitDescription@@V?$allocator@VUnitDescription@@@std@@@std@@IAEXPAVUnitDescription@@IABV3@@Z 10031390 f i Economic.obj
 0001:00030410       ?allocate@?$allocator@VUnitDescription@@@std@@QAEPAVUnitDescription@@IPBX@Z 10031410 f i Economic.obj
 0001:00030460       ?construct@?$allocator@UResource@@@std@@QAEXPAUResource@@ABU3@@Z 10031460 f i Economic.obj
 0001:000304b0       ?construct@?$allocator@UNamedResourceList@@@std@@QAEXPAUNamedResourceList@@ABU3@@Z 100314b0 f i Economic.obj
 0001:00030500       ?construct@?$allocator@UCan_produse@@@std@@QAEXPAUCan_produse@@ABU3@@Z 10031500 f i Economic.obj
 0001:00030550       ?construct@?$allocator@VThing@@@std@@QAEXPAVThing@@ABV3@@Z 10031550 f i Economic.obj
 0001:000305a0       ?construct@?$allocator@VFormation@@@std@@QAEXPAVFormation@@ABV3@@Z 100315a0 f i Economic.obj
 0001:000305f0       ?construct@?$allocator@PAVBearer@@@std@@QAEXPAPAVBearer@@ABQAV3@@Z 100315f0 f i Economic.obj
 0001:00030640       ?construct@?$allocator@VUnitDescription@@@std@@QAEXPAVUnitDescription@@ABV3@@Z 10031640 f i Economic.obj
 0001:00030690       ?find_if@std@@YAPAVUnitDescription@@PAV2@0VFindIfUnitDescription@@@Z 10031690 f i Economic.obj
 0001:00030720       ??RFindIfUnitDescription@@QBE_NVUnitDescription@@@Z 10031720 f i Economic.obj
 0001:00030780       ?_Allocate@std@@YAPAHHPAH@Z 10031780 f i Economic.obj
 0001:000307e0       ?fill@std@@YAXPAUResource@@0ABU2@@Z 100317e0 f i Economic.obj
 0001:00030840       ?copy_backward@std@@YAPAUResource@@PAU2@00@Z 10031840 f i Economic.obj
 0001:000308a0       ?_Destroy@std@@YAXPAUResource@@@Z 100318a0 f i Economic.obj
 0001:000308d0       ?fill@std@@YAXPAH0ABH@Z    100318d0 f i Economic.obj
 0001:00030920       ?copy_backward@std@@YAPAHPAH00@Z 10031920 f i Economic.obj
 0001:00030980       ?_Allocate@std@@YAPADHPAD@Z 10031980 f i Economic.obj
 0001:000309e0       ?_Construct@std@@YAXPAHABH@Z 100319e0 f i Economic.obj
 0001:00030a50       ??2@YAPAXIPAX@Z            10031a50 f i Economic.obj
 0001:00030a80       ?_Destroy@std@@YAXPAH@Z    10031a80 f i Economic.obj
 0001:00030ab0       ?fill@std@@YAXPAUNamedResourceList@@0ABU2@@Z 10031ab0 f i Economic.obj
 0001:00030b10       ?copy_backward@std@@YAPAUNamedResourceList@@PAU2@00@Z 10031b10 f i Economic.obj
 0001:00030b80       ?_Destroy@std@@YAXPAUNamedResourceList@@@Z 10031b80 f i Economic.obj
 0001:00030bc0       ?fill@std@@YAXPAUCan_produse@@0ABU2@@Z 10031bc0 f i Economic.obj
 0001:00030c20       ?copy_backward@std@@YAPAUCan_produse@@PAU2@00@Z 10031c20 f i Economic.obj
 0001:00030c80       ?_Destroy@std@@YAXPAUCan_produse@@@Z 10031c80 f i Economic.obj
 0001:00030cb0       ?fill@std@@YAXPAVThing@@0ABV2@@Z 10031cb0 f i Economic.obj
 0001:00030d10       ?copy_backward@std@@YAPAVThing@@PAV2@00@Z 10031d10 f i Economic.obj
 0001:00030d80       ?_Destroy@std@@YAXPAVThing@@@Z 10031d80 f i Economic.obj
 0001:00030dc0       ?fill@std@@YAXPAVFormation@@0ABV2@@Z 10031dc0 f i Economic.obj
 0001:00030e20       ?copy_backward@std@@YAPAVFormation@@PAV2@00@Z 10031e20 f i Economic.obj
 0001:00030e90       ?_Destroy@std@@YAXPAVFormation@@@Z 10031e90 f i Economic.obj
 0001:00030ee0       ?fill@std@@YAXPAPAVBearer@@0ABQAV2@@Z 10031ee0 f i Economic.obj
 0001:00030f30       ?copy_backward@std@@YAPAPAVBearer@@PAPAV2@00@Z 10031f30 f i Economic.obj
 0001:00030f90       ?_Destroy@std@@YAXPAPAVBearer@@@Z 10031f90 f i Economic.obj
 0001:00030fc0       ?_Construct@std@@YAXPAPAVVillage@@ABQAV2@@Z 10031fc0 f i Economic.obj
 0001:00031030       ?_Construct@std@@YAXPAPAVTransport@@ABQAV2@@Z 10032030 f i Economic.obj
 0001:000310a0       ?_Construct@std@@YAXPAPAVWarehouse@@ABQAV2@@Z 100320a0 f i Economic.obj
 0001:00031110       ?_Construct@std@@YAXPAPAVTaxCollector@@ABQAV2@@Z 10032110 f i Economic.obj
 0001:00031180       ?_Construct@std@@YAXPAPAVManufacture@@ABQAV2@@Z 10032180 f i Economic.obj
 0001:000311f0       ?_Construct@std@@YAXPAPAVMarket@@ABQAV2@@Z 100321f0 f i Economic.obj
 0001:00031260       ?_Construct@std@@YAXPAVPeasant@@ABV2@@Z 10032260 f i Economic.obj
 0001:00031310       ??3@YAXPAX0@Z              10032310 f i Economic.obj
 0001:00031340       ?_Destroy@std@@YAXPAVPeasant@@@Z 10032340 f i Economic.obj
 0001:00031390       ?_Construct@std@@YAXPAPAVBarrack@@ABQAV2@@Z 10032390 f i Economic.obj
 0001:00031400       ?_Construct@std@@YAXPAPAVCarrier@@ABQAV2@@Z 10032400 f i Economic.obj
 0001:00031470       ?fill@std@@YAXPAVUnitDescription@@0ABV2@@Z 10032470 f i Economic.obj
 0001:000314d0       ?copy_backward@std@@YAPAVUnitDescription@@PAV2@00@Z 100324d0 f i Economic.obj
 0001:00031540       ?_Destroy@std@@YAXPAVUnitDescription@@@Z 10032540 f i Economic.obj
 0001:00031590       ?_Allocate@std@@YAPAUResource@@HPAU2@@Z 10032590 f i Economic.obj
 0001:000315f0       ?_Allocate@std@@YAPAUNamedResourceList@@HPAU2@@Z 100325f0 f i Economic.obj
 0001:00031650       ?_Allocate@std@@YAPAUCan_produse@@HPAU2@@Z 10032650 f i Economic.obj
 0001:000316b0       ?_Allocate@std@@YAPAVThing@@HPAV2@@Z 100326b0 f i Economic.obj
 0001:00031710       ?_Allocate@std@@YAPAVFormation@@HPAV2@@Z 10032710 f i Economic.obj
 0001:00031770       ?_Allocate@std@@YAPAPAVBearer@@HPAPAV2@@Z 10032770 f i Economic.obj
 0001:000317d0       ?_Destroy@std@@YAXPAPAVVillage@@@Z 100327d0 f i Economic.obj
 0001:00031800       ?_Destroy@std@@YAXPAPAVTransport@@@Z 10032800 f i Economic.obj
 0001:00031830       ?_Destroy@std@@YAXPAPAVWarehouse@@@Z 10032830 f i Economic.obj
 0001:00031860       ?_Destroy@std@@YAXPAPAVTaxCollector@@@Z 10032860 f i Economic.obj
 0001:00031890       ?_Destroy@std@@YAXPAPAVManufacture@@@Z 10032890 f i Economic.obj
 0001:000318c0       ?_Destroy@std@@YAXPAPAVMarket@@@Z 100328c0 f i Economic.obj
 0001:000318f0       ?_Destroy@std@@YAXPAPAVBarrack@@@Z 100328f0 f i Economic.obj
 0001:00031920       ?_Destroy@std@@YAXPAPAVCarrier@@@Z 10032920 f i Economic.obj
 0001:00031950       ?_Allocate@std@@YAPAVUnitDescription@@HPAV2@@Z 10032950 f i Economic.obj
 0001:000319b0       ?_Construct@std@@YAXPAUResource@@ABU2@@Z 100329b0 f i Economic.obj
 0001:00031a30       ?_Construct@std@@YAXPAUNamedResourceList@@ABU2@@Z 10032a30 f i Economic.obj
 0001:00031ae0       ?_Construct@std@@YAXPAUCan_produse@@ABU2@@Z 10032ae0 f i Economic.obj
 0001:00031b60       ?_Construct@std@@YAXPAVThing@@ABV2@@Z 10032b60 f i Economic.obj
 0001:00031c10       ?_Construct@std@@YAXPAVFormation@@ABV2@@Z 10032c10 f i Economic.obj
 0001:00031cc0       ?_Construct@std@@YAXPAPAVBearer@@ABQAV2@@Z 10032cc0 f i Economic.obj
 0001:00031d30       ?_Construct@std@@YAXPAVUnitDescription@@ABV2@@Z 10032d30 f i Economic.obj
 0001:00031de0       ??0UnitDescription@@QAE@ABV0@@Z 10032de0 f i Economic.obj
 0001:00031ef0       ??4NamedResourceList@@QAEAAU0@ABU0@@Z 10032ef0 f i Economic.obj
 0001:00031f80       ??_GNamedResourceList@@QAEPAXI@Z 10032f80 f i Economic.obj
 0001:00031ff0       ??4Thing@@QAEAAV0@ABV0@@Z  10032ff0 f i Economic.obj
 0001:000320e0       ??_GThing@@QAEPAXI@Z       100330e0 f i Economic.obj
 0001:00032150       ??4Formation@@QAEAAV0@ABV0@@Z 10033150 f i Economic.obj
 0001:000322c0       ??0Peasant@@QAE@ABV0@@Z    100332c0 f i Economic.obj
 0001:00032380       ??4UnitDescription@@QAEAAV0@ABV0@@Z 10033380 f i Economic.obj
 0001:00032460       ??0NamedResourceList@@QAE@ABU0@@Z 10033460 f i Economic.obj
 0001:000324d0       ??0Thing@@QAE@ABV0@@Z      100334d0 f i Economic.obj
 0001:000325a0       ??0Formation@@QAE@ABV0@@Z  100335a0 f i Economic.obj
 0001:000326e0       ??4ResourceList@@QAEAAV0@ABV0@@Z 100336e0 f i Economic.obj
 0001:00032760       ??0MobileUnit@@QAE@ABV0@@Z 10033760 f i Economic.obj
 0001:000327d0       ??0ResourceList@@QAE@ABV0@@Z 100337d0 f i Economic.obj
 0001:00032850       ??0UnitInfo@@QAE@ABV0@@Z   10033850 f i Economic.obj
 0001:000328d0       ??4?$vector@HV?$allocator@H@std@@@std@@QAEAAV01@ABV01@@Z 100338d0 f i Economic.obj
 0001:00032af0       ??0?$vector@UNamedResourceList@@V?$allocator@UNamedResourceList@@@std@@@std@@QAE@ABV01@@Z 10033af0 f i Economic.obj
 0001:00032ba0       ??4?$vector@UNamedResourceList@@V?$allocator@UNamedResourceList@@@std@@@std@@QAEAAV01@ABV01@@Z 10033ba0 f i Economic.obj
 0001:00032dd0       ??0?$vector@UCan_produse@@V?$allocator@UCan_produse@@@std@@@std@@QAE@ABV01@@Z 10033dd0 f i Economic.obj
 0001:00032e80       ??4?$vector@UCan_produse@@V?$allocator@UCan_produse@@@std@@@std@@QAEAAV01@ABV01@@Z 10033e80 f i Economic.obj
 0001:000330b0       ?capacity@?$vector@UNamedResourceList@@V?$allocator@UNamedResourceList@@@std@@@std@@QBEIXZ 100340b0 f i Economic.obj
 0001:00033120       ?begin@?$vector@UNamedResourceList@@V?$allocator@UNamedResourceList@@@std@@@std@@QBEPBUNamedResourceList@@XZ 10034120 f i Economic.obj
 0001:00033160       ?end@?$vector@UNamedResourceList@@V?$allocator@UNamedResourceList@@@std@@@std@@QBEPBUNamedResourceList@@XZ 10034160 f i Economic.obj
 0001:000331a0       ?capacity@?$vector@UCan_produse@@V?$allocator@UCan_produse@@@std@@@std@@QBEIXZ 100341a0 f i Economic.obj
 0001:00033210       ?begin@?$vector@UCan_produse@@V?$allocator@UCan_produse@@@std@@@std@@QBEPBUCan_produse@@XZ 10034210 f i Economic.obj
 0001:00033250       ?end@?$vector@UCan_produse@@V?$allocator@UCan_produse@@@std@@@std@@QBEPBUCan_produse@@XZ 10034250 f i Economic.obj
 0001:00033290       ?copy@std@@YAPAHPBH0PAH@Z  10034290 f i Economic.obj
 0001:000332f0       ?copy@std@@YAPAUNamedResourceList@@PBU2@0PAU2@@Z 100342f0 f i Economic.obj
 0001:00033360       ?copy@std@@YAPAUCan_produse@@PBU2@0PAU2@@Z 10034360 f i Economic.obj
 0001:000333c0       ??0ParsedRQ@@QAE@XZ        100343c0 f   ParseRQ.obj
 0001:00033420       ??1ParsedRQ@@QAE@XZ        10034420 f   ParseRQ.obj
 0001:00033470       ?AddComm@ParsedRQ@@QAEXPAD@Z 10034470 f   ParseRQ.obj
 0001:00033590       ?AddParam@ParsedRQ@@QAEXPADH@Z 10034590 f   ParseRQ.obj
 0001:00033710       ?Clear@ParsedRQ@@QAEXXZ    10034710 f   ParseRQ.obj
 0001:000338b0       ?GetHVal@@YAHD@Z           100348b0 f   ParseRQ.obj
 0001:00033920       ?Parse@ParsedRQ@@QAEXPAD@Z 10034920 f   ParseRQ.obj
 0001:00033c80       ?Compact@ParsedRQ@@QAEHPADH@Z 10034c80 f   ParseRQ.obj
 0001:00033f40       ?Extract@ParsedRQ@@QAEXPADH@Z 10034f40 f   ParseRQ.obj
 0001:00034120       ?UnParse@ParsedRQ@@QAEHPADH@Z 10035120 f   ParseRQ.obj
 0001:00034650       ?DelComm@ParsedRQ@@QAEXH@Z 10035650 f   ParseRQ.obj
 0001:00034800       ?AddParamToCom@ParsedRQ@@QAEXHPADH@Z 10035800 f   ParseRQ.obj
 0001:00034980       ?AddIntParam@ParsedRQ@@QAEXH@Z 10035980 f   ParseRQ.obj
 0001:00034b10       ?StartBattle@@YAXXZ        10035b10 f   BattleDialogs.obj
 0001:00034b50       ?HandleBattleCml@@YAXPADPAPADHPAVParsedRQ@@@Z 10035b50 f   BattleDialogs.obj
 0001:00034ec0       ?RunStartTimer@@YAXXZ      10035ec0 f   BattleDialogs.obj
 0001:00034f40       ?ShowTimer@CBattle@@QAEHXZ 10035f40 f   BattleDialogs.obj
 0001:00035030       ?SetStartTimer@CBattle@@QAEXH@Z 10036030 f   BattleDialogs.obj
 0001:00035090       ?PerformBattleCommads@@YAXPADH@Z 10036090 f   BattleDialogs.obj
 0001:00035660       ?CloseBattle@@YAXXZ        10036660 f   BattleDialogs.obj
 0001:000356a0       ?Free@CBattle@@QAEXXZ      100366a0 f   BattleDialogs.obj
 0001:00035810       ??0CBattle@@QAE@XZ         10036810 f   BattleDialogs.obj
 0001:00035870       ??1CBattle@@QAE@XZ         10036870 f   BattleDialogs.obj
 0001:000358c0       ?Init@CBattle@@QAEXXZ      100368c0 f   BattleDialogs.obj
 0001:00035d70       ?RunUpgrades@CBattle@@QAEXXZ 10036d70 f   BattleDialogs.obj
 0001:00035ee0       ?Process@CBattle@@QAEXXZ   10036ee0 f   BattleDialogs.obj
 0001:000361e0       ?MakeDialog@CBattle@@QAEX_N@Z 100371e0 f   BattleDialogs.obj
 0001:00038590       ?AddUpgToCml@CBattle@@QAEXAAVDString@@PADGGHH@Z 10039590 f   BattleDialogs.obj
 0001:000388e0       ?AddNewMon@CPlayerInfo@@QAEXEG@Z 100398e0 f   BattleDialogs.obj
 0001:00038ba0       ?CheckUpg@CPlayerInfo@@QAEXG_N@Z 10039ba0 f   BattleDialogs.obj
 0001:000390e0       ?DoDamage@@YAXPAUUnitType@@FEEH@Z 1003a0e0 f   BattleDialogs.obj
 0001:00039230       ?DoProtect@@YAXPAUUnitType@@FEEH@Z 1003a230 f   BattleDialogs.obj
 0001:000392f0       ?DoShield@@YAXPAUUnitType@@FEEH@Z 1003a2f0 f   BattleDialogs.obj
 0001:00039380       ?DoAttPause@@YAXPAUUnitType@@FEEH@Z 1003a380 f   BattleDialogs.obj
 0001:000394e0       ?GetCharacter@UnitType@@QAEXE@Z 1003a4e0 f   BattleDialogs.obj
 0001:00039770       ?AddUpgCategory@UnitType@@QAEXGPADPAGH@Z 1003a770 f   BattleDialogs.obj
 0001:00039830       ?RunProtectUpg@UnitType@@QAEXEH@Z 1003a830 f   BattleDialogs.obj
 0001:00039970       ?RunProtectUpg@@YAXEH@Z    1003a970 f   BattleDialogs.obj
 0001:00039bc0       ??0CUpgCategory@@QAE@GPADPAGH@Z 1003abc0 f   BattleDialogs.obj
 0001:0003a060       ??1CUpgCategory@@QAE@XZ    1003b060 f   BattleDialogs.obj
 0001:0003a0f0       ??0CWeapInfo@@QAE@XZ       1003b0f0 f   BattleDialogs.obj
 0001:0003a150       ??0?$vector@V?$vector@GV?$allocator@G@std@@@std@@V?$allocator@V?$vector@GV?$allocator@G@std@@@std@@@2@@std@@QAE@ABV?$allocator@V?$vector@GV?$allocator@G@std@@@std@@@1@@Z 1003b150 f i BattleDialogs.obj
 0001:0003a1c0       ??1?$vector@V?$vector@GV?$allocator@G@std@@@std@@V?$allocator@V?$vector@GV?$allocator@G@std@@@std@@@2@@std@@QAE@XZ 1003b1c0 f i BattleDialogs.obj
 0001:0003a270       ?begin@?$vector@V?$vector@GV?$allocator@G@std@@@std@@V?$allocator@V?$vector@GV?$allocator@G@std@@@std@@@2@@std@@QAEPAV?$vector@GV?$allocator@G@std@@@2@XZ 1003b270 f i BattleDialogs.obj
 0001:0003a2b0       ?end@?$vector@V?$vector@GV?$allocator@G@std@@@std@@V?$allocator@V?$vector@GV?$allocator@G@std@@@std@@@2@@std@@QAEPAV?$vector@GV?$allocator@G@std@@@2@XZ 1003b2b0 f i BattleDialogs.obj
 0001:0003a2f0       ?size@?$vector@V?$vector@GV?$allocator@G@std@@@std@@V?$allocator@V?$vector@GV?$allocator@G@std@@@std@@@2@@std@@QBEIXZ 1003b2f0 f i BattleDialogs.obj
 0001:0003a350       ??A?$vector@V?$vector@GV?$allocator@G@std@@@std@@V?$allocator@V?$vector@GV?$allocator@G@std@@@std@@@2@@std@@QAEAAV?$vector@GV?$allocator@G@std@@@1@I@Z 1003b350 f i BattleDialogs.obj
 0001:0003a3a0       ?push_back@?$vector@V?$vector@GV?$allocator@G@std@@@std@@V?$allocator@V?$vector@GV?$allocator@G@std@@@std@@@2@@std@@QAEXABV?$vector@GV?$allocator@G@std@@@2@@Z 1003b3a0 f i BattleDialogs.obj
 0001:0003a400       ?erase@?$vector@V?$vector@GV?$allocator@G@std@@@std@@V?$allocator@V?$vector@GV?$allocator@G@std@@@std@@@2@@std@@QAEPAV?$vector@GV?$allocator@G@std@@@2@PAV32@@Z 1003b400 f i BattleDialogs.obj
 0001:0003a4a0       ??0?$vector@GV?$allocator@G@std@@@std@@QAE@ABV?$allocator@G@1@@Z 1003b4a0 f i BattleDialogs.obj
 0001:0003a510       ??1?$vector@GV?$allocator@G@std@@@std@@QAE@XZ 1003b510 f i BattleDialogs.obj
 0001:0003a5b0       ?reserve@?$vector@GV?$allocator@G@std@@@std@@QAEXI@Z 1003b5b0 f i BattleDialogs.obj
 0001:0003a6b0       ?begin@?$vector@GV?$allocator@G@std@@@std@@QAEPAGXZ 1003b6b0 f i BattleDialogs.obj
 0001:0003a6f0       ?end@?$vector@GV?$allocator@G@std@@@std@@QAEPAGXZ 1003b6f0 f i BattleDialogs.obj
 0001:0003a730       ?size@?$vector@GV?$allocator@G@std@@@std@@QBEIXZ 1003b730 f i BattleDialogs.obj
 0001:0003a790       ?empty@?$vector@GV?$allocator@G@std@@@std@@QBE_NXZ 1003b790 f i BattleDialogs.obj
 0001:0003a7e0       ??A?$vector@GV?$allocator@G@std@@@std@@QAEAAGI@Z 1003b7e0 f i BattleDialogs.obj
 0001:0003a830       ?front@?$vector@GV?$allocator@G@std@@@std@@QAEAAGXZ 1003b830 f i BattleDialogs.obj
 0001:0003a880       ?back@?$vector@GV?$allocator@G@std@@@std@@QAEAAGXZ 1003b880 f i BattleDialogs.obj
 0001:0003a8d0       ?push_back@?$vector@GV?$allocator@G@std@@@std@@QAEXABG@Z 1003b8d0 f i BattleDialogs.obj
 0001:0003a930       ?pop_back@?$vector@GV?$allocator@G@std@@@std@@QAEXXZ 1003b930 f i BattleDialogs.obj
 0001:0003a990       ?clear@?$vector@GV?$allocator@G@std@@@std@@QAEXXZ 1003b990 f i BattleDialogs.obj
 0001:0003a9f0       ?reserve@?$vector@FV?$allocator@F@std@@@std@@QAEXI@Z 1003b9f0 f i BattleDialogs.obj
 0001:0003aaf0       ??A?$vector@FV?$allocator@F@std@@@std@@QAEAAFI@Z 1003baf0 f i BattleDialogs.obj
 0001:0003ab40       ?reserve@?$vector@EV?$allocator@E@std@@@std@@QAEXI@Z 1003bb40 f i BattleDialogs.obj
 0001:0003ac40       ??A?$vector@EV?$allocator@E@std@@@std@@QAEAAEI@Z 1003bc40 f i BattleDialogs.obj
 0001:0003ac90       ?begin@?$vector@VCUpgCategory@@V?$allocator@VCUpgCategory@@@std@@@std@@QAEPAVCUpgCategory@@XZ 1003bc90 f i BattleDialogs.obj
 0001:0003acd0       ?end@?$vector@VCUpgCategory@@V?$allocator@VCUpgCategory@@@std@@@std@@QAEPAVCUpgCategory@@XZ 1003bcd0 f i BattleDialogs.obj
 0001:0003ad10       ?push_back@?$vector@VCUpgCategory@@V?$allocator@VCUpgCategory@@@std@@@std@@QAEXABVCUpgCategory@@@Z 1003bd10 f i BattleDialogs.obj
 0001:0003ad70       ?insert@?$vector@V?$vector@GV?$allocator@G@std@@@std@@V?$allocator@V?$vector@GV?$allocator@G@std@@@std@@@2@@std@@QAEPAV?$vector@GV?$allocator@G@std@@@2@PAV32@ABV32@@Z 1003bd70 f i BattleDialogs.obj
 0001:0003adf0       ?_Destroy@?$vector@V?$vector@GV?$allocator@G@std@@@std@@V?$allocator@V?$vector@GV?$allocator@G@std@@@std@@@2@@std@@IAEXPAV?$vector@GV?$allocator@G@std@@@2@0@Z 1003bdf0 f i BattleDialogs.obj
 0001:0003ae60       ?deallocate@?$allocator@V?$vector@GV?$allocator@G@std@@@std@@@std@@QAEXPAXI@Z 1003be60 f i BattleDialogs.obj
 0001:0003aeb0       ?capacity@?$vector@GV?$allocator@G@std@@@std@@QBEIXZ 1003beb0 f i BattleDialogs.obj
 0001:0003af10       ?insert@?$vector@GV?$allocator@G@std@@@std@@QAEPAGPAGABG@Z 1003bf10 f i BattleDialogs.obj
 0001:0003af90       ?erase@?$vector@GV?$allocator@G@std@@@std@@QAEPAGPAG@Z 1003bf90 f i BattleDialogs.obj
 0001:0003b030       ?erase@?$vector@GV?$allocator@G@std@@@std@@QAEPAGPAG0@Z 1003c030 f i BattleDialogs.obj
 0001:0003b0c0       ?_Destroy@?$vector@GV?$allocator@G@std@@@std@@IAEXPAG0@Z 1003c0c0 f i BattleDialogs.obj
 0001:0003b130       ?_Ucopy@?$vector@GV?$allocator@G@std@@@std@@IAEPAGPBG0PAG@Z 1003c130 f i BattleDialogs.obj
 0001:0003b1b0       ?allocate@?$allocator@G@std@@QAEPAGIPBX@Z 1003c1b0 f i BattleDialogs.obj
 0001:0003b200       ?deallocate@?$allocator@G@std@@QAEXPAXI@Z 1003c200 f i BattleDialogs.obj
 0001:0003b250       ?capacity@?$vector@FV?$allocator@F@std@@@std@@QBEIXZ 1003c250 f i BattleDialogs.obj
 0001:0003b2b0       ?begin@?$vector@FV?$allocator@F@std@@@std@@QAEPAFXZ 1003c2b0 f i BattleDialogs.obj
 0001:0003b2f0       ?size@?$vector@FV?$allocator@F@std@@@std@@QBEIXZ 1003c2f0 f i BattleDialogs.obj
 0001:0003b350       ?_Destroy@?$vector@FV?$allocator@F@std@@@std@@IAEXPAF0@Z 1003c350 f i BattleDialogs.obj
 0001:0003b3c0       ?_Ucopy@?$vector@FV?$allocator@F@std@@@std@@IAEPAFPBF0PAF@Z 1003c3c0 f i BattleDialogs.obj
 0001:0003b440       ?allocate@?$allocator@F@std@@QAEPAFIPBX@Z 1003c440 f i BattleDialogs.obj
 0001:0003b490       ?deallocate@?$allocator@F@std@@QAEXPAXI@Z 1003c490 f i BattleDialogs.obj
 0001:0003b4e0       ?capacity@?$vector@EV?$allocator@E@std@@@std@@QBEIXZ 1003c4e0 f i BattleDialogs.obj
 0001:0003b540       ?begin@?$vector@EV?$allocator@E@std@@@std@@QAEPAEXZ 1003c540 f i BattleDialogs.obj
 0001:0003b580       ?size@?$vector@EV?$allocator@E@std@@@std@@QBEIXZ 1003c580 f i BattleDialogs.obj
 0001:0003b5e0       ?_Destroy@?$vector@EV?$allocator@E@std@@@std@@IAEXPAE0@Z 1003c5e0 f i BattleDialogs.obj
 0001:0003b650       ?_Ucopy@?$vector@EV?$allocator@E@std@@@std@@IAEPAEPBE0PAE@Z 1003c650 f i BattleDialogs.obj
 0001:0003b6d0       ?allocate@?$allocator@E@std@@QAEPAEIPBX@Z 1003c6d0 f i BattleDialogs.obj
 0001:0003b720       ?deallocate@?$allocator@E@std@@QAEXPAXI@Z 1003c720 f i BattleDialogs.obj
 0001:0003b770       ?insert@?$vector@VCUpgCategory@@V?$allocator@VCUpgCategory@@@std@@@std@@QAEPAVCUpgCategory@@PAV3@ABV3@@Z 1003c770 f i BattleDialogs.obj
 0001:0003b800       ?insert@?$vector@V?$vector@GV?$allocator@G@std@@@std@@V?$allocator@V?$vector@GV?$allocator@G@std@@@std@@@2@@std@@QAEXPAV?$vector@GV?$allocator@G@std@@@2@IABV32@@Z 1003c800 f i BattleDialogs.obj
 0001:0003bae0       ?destroy@?$allocator@V?$vector@GV?$allocator@G@std@@@std@@@std@@QAEXPAV?$vector@GV?$allocator@G@std@@@2@@Z 1003cae0 f i BattleDialogs.obj
 0001:0003bb30       ?insert@?$vector@GV?$allocator@G@std@@@std@@QAEXPAGIABG@Z 1003cb30 f i BattleDialogs.obj
 0001:0003bdf0       ?construct@?$allocator@G@std@@QAEXPAGABG@Z 1003cdf0 f i BattleDialogs.obj
 0001:0003be40       ?destroy@?$allocator@G@std@@QAEXPAG@Z 1003ce40 f i BattleDialogs.obj
 0001:0003be90       ?_Destroy@std@@YAXPAG@Z    1003ce90 f i BattleDialogs.obj
 0001:0003bec0       ?construct@?$allocator@F@std@@QAEXPAFABF@Z 1003cec0 f i BattleDialogs.obj
 0001:0003bf10       ?destroy@?$allocator@F@std@@QAEXPAF@Z 1003cf10 f i BattleDialogs.obj
 0001:0003bf60       ?construct@?$allocator@E@std@@QAEXPAEABE@Z 1003cf60 f i BattleDialogs.obj
 0001:0003bfb0       ?destroy@?$allocator@E@std@@QAEXPAE@Z 1003cfb0 f i BattleDialogs.obj
 0001:0003c000       ?insert@?$vector@VCUpgCategory@@V?$allocator@VCUpgCategory@@@std@@@std@@QAEXPAVCUpgCategory@@IABV3@@Z 1003d000 f i BattleDialogs.obj
 0001:0003c300       ?_Ucopy@?$vector@V?$vector@GV?$allocator@G@std@@@std@@V?$allocator@V?$vector@GV?$allocator@G@std@@@std@@@2@@std@@IAEPAV?$vector@GV?$allocator@G@std@@@2@PBV32@0PAV32@@Z 1003d300 f i BattleDialogs.obj
 0001:0003c380       ?_Ufill@?$vector@V?$vector@GV?$allocator@G@std@@@std@@V?$allocator@V?$vector@GV?$allocator@G@std@@@std@@@2@@std@@IAEXPAV?$vector@GV?$allocator@G@std@@@2@IABV32@@Z 1003d380 f i BattleDialogs.obj
 0001:0003c400       ?allocate@?$allocator@V?$vector@GV?$allocator@G@std@@@std@@@std@@QAEPAV?$vector@GV?$allocator@G@std@@@2@IPBX@Z 1003d400 f i BattleDialogs.obj
 0001:0003c450       ?_Ufill@?$vector@GV?$allocator@G@std@@@std@@IAEXPAGIABG@Z 1003d450 f i BattleDialogs.obj
 0001:0003c4d0       ?size@?$vector@VCUpgCategory@@V?$allocator@VCUpgCategory@@@std@@@std@@QBEIXZ 1003d4d0 f i BattleDialogs.obj
 0001:0003c540       ?_Destroy@?$vector@VCUpgCategory@@V?$allocator@VCUpgCategory@@@std@@@std@@IAEXPAVCUpgCategory@@0@Z 1003d540 f i BattleDialogs.obj
 0001:0003c5b0       ?_Ucopy@?$vector@VCUpgCategory@@V?$allocator@VCUpgCategory@@@std@@@std@@IAEPAVCUpgCategory@@PBV3@0PAV3@@Z 1003d5b0 f i BattleDialogs.obj
 0001:0003c630       ?_Ufill@?$vector@VCUpgCategory@@V?$allocator@VCUpgCategory@@@std@@@std@@IAEXPAVCUpgCategory@@IABV3@@Z 1003d630 f i BattleDialogs.obj
 0001:0003c6b0       ?allocate@?$allocator@VCUpgCategory@@@std@@QAEPAVCUpgCategory@@IPBX@Z 1003d6b0 f i BattleDialogs.obj
 0001:0003c700       ?deallocate@?$allocator@VCUpgCategory@@@std@@QAEXPAXI@Z 1003d700 f i BattleDialogs.obj
 0001:0003c750       ?construct@?$allocator@V?$vector@GV?$allocator@G@std@@@std@@@std@@QAEXPAV?$vector@GV?$allocator@G@std@@@2@ABV32@@Z 1003d750 f i BattleDialogs.obj
 0001:0003c7a0       ?construct@?$allocator@VCUpgCategory@@@std@@QAEXPAVCUpgCategory@@ABV3@@Z 1003d7a0 f i BattleDialogs.obj
 0001:0003c7f0       ?destroy@?$allocator@VCUpgCategory@@@std@@QAEXPAVCUpgCategory@@@Z 1003d7f0 f i BattleDialogs.obj
 0001:0003c840       ?copy@std@@YAPAV?$vector@GV?$allocator@G@std@@@1@PAV21@00@Z 1003d840 f i BattleDialogs.obj
 0001:0003c8b0       ?copy@std@@YAPAGPAG00@Z    1003d8b0 f i BattleDialogs.obj
 0001:0003c910       ?_Allocate@std@@YAPAGHPAG@Z 1003d910 f i BattleDialogs.obj
 0001:0003c970       ?_Allocate@std@@YAPAFHPAF@Z 1003d970 f i BattleDialogs.obj
 0001:0003c9d0       ?_Allocate@std@@YAPAEHPAE@Z 1003d9d0 f i BattleDialogs.obj
 0001:0003ca30       ?fill@std@@YAXPAV?$vector@GV?$allocator@G@std@@@1@0ABV21@@Z 1003da30 f i BattleDialogs.obj
 0001:0003ca90       ?copy_backward@std@@YAPAV?$vector@GV?$allocator@G@std@@@1@PAV21@00@Z 1003da90 f i BattleDialogs.obj
 0001:0003cb00       ?_Destroy@std@@YAXPAV?$vector@GV?$allocator@G@std@@@1@@Z 1003db00 f i BattleDialogs.obj
 0001:0003cb40       ?fill@std@@YAXPAG0ABG@Z    1003db40 f i BattleDialogs.obj
 0001:0003cb90       ?copy_backward@std@@YAPAGPAG00@Z 1003db90 f i BattleDialogs.obj
 0001:0003cbf0       ?_Construct@std@@YAXPAGABG@Z 1003dbf0 f i BattleDialogs.obj
 0001:0003cc70       ?_Construct@std@@YAXPAFABF@Z 1003dc70 f i BattleDialogs.obj
 0001:0003ccf0       ?_Destroy@std@@YAXPAF@Z    1003dcf0 f i BattleDialogs.obj
 0001:0003cd20       ?_Construct@std@@YAXPAEABE@Z 1003dd20 f i BattleDialogs.obj
 0001:0003cd90       ?_Destroy@std@@YAXPAE@Z    1003dd90 f i BattleDialogs.obj
 0001:0003cdc0       ?fill@std@@YAXPAVCUpgCategory@@0ABV2@@Z 1003ddc0 f i BattleDialogs.obj
 0001:0003ce20       ?copy_backward@std@@YAPAVCUpgCategory@@PAV2@00@Z 1003de20 f i BattleDialogs.obj
 0001:0003ce90       ?_Allocate@std@@YAPAV?$vector@GV?$allocator@G@std@@@1@HPAV21@@Z 1003de90 f i BattleDialogs.obj
 0001:0003cef0       ?_Allocate@std@@YAPAVCUpgCategory@@HPAV2@@Z 1003def0 f i BattleDialogs.obj
 0001:0003cf50       ?_Construct@std@@YAXPAV?$vector@GV?$allocator@G@std@@@1@ABV21@@Z 1003df50 f i BattleDialogs.obj
 0001:0003d000       ?_Construct@std@@YAXPAVCUpgCategory@@ABV2@@Z 1003e000 f i BattleDialogs.obj
 0001:0003d0b0       ?_Destroy@std@@YAXPAVCUpgCategory@@@Z 1003e0b0 f i BattleDialogs.obj
 0001:0003d0f0       ??_G?$vector@GV?$allocator@G@std@@@std@@QAEPAXI@Z 1003e0f0 f i BattleDialogs.obj
 0001:0003d160       ??4CUpgCategory@@QAEAAV0@ABV0@@Z 1003e160 f i BattleDialogs.obj
 0001:0003d1f0       ??0CUpgCategory@@QAE@ABV0@@Z 1003e1f0 f i BattleDialogs.obj
 0001:0003d2c0       ??_GCUpgCategory@@QAEPAXI@Z 1003e2c0 f i BattleDialogs.obj
 0001:0003d330       ??0?$vector@V?$vector@GV?$allocator@G@std@@@std@@V?$allocator@V?$vector@GV?$allocator@G@std@@@std@@@2@@std@@QAE@ABV01@@Z 1003e330 f i BattleDialogs.obj
 0001:0003d3e0       ??4?$vector@V?$vector@GV?$allocator@G@std@@@std@@V?$allocator@V?$vector@GV?$allocator@G@std@@@std@@@2@@std@@QAEAAV01@ABV01@@Z 1003e3e0 f i BattleDialogs.obj
 0001:0003d600       ??0?$vector@GV?$allocator@G@std@@@std@@QAE@ABV01@@Z 1003e600 f i BattleDialogs.obj
 0001:0003d6b0       ??4?$vector@GV?$allocator@G@std@@@std@@QAEAAV01@ABV01@@Z 1003e6b0 f i BattleDialogs.obj
 0001:0003d8d0       ?capacity@?$vector@V?$vector@GV?$allocator@G@std@@@std@@V?$allocator@V?$vector@GV?$allocator@G@std@@@std@@@2@@std@@QBEIXZ 1003e8d0 f i BattleDialogs.obj
 0001:0003d930       ?begin@?$vector@V?$vector@GV?$allocator@G@std@@@std@@V?$allocator@V?$vector@GV?$allocator@G@std@@@std@@@2@@std@@QBEPBV?$vector@GV?$allocator@G@std@@@2@XZ 1003e930 f i BattleDialogs.obj
 0001:0003d970       ?end@?$vector@V?$vector@GV?$allocator@G@std@@@std@@V?$allocator@V?$vector@GV?$allocator@G@std@@@std@@@2@@std@@QBEPBV?$vector@GV?$allocator@G@std@@@2@XZ 1003e970 f i BattleDialogs.obj
 0001:0003d9b0       ?begin@?$vector@GV?$allocator@G@std@@@std@@QBEPBGXZ 1003e9b0 f i BattleDialogs.obj
 0001:0003d9f0       ?end@?$vector@GV?$allocator@G@std@@@std@@QBEPBGXZ 1003e9f0 f i BattleDialogs.obj
 0001:0003da30       ?copy@std@@YAPAV?$vector@GV?$allocator@G@std@@@1@PBV21@0PAV21@@Z 1003ea30 f i BattleDialogs.obj
 0001:0003daa0       ?copy@std@@YAPAGPBG0PAG@Z  1003eaa0 f i BattleDialogs.obj
 0001:0003dc40       ?LoadMindData@@YAXPAEH@Z   1003ec40 f   Mind.obj
 0001:0003dc70       ?SaveMindData@@YAXPAPAEPAH@Z 1003ec70 f   Mind.obj
 0001:0003dca0       ?ClearMindData@@YAXXZ      1003eca0 f   Mind.obj
 0001:0003dd20       ?CloseMind@@YAXXZ          1003ed20 f   Mind.obj
 0001:0003dd60       ?FindTargetZone@Squad@@QAE_NPAFPAGAAG22@Z 1003ed60 f   Mind.obj
 0001:0003dec0       ?MoveToTop@Squad@@QAEXPAF@Z 1003eec0 f   Mind.obj
 0001:0003e500       ??0Mind@@QAE@XZ            1003f500 f   Mind.obj
 0001:0003e550       ??1Mind@@QAE@XZ            1003f550 f   Mind.obj
 0001:0003e5a0       ?Clear@Mind@@QAEXXZ        1003f5a0 f   Mind.obj
 0001:0003e610       ?Free@Mind@@QAEXXZ         1003f610 f   Mind.obj
 0001:0003e680       ?ActivateMind@@YAXEH@Z     1003f680 f   Mind.obj
 0001:0003e6f0       ?DeactivateMind@@YAXE@Z    1003f6f0 f   Mind.obj
 0001:0003e760       ??_GMind@@QAEPAXI@Z        1003f760 f i Mind.obj
 0001:0003e7d0       ?AddSquad@Mind@@QAEGGG@Z   1003f7d0 f   Mind.obj
 0001:0003e950       ?Init@Mind@@QAEXEH@Z       1003f950 f   Mind.obj
 0001:0003f720       ?Process@Mind@@QAEXXZ      10040720 f   Mind.obj
 0001:0003f980       ?Process0@Mind@@QAEXXZ     10040980 f   Mind.obj
 0001:00040790       ?Process1@Mind@@QAEXXZ     10041790 f   Mind.obj
 0001:000419b0       ?GetArmyMap@@YAXPAH0PAUActiveArmy@@AAH@Z 100429b0 f   Mind.obj
 0001:00041e40       ?ShowWay@@YAXPADPAGH@Z     10042e40 f   Mind.obj
 0001:00041f70       ?FindStepToObject@@YAHHPAFPAG1@Z 10042f70 f   Mind.obj
 0001:00041fe0       ?GetArmyMap@@YAXPAUEnemy@@PAGPAF@Z 10042fe0 f   Mind.obj
 0001:00042540       ?MarkArmy@Mind@@QAEXXZ     10043540 f   Mind.obj
 0001:00042660       ?Process2@Mind@@QAEXXZ     10043660 f   Mind.obj
 0001:00042e50       ?ProcessCannons@Mind@@QAEXH@Z 10043e50 f   Mind.obj
 0001:00044b00       ?Process3@Mind@@QAEXXZ     10045b00 f   Mind.obj
 0001:00044c30       ?SetLink0@Mind@@QAEXXZ     10045c30 f   Mind.obj
 0001:000450a0       ??1?$priority_queue@PAUActiveArmy@@V?$vector@PAUActiveArmy@@V?$allocator@PAUActiveArmy@@@std@@@std@@VGreatAA@@@std@@QAE@XZ 100460a0 f i Mind.obj
 0001:000450f0       ??1?$priority_queue@PAVSquad@@V?$vector@PAVSquad@@V?$allocator@PAVSquad@@@std@@@std@@VGreatSQD@@@std@@QAE@XZ 100460f0 f i Mind.obj
 0001:00045140       ?ShowVistrel@Mind@@QAEXXZ  10046140 f i Mind.obj
 0001:000451a0       ?MindCheats@@YAXEPAD@Z     100461a0 f   Mind.obj
 0001:000454f0       ?SetGameGoals@Mind@@QAEHXZ 100464f0 f   Mind.obj
 0001:00045780       ?RefreshSquadInfo@Mind@@QAEXXZ 10046780 f   Mind.obj
 0001:00045980       ?GetArmyActorPower@Mind@@QAEHPAUActiveArmy@@@Z 10046980 f   Mind.obj
 0001:00045a60       ?GlobalAttack@Mind@@QAEXXZ 10046a60 f   Mind.obj
 0001:00045b40       ?ActivateArmy@Mind@@QAEXPAUActiveArmy@@H@Z 10046b40 f   Mind.obj
 0001:00046470       ?Clear@ActiveArmy@@QAEXH@Z 10047470 f   Mind.obj
 0001:00046510       ??0Branch@@QAE@G@Z         10047510 f   Mind.obj
 0001:00046550       ??0Weapon@@QAE@G@Z         10047550 f   Mind.obj
 0001:00046590       ??0?$priority_queue@PAUActiveArmy@@V?$vector@PAUActiveArmy@@V?$allocator@PAUActiveArmy@@@std@@@std@@VGreatAA@@@std@@QAE@ABVGreatAA@@ABV?$allocator@PAUActiveArmy@@@1@@Z 10047590 f i Mind.obj
 0001:000465f0       ?empty@?$priority_queue@PAUActiveArmy@@V?$vector@PAUActiveArmy@@V?$allocator@PAUActiveArmy@@@std@@@std@@VGreatAA@@@std@@QBE_NXZ 100475f0 f i Mind.obj
 0001:00046640       ?top@?$priority_queue@PAUActiveArmy@@V?$vector@PAUActiveArmy@@V?$allocator@PAUActiveArmy@@@std@@@std@@VGreatAA@@@std@@QAEAAPAUActiveArmy@@XZ 10047640 f i Mind.obj
 0001:00046690       ?push@?$priority_queue@PAUActiveArmy@@V?$vector@PAUActiveArmy@@V?$allocator@PAUActiveArmy@@@std@@@std@@VGreatAA@@@std@@QAEXABQAUActiveArmy@@@Z 10047690 f i Mind.obj
 0001:00046710       ?pop@?$priority_queue@PAUActiveArmy@@V?$vector@PAUActiveArmy@@V?$allocator@PAUActiveArmy@@@std@@@std@@VGreatAA@@@std@@QAEXXZ 10047710 f i Mind.obj
 0001:00046780       ??1?$vector@PAUActiveArmy@@V?$allocator@PAUActiveArmy@@@std@@@std@@QAE@XZ 10047780 f i Mind.obj
 0001:00046830       ??0?$priority_queue@PAVSquad@@V?$vector@PAVSquad@@V?$allocator@PAVSquad@@@std@@@std@@VGreatSQD@@@std@@QAE@ABVGreatSQD@@ABV?$allocator@PAVSquad@@@1@@Z 10047830 f i Mind.obj
 0001:00046890       ?empty@?$priority_queue@PAVSquad@@V?$vector@PAVSquad@@V?$allocator@PAVSquad@@@std@@@std@@VGreatSQD@@@std@@QBE_NXZ 10047890 f i Mind.obj
 0001:000468e0       ?top@?$priority_queue@PAVSquad@@V?$vector@PAVSquad@@V?$allocator@PAVSquad@@@std@@@std@@VGreatSQD@@@std@@QAEAAPAVSquad@@XZ 100478e0 f i Mind.obj
 0001:00046930       ?push@?$priority_queue@PAVSquad@@V?$vector@PAVSquad@@V?$allocator@PAVSquad@@@std@@@std@@VGreatSQD@@@std@@QAEXABQAVSquad@@@Z 10047930 f i Mind.obj
 0001:000469b0       ?pop@?$priority_queue@PAVSquad@@V?$vector@PAVSquad@@V?$allocator@PAVSquad@@@std@@@std@@VGreatSQD@@@std@@QAEXXZ 100479b0 f i Mind.obj
 0001:00046a20       ??1?$vector@PAVSquad@@V?$allocator@PAVSquad@@@std@@@std@@QAE@XZ 10047a20 f i Mind.obj
 0001:00046ad0       ??0?$vector@PAUActiveArmy@@V?$allocator@PAUActiveArmy@@@std@@@std@@QAE@ABV?$allocator@PAUActiveArmy@@@1@@Z 10047ad0 f i Mind.obj
 0001:00046b40       ?begin@?$vector@PAUActiveArmy@@V?$allocator@PAUActiveArmy@@@std@@@std@@QAEPAPAUActiveArmy@@XZ 10047b40 f i Mind.obj
 0001:00046b80       ?end@?$vector@PAUActiveArmy@@V?$allocator@PAUActiveArmy@@@std@@@std@@QAEPAPAUActiveArmy@@XZ 10047b80 f i Mind.obj
 0001:00046bc0       ?empty@?$vector@PAUActiveArmy@@V?$allocator@PAUActiveArmy@@@std@@@std@@QBE_NXZ 10047bc0 f i Mind.obj
 0001:00046c10       ?front@?$vector@PAUActiveArmy@@V?$allocator@PAUActiveArmy@@@std@@@std@@QAEAAPAUActiveArmy@@XZ 10047c10 f i Mind.obj
 0001:00046c60       ?push_back@?$vector@PAUActiveArmy@@V?$allocator@PAUActiveArmy@@@std@@@std@@QAEXABQAUActiveArmy@@@Z 10047c60 f i Mind.obj
 0001:00046cc0       ?pop_back@?$vector@PAUActiveArmy@@V?$allocator@PAUActiveArmy@@@std@@@std@@QAEXXZ 10047cc0 f i Mind.obj
 0001:00046d20       ?_Destroy@?$vector@PAUActiveArmy@@V?$allocator@PAUActiveArmy@@@std@@@std@@IAEXPAPAUActiveArmy@@0@Z 10047d20 f i Mind.obj
 0001:00046d90       ?deallocate@?$allocator@PAUActiveArmy@@@std@@QAEXPAXI@Z 10047d90 f i Mind.obj
 0001:00046de0       ??0?$vector@PAVSquad@@V?$allocator@PAVSquad@@@std@@@std@@QAE@ABV?$allocator@PAVSquad@@@1@@Z 10047de0 f i Mind.obj
 0001:00046e50       ?begin@?$vector@PAVSquad@@V?$allocator@PAVSquad@@@std@@@std@@QAEPAPAVSquad@@XZ 10047e50 f i Mind.obj
 0001:00046e90       ?end@?$vector@PAVSquad@@V?$allocator@PAVSquad@@@std@@@std@@QAEPAPAVSquad@@XZ 10047e90 f i Mind.obj
 0001:00046ed0       ?empty@?$vector@PAVSquad@@V?$allocator@PAVSquad@@@std@@@std@@QBE_NXZ 10047ed0 f i Mind.obj
 0001:00046f20       ?front@?$vector@PAVSquad@@V?$allocator@PAVSquad@@@std@@@std@@QAEAAPAVSquad@@XZ 10047f20 f i Mind.obj
 0001:00046f70       ?push_back@?$vector@PAVSquad@@V?$allocator@PAVSquad@@@std@@@std@@QAEXABQAVSquad@@@Z 10047f70 f i Mind.obj
 0001:00046fd0       ?pop_back@?$vector@PAVSquad@@V?$allocator@PAVSquad@@@std@@@std@@QAEXXZ 10047fd0 f i Mind.obj
 0001:00047030       ?_Destroy@?$vector@PAVSquad@@V?$allocator@PAVSquad@@@std@@@std@@IAEXPAPAVSquad@@0@Z 10048030 f i Mind.obj
 0001:000470a0       ?deallocate@?$allocator@PAVSquad@@@std@@QAEXPAXI@Z 100480a0 f i Mind.obj
 0001:000470f0       ?size@?$vector@PAUActiveArmy@@V?$allocator@PAUActiveArmy@@@std@@@std@@QBEIXZ 100480f0 f i Mind.obj
 0001:00047150       ?insert@?$vector@PAUActiveArmy@@V?$allocator@PAUActiveArmy@@@std@@@std@@QAEPAPAUActiveArmy@@PAPAU3@ABQAU3@@Z 10048150 f i Mind.obj
 0001:000471d0       ?erase@?$vector@PAUActiveArmy@@V?$allocator@PAUActiveArmy@@@std@@@std@@QAEPAPAUActiveArmy@@PAPAU3@@Z 100481d0 f i Mind.obj
 0001:00047270       ?destroy@?$allocator@PAUActiveArmy@@@std@@QAEXPAPAUActiveArmy@@@Z 10048270 f i Mind.obj
 0001:000472c0       ?size@?$vector@PAVSquad@@V?$allocator@PAVSquad@@@std@@@std@@QBEIXZ 100482c0 f i Mind.obj
 0001:00047320       ?insert@?$vector@PAVSquad@@V?$allocator@PAVSquad@@@std@@@std@@QAEPAPAVSquad@@PAPAV3@ABQAV3@@Z 10048320 f i Mind.obj
 0001:000473a0       ?erase@?$vector@PAVSquad@@V?$allocator@PAVSquad@@@std@@@std@@QAEPAPAVSquad@@PAPAV3@@Z 100483a0 f i Mind.obj
 0001:00047440       ?destroy@?$allocator@PAVSquad@@@std@@QAEXPAPAVSquad@@@Z 10048440 f i Mind.obj
 0001:00047490       ?insert@?$vector@PAUActiveArmy@@V?$allocator@PAUActiveArmy@@@std@@@std@@QAEXPAPAUActiveArmy@@IABQAU3@@Z 10048490 f i Mind.obj
 0001:00047760       ?insert@?$vector@PAVSquad@@V?$allocator@PAVSquad@@@std@@@std@@QAEXPAPAVSquad@@IABQAV3@@Z 10048760 f i Mind.obj
 0001:00047a30       ?_Ucopy@?$vector@PAUActiveArmy@@V?$allocator@PAUActiveArmy@@@std@@@std@@IAEPAPAUActiveArmy@@PBQAU3@0PAPAU3@@Z 10048a30 f i Mind.obj
 0001:00047ab0       ?_Ufill@?$vector@PAUActiveArmy@@V?$allocator@PAUActiveArmy@@@std@@@std@@IAEXPAPAUActiveArmy@@IABQAU3@@Z 10048ab0 f i Mind.obj
 0001:00047b30       ?allocate@?$allocator@PAUActiveArmy@@@std@@QAEPAPAUActiveArmy@@IPBX@Z 10048b30 f i Mind.obj
 0001:00047b80       ?_Ucopy@?$vector@PAVSquad@@V?$allocator@PAVSquad@@@std@@@std@@IAEPAPAVSquad@@PBQAV3@0PAPAV3@@Z 10048b80 f i Mind.obj
 0001:00047c00       ?_Ufill@?$vector@PAVSquad@@V?$allocator@PAVSquad@@@std@@@std@@IAEXPAPAVSquad@@IABQAV3@@Z 10048c00 f i Mind.obj
 0001:00047c80       ?allocate@?$allocator@PAVSquad@@@std@@QAEPAPAVSquad@@IPBX@Z 10048c80 f i Mind.obj
 0001:00047cd0       ?construct@?$allocator@PAUActiveArmy@@@std@@QAEXPAPAUActiveArmy@@ABQAU3@@Z 10048cd0 f i Mind.obj
 0001:00047d20       ?construct@?$allocator@PAVSquad@@@std@@QAEXPAPAVSquad@@ABQAV3@@Z 10048d20 f i Mind.obj
 0001:00047d70       ?push_heap@std@@YAXPAPAUActiveArmy@@0VGreatAA@@@Z 10048d70 f i Mind.obj
 0001:00047de0       ?pop_heap@std@@YAXPAPAUActiveArmy@@0VGreatAA@@@Z 10048de0 f i Mind.obj
 0001:00047e40       ?push_heap@std@@YAXPAPAVSquad@@0VGreatSQD@@@Z 10048e40 f i Mind.obj
 0001:00047eb0       ?pop_heap@std@@YAXPAPAVSquad@@0VGreatSQD@@@Z 10048eb0 f i Mind.obj
 0001:00047f10       ?copy@std@@YAPAPAUActiveArmy@@PAPAU2@00@Z 10048f10 f i Mind.obj
 0001:00047f70       ?_Destroy@std@@YAXPAPAUActiveArmy@@@Z 10048f70 f i Mind.obj
 0001:00047fa0       ?copy@std@@YAPAPAVSquad@@PAPAV2@00@Z 10048fa0 f i Mind.obj
 0001:00048000       ?_Destroy@std@@YAXPAPAVSquad@@@Z 10049000 f i Mind.obj
 0001:00048030       ?fill@std@@YAXPAPAUActiveArmy@@0ABQAU2@@Z 10049030 f i Mind.obj
 0001:00048080       ?copy_backward@std@@YAPAPAUActiveArmy@@PAPAU2@00@Z 10049080 f i Mind.obj
 0001:000480e0       ?fill@std@@YAXPAPAVSquad@@0ABQAV2@@Z 100490e0 f i Mind.obj
 0001:00048130       ?copy_backward@std@@YAPAPAVSquad@@PAPAV2@00@Z 10049130 f i Mind.obj
 0001:00048190       ?_Allocate@std@@YAPAPAUActiveArmy@@HPAPAU2@@Z 10049190 f i Mind.obj
 0001:000481f0       ?_Allocate@std@@YAPAPAVSquad@@HPAPAV2@@Z 100491f0 f i Mind.obj
 0001:00048250       ?_Construct@std@@YAXPAPAUActiveArmy@@ABQAU2@@Z 10049250 f i Mind.obj
 0001:000482c0       ?_Construct@std@@YAXPAPAVSquad@@ABQAV2@@Z 100492c0 f i Mind.obj
 0001:00048330       ?_Dist_type@std@@YAPAHPBQAUActiveArmy@@@Z 10049330 f i Mind.obj
 0001:00048360       ?_Val_type@std@@YAPAPAUActiveArmy@@PBQAU2@@Z 10049360 f i Mind.obj
 0001:00048390       ?_Push_heap_0@std@@YAXPAPAUActiveArmy@@0VGreatAA@@PAH0@Z 10049390 f i Mind.obj
 0001:00048400       ?_Pop_heap_0@std@@YAXPAPAUActiveArmy@@0VGreatAA@@0@Z 10049400 f i Mind.obj
 0001:00048480       ?_Dist_type@std@@YAPAHPBQAVSquad@@@Z 10049480 f i Mind.obj
 0001:000484b0       ?_Val_type@std@@YAPAPAVSquad@@PBQAV2@@Z 100494b0 f i Mind.obj
 0001:000484e0       ?_Push_heap_0@std@@YAXPAPAVSquad@@0VGreatSQD@@PAH0@Z 100494e0 f i Mind.obj
 0001:00048550       ?_Pop_heap_0@std@@YAXPAPAVSquad@@0VGreatSQD@@0@Z 10049550 f i Mind.obj
 0001:000485d0       ?_Push_heap@std@@YAXPAPAUActiveArmy@@HHPAU2@VGreatAA@@@Z 100495d0 f i Mind.obj
 0001:00048690       ??RGreatAA@@QAE_NPAUActiveArmy@@0@Z 10049690 f i Mind.obj
 0001:000486e0       ?_Pop_heap@std@@YAXPAPAUActiveArmy@@00PAU2@VGreatAA@@PAH@Z 100496e0 f i Mind.obj
 0001:00048750       ?_Push_heap@std@@YAXPAPAVSquad@@HHPAV2@VGreatSQD@@@Z 10049750 f i Mind.obj
 0001:00048810       ??RGreatSQD@@QAE_NPAVSquad@@0@Z 10049810 f i Mind.obj
 0001:00048860       ?_Pop_heap@std@@YAXPAPAVSquad@@00PAV2@VGreatSQD@@PAH@Z 10049860 f i Mind.obj
 0001:000488d0       ?_Adjust_heap@std@@YAXPAPAUActiveArmy@@HHPAU2@VGreatAA@@@Z 100498d0 f i Mind.obj
 0001:000489e0       ?_Adjust_heap@std@@YAXPAPAVSquad@@HHPAV2@VGreatSQD@@@Z 100499e0 f i Mind.obj
 0001:00048c30       ?LoadScript@@YAXXZ         10049c30 f   Script.obj
 0001:00049340       ?AddProtect@CPlayerScript@@QAE_NG@Z 1004a340 f   Script.obj
 0001:000493e0       ??0CPlayerScript@@QAE@XZ   1004a3e0 f i Script.obj
 0001:00049430       ??1CPlayerScript@@QAE@XZ   1004a430 f i Script.obj
 0001:00049480       ?Init@CPlayerScript@@QAEXXZ 1004a480 f i Script.obj
 0001:000494e0       ?Free@CPlayerScript@@QAEXXZ 1004a4e0 f i Script.obj
 0001:0004954e       ?_ExMalloc@@YAPAXH@Z       1004a54e f   dmcr:dmcr.exe
 0001:00049554       ?_ExFree@@YAXPAX@Z         1004a554 f   dmcr:dmcr.exe
 0001:0004955a       _RegisterDynGroupEx        1004a55a f   dmcr:dmcr.exe
 0001:00049560       _RegisterZone              1004a560 f   dmcr:dmcr.exe
 0001:00049566       _GetUnitInfo               1004a566 f   dmcr:dmcr.exe
 0001:0004956c       _GetNUnits                 1004a56c f   dmcr:dmcr.exe
 0001:00049572       _RegisterUnits             1004a572 f   dmcr:dmcr.exe
 0001:00049578       ?Gclose@@YAXPAVGFILE@@@Z   1004a578 f   dmcr:dmcr.exe
 0001:0004957e       _RegisterUnitType          1004a57e f   dmcr:dmcr.exe
 0001:00049584       ?GetTextByID@@YAPADPAD@Z   1004a584 f   dmcr:dmcr.exe
 0001:0004958a       _MissErrorMessage          1004a58a f   dmcr:dmcr.exe
 0001:00049590       _UnitsCenter               1004a590 f   dmcr:dmcr.exe
 0001:00049596       ?_ExRealloc@@YAPAXPAXH@Z   1004a596 f   dmcr:dmcr.exe
 0001:0004959c       ?Gopen@@YAPAVGFILE@@PAD0@Z 1004a59c f   dmcr:dmcr.exe
 0001:000495a2       _SGP_ComeIntoBuilding      1004a5a2 f   dmcr:dmcr.exe
 0001:000495a8       _SGP_RepairBuilding        1004a5a8 f   dmcr:dmcr.exe
 0001:000495ae       ?SendDipCommand@@YAXPADH@Z 1004a5ae f   dmcr:dmcr.exe
 0001:000495b4       _InviteUnitIntoBuilding    1004a5b4 f   dmcr:dmcr.exe
 0001:000495ba       _ChangeUnitColor           1004a5ba f   dmcr:dmcr.exe
 0001:000495c0       _SetGroupNMASK             1004a5c0 f   dmcr:dmcr.exe
 0001:000495c6       _GetNatNMASK               1004a5c6 f   dmcr:dmcr.exe
 0001:000495cc       _CleanGroup                1004a5cc f   dmcr:dmcr.exe
 0001:000495d2       _GetGlobalTime             1004a5d2 f   dmcr:dmcr.exe
 0001:000495d8       _SetResource               1004a5d8 f   dmcr:dmcr.exe
 0001:000495de       _GetResource               1004a5de f   dmcr:dmcr.exe
 0001:000495e4       ?ActivateDipDialog@@YAXPAD@Z 1004a5e4 f   dmcr:dmcr.exe
 0001:000495ea       _GetMyNation               1004a5ea f   dmcr:dmcr.exe
 0001:000495f0       _SelChangeNation           1004a5f0 f   dmcr:dmcr.exe
 0001:000495f6       _SelectUnits               1004a5f6 f   dmcr:dmcr.exe
 0001:000495fc       _SetGroupStartNMASK        1004a5fc f   dmcr:dmcr.exe
 0001:00049602       _GetTotalAmount0           1004a602 f   dmcr:dmcr.exe
 0001:00049608       _ProduceUnitFast           1004a608 f   dmcr:dmcr.exe
 0001:0004960e       _EraseGroup                1004a60e f   dmcr:dmcr.exe
 0001:00049614       _GetMoneyString            1004a614 f   dmcr:dmcr.exe
 0001:0004961a       _SetStartPoint             1004a61a f   dmcr:dmcr.exe
 0001:00049620       _AddUnitsInZoneToGroup     1004a620 f   dmcr:dmcr.exe
 0001:00049626       _DieUnit                   1004a626 f   dmcr:dmcr.exe
 0001:0004962c       _GetInsideList             1004a62c f   dmcr:dmcr.exe
 0001:00049632       _SetUnitInfo               1004a632 f   dmcr:dmcr.exe
 0001:00049638       _CopyUnits                 1004a638 f   dmcr:dmcr.exe
 0001:0004963e       _AttackEnemyInZone2        1004a63e f   dmcr:dmcr.exe
 0001:00049644       _GetRND                    1004a644 f   dmcr:dmcr.exe
 0001:0004964a       _SetAI_Guard               1004a64a f   dmcr:dmcr.exe
 0001:00049650       ?AssignHint@@YAXPADH@Z     1004a650 f   dmcr:dmcr.exe
 0001:00049656       _GetTSin                   1004a656 f   dmcr:dmcr.exe
 0001:0004965c       _GetTCos                   1004a65c f   dmcr:dmcr.exe
 0001:00049662       _OBJ_SendTo                1004a662 f   dmcr:dmcr.exe
 0001:00049668       _GetZoneR                  1004a668 f   dmcr:dmcr.exe
 0001:0004966e       _GetZoneCoor               1004a66e f   dmcr:dmcr.exe
 0001:00049674       ?Ggetch@@YAHPAVGFILE@@@Z   1004a674 f   dmcr:dmcr.exe
 0001:0004967a       _GetNZones                 1004a67a f   dmcr:dmcr.exe
 0001:00049680       _GetUnitGlobalInfo         1004a680 f   dmcr:dmcr.exe
 0001:00049686       _GetGrpCenter              1004a686 f   dmcr:dmcr.exe
 0001:0004968c       _GetGroupName              1004a68c f   dmcr:dmcr.exe
 0001:00049692       _GetAmountOfGroups         1004a692 f   dmcr:dmcr.exe
 0001:00049698       _GetGroupCharge            1004a698 f   dmcr:dmcr.exe
 0001:0004969e       _CreateFriendBuildingsTopList 1004a69e f   dmcr:dmcr.exe
 0001:000496a4       _CreateTopListEnArmy       1004a6a4 f   dmcr:dmcr.exe
 0001:000496aa       _AttackByTomahawks         1004a6aa f   dmcr:dmcr.exe
 0001:000496b0       _DeleteUnitFromGroup       1004a6b0 f   dmcr:dmcr.exe
 0001:000496b6       _GetDiff                   1004a6b6 f   dmcr:dmcr.exe
 0001:000496bc       _isUnitAbsorber            1004a6bc f   dmcr:dmcr.exe
 0001:000496c2       _GetOBJ                    1004a6c2 f   dmcr:dmcr.exe
 0001:000496c8       _MakeOneShotToBuild        1004a6c8 f   dmcr:dmcr.exe
 0001:000496ce       _SetUnitsState             1004a6ce f   dmcr:dmcr.exe
 0001:000496d4       _GetEnemyForce             1004a6d4 f   dmcr:dmcr.exe
 0001:000496da       _GetGroupForce             1004a6da f   dmcr:dmcr.exe
 0001:000496e0       _CreateDangerMapForTom     1004a6e0 f   dmcr:dmcr.exe
 0001:000496e6       _AttackEnemyPeasantsInZone 1004a6e6 f   dmcr:dmcr.exe
 0001:000496ec       _CreatePeasantsTopList     1004a6ec f   dmcr:dmcr.exe
 0001:000496f2       _CreateDangerMap           1004a6f2 f   dmcr:dmcr.exe
 0001:000496f8       _CreateDangerMapForFire    1004a6f8 f   dmcr:dmcr.exe
 0001:000496fe       _SetToInternalResourcesZero 1004a6fe f   dmcr:dmcr.exe
 0001:00049704       _GrpAttackObject           1004a704 f   dmcr:dmcr.exe
 0001:0004970a       _CheckIfBuildingIsFired    1004a70a f   dmcr:dmcr.exe
 0001:00049710       _ArtAttackObject           1004a710 f   dmcr:dmcr.exe
 0001:00049716       _ArtAttackGroud            1004a716 f   dmcr:dmcr.exe
 0001:0004971c       _CreateNonFiredEnemyBuildingsTopList 1004a71c f   dmcr:dmcr.exe
 0001:00049722       _CreateDangerMapWithoutPeasants 1004a722 f   dmcr:dmcr.exe
 0001:00049728       _CheckIfNotBusy            1004a728 f   dmcr:dmcr.exe
 0001:0004972e       _GetZonesDist              1004a72e f   dmcr:dmcr.exe
 0001:00049734       _GetAlliesForce            1004a734 f   dmcr:dmcr.exe
 0001:0004973a       _SGP_MoveToPoint           1004a73a f   dmcr:dmcr.exe
 0001:00049740       _GetTopZRealCoor           1004a740 f   dmcr:dmcr.exe
 0001:00049746       _GetLastFullWay            1004a746 f   dmcr:dmcr.exe
 0001:0004974c       _GetTopDist                1004a74c f   dmcr:dmcr.exe
 0001:00049752       ?DetArcher@@YA_NG@Z        1004a752 f   dmcr:dmcr.exe
 0001:00049758       _FindNextZoneOnTheSafeWay  1004a758 f   dmcr:dmcr.exe
 0001:0004975e       _FindNextZoneOnTheSafeWayToObject 1004a75e f   dmcr:dmcr.exe
 0001:00049764       _CreateTopListForStorm     1004a764 f   dmcr:dmcr.exe
 0001:0004976a       _CreateTopListForStormHard 1004a76a f   dmcr:dmcr.exe
 0001:00049770       _SetDangerMap              1004a770 f   dmcr:dmcr.exe
 0001:00049776       _CreateDangerMapForStorm   1004a776 f   dmcr:dmcr.exe
 0001:0004977c       _CreateDangerMapForStormHard 1004a77c f   dmcr:dmcr.exe
 0001:00049782       _RemoveGroup               1004a782 f   dmcr:dmcr.exe
 0001:00049788       _RemoveNearestUnit         1004a788 f   dmcr:dmcr.exe
 0001:0004978e       _GetBuildingOposit         1004a78e f   dmcr:dmcr.exe
 0001:00049794       _GetBuildingEntryPoint     1004a794 f   dmcr:dmcr.exe
 0001:0004979a       _GetTopZone                1004a79a f   dmcr:dmcr.exe
 0001:000497a0       _DeleteHiddenUnits         1004a7a0 f   dmcr:dmcr.exe
 0001:000497a6       _OBJ_SmartSendTo           1004a7a6 f   dmcr:dmcr.exe
 0001:000497ac       _GetMaxAttRadius           1004a7ac f   dmcr:dmcr.exe
 0001:000497b2       _FilterUnitsByCategory     1004a7b2 f   dmcr:dmcr.exe
 0001:000497b8       _GetTargetObject           1004a7b8 f   dmcr:dmcr.exe
 0001:000497be       _GetListOfNearZones        1004a7be f   dmcr:dmcr.exe
 0001:000497c4       _SGP_MakeOneStepTo         1004a7c4 f   dmcr:dmcr.exe
 0001:000497ca       _RemoveAttackingUnits      1004a7ca f   dmcr:dmcr.exe
 0001:000497d0       _FindNextZoneOnTheSafeWayToLimitedObject 1004a7d0 f   dmcr:dmcr.exe
 0001:000497d6       _CreateObject0             1004a7d6 f   dmcr:dmcr.exe
 0001:000497dc       _RegisterFormation         1004a7dc f   dmcr:dmcr.exe
 0001:000497e2       _GetTotalAmount1           1004a7e2 f   dmcr:dmcr.exe
 0001:000497e8       _CheckLandLocking          1004a7e8 f   dmcr:dmcr.exe
 0001:000497ee       ?RClose@@YAXPAX@Z          1004a7ee f   dmcr:dmcr.exe
 0001:000497f4       ?RBlockRead@@YAKPAX0K@Z    1004a7f4 f   dmcr:dmcr.exe
 0001:000497fa       ?RFileSize@@YAKPAX@Z       1004a7fa f   dmcr:dmcr.exe
 0001:00049800       ?RReset@@YAPAXPBD@Z        1004a800 f   dmcr:dmcr.exe
 0001:00049806       ?RBlockWrite@@YAKPAX0K@Z   1004a806 f   dmcr:dmcr.exe
 0001:0004980c       ?RRewrite@@YAPAXPBD@Z      1004a80c f   dmcr:dmcr.exe
 0001:00049812       _GetUnitsByNation          1004a812 f   dmcr:dmcr.exe
 0001:00049818       _SaveSelectedUnits         1004a818 f   dmcr:dmcr.exe
 0001:0004981e       _SetInterfaceCallback      1004a81e f   dmcr:dmcr.exe
 0001:00049824       ?GetMaxObject@@YAHXZ       1004a824 f   dmcr:dmcr.exe
 0001:0004982a       ?AssignHint1@@YAXPADH@Z    1004a82a f   dmcr:dmcr.exe
 0001:00049830       ?Close@GFILE@@QAEXXZ       1004a830 f   dmcr:dmcr.exe
 0001:00049836       ?DrawCMLInterface@@YAXH@Z  1004a836 f   dmcr:dmcr.exe
 0001:0004983c       ?ActivateCMLInterface@@YAXHPAD@Z 1004a83c f   dmcr:dmcr.exe
 0001:00049842       _ClearGroup                1004a842 f   dmcr:dmcr.exe
 0001:00049848       _InsertUnitToGroup         1004a848 f   dmcr:dmcr.exe
 0001:0004984e       _CreateFormation           1004a84e f   dmcr:dmcr.exe
 0001:00049854       ?ShowFogOfWar@@YAXXZ       1004a854 f   dmcr:dmcr.exe
 0001:0004985a       ?GetMyPlayerID@@YAEXZ      1004a85a f   dmcr:dmcr.exe
 0001:00049860       ?SetNormalMode@@YAXXZ      1004a860 f   dmcr:dmcr.exe
 0001:00049866       ?SetInfoStyle@@YAXEH@Z     1004a866 f   dmcr:dmcr.exe
 0001:0004986c       ?SetDipDlgDX@@YAXH@Z       1004a86c f   dmcr:dmcr.exe
 0001:00049872       ?CloseDipDialog@@YAXXZ     1004a872 f   dmcr:dmcr.exe
 0001:00049878       _AddResource               1004a878 f   dmcr:dmcr.exe
 0001:0004987e       ?GetUpgCost@@YAXEGAAPAG@Z  1004a87e f   dmcr:dmcr.exe
 0001:00049884       ?GetPlayerColor@@YAEG@Z    1004a884 f   dmcr:dmcr.exe
 0001:0004988a       ?GetMyPlayerColor@@YAEXZ   1004a88a f   dmcr:dmcr.exe
 0001:00049890       ?GetNewUpg@@YAPAVNewUpgrade@@EG@Z 1004a890 f   dmcr:dmcr.exe
 0001:00049896       ?GetNUpgrades@@YAHE@Z      1004a896 f   dmcr:dmcr.exe
 0001:0004989c       ?GetPressentMonsters@@YAXEPAH@Z 1004a89c f   dmcr:dmcr.exe
 0001:000498a2       ?GetNMon@@YAHE@Z           1004a8a2 f   dmcr:dmcr.exe
 0001:000498a8       ?GetPlayerName@@YAPADE@Z   1004a8a8 f   dmcr:dmcr.exe
 0001:000498ae       ?SetObservMode@@YAXXZ      1004a8ae f   dmcr:dmcr.exe
 0001:000498b4       _InitialUpgradeNew         1004a8b4 f   dmcr:dmcr.exe
 0001:000498ba       _ShowVictory               1004a8ba f   dmcr:dmcr.exe
 0001:000498c0       _LooseGame                 1004a8c0 f   dmcr:dmcr.exe
 0001:000498c6       ?GetUnitGPName@@YAPADGAAH0@Z 1004a8c6 f   dmcr:dmcr.exe
 0001:000498cc       _GetUnitIcon               1004a8cc f   dmcr:dmcr.exe
 0001:000498d2       ?GetUnitMessage@@YAPADG@Z  1004a8d2 f   dmcr:dmcr.exe
 0001:000498d8       ?GetProtectIcon@@YAGG@Z    1004a8d8 f   dmcr:dmcr.exe
 0001:000498de       ?GetWeaponIcon@@YAGG@Z     1004a8de f   dmcr:dmcr.exe
 0001:000498e4       ?DetCannon@@YA_NG@Z        1004a8e4 f   dmcr:dmcr.exe
 0001:000498ea       ?GetUpgLevel@@YAHG@Z       1004a8ea f   dmcr:dmcr.exe
 0001:000498f0       ?GetUpgradeIcon@@YAHG@Z    1004a8f0 f   dmcr:dmcr.exe
 0001:000498f6       ?GetUpgHint@@YA_NEGPAD@Z   1004a8f6 f   dmcr:dmcr.exe
 0001:000498fc       ?GetListOfUpgradesForMon_Old@@YAXEGPAGHAAH@Z 1004a8fc f   dmcr:dmcr.exe
 0001:00049902       ?DetSheep@@YA_NG@Z         1004a902 f   dmcr:dmcr.exe
 0001:00049908       ?GetAttackNFrame@@YAHGG@Z  1004a908 f   dmcr:dmcr.exe
 0001:0004990e       ?GetMainChar@@YAHEGPAUSMainChar@@@Z 1004a90e f   dmcr:dmcr.exe
 0001:00049914       ?getDir@@YAGHH@Z           1004a914 f   dmcr:dmcr.exe
 0001:0004991a       _OBJ_GoToMine              1004a91a f   dmcr:dmcr.exe
 0001:00049920       _AddOneUnitToGroup         1004a920 f   dmcr:dmcr.exe
 0001:00049926       ?DetPeasant@@YA_NG@Z       1004a926 f   dmcr:dmcr.exe
 0001:0004992c       ?GetUnitsGroup@@YAPAVUnitsGroup@@PAUGAMEOBJ@@@Z 1004a92c f   dmcr:dmcr.exe
 0001:00049932       _SetBuildingsCollector     1004a932 f   dmcr:dmcr.exe
 0001:00049938       _SetUnitsCollector         1004a938 f   dmcr:dmcr.exe
 0001:0004993e       _SetPlayerName             1004a93e f   dmcr:dmcr.exe
 0001:00049944       ?CreateDangerMapBattle@@YAXEPAHH0H@Z 1004a944 f   dmcr:dmcr.exe
 0001:0004994a       _CreateTopListEnArmyBtl    1004a94a f   dmcr:dmcr.exe
 0001:00049950       ?AddEnemyCenterTopList@@YA_NPAGE@Z 1004a950 f   dmcr:dmcr.exe
 0001:00049956       ?AddEnemyCaptBuildTopList@@YA_NPAGE@Z 1004a956 f   dmcr:dmcr.exe
 0001:0004995c       ?GetEnemyTopInfo@@YAXEPAH00@Z 1004a95c f   dmcr:dmcr.exe
 0001:00049962       _GetNextZone               1004a962 f   dmcr:dmcr.exe
 0001:00049968       ?CreateAGroup@@YAXEPAD@Z   1004a968 f   dmcr:dmcr.exe
 0001:0004996e       ?ClearAZones@@YAXXZ        1004a96e f   dmcr:dmcr.exe
 0001:00049974       ?CreateAZone@@YAXPADHHH@Z  1004a974 f   dmcr:dmcr.exe
 0001:0004997a       _ClearSelection            1004a97a f   dmcr:dmcr.exe
 0001:00049980       ?DetShoot@@YA_NG@Z         1004a980 f   dmcr:dmcr.exe
 0001:00049986       ?DetAbsorbeAbility@@YA_NGG@Z 1004a986 f   dmcr:dmcr.exe
 0001:0004998c       ?DetectAbsorber@@YA_NG@Z   1004a98c f   dmcr:dmcr.exe
 0001:00049992       ?EraseBrig@@YAXEG@Z        1004a992 f   dmcr:dmcr.exe
 0001:00049998       _OBJ_AttackObj             1004a998 f   dmcr:dmcr.exe
 0001:0004999e       ?GetGroupPower@@YAJPAUGAMEOBJ@@@Z 1004a99e f   dmcr:dmcr.exe
 0001:000499a4       ?SetMapOfShooters@@YAXEPAH0@Z 1004a9a4 f   dmcr:dmcr.exe
 0001:000499aa       ?CreateArmyInfo@@YAHEPAH0H@Z 1004a9aa f   dmcr:dmcr.exe
 0001:000499b0       _RegisterUpgrade           1004a9b0 f   dmcr:dmcr.exe
 0001:000499b6       ?GetBattleArmyValue@@YAPAEXZ 1004a9b6 f   dmcr:dmcr.exe
 0001:000499bc       ?GetCurMissionMapName@@YAPADXZ 1004a9bc f   dmcr:dmcr.exe
 0001:000499c2       _SXP_SetVar                1004a9c2 f   intExplorer:intExplorer.dll
 0001:000499c8       _SXP_GetVar                1004a9c8 f   intExplorer:intExplorer.dll
 0001:000499ce       _GetTickCount@0            1004a9ce f   kernel32:KERNEL32.dll
 0001:000499d4       _MessageBoxA@16            1004a9d4 f   user32:USER32.dll
 0001:000499e0       _memset                    1004a9e0 f   LIBC:memset.obj
 0001:00049a38       __chkesp                   1004aa38 f   LIBC:chkesp.obj
 0001:00049a50       _memcpy                    1004aa50 f   LIBC:memcpy.obj
 0001:00049d90       _strstr                    1004ad90 f   LIBC:strstr.obj
 0001:00049e10       _strcmp                    1004ae10 f   LIBC:strcmp.obj
 0001:00049e94       _sscanf                    1004ae94 f   LIBC:sscanf.obj
 0001:00049ed0       _strlen                    1004aed0 f   LIBC:strlen.obj
 0001:00049f4b       _sprintf                   1004af4b f   LIBC:sprintf.obj
 0001:00049fa0       _strcpy                    1004afa0 f   LIBC:strcat.obj
 0001:00049fb0       _strcat                    1004afb0 f   LIBC:strcat.obj
 0001:0004a090       ?_JumpToContinuation@@YGXPAXPAUEHRegistrationNode@@@Z 1004b090 f   LIBC:trnsctrl.obj
 0001:0004a0c4       ?_CallMemberFunction0@@YGXPAX0@Z 1004b0c4 f   LIBC:trnsctrl.obj
 0001:0004a0cb       ?_CallMemberFunction1@@YGXPAX00@Z 1004b0cb f   LIBC:trnsctrl.obj
 0001:0004a0d2       ?_CallMemberFunction2@@YGXPAX00H@Z 1004b0d2 f   LIBC:trnsctrl.obj
 0001:0004a0d9       ?_UnwindNestedFrames@@YGXPAUEHRegistrationNode@@PAUEHExceptionRecord@@@Z 1004b0d9 f   LIBC:trnsctrl.obj
 0001:0004a128       ___CxxFrameHandler         1004b128 f   LIBC:trnsctrl.obj
 0001:0004a15e       ___CxxLongjmpUnwind@4      1004b15e f   LIBC:trnsctrl.obj
 0001:0004a178       ?_CallCatchBlock2@@YAPAXPAUEHRegistrationNode@@PBU_s_FuncInfo@@PAXHK@Z 1004b178 f   LIBC:trnsctrl.obj
 0001:0004a1f1       ?_CallSETranslator@@YAHPAUEHExceptionRecord@@PAUEHRegistrationNode@@PAX2PBU_s_FuncInfo@@H1@Z 1004b1f1 f   LIBC:trnsctrl.obj
 0001:0004a31a       ?_GetRangeOfTrysToCheck@@YAPBU_s_TryBlockMapEntry@@PBU_s_FuncInfo@@HHPAI1@Z 1004b31a f   LIBC:trnsctrl.obj
 0001:0004a398       __global_unwind2           1004b398 f   LIBC:exsup.obj
 0001:0004a3da       __local_unwind2            1004b3da f   LIBC:exsup.obj
 0001:0004a432       __NLG_Return2              1004b432 f   LIBC:exsup.obj
 0001:0004a442       __abnormal_termination     1004b442 f   LIBC:exsup.obj
 0001:0004a465       __NLG_Notify1              1004b465 f   LIBC:exsup.obj
 0001:0004a46e       __NLG_Notify               1004b46e f   LIBC:exsup.obj
 0001:0004a481       __NLG_Dispatch             1004b481 f   LIBC:exsup.obj
 0001:0004a486       _vsprintf                  1004b486 f   LIBC:vsprintf.obj
 0001:0004a4e0       __chkstk                   1004b4e0 f   LIBC:chkstk.obj
 0001:0004a4e0       __alloca_probe             1004b4e0 f   LIBC:chkstk.obj
 0001:0004a50f       _atol                      1004b50f f   LIBC:atox.obj
 0001:0004a59a       _atoi                      1004b59a f   LIBC:atox.obj
 0001:0004a5a5       __atoi64                   1004b5a5 f   LIBC:atox.obj
 0001:0004a65f       __onexit                   1004b65f f   LIBC:onexit.obj
 0001:0004a6cc       _atexit                    1004b6cc f   LIBC:onexit.obj
 0001:0004a6de       ___onexitinit              1004b6de f   LIBC:onexit.obj
 0001:0004a710       _memmove                   1004b710 f   LIBC:memmove.obj
 0001:0004aa45       ??_L@YGXPAXIHP6EX0@Z1@Z    1004ba45 f   LIBC:ehvecctr.obj
 0001:0004aac7       ??_M@YGXPAXIHP6EX0@Z@Z     1004bac7 f   LIBC:ehvecdtr.obj
 0001:0004ab47       ?__ArrayUnwind@@YGXPAXIHP6EX0@Z@Z 1004bb47 f   LIBC:ehvecdtr.obj
 0001:0004abbb       __strupr                   1004bbbb f   LIBC:strupr.obj
 0001:0004ac59       _qsort                     1004bc59 f   LIBC:qsort.obj
 0001:0004ae27       _fclose                    1004be27 f   LIBC:fclose.obj
 0001:0004ae7d       _fprintf                   1004be7d f   LIBC:fprintf.obj
 0001:0004aeaf       __fsopen                   1004beaf f   LIBC:fopen.obj
 0001:0004aecf       _fopen                     1004becf f   LIBC:fopen.obj
 0001:0004aee2       _abs                       1004bee2 f   LIBC:abs.obj
 0001:0004aef0       _strncpy                   1004bef0 f   LIBC:strncpy.obj
 0001:0004afee       __assert                   1004bfee f   LIBC:assert.obj
 0001:0004b2d8       __CRT_INIT@12              1004c2d8 f   LIBC:dllcrt0.obj
 0001:0004b390       __DllMainCRTStartup@12     1004c390 f   LIBC:dllcrt0.obj
 0001:0004b42d       __amsg_exit                1004c42d f   LIBC:dllcrt0.obj
 0001:0004b470       _strchr                    1004c470 f   LIBC:strchr.obj
 0001:0004b476       ___from_strstr_to_strchr   1004c476 f   LIBC:strchr.obj
 0001:0004b52c       __input                    1004c52c f   LIBC:input.obj
 0001:0004bfdd       __flsbuf                   1004cfdd f   LIBC:_flsbuf.obj
 0001:0004c0f2       __output                   1004d0f2 f   LIBC:output.obj
 0001:0004c8fc       ___InternalCxxFrameHandler 1004d8fc f   LIBC:frame.obj
 0001:0004cc43       ___FrameUnwindToState      1004dc43 f   LIBC:frame.obj
 0001:0004d06c       ?_DestructExceptionObject@@YAXPAUEHExceptionRecord@@E@Z 1004e06c f   LIBC:frame.obj
 0001:0004d100       __CallSettingFrame@12      1004e100 f   LIBC:lowhelpr.obj
 0001:0004d127       __NLG_Return               1004e127 f   LIBC:lowhelpr.obj
 0001:0004d14c       ?terminate@@YAXXZ          1004e14c f   LIBC:hooks.obj
 0001:0004d1a2       ?unexpected@@YAXXZ         1004e1a2 f   LIBC:hooks.obj
 0001:0004d1b2       ?_inconsistency@@YAXXZ     1004e1b2 f   LIBC:hooks.obj
 0001:0004d208       __isctype                  1004e208 f   LIBC:isctype.obj
 0001:0004d280       __allmul                   1004e280 f   LIBC:llmul.obj
 0001:0004d2b4       _realloc                   1004e2b4 f   LIBC:realloc.obj
 0001:0004d3d4       __cinit                    1004e3d4 f   LIBC:crt0dat.obj
 0001:0004d401       _exit                      1004e401 f   LIBC:crt0dat.obj
 0001:0004d412       __exit                     1004e412 f   LIBC:crt0dat.obj
 0001:0004d423       __cexit                    1004e423 f   LIBC:crt0dat.obj
 0001:0004d432       __c_exit                   1004e432 f   LIBC:crt0dat.obj
 0001:0004d4f4       __msize                    1004e4f4 f   LIBC:msize.obj
 0001:0004d51d       _malloc                    1004e51d f   LIBC:malloc.obj
 0001:0004d52f       __nh_malloc                1004e52f f   LIBC:malloc.obj
 0001:0004d55b       __heap_alloc               1004e55b f   LIBC:malloc.obj
 0001:0004d59c       __except_handler3          1004e59c f   LIBC:exsup3.obj
 0001:0004d659       __seh_longjmp_unwind@4     1004e659 f   LIBC:exsup3.obj
 0001:0004d674       _free                      1004e674 f   LIBC:free.obj
 0001:0004d6a3       ___crtLCMapStringA         1004e6a3 f   LIBC:a_map.obj
 0001:0004d8f2       __close                    1004e8f2 f   LIBC:close.obj
 0001:0004d9a5       __freebuf                  1004e9a5 f   LIBC:_freebuf.obj
 0001:0004d9d0       _fflush                    1004e9d0 f   LIBC:fflush.obj
 0001:0004da0b       __flush                    1004ea0b f   LIBC:fflush.obj
 0001:0004da67       __flushall                 1004ea67 f   LIBC:fflush.obj
 0001:0004dadd       __stbuf                    1004eadd f   LIBC:_sftbuf.obj
 0001:0004db6a       __ftbuf                    1004eb6a f   LIBC:_sftbuf.obj
 0001:0004dba7       __openfile                 1004eba7 f   LIBC:_open.obj
 0001:0004dd17       __getstream                1004ed17 f   LIBC:stream.obj
 0001:0004dd8f       _abort                     1004ed8f f   LIBC:abort.obj
 0001:0004dda6       _setvbuf                   1004eda6 f   LIBC:setvbuf.obj
 0001:0004de47       ___initstdio               1004ee47 f   LIBC:_file.obj
 0001:0004deec       ___endstdio                1004eeec f   LIBC:_file.obj
 0001:0004df00       _signal                    1004ef00 f   LIBC:winsig.obj
 0001:0004e044       _raise                     1004f044 f   LIBC:winsig.obj
 0001:0004e1b6       ___crtMessageBoxA          1004f1b6 f   LIBC:crtmbox.obj
 0001:0004e23f       _itoa                      1004f23f f   LIBC:xtoa.obj
 0001:0004e23f       __itoa                     1004f23f f   LIBC:xtoa.obj
 0001:0004e2c8       __ltoa                     1004f2c8 f   LIBC:xtoa.obj
 0001:0004e2f2       __ultoa                    1004f2f2 f   LIBC:xtoa.obj
 0001:0004e30d       __i64toa                   1004f30d f   LIBC:xtoa.obj
 0001:0004e3c4       __ui64toa                  1004f3c4 f   LIBC:xtoa.obj
 0001:0004e3e0       _strncat                   1004f3e0 f   LIBC:strncat.obj
 0001:0004e503       __heap_init                1004f503 f   LIBC:heapinit.obj
 0001:0004e53f       __heap_term                1004f53f f   LIBC:heapinit.obj
 0001:0004e5b4       __ioinit                   1004f5b4 f   LIBC:ioinit.obj
 0001:0004e75f       __ioterm                   1004f75f f   LIBC:ioinit.obj
 0001:0004e782       __setenvp                  1004f782 f   LIBC:stdenvp.obj
 0001:0004e83b       __setargv                  1004f83b f   LIBC:stdargv.obj
 0001:0004ea88       ___crtGetEnvironmentStringsA 1004fa88 f   LIBC:a_env.obj
 0001:0004ebba       __FF_MSGBANNER             1004fbba f   LIBC:crt0msg.obj
 0001:0004ebf3       __NMSG_WRITE               1004fbf3 f   LIBC:crt0msg.obj
 0001:0004ed46       __GET_RTERRMSG             1004fd46 f   LIBC:crt0msg.obj
 0001:0004ed77       _mbtowc                    1004fd77 f   LIBC:mbtowc.obj
 0001:0004ee3f       _isalpha                   1004fe3f f   LIBC:_ctype.obj
 0001:0004ee6d       _isupper                   1004fe6d f   LIBC:_ctype.obj
 0001:0004ee95       _islower                   1004fe95 f   LIBC:_ctype.obj
 0001:0004eebd       _isdigit                   1004febd f   LIBC:_ctype.obj
 0001:0004eee5       _isxdigit                  1004fee5 f   LIBC:_ctype.obj
 0001:0004ef12       _isspace                   1004ff12 f   LIBC:_ctype.obj
 0001:0004ef3a       _ispunct                   1004ff3a f   LIBC:_ctype.obj
 0001:0004ef62       _isalnum                   1004ff62 f   LIBC:_ctype.obj
 0001:0004ef90       _isprint                   1004ff90 f   LIBC:_ctype.obj
 0001:0004efbe       _isgraph                   1004ffbe f   LIBC:_ctype.obj
 0001:0004efec       _iscntrl                   1004ffec f   LIBC:_ctype.obj
 0001:0004f014       ___isascii                 10050014 f   LIBC:_ctype.obj
 0001:0004f021       ___toascii                 10050021 f   LIBC:_ctype.obj
 0001:0004f029       ___iscsymf                 10050029 f   LIBC:_ctype.obj
 0001:0004f066       ___iscsym                  10050066 f   LIBC:_ctype.obj
 0001:0004f0b0       __allshl                   100500b0 f   LIBC:llshl.obj
 0001:0004f0cf       __filbuf                   100500cf f   LIBC:_filbuf.obj
 0001:0004f1a8       _ungetc                    100501a8 f   LIBC:ungetc.obj
 0001:0004f216       __lseek                    10050216 f   LIBC:lseek.obj
 0001:0004f2b0       __write                    100502b0 f   LIBC:write.obj
 0001:0004f45d       __getbuf                   1005045d f   LIBC:_getbuf.obj
 0001:0004f4a1       __isatty                   100504a1 f   LIBC:isatty.obj
 0001:0004f4c7       _wctomb                    100504c7 f   LIBC:wctomb.obj
 0001:0004f530       __aulldiv                  10050530 f   LIBC:ulldiv.obj
 0001:0004f5a0       __aullrem                  100505a0 f   LIBC:ullrem.obj
 0001:0004f615       ?__CxxUnhandledExceptionFilter@@YGJPAU_EXCEPTION_POINTERS@@@Z 10050615 f   LIBC:unhandld.obj
 0001:0004f65b       ?__CxxSetUnhandledExceptionFilter@@YAXXZ 1005065b f   LIBC:unhandld.obj
 0001:0004f66c       ?__CxxRestoreUnhandledExceptionFilter@@YAXXZ 1005066c f   LIBC:unhandld.obj
 0001:0004f679       ?_ValidateRead@@YAHPBXI@Z  10050679 f   LIBC:validate.obj
 0001:0004f695       ?_ValidateWrite@@YAHPAXI@Z 10050695 f   LIBC:validate.obj
 0001:0004f6b1       ?_ValidateExecute@@YAHP6GHXZ@Z 100506b1 f   LIBC:validate.obj
 0001:0004f6c9       ___crtGetStringTypeA       100506c9 f   LIBC:a_str.obj
 0001:0004f812       ?_set_new_handler@@YAP6AHI@ZP6AHI@Z@Z 10050812 f   LIBC:handler.obj
 0001:0004f822       ?_query_new_handler@@YAP6AHI@ZXZ 10050822 f   LIBC:handler.obj
 0001:0004f828       __callnewh                 10050828 f   LIBC:handler.obj
 0001:0004f843       __get_sbh_threshold        10050843 f   LIBC:sbheap.obj
 0001:0004f849       __set_sbh_threshold        10050849 f   LIBC:sbheap.obj
 0001:0004f860       ___sbh_heap_init           10050860 f   LIBC:sbheap.obj
 0001:0004f89e       ___sbh_find_block          1005089e f   LIBC:sbheap.obj
 0001:0004f8c9       ___sbh_free_block          100508c9 f   LIBC:sbheap.obj
 0001:0004fbf4       ___sbh_alloc_block         10050bf4 f   LIBC:sbheap.obj
 0001:0004fefd       ___sbh_alloc_new_region    10050efd f   LIBC:sbheap.obj
 0001:0004ffae       ___sbh_alloc_new_group     10050fae f   LIBC:sbheap.obj
 0001:000500a9       ___sbh_resize_block        100510a9 f   LIBC:sbheap.obj
 0001:0005039f       ___sbh_heapmin             1005139f f   LIBC:sbheap.obj
 0001:00050470       ___sbh_heap_check          10051470 f   LIBC:sbheap.obj
 0001:0005079f       __dosmaperr                1005179f f   LIBC:dosmap.obj
 0001:00050806       __alloc_osfhnd             10051806 f   LIBC:osfinfo.obj
 0001:0005089b       __set_osfhnd               1005189b f   LIBC:osfinfo.obj
 0001:00050912       __free_osfhnd              10051912 f   LIBC:osfinfo.obj
 0001:0005098c       __get_osfhandle            1005198c f   LIBC:osfinfo.obj
 0001:000509c9       __open_osfhandle           100519c9 f   LIBC:osfinfo.obj
 0001:00050a66       __commit                   10051a66 f   LIBC:commit.obj
 0001:00050abd       __open                     10051abd f   LIBC:open.obj
 0001:00050ad4       __sopen                    10051ad4 f   LIBC:open.obj
 0001:00050d8d       _calloc                    10051d8d f   LIBC:calloc.obj
 0001:00050e0a       __fcloseall                10051e0a f   LIBC:closeall.obj
 0001:00050e62       __XcptFilter               10051e62 f   LIBC:winxfltr.obj
 0001:00050fe6       __setmbcp                  10051fe6 f   LIBC:mbctype.obj
 0001:000513aa       __getmbcp                  100523aa f   LIBC:mbctype.obj
 0001:000513ba       ___initmbctable            100523ba f   LIBC:mbctype.obj
 0001:000513d6       __fptrap                   100523d6 f   LIBC:crt0fp.obj
 0001:000513df       __read                     100523df f   LIBC:read.obj
 0001:000515d5       __chsize                   100525d5 f   LIBC:chsize.obj
 0001:0005171b       __setmode                  1005271b f   LIBC:setmode.obj
 0001:000517a0       _RtlUnwind@16              100527a0 f   kernel32:KERNEL32.dll
 0001:000517a6       _GetModuleFileNameA@12     100527a6 f   kernel32:KERNEL32.dll
 0001:000517ac       _GetCommandLineA@0         100527ac f   kernel32:KERNEL32.dll
 0001:000517b2       _GetVersion@0              100527b2 f   kernel32:KERNEL32.dll
 0001:000517b8       _HeapReAlloc@16            100527b8 f   kernel32:KERNEL32.dll
 0001:000517be       _HeapAlloc@12              100527be f   kernel32:KERNEL32.dll
 0001:000517c4       _ExitProcess@4             100527c4 f   kernel32:KERNEL32.dll
 0001:000517ca       _TerminateProcess@8        100527ca f   kernel32:KERNEL32.dll
 0001:000517d0       _GetCurrentProcess@0       100527d0 f   kernel32:KERNEL32.dll
 0001:000517d6       _HeapSize@12               100527d6 f   kernel32:KERNEL32.dll
 0001:000517dc       _HeapFree@12               100527dc f   kernel32:KERNEL32.dll
 0001:000517e2       _WideCharToMultiByte@32    100527e2 f   kernel32:KERNEL32.dll
 0001:000517e8       _MultiByteToWideChar@24    100527e8 f   kernel32:KERNEL32.dll
 0001:000517ee       _LCMapStringA@24           100527ee f   kernel32:KERNEL32.dll
 0001:000517f4       _LCMapStringW@24           100527f4 f   kernel32:KERNEL32.dll
 0001:000517fa       _GetLastError@0            100527fa f   kernel32:KERNEL32.dll
 0001:00051800       _CloseHandle@4             10052800 f   kernel32:KERNEL32.dll
 0001:00051806       _SetConsoleCtrlHandler@8   10052806 f   kernel32:KERNEL32.dll
 0001:0005180c       _GetProcAddress@8          1005280c f   kernel32:KERNEL32.dll
 0001:00051812       _LoadLibraryA@4            10052812 f   kernel32:KERNEL32.dll
 0001:00051818       _HeapDestroy@4             10052818 f   kernel32:KERNEL32.dll
 0001:0005181e       _HeapCreate@12             1005281e f   kernel32:KERNEL32.dll
 0001:00051824       _VirtualFree@12            10052824 f   kernel32:KERNEL32.dll
 0001:0005182a       _SetHandleCount@4          1005282a f   kernel32:KERNEL32.dll
 0001:00051830       _GetStdHandle@4            10052830 f   kernel32:KERNEL32.dll
 0001:00051836       _GetFileType@4             10052836 f   kernel32:KERNEL32.dll
 0001:0005183c       _GetStartupInfoA@4         1005283c f   kernel32:KERNEL32.dll
 0001:00051842       _FreeEnvironmentStringsA@4 10052842 f   kernel32:KERNEL32.dll
 0001:00051848       _FreeEnvironmentStringsW@4 10052848 f   kernel32:KERNEL32.dll
 0001:0005184e       _GetEnvironmentStrings@0   1005284e f   kernel32:KERNEL32.dll
 0001:00051854       _GetEnvironmentStringsW@0  10052854 f   kernel32:KERNEL32.dll
 0001:0005185a       _WriteFile@20              1005285a f   kernel32:KERNEL32.dll
 0001:00051860       _SetFilePointer@16         10052860 f   kernel32:KERNEL32.dll
 0001:00051866       _SetUnhandledExceptionFilter@4 10052866 f   kernel32:KERNEL32.dll
 0001:0005186c       _IsBadReadPtr@8            1005286c f   kernel32:KERNEL32.dll
 0001:00051872       _IsBadWritePtr@8           10052872 f   kernel32:KERNEL32.dll
 0001:00051878       _IsBadCodePtr@4            10052878 f   kernel32:KERNEL32.dll
 0001:0005187e       _GetStringTypeA@20         1005287e f   kernel32:KERNEL32.dll
 0001:00051884       _GetStringTypeW@16         10052884 f   kernel32:KERNEL32.dll
 0001:0005188a       _VirtualAlloc@16           1005288a f   kernel32:KERNEL32.dll
 0001:00051890       _SetStdHandle@8            10052890 f   kernel32:KERNEL32.dll
 0001:00051896       _FlushFileBuffers@4        10052896 f   kernel32:KERNEL32.dll
 0001:0005189c       _CreateFileA@28            1005289c f   kernel32:KERNEL32.dll
 0001:000518a2       _UnhandledExceptionFilter@4 100528a2 f   kernel32:KERNEL32.dll
 0001:000518a8       _GetCPInfo@8               100528a8 f   kernel32:KERNEL32.dll
 0001:000518ae       _GetACP@0                  100528ae f   kernel32:KERNEL32.dll
 0001:000518b4       _GetOEMCP@0                100528b4 f   kernel32:KERNEL32.dll
 0001:000518ba       _ReadFile@20               100528ba f   kernel32:KERNEL32.dll
 0001:000518c0       _SetEndOfFile@4            100528c0 f   kernel32:KERNEL32.dll
 0001:00056260       __enc$textbss$begin        10057260     <linker-defined>
 0001:0007e560       __enc$textbss$end          1007f560     <linker-defined>
 0002:0000001c       ??_C@_0EO@IMLD@D?3?2OLD_PROJECTS_BACKUP?2AmericanC@ 1008001c     DIP_SimpleBuilding.obj
 0002:0000007c       ??_C@_00A@?$AA@            1008007c     DIP_SimpleBuilding.obj
 0002:00000080       ??_C@_0BE@JBCO@Unable?5to?5open?5?3?5?$CFs?$AA@ 10080080     DIP_SimpleBuilding.obj
 0002:00000098       ??_C@_0L@NKLE@?$CFs?$CFs?$CFd?$CFd?$CFd?$AA@ 10080098     DIP_SimpleBuilding.obj
 0002:000000a8       ??_C@_08HBFC@$DEFENCE?$AA@ 100800a8     DIP_SimpleBuilding.obj
 0002:000000b4       ??_C@_07MJC@$DEFEND?$AA@   100800b4     DIP_SimpleBuilding.obj
 0002:000000c0       ??_C@_06FGLI@?$CFs?$CFs?$CFd?$AA@ 100800c0     DIP_SimpleBuilding.obj
 0002:000000c8       ??_C@_07NOJA@$REPAIR?$AA@  100800c8     DIP_SimpleBuilding.obj
 0002:000000d4       ??_C@_08EJMN@?$CFs?$CFs?$CFd?$CFd?$AA@ 100800d4     DIP_SimpleBuilding.obj
 0002:000000e0       ??_C@_04MKJJ@$PIX?$AA@     100800e0     DIP_SimpleBuilding.obj
 0002:000000e8       ??_C@_05EIA@$NAME?$AA@     100800e8     DIP_SimpleBuilding.obj
 0002:000000f0       ??_C@_0P@BGMM@?$CFs?$CFd?$CFd?$CFd?$CFd?$CFd?$CFd?$AA@ 100800f0     DIP_SimpleBuilding.obj
 0002:00000104       ??_C@_0M@NNNO@$STARTPRICE?$AA@ 10080104     DIP_SimpleBuilding.obj
 0002:00000114       ??_C@_07LHIG@$RESELL?$AA@  10080114     DIP_SimpleBuilding.obj
 0002:00000120       ??_C@_0L@NNMC@$FIRSTMEET?$AA@ 10080120     DIP_SimpleBuilding.obj
 0002:00000130       ??_C@_08KCEC@$CONGRAT?$AA@ 10080130     DIP_SimpleBuilding.obj
 0002:0000013c       ??_C@_04DCMN@?$CFs?$CFs?$AA@ 1008013c     DIP_SimpleBuilding.obj
 0002:00000144       ??_C@_0L@HPIL@$IFTELLNO$?$AA@ 10080144     DIP_SimpleBuilding.obj
 0002:00000154       ??_C@_0L@COP@Dip?5error?$CB?$AA@ 10080154     DIP_SimpleBuilding.obj
 0002:00000164       ??_C@_0BJ@KEAI@?$CFs?5?3?5Invalid?5string?5?3?5?$CFs?$AA@ 10080164     DIP_SimpleBuilding.obj
 0002:00000184       ??_C@_0BH@LCLD@?$CFs?$CFs?$CFs?$CFs?$CFd?$CFd?$CFd?$CFd?$CFd?$CFd?$CFs?$AA@ 10080184     DIP_SimpleBuilding.obj
 0002:000001a0       ??_C@_04JANH@$PSB?$AA@     100801a0     DIP_SimpleBuilding.obj
 0002:000001a8       ??_C@_02DILL@?$CFs?$AA@    100801a8     DIP_SimpleBuilding.obj
 0002:000001ac       ??_C@_01LHO@r?$AA@         100801ac     DIP_SimpleBuilding.obj
 0002:000001b0       ??_C@_04ENEK@?4dat?$AA@    100801b0     DIP_SimpleBuilding.obj
 0002:000001b8       ??_C@_06HNAK@Dip?2?$CFs?$AA@ 100801b8     DIP_SimpleBuilding.obj
 0002:000001c0       ??_C@_0M@CMHA@$DZONE?9?$CFs?$CFs?$AA@ 100801c0     DIP_SimpleBuilding.obj
 0002:000001d0       ??_C@_0N@KEOO@$ACTORS?9?$CFs?$CFs?$AA@ 100801d0     DIP_SimpleBuilding.obj
 0002:000001e0       ??_C@_07OHBA@$WECAN$?$AA@  100801e0     DIP_SimpleBuilding.obj
 0002:000001ec       ??_C@_07FPAG@$TELLNO?$AA@  100801ec     DIP_SimpleBuilding.obj
 0002:000001f8       ??_C@_0N@CINA@?$EA?$EA?$EATOMAHAWKS?$AA@ 100801f8     DIP_SimpleBuilding.obj
 0002:00000208       ??_C@_0L@HJOP@?$EA?$EA?$EAKILLERS?$AA@ 10080208     DIP_SimpleBuilding.obj
 0002:00000218       ??_C@_09BPAH@?$EA?$EA?$EASTORMS?$AA@ 10080218     DIP_SimpleBuilding.obj
 0002:00000224       ??_C@_09ELOC@?$EA?$EA?$EAFIRERS?$AA@ 10080224     DIP_SimpleBuilding.obj
 0002:00000230       ??_C@_0M@COCH@?$EA?$EA?$EARAZVEDKA?$AA@ 10080230     DIP_SimpleBuilding.obj
 0002:00000240       ??_C@_07LEEE@?$EA?$EA?$EAPROD?$AA@ 10080240     DIP_SimpleBuilding.obj
 0002:0000024c       ??_C@_0BN@GHLO@LW_new?$CG?$HMLW_file?$CGDip?1?1tmp?4cml?$AA@ 1008024c     DIP_SimpleBuilding.obj
 0002:00000270       ??_C@_0BG@MKCO@error?3?5bad?5string?3?5?$CFs?$AA@ 10080270     DIP_SimpleBuilding.obj
 0002:0000028c       ??_C@_06DEBH@?$CFd?$CFs?$CFd?$AA@ 1008028c     DIP_SimpleBuilding.obj
 0002:00000294       ??_C@_04KNMG@?$CFd?$CFs?$AA@ 10080294     DIP_SimpleBuilding.obj
 0002:0000029c       ??_C@_0BM@ODOF@LW_new?$CG?$HMLW_file?$CGDip?1tmp?4cml?$AA@ 1008029c     DIP_SimpleBuilding.obj
 0002:000002c0       ??_C@_0BD@NDDO@Dip?2ResellMask?4cml?$AA@ 100802c0     DIP_SimpleBuilding.obj
 0002:000002d8       ??_C@_0M@JPIA@Dip?2tmp?4cml?$AA@ 100802d8     DIP_SimpleBuilding.obj
 0002:000002e8       ??_C@_08IAMB@$NOCODE$?$AA@ 100802e8     DIP_SimpleBuilding.obj
 0002:000002f4       ??_C@_09MDAK@$YESCODE$?$AA@ 100802f4     DIP_SimpleBuilding.obj
 0002:00000300       ??_C@_08EMBB@?$CFd?$CG?$CFd?$CG?$CFd?$AA@ 10080300     DIP_SimpleBuilding.obj
 0002:0000030c       ??_C@_07HKCN@$NOTXT$?$AA@  1008030c     DIP_SimpleBuilding.obj
 0002:00000318       ??_C@_08LBKG@$YESTXT$?$AA@ 10080318     DIP_SimpleBuilding.obj
 0002:00000324       ??_C@_09DGFA@$PROPOSE$?$AA@ 10080324     DIP_SimpleBuilding.obj
 0002:00000330       ??_C@_07FGPN@$FRAME$?$AA@  10080330     DIP_SimpleBuilding.obj
 0002:0000033c       ??_C@_07KFPA@$GPVOG$?$AA@  1008033c     DIP_SimpleBuilding.obj
 0002:00000348       ??_C@_08NEPE@$CONTXT$?$AA@ 10080348     DIP_SimpleBuilding.obj
 0002:00000354       ??_C@_0BD@DKLH@Dip?2InviteMask?4cml?$AA@ 10080354     DIP_SimpleBuilding.obj
 0002:0000036c       ??_C@_02MECO@?$CFd?$AA@    1008036c     DIP_SimpleBuilding.obj
 0002:00000370       ??_C@_09HAJ@$PERFORM$?$AA@ 10080370     DIP_SimpleBuilding.obj
 0002:0000037c       ??_C@_02NFIB@$C?$AA@       1008037c     DIP_SimpleBuilding.obj
 0002:00000380       ??_C@_02NEBH@$I?$AA@       10080380     DIP_SimpleBuilding.obj
 0002:00000384       ??_C@_02NFEK@$F?$AA@       10080384     DIP_SimpleBuilding.obj
 0002:00000388       ??_C@_02HMPB@$S?$AA@       10080388     DIP_SimpleBuilding.obj
 0002:0000038c       ??_C@_02HPNN@$G?$AA@       1008038c     DIP_SimpleBuilding.obj
 0002:00000390       ??_C@_02NGKN@$W?$AA@       10080390     DIP_SimpleBuilding.obj
 0002:00000394       ??_C@_06DCID@$IDXX$?$AA@   10080394     DIP_SimpleBuilding.obj
 0002:0000039c       ??_C@_05JPGM@$IDX$?$AA@    1008039c     DIP_SimpleBuilding.obj
 0002:000003a4       ??_C@_0BD@MBBN@Dip?2PropString?4cml?$AA@ 100803a4     DIP_SimpleBuilding.obj
 0002:000003bc       ??_C@_0BF@DAPF@Dip?2Propositions?4cml?$AA@ 100803bc     DIP_SimpleBuilding.obj
 0002:000003d8       ??_C@_09JFLD@$DIPREBEL?$AA@ 100803d8     DIP_SimpleBuilding.obj
 0002:000003e4       ??_C@_0BB@LIPJ@Dip?2WaitMask?4cml?$AA@ 100803e4     DIP_SimpleBuilding.obj
 0002:000003f8       ??_C@_0M@ENJD@$TRIBEINFO$?$AA@ 100803f8     DIP_SimpleBuilding.obj
 0002:00000408       ??_C@_08PDGK@$GOBACK$?$AA@ 10080408     DIP_SimpleBuilding.obj
 0002:00000414       ??_C@_09GJMD@$NOMONEY$?$AA@ 10080414     DIP_SimpleBuilding.obj
 0002:00000420       ??_C@_0BA@BLIN@Dip?2NoMoney?4cml?$AA@ 10080420     DIP_SimpleBuilding.obj
 0002:00000434       ??_C@_04EOBN@?$CFs00?$AA@  10080434     DiplomacySystem.obj
 0002:0000043c       ??_7DIP_SimpleBuilding@@6B@ 1008043c     DiplomacySystem.obj
 0002:00000470       ??_7BasicDiploRelation@@6B@ 10080470     DiplomacySystem.obj
 0002:000004a4       ??_C@_07EINC@?6?$DMFRM1?$DO?$AA@ 100804a4     DiplomacySystem.obj
 0002:000004b0       ??_C@_03BNHN@?$FLB?$FN?$AA@ 100804b0     DiplomacySystem.obj
 0002:000004b4       ??_C@_0BJ@FDOC@Dip?2ContactsListLine?4cml?$AA@ 100804b4     DiplomacySystem.obj
 0002:000004d4       ??_C@_07CIPH@?$DMFRM1?$DO?6?$AA@ 100804d4     DiplomacySystem.obj
 0002:000004e0       ??_C@_0M@EILJ@$TRIBELIST$?$AA@ 100804e0     DiplomacySystem.obj
 0002:000004f0       ??_C@_0BF@FEGI@Dip?2ContactsList?4cml?$AA@ 100804f0     DiplomacySystem.obj
 0002:0000050c       ??_C@_0EL@FGHO@D?3?2OLD_PROJECTS_BACKUP?2AmericanC@ 1008050c     DiplomacySystem.obj
 0002:00000568       ??_C@_05KKMP@?$CDODIN?$AA@ 10080568     DiplomacySystem.obj
 0002:00000570       ??_C@_0BE@KDKN@LW_file?$CGDip?1tmp?4cml?$AA@ 10080570     DipMain.obj
 0002:00000588       ??_C@_07JNJC@perform?$AA@  10080588     DipMain.obj
 0002:00000594       ??_C@_09JMEI@showtribe?$AA@ 10080594     DipMain.obj
 0002:000005a0       ??_C@_07HLDH@cnlist1?$AA@  100805a0     DipMain.obj
 0002:000005ac       ??_C@_06DAII@cnlist?$AA@   100805ac     DipMain.obj
 0002:000005b4       ??_C@_09ELGK@dipresell?$AA@ 100805b4     DipMain.obj
 0002:000005c0       ??_C@_05NBFK@dipno?$AA@    100805c0     DipMain.obj
 0002:000005c8       ??_C@_0N@KJDM@$LETMETHINK$?$AA@ 100805c8     DipMain.obj
 0002:000005d8       ??_C@_06DLDC@dipyes?$AA@   100805d8     DipMain.obj
 0002:000005e0       ??_C@_0BB@IKIO@Missions?2Cash?2?$CFs?$AA@ 100805e0     DipServer.obj
 0002:000005f4       ??_C@_0BA@EGHE@Missions?2Res?2?$CFs?$AA@ 100805f4     DipServer.obj
 0002:00000608       ??_C@_08DGFP@LW_cfile?$AA@ 10080608     DipServer.obj
 0002:00000614       ??_C@_03LOOF@get?$AA@      10080614     DipServer.obj
 0002:00000618       ??_C@_07OILA@LW_show?$AA@  10080618     DipServer.obj
 0002:00000624       ??_C@_04KHOB@open?$AA@     10080624     DipServer.obj
 0002:0000062c       ??_C@_0BC@CDEA@LOADING?5FAILED?4?4?4?$AA@ 1008062c     Economic.obj
 0002:00000644       ??_7Economic@@6B@          10080644     Economic.obj
 0002:00000648       ??_C@_0CA@FNOL@LW_new?$CG?$HMLW_file?$CGEco?1cml?1tmp?4cml?$AA@ 10080648     Economic.obj
 0002:00000670       ??_C@_0BA@PCNB@Eco?2cml?2tmp?4cml?$AA@ 10080670     Economic.obj
 0002:00000684       ??_C@_07ENIG@BARRACK?$AA@  10080684     Economic.obj
 0002:00000690       ??_C@_06EHDE@MARKET?$AA@   10080690     Economic.obj
 0002:00000698       ??_C@_0M@LCKK@MANAFACTURE?$AA@ 10080698     Economic.obj
 0002:000006a8       ??_C@_09GMGL@WAREHOUSE?$AA@ 100806a8     Economic.obj
 0002:000006b4       ??_C@_0N@GPJN@TAXCOLLECTOR?$AA@ 100806b4     Economic.obj
 0002:000006c4       ??_C@_09JPIM@TRANSPORT?$AA@ 100806c4     Economic.obj
 0002:000006d0       ??_C@_07CBBG@VILLAGE?$AA@  100806d0     Economic.obj
 0002:000006dc       ??_C@_0EE@IKJN@d?3?2old_projects_backup?2americanc@ 100806dc     Economic.obj
 0002:00000730       ??_C@_0BI@MKAB@Economic?3?3ResearchMap?$CI?$CJ?$AA@ 10080730     Economic.obj
 0002:0000074c       ??_C@_0M@PGMI@e_prodorder?$AA@ 1008074c     Economic.obj
 0002:0000075c       ??_C@_0M@DLLJ@e_orderform?$AA@ 1008075c     Economic.obj
 0002:0000076c       ??_C@_0L@FLMM@e_prodform?$AA@ 1008076c     Economic.obj
 0002:0000077c       ??_C@_09FLEF@e_produce?$AA@ 1008077c     Economic.obj
 0002:00000788       ??_C@_0BI@CPEA@LW_file?$CGEco?1cml?1tmp?4cml?$AA@ 10080788     Economic.obj
 0002:000007a4       ??_C@_07PMED@$COUNT$?$AA@  100807a4     Economic.obj
 0002:000007b0       ??_C@_0BB@PJHN@Eco?2cml?2test?4cml?$AA@ 100807b0     Economic.obj
 0002:000007c4       ??_C@_06EMMM@e_test?$AA@   100807c4     Economic.obj
 0002:000007cc       ??_C@_0N@HGDE@Eco?2form?4lst?$AA@ 100807cc     Economic.obj
 0002:000007dc       ??_C@_0BL@NCKC@Unable?5to?5open?5Eco?2nat?4lst?$AA@ 100807dc     Economic.obj
 0002:000007fc       ??_C@_0M@KNHE@Eco?2nat?4lst?$AA@ 100807fc     Economic.obj
 0002:0000080c       ??_C@_08PNBE@?$CFs?5?$CFd?5?$CFd?$AA@ 1008080c     Economic.obj
 0002:00000818       ??_C@_0M@LMKP@Eco?2res?4lst?$AA@ 10080818     Economic.obj
 0002:00000828       ??_C@_0BC@CAAN@Unable?5to?5open?5?$CFs?$AA@ 10080828     Economic.obj
 0002:00000840       ??_C@_0M@CKCE@PRODUCELIST?$AA@ 10080840     Economic.obj
 0002:00000850       ??_C@_06CMMF@Eco?2?$CFs?$AA@ 10080850     Economic.obj
 0002:00000858       ??_7ResourceList@@6B@      10080858     Economic.obj
 0002:0000085c       ??_C@_05GGPB@?$CFs?5?$CFd?$AA@ 1008085c     Economic.obj
 0002:00000864       ??_C@_0O@LCCH@?2RESOURCELIST?$AA@ 10080864     Economic.obj
 0002:00000874       ??_7Transport@@6B@         10080874     Economic.obj
 0002:00000880       ??_C@_05NEME@False?$AA@    10080880     Economic.obj
 0002:00000888       ??_C@_0BK@HHMI@IsLoad?3?5?$CFs?0?5TargetIndex?3?5?$AA@ 10080888     Economic.obj
 0002:000008a8       ??_C@_04HIGB@True?$AA@     100808a8     Economic.obj
 0002:000008b0       ??_C@_0BE@LLED@Money?3?$CFd?0?5Nalogi?3?$CFd?$AA@ 100808b0     Economic.obj
 0002:000008c8       ??_C@_08NIHC@?$CFs?5?$CFs?9?$CFd?$AA@ 100808c8     Economic.obj
 0002:000008d4       ??_C@_0BB@FACB@Gruz?5resources?3?5?$AA@ 100808d4     Economic.obj
 0002:000008e8       ??_C@_0BD@CFHC@Transport?5Index?5?$CFd?$AA@ 100808e8     Economic.obj
 0002:00000900       ??_C@_09EFEA@RESOURCES?$AA@ 10080900     Economic.obj
 0002:0000090c       ??_7Business@@6B@          1008090c     Economic.obj
 0002:00000918       ??_C@_0BG@JOFG@MyMoney?5?$CFd?3?5Nalogi?5?$CFd?$AA@ 10080918     Economic.obj
 0002:00000934       ??_7MobileUnit@@6B@        10080934     Economic.obj
 0002:00000938       ??_7Peasant@@6B@           10080938     Economic.obj
 0002:0000093c       ??_7Village@@6B@           1008093c     Economic.obj
 0002:0000094c       ??_C@_0BK@LAC@Population?5?$CFd?0?5Hunger?3?5?$CFd?$AA@ 1008094c     Economic.obj
 0002:0000096c       ??_C@_07HGON@PRODUCE?$AA@  1008096c     Economic.obj
 0002:00000978       ??_7Warehouse@@6B@         10080978     Economic.obj
 0002:00000988       ??_C@_0BD@PHIA@Needed?5resources?3?5?$AA@ 10080988     Economic.obj
 0002:000009a0       ??_C@_0M@LKDD@?$CFs?5?$CFs?9?$CFd?3?$CFd?$AA@ 100809a0     Economic.obj
 0002:000009b0       ??_C@_0BG@IAFD@Available?5resources?3?5?$AA@ 100809b0     Economic.obj
 0002:000009cc       ??_C@_0CI@CPDM@WareHouse?5Index?5?$CFd?$DL?5Money?3?$CFd?0?5Na@ 100809cc     Economic.obj
 0002:000009fc       ??_C@_0BC@NOJG@OUTGOINGRESOURCES?$AA@ 100809fc     Economic.obj
 0002:00000a14       ??_C@_0BA@OMKK@NEEDEDRESOURCES?$AA@ 10080a14     Economic.obj
 0002:00000a28       ??_C@_0BD@FANE@AVAILABLERESOURCES?$AA@ 10080a28     Economic.obj
 0002:00000a40       ??_C@_0M@LBIH@UnitKri?$CIFR?$CJ?$AA@ 10080a40     Economic.obj
 0002:00000a50       ??_7Market@@6B@            10080a50     Economic.obj
 0002:00000a60       ??_7UnitInfo@@6B@          10080a60     Economic.obj
 0002:00000a64       ??_7TaxCollector@@6B@      10080a64     Economic.obj
 0002:00000a68       ??_7ProduceList@@6B@       10080a68     Economic.obj
 0002:00000a6c       ??_C@_06JBCM@CREATE?$AA@   10080a6c     Economic.obj
 0002:00000a74       ??_C@_0N@FGNB@?2PRODUCELIST?$AA@ 10080a74     Economic.obj
 0002:00000a84       ??_C@_07POBH@SPENDRL?$AA@  10080a84     Economic.obj
 0002:00000a90       ??_C@_0O@KNB@RESOURCELIST?5?$AA@ 10080a90     Economic.obj
 0002:00000aa0       ??_C@_0M@IDON@NEEDPEASANT?$AA@ 10080aa0     Economic.obj
 0002:00000ab0       ??_C@_04CFBP@TIME?$AA@     10080ab0     Economic.obj
 0002:00000ab8       ??_C@_04OHGB@UNIT?$AA@     10080ab8     Economic.obj
 0002:00000ac0       ??_C@_05JKGE@?$CFs?5?$CFs?$AA@ 10080ac0     Economic.obj
 0002:00000ac8       ??_C@_09OEKJ@RESOURCE?5?$AA@ 10080ac8     Economic.obj
 0002:00000ad4       ??_C@_07BDOF@?2CREATE?$AA@ 10080ad4     Economic.obj
 0002:00000ae0       ??_7UnitDescription@@6B@   10080ae0     Economic.obj
 0002:00000ae4       ??_C@_0M@KING@CAN_PRODUCE?$AA@ 10080ae4     Economic.obj
 0002:00000af4       ??_C@_0BA@EJNF@RESOURCELIST?5?$CFs?$AA@ 10080af4     Economic.obj
 0002:00000b08       ??_C@_0BD@INJC@STARTPOPULATION?5?$CFd?$AA@ 10080b08     Economic.obj
 0002:00000b20       ??_C@_0BA@IKAI@STARTPOPULATION?$AA@ 10080b20     Economic.obj
 0002:00000b34       ??_C@_06GADF@TAX?5?$CFd?$AA@ 10080b34     Economic.obj
 0002:00000b3c       ??_C@_03IJN@TAX?$AA@       10080b3c     Economic.obj
 0002:00000b40       ??_C@_0O@GLIO@STARTMONEY?5?$CFd?$AA@ 10080b40     Economic.obj
 0002:00000b50       ??_C@_0L@FEHH@STARTMONEY?$AA@ 10080b50     Economic.obj
 0002:00000b60       ??_C@_07GJDO@TYPE?5?$CFs?$AA@ 10080b60     Economic.obj
 0002:00000b6c       ??_C@_04JHII@TYPE?$AA@     10080b6c     Economic.obj
 0002:00000b74       ??_C@_07HNCO@NAME?5?$CFs?$AA@ 10080b74     Economic.obj
 0002:00000b80       ??_C@_04IALP@NAME?$AA@     10080b80     Economic.obj
 0002:00000b88       ??_C@_0L@PGED@Eco?2?$CFs?4eud?$AA@ 10080b88     Economic.obj
 0002:00000b98       ??_C@_0N@NECD@?2CAN_PRODUCE?$AA@ 10080b98     Economic.obj
 0002:00000ba8       ??_7Manufacture@@6B@       10080ba8     Economic.obj
 0002:00000bb8       ??_C@_0BG@IPKF@InProduce?5resources?3?5?$AA@ 10080bb8     Economic.obj
 0002:00000bd4       ??_C@_0FE@MCEM@?$CFs?$CDtxt?$FL?$CF?$CFT?$FN?$CI?$CF?$CFEB?$FLx?310?0y?310?$CL?$CFd?0w?3@ 10080bd4     Economic.obj
 0002:00000c38       ??_C@_0FE@MAHC@?$CFs?$CDtxt?$FL?$CF?$CFT?$FN?$CI?$CF?$CFEB?$FLx?310?0y?310?$CL?$CFd?0w?3@ 10080c38     Economic.obj
 0002:00000c9c       ??_C@_0DM@GHKF@?$CFs?$CDtxt?$FL?$CF?$CFT?$FN?$CI?$CF?$CFEB?$FLx?320?0y?3?$CF?$CFT?0w?310@ 10080c9c     Economic.obj
 0002:00000ce4       ??_C@_0EA@ILCF@?$CDtxt?$FL?$CFT?$FN?$CI?$CFEB?$FLx?310?0y?3?$CFT?$CL20?0w?3100?$CF@ 10080ce4     Economic.obj
 0002:00000d30       ??_C@_0BB@GJEN@Eco?2cml?2head?4cml?$AA@ 10080d30     Economic.obj
 0002:00000d44       ??_7Formation@@6B@         10080d44     Economic.obj
 0002:00000d48       ??_7FormationList@@6B@     10080d48     Economic.obj
 0002:00000d4c       ??_C@_0BF@NMBF@?$CFs?5?$CFs?5?$CFd?5?$CFs?5?$CFs?5?$CFs?5?$CFs?$AA@ 10080d4c     Economic.obj
 0002:00000d68       ??_C@_0O@DNBF@?$FL?2FORMATIONS?$FN?$AA@ 10080d68     Economic.obj
 0002:00000d78       ??_C@_0N@JPN@?$FLFORMATIONS?$FN?$AA@ 10080d78     Economic.obj
 0002:00000d88       ??_7AutoFormation@@6B@     10080d88     Economic.obj
 0002:00000d8c       ??_7Barrack@@6B@           10080d8c     Economic.obj
 0002:00000d90       ??_C@_0FI@LHBH@?$CFs?$CDtxt?$FL?$CF?$CFT?$FN?$CI?$CF?$CFEB?$FLx?310?0y?310?$CL?$CFd?0w?3@ 10080d90     Economic.obj
 0002:00000dfc       ??_C@_0FE@LFDB@?$CFs?$CDtxt?$FL?$CF?$CFT?$FN?$CI?$CF?$CFEB?$FLx?310?0y?3?$CF?$CFT?$CL20?0w@ 10080dfc     Economic.obj
 0002:00000e60       ??_C@_0DL@INIE@?$CDtxt?$FL?$CFT?$FN?$CI?$CFEB?$FLx?310?0y?3?$CFT?$CL20?0w?3100?$CF@ 10080e60     Economic.obj
 0002:00000ea8       ??_C@_07KJL@HGu?$CINW?$CJ?$AA@ 10080ea8     Economic.obj
 0002:00000eb4       ??_7Bearer@@6B@            10080eb4     Economic.obj
 0002:00000eb8       ??_7Carrier@@6B@           10080eb8     Economic.obj
 0002:00000ebc       ??_7InterfaceOBJ@@6B@      10080ebc     Economic.obj
 0002:00000ec8       ??_7Troop@@6B@             10080ec8     Economic.obj
 0002:00000ecc       ??_7FormMovement@@6B@      10080ecc     Economic.obj
 0002:00000ed0       ??_C@_01BJG@?6?$AA@        10080ed0     Economic.obj
 0002:00000ed4       ??_C@_03IDOL@?$CFd?7?$AA@  10080ed4     Economic.obj
 0002:00000ed8       ??_C@_0BA@PJLF@Eco?2CachBug?4log?$AA@ 10080ed8     Economic.obj
 0002:00000eec       ??_C@_01LLF@w?$AA@         10080eec     Economic.obj
 0002:00000ef0       ??_C@_01KNJC@?$CG?$AA@     10080ef0     ParseRQ.obj
 0002:00000ef4       ??_C@_01KALE@?$HM?$AA@     10080ef4     ParseRQ.obj
 0002:00000ef8       ??_C@_0BJ@OOHM@LW_file?$CGBattle?1timer?4cml?$AA@ 10080ef8     BattleDialogs.obj
 0002:00000f18       ??_C@_05LDE@timer?$AA@     10080f18     BattleDialogs.obj
 0002:00000f20       ??_C@_06OJDL@upgchk?$AA@   10080f20     BattleDialogs.obj
 0002:00000f28       ??_C@_06PPNA@typsel?$AA@   10080f28     BattleDialogs.obj
 0002:00000f30       ??_C@_05BBHH@ready?$AA@    10080f30     BattleDialogs.obj
 0002:00000f38       ??_C@_03CFGC@btl?$AA@      10080f38     BattleDialogs.obj
 0002:00000f3c       ??_C@_0CB@HPKN@LW_new?$CG?$HMLW_file?$CGBattle?1empty?4cml@ 10080f3c     BattleDialogs.obj
 0002:00000f64       ??_C@_04MOFI@?$CFs?$CFd?$AA@ 10080f64     BattleDialogs.obj
 0002:00000f6c       ??_C@_0M@JGFL@?$CFGV_BT_TIME?$AA@ 10080f6c     BattleDialogs.obj
 0002:00000f7c       ??_C@_0BP@CKH@LW_new?$CG?$HMLW_file?$CGBattle?1tmp?4cml?$AA@ 10080f7c     BattleDialogs.obj
 0002:00000fa4       ??_C@_0P@OEAG@Battle?2tmp?4cml?$AA@ 10080fa4     BattleDialogs.obj
 0002:00000fb8       ??_C@_01PLJA@0?$AA@        10080fb8     BattleDialogs.obj
 0002:00000fbc       ??_C@_04FKEG@?$CFEBX?$AA@  10080fbc     BattleDialogs.obj
 0002:00000fc4       ??_C@_06BFE@?$DMAEND?$DO?$AA@ 10080fc4     BattleDialogs.obj
 0002:00000fcc       ??_C@_06IDDN@?$DMASTR?$DO?$AA@ 10080fcc     BattleDialogs.obj
 0002:00000fd4       ??_C@_05DKOC@?$DMEND?$DO?$AA@ 10080fd4     BattleDialogs.obj
 0002:00000fdc       ??_C@_05LIIL@?$DMSTR?$DO?$AA@ 10080fdc     BattleDialogs.obj
 0002:00000fe4       ??_C@_03EKFD@?$DMW?$DO?$AA@ 10080fe4     BattleDialogs.obj
 0002:00000fe8       ??_C@_03IIPI@?$DMY?$DO?$AA@ 10080fe8     BattleDialogs.obj
 0002:00000fec       ??_C@_03JOFC@?$DMX?$DO?$AA@ 10080fec     BattleDialogs.obj
 0002:00000ff0       ??_C@_06GMPB@?$DMFILE?$DO?$AA@ 10080ff0     BattleDialogs.obj
 0002:00000ff8       ??_C@_08GHEI@?$DMUTIcon?$DO?$AA@ 10080ff8     BattleDialogs.obj
 0002:00001004       ??_C@_06HFCK@?$DMHINT?$DO?$AA@ 10081004     BattleDialogs.obj
 0002:0000100c       ??_C@_08CJML@?$DMUTInfo?$DO?$AA@ 1008100c     BattleDialogs.obj
 0002:00001018       ??_C@_0BB@EFIF@Battle?2Check?4cml?$AA@ 10081018     BattleDialogs.obj
 0002:0000102c       ??_C@_0BD@IKHO@Battle?2Upgrade?4cml?$AA@ 1008102c     BattleDialogs.obj
 0002:00001044       ??_C@_0BC@FEPE@Battle?2SelPan?4cml?$AA@ 10081044     BattleDialogs.obj
 0002:0000105c       ??_C@_0BE@MIKH@Battle?2untypean?4cml?$AA@ 1008105c     BattleDialogs.obj
 0002:00001074       ??_C@_0BE@LCAM@Battle?2UnitType?4cml?$AA@ 10081074     BattleDialogs.obj
 0002:0000108c       ??_C@_06HJFB@_PR_?$CFd?$AA@ 1008108c     BattleDialogs.obj
 0002:00001094       ??_C@_06LJMA@?$DMText?$DO?$AA@ 10081094     BattleDialogs.obj
 0002:0000109c       ??_C@_02BOAK@45?$AA@       1008109c     BattleDialogs.obj
 0002:000010a0       ??_C@_05BHBN@?$DMBOX?$DO?$AA@ 100810a0     BattleDialogs.obj
 0002:000010a8       ??_C@_04ICKJ@?$CFIBX?$AA@  100810a8     BattleDialogs.obj
 0002:000010b0       ??_C@_04EOIA@_AL_?$AA@     100810b0     BattleDialogs.obj
 0002:000010b8       ??_C@_06BJKL@_WR_?$CFd?$AA@ 100810b8     BattleDialogs.obj
 0002:000010c0       ??_C@_07BBPC@?$DMXCOOR?$DO?$AA@ 100810c0     BattleDialogs.obj
 0002:000010cc       ??_C@_05FBN@?$DMDam?$DO?$AA@ 100810cc     BattleDialogs.obj
 0002:000010d4       ??_C@_06CIEA@?$DMIcon?$DO?$AA@ 100810d4     BattleDialogs.obj
 0002:000010dc       ??_C@_06JDGG@_WD_?$CFd?$AA@ 100810dc     BattleDialogs.obj
 0002:000010e4       ??_C@_0BC@EAGI@Battle?2Weapon?4cml?$AA@ 100810e4     BattleDialogs.obj
 0002:000010fc       ??_C@_0BF@IBLJ@Battle?2CTextLine?4cml?$AA@ 100810fc     BattleDialogs.obj
 0002:00001118       ??_C@_0BE@GHOK@Battle?2TextLine?4cml?$AA@ 10081118     BattleDialogs.obj
 0002:00001130       ??_C@_0CA@IGDB@?$HMBattle?2PlayerList2?4gp?00?03?08?08?$HM?$AA@ 10081130     BattleDialogs.obj
 0002:00001158       ??_C@_0CA@ONE@?$HMBattle?2PlayerList2?4gp?02?01?09?09?$HM?$AA@ 10081158     BattleDialogs.obj
 0002:00001180       ??_C@_0M@HLKG@?$DMREADYHINT?$DO?$AA@ 10081180     BattleDialogs.obj
 0002:00001190       ??_C@_0P@FKAL@BTL_Ready_Hint?$AA@ 10081190     BattleDialogs.obj
 0002:000011a4       ??_C@_0L@OJLD@?$DMTIMERVAR?$DO?$AA@ 100811a4     BattleDialogs.obj
 0002:000011b4       ??_C@_09IMBF@?$DMPSTATUS?$DO?$AA@ 100811b4     BattleDialogs.obj
 0002:000011c0       ??_C@_0M@IHLF@?$HL?$DMPSTATUS?$DO?$HN?$AA@ 100811c0     BattleDialogs.obj
 0002:000011d0       ??_C@_07MHME@?$DMPNAME?$DO?$AA@ 100811d0     BattleDialogs.obj
 0002:000011dc       ??_C@_07CLOL@?$CFs?5?$CI?$CFd?$CJ?$AA@ 100811dc     BattleDialogs.obj
 0002:000011e8       ??_C@_07IEFC@?$DMYCOOR?$DO?$AA@ 100811e8     BattleDialogs.obj
 0002:000011f4       ??_C@_07LGFI@?$DMCOLOR?$DO?$AA@ 100811f4     BattleDialogs.obj
 0002:00001200       ??_C@_04KHOH@?$DMID?$DO?$AA@ 10081200     BattleDialogs.obj
 0002:00001208       ??_C@_0BC@GALN@Battle?2Player?4cml?$AA@ 10081208     BattleDialogs.obj
 0002:00001220       ??_C@_0BB@HGEP@Battle?2Frame?4cml?$AA@ 10081220     BattleDialogs.obj
 0002:00001234       ??_C@_09DIG@?$DMMAKEUPG?$DO?$AA@ 10081234     BattleDialogs.obj
 0002:00001240       ??_C@_0N@NGMC@INTF_MAKEUPG?$AA@ 10081240     BattleDialogs.obj
 0002:00001250       ??_C@_0BA@LDCK@Battle?2Main?4cml?$AA@ 10081250     BattleDialogs.obj
 0002:00001264       ??_C@_08NAMH@?$DMULEVEL?$DO?$AA@ 10081264     BattleDialogs.obj
 0002:00001270       ??_C@_07DJPJ@?$DMUIcon?$DO?$AA@ 10081270     BattleDialogs.obj
 0002:0000127c       ??_C@_06CKML@?$DMGUID?$DO?$AA@ 1008127c     BattleDialogs.obj
 0002:00001284       ??_C@_05NBKC@?$DMUID?$DO?$AA@ 10081284     BattleDialogs.obj
 0002:0000128c       ??_C@_06ICEK@?$DMTYPE?$DO?$AA@ 1008128c     BattleDialogs.obj
 0002:00001294       ??_C@_07MINI@?$DMCHECK?$DO?$AA@ 10081294     BattleDialogs.obj
 0002:000012a0       ??_C@_01FBAH@1?$AA@        100812a0     BattleDialogs.obj
 0002:000012a4       ??_C@_0L@PJHD@BTL_Others?$AA@ 100812a4     BattleDialogs.obj
 0002:000012b4       ??_C@_0M@HHHK@BTL_Defence?$AA@ 100812b4     BattleDialogs.obj
 0002:000012c4       ??_C@_0L@KNK@BTL_Attack?$AA@ 100812c4     BattleDialogs.obj
 0002:000012d4       ??_C@_0EA@BCM@d?3?2old_projects_backup?2americanc@ 100812d4     Mind.obj
 0002:00001320       ??_C@_0BA@OBOO@?$EARMID_IMPOSIBLE?$AA@ 10081320     Mind.obj
 0002:00001334       ??_C@_0P@PNBA@?$EARMID_VERYHARD?$AA@ 10081334     Mind.obj
 0002:00001348       ??_C@_0L@KK@?$EARMID_HARD?$AA@ 10081348     Mind.obj
 0002:00001358       ??_C@_0N@HBKF@?$EARMID_NORMAL?$AA@ 10081358     Mind.obj
 0002:00001368       ??_C@_0L@HBIJ@?$EARMID_EASY?$AA@ 10081368     Mind.obj
 0002:00001378       ??_C@_08OEKM@Squad?5?$CFd?$AA@ 10081378     Mind.obj
 0002:00001384       ??_C@_09KJGD@Way?5?$CFs?5?$CFd?$AA@ 10081384     Mind.obj
 0002:00001390       ??_C@_06FAPO@Arm?5?$CFd?$AA@ 10081390     Mind.obj
 0002:00001398       ??_C@_0O@GHDJ@En?5?$CFd?0?5top?5?$CFd?$AA@ 10081398     Mind.obj
 0002:000013a8       ??_C@_07CIAJ@Army?5?$CFd?$AA@ 100813a8     Mind.obj
 0002:000013b4       ??_C@_0BB@ICGN@prio?$DN?$CFd?0?5dist?$DN?$CFd?$AA@ 100813b4     Mind.obj
 0002:000013c8       ??_C@_04KMCK@acti?$AA@     100813c8     Mind.obj
 0002:000013d0       ??_C@_04PIKN@type?$AA@     100813d0     Mind.obj
 0002:000013d8       ??_C@_04OCMP@kart?$AA@     100813d8     Mind.obj
 0002:000013e0       ??_C@_04KLHL@vist?$AA@     100813e0     Mind.obj
 0002:000013e8       ??_C@_04OBHP@dang?$AA@     100813e8     Mind.obj
 0002:000013f0       ??_C@_04DDJJ@show?$AA@     100813f0     Mind.obj
 0002:000013f8       ??_C@_03EHIM@run?$AA@      100813f8     Mind.obj
 0002:000013fc       ??_C@_04NHHI@deac?$AA@     100813fc     Mind.obj
 0002:00001404       ??_C@_04DBHH@REAR?$AA@     10081404     Mind.obj
 0002:0000140c       ??_C@_0BH@GPLA@GetCurMissionMapName?$CI?$CJ?$AA@ 1008140c     Script.obj
 0002:00001428       ??_C@_0BH@EFFM@Init?5mission?5FAILED?4?4?4?$AA@ 10081428     Script.obj
 0002:00001444       ??_C@_05NAGO@false?$AA@    10081444     Script.obj
 0002:0000144c       ??_C@_0EC@GMGD@D?3?2OLD_PROJECTS_BACKUP?2AmericanC@ 1008144c     Script.obj
 0002:0000149c       ??_C@_0BJ@LND@Loading?5script?5FAILED?4?4?4?$AA@ 1008149c     Script.obj
 0002:000014bc       ??_C@_0N@DEED@?$FLUpgEnabled?$FN?$AA@ 100814bc     Script.obj
 0002:000014cc       ??_C@_06NKML@?$FLAIUpg?$AA@ 100814cc     Script.obj
 0002:000014d4       ??_C@_08BBPK@?$FLDefeat?$FN?$AA@ 100814d4     Script.obj
 0002:000014e0       ??_C@_0M@LDOF@?$FLArmyValue?$FN?$AA@ 100814e0     Script.obj
 0002:000014f0       ??_C@_0M@CJGA@?$FLArmyBonus?$FN?$AA@ 100814f0     Script.obj
 0002:00001500       ??_C@_0L@EAKC@?$FLDifBonus?$FN?$AA@ 10081500     Script.obj
 0002:00001510       ??_C@_07DCMB@?$FLPlayer?$AA@ 10081510     Script.obj
 0002:0000154c       ??_C@_02JJJH@?6?6?$AA@     1008154c     LIBC:assert.obj
 0002:00001550       ??_C@_03NAME@?4?4?4?$AA@   10081550     LIBC:assert.obj
 0002:00001554       ??_C@_0CF@JPDF@Microsoft?5Visual?5C?$CL?$CL?5Runtime?5Lib@ 10081554     LIBC:assert.obj
 0002:0000157c       ??_C@_0DN@MHHJ@?$CIPress?5Retry?5to?5debug?5the?5applic@ 1008157c     LIBC:assert.obj
 0002:000015bc       ??_C@_0HA@EJLJ@For?5information?5on?5how?5your?5prog@ 100815bc     LIBC:assert.obj
 0002:0000162c       ??_C@_0N@NOAB@Expression?3?5?$AA@ 1008162c     LIBC:assert.obj
 0002:0000163c       ??_C@_06JMOL@Line?3?5?$AA@ 1008163c     LIBC:assert.obj
 0002:00001644       ??_C@_06FAAO@File?3?5?$AA@ 10081644     LIBC:assert.obj
 0002:0000164c       ??_C@_0BH@NNCD@?$DMprogram?5name?5unknown?$DO?$AA@ 1008164c     LIBC:assert.obj
 0002:00001664       ??_C@_09PIFG@Program?3?5?$AA@ 10081664     LIBC:assert.obj
 0002:00001670       ??_C@_0BC@OIMC@Assertion?5failed?$CB?$AA@ 10081670     LIBC:assert.obj
 0002:00001684       ___lookuptable             10081684     LIBC:output.obj
 0002:000016e0       ??_C@_1O@POHA@?$AA?$CI?$AAn?$AAu?$AAl?$AAl?$AA?$CJ?$AA?$AA@ 100816e0     LIBC:output.obj
 0002:000016f0       ??_C@_06ONKE@?$CInull?$CJ?$AA@ 100816f0     LIBC:output.obj
 0002:00001770       ??_C@_01A@?$AA?$AA@        10081770     LIBC:a_map.obj
 0002:00001774       ??_C@_13A@?$AA?$AA?$AA?$AA@ 10081774     LIBC:a_map.obj
 0002:00001790       ??_C@_0BD@NJFP@GetLastActivePopup?$AA@ 10081790     LIBC:crtmbox.obj
 0002:000017a4       ??_C@_0BA@GILI@GetActiveWindow?$AA@ 100817a4     LIBC:crtmbox.obj
 0002:000017b4       ??_C@_0M@PKCK@MessageBoxA?$AA@ 100817b4     LIBC:crtmbox.obj
 0002:000017c0       ??_C@_0L@HKL@user32?4dll?$AA@ 100817c0     LIBC:crtmbox.obj
 0002:000017cc       ??_C@_0P@GGKG@runtime?5error?5?$AA@ 100817cc     LIBC:crt0msg.obj
 0002:000017dc       ??_C@_02PIMC@?$AN?6?$AA@   100817dc     LIBC:crt0msg.obj
 0002:000017e0       ??_C@_0O@DELO@TLOSS?5error?$AN?6?$AA@ 100817e0     LIBC:crt0msg.obj
 0002:000017f0       ??_C@_0N@OMLL@SING?5error?$AN?6?$AA@ 100817f0     LIBC:crt0msg.obj
 0002:00001800       ??_C@_0P@OJAK@DOMAIN?5error?$AN?6?$AA@ 10081800     LIBC:crt0msg.obj
 0002:00001810       ??_C@_0CF@EANP@R6028?$AN?6?9?5unable?5to?5initialize?5he@ 10081810     LIBC:crt0msg.obj
 0002:00001838       ??_C@_0DF@ECGN@R6027?$AN?6?9?5not?5enough?5space?5for?5lo@ 10081838     LIBC:crt0msg.obj
 0002:00001870       ??_C@_0DF@FKAC@R6026?$AN?6?9?5not?5enough?5space?5for?5st@ 10081870     LIBC:crt0msg.obj
 0002:000018a8       ??_C@_0CG@DPMN@R6025?$AN?6?9?5pure?5virtual?5function?5c@ 100818a8     LIBC:crt0msg.obj
 0002:000018d0       ??_C@_0DF@CKIP@R6024?$AN?6?9?5not?5enough?5space?5for?5_o@ 100818d0     LIBC:crt0msg.obj
 0002:00001908       ??_C@_0CJ@GGOE@R6019?$AN?6?9?5unable?5to?5open?5console?5@ 10081908     LIBC:crt0msg.obj
 0002:00001934       ??_C@_0CB@LBOB@R6018?$AN?6?9?5unexpected?5heap?5error?$AN?6@ 10081934     LIBC:crt0msg.obj
 0002:00001958       ??_C@_0CN@FPEG@R6017?$AN?6?9?5unexpected?5multithread?5@ 10081958     LIBC:crt0msg.obj
 0002:00001988       ??_C@_0CM@OBIC@R6016?$AN?6?9?5not?5enough?5space?5for?5th@ 10081988     LIBC:crt0msg.obj
 0002:000019b4       ??_C@_0CB@HPAL@?$AN?6abnormal?5program?5termination?$AN?6@ 100819b4     LIBC:crt0msg.obj
 0002:000019d8       ??_C@_0CM@JOOB@R6009?$AN?6?9?5not?5enough?5space?5for?5en@ 100819d8     LIBC:crt0msg.obj
 0002:00001a04       ??_C@_0CK@OIBL@R6008?$AN?6?9?5not?5enough?5space?5for?5ar@ 10081a04     LIBC:crt0msg.obj
 0002:00001a30       ??_C@_0CF@LKPB@R6002?$AN?6?9?5floating?5point?5not?5load@ 10081a30     LIBC:crt0msg.obj
 0002:00001a58       ??_C@_0BK@DEOK@Runtime?5Error?$CB?6?6Program?3?5?$AA@ 10081a58     LIBC:crt0msg.obj
 0003:00000000       ___xc_a                    10084000     LIBC:crt0init.obj
 0003:00000238       ___xc_z                    10084238     LIBC:crt0init.obj
 0003:0000033c       ___xi_a                    1008433c     LIBC:crt0init.obj
 0003:00000654       ___xi_z                    10084654     LIBC:crt0init.obj
 0003:00000758       ___xp_a                    10084758     LIBC:crt0init.obj
 0003:00000960       ___xp_z                    10084960     LIBC:crt0init.obj
 0003:00000a64       ___xt_a                    10084a64     LIBC:crt0init.obj
 0003:00000c6c       ___xt_z                    10084c6c     LIBC:crt0init.obj
 0003:00000d70       ?__LINE__Var@?1??InitThisTribe2@DIP_SimpleBuilding@@UAEXPAD000@Z@4FA 10084d70     DIP_SimpleBuilding.obj
 0003:00000d74       ?__LINE__Var@?1??InitThisTribe@DIP_SimpleBuilding@@UAEXPAD00@Z@4FA 10084d74     DIP_SimpleBuilding.obj
 0003:00000d78       ?__LINE__Var@?1??AddCannon@DiplomacySystem@@QAEXPAUGAMEOBJ@@E@Z@4FA 10084d78     DiplomacySystem.obj
 0003:00000d7c       ?__LINE__Var@?1??AddStorm@DiplomacySystem@@QAEXPAUGAMEOBJ@@EH@Z@4FA 10084d7c     DiplomacySystem.obj
 0003:00000d80       ?__LINE__Var@?1??AddFirers@DiplomacySystem@@QAEXPAUGAMEOBJ@@E@Z@4FA 10084d80     DiplomacySystem.obj
 0003:00000d84       ?__LINE__Var@?1??AddKillers@DiplomacySystem@@QAEXPAUGAMEOBJ@@E_N@Z@4FA 10084d84     DiplomacySystem.obj
 0003:00000d88       ?__LINE__Var@?1??AddTomahawks@DiplomacySystem@@QAEXPAUGAMEOBJ@@EGHH@Z@4FA 10084d88     DiplomacySystem.obj
 0003:00000d8c       ?__LINE__Var@?1??ProcessZoology@DiplomacySystem@@QAEXXZ@4FA 10084d8c     DiplomacySystem.obj
 0003:00000d90       ?NType@FindIfUnitDescription@@2HA 10084d90     Economic.obj
 0003:00000d94       ?ArrSZ@InterfaceOBJ@@0HA   10084d94     Economic.obj
 0003:00000d9c       ?__LINE__Var@?1??ResearchMap@Economic@@QAEXXZ@4FA 10084d9c     Economic.obj
 0003:00000da0       ?__LINE__Var@?1??FillParams@Warehouse@@QAEXPAVUnitDescription@@H@Z@4FA 10084da0     Economic.obj
 0003:00000da4       ?__LINE__Var@?1???0AutoFormation@@QAE@XZ@4FA 10084da4     Economic.obj
 0003:00000da8       ?__LINE__Var@?1???0Bearer@@QAE@XZ@4FA 10084da8     Economic.obj
 0003:00000dac       ?HXARR@@3PADA              10084dac     ParseRQ.obj
 0003:00000dc0       ?__LINE__Var@?1??AddSquad@Mind@@QAEGGG@Z@4FA 10084dc0     Mind.obj
 0003:00000dc4       ?__LINE__Var@?1??Init@Mind@@QAEXEH@Z@4FA 10084dc4     Mind.obj
 0003:00000dc8       ?__LINE__Var@?1??LoadScript@@YAXXZ@4FA 10084dc8     Script.obj
 0003:00000dd0       __NLG_Destination          10084dd0     LIBC:exsup.obj
 0003:00000e14       __aexit_rtn                10084e14     LIBC:dllcrt0.obj
 0003:00000e2c       ___nullstring              10084e2c     LIBC:output.obj
 0003:00000e30       ___wnullstring             10084e30     LIBC:output.obj
 0003:00000e40       ?__pUnexpected@@3P6AXXZA   10084e40     LIBC:hooks.obj
 0003:00000e44       ?__pInconsistency@@3P6AXXZA 10084e44     LIBC:hooks.obj
 0003:00000e48       __pctype                   10084e48     LIBC:ctype.obj
 0003:00000e4c       __pwctype                  10084e4c     LIBC:ctype.obj
 0003:00000e50       __ctype                    10084e50     LIBC:ctype.obj
 0003:00001054       ___mb_cur_max              10085054     LIBC:nlsdata1.obj
 0003:00001058       ___decimal_point           10085058     LIBC:nlsdata1.obj
 0003:0000105c       ___decimal_point_length    1008505c     LIBC:nlsdata1.obj
 0003:00001060       __iob                      10085060     LIBC:_file.obj
 0003:000012e0       __amblksiz                 100852e0     LIBC:heapinit.obj
 0003:000012e8       ___badioinfo               100852e8     LIBC:ioinit.obj
 0003:00001380       __cfltcvt_tab              10085380     LIBC:cmiscdat.obj
 0003:000013a0       ___sbh_threshold           100853a0     LIBC:sbheap.obj
 0003:00001510       __XcptActTab               10085510     LIBC:winxfltr.obj
 0003:00001588       __First_FPE_Indx           10085588     LIBC:winxfltr.obj
 0003:0000158c       __Num_FPE                  1008558c     LIBC:winxfltr.obj
 0003:00001590       __XcptActTabCount          10085590     LIBC:winxfltr.obj
 0003:00001594       __fpecode                  10085594     LIBC:winxfltr.obj
 0003:00001960       ?DIPS@@3VDiplomacySystem@@A 10085960     DipMain.obj
 0003:000029f8       ?CurIndex@DIP_SimpleBuilding@@2HA 100869f8     DipMain.obj
 0003:000029fc       ?tmpptr@@3PAEA             100869fc     DipMain.obj
 0003:00002d58       ?LFREQ@@3VDS_Requests@@A   10086d58     DipServer.obj
 0003:00002d68       ?PL@Manufacture@@2VProduceList@@A 10086d68     Economic.obj
 0003:00002d70       ?Things@ProduceList@@2V?$vector@VThing@@V?$allocator@VThing@@@std@@@std@@A 10086d70     Economic.obj
 0003:00002d80       ?BasePrice@ResourceList@@2V?$vector@HV?$allocator@H@std@@@std@@A 10086d80     Economic.obj
 0003:00002d90       ?Resources@ResourceList@@2V?$vector@UResource@@V?$allocator@UResource@@@std@@@std@@A 10086d90     Economic.obj
 0003:00002da0       ?Formations@Barrack@@2VFormationList@@A 10086da0     Economic.obj
 0003:00002da8       ?GD1@@3UGAMEOBJ@@A         10086da8     Economic.obj
 0003:00002db0       ?GD2@@3UGAMEOBJ@@A         10086db0     Economic.obj
 0003:00002db8       ?GD3@@3UGAMEOBJ@@A         10086db8     Economic.obj
 0003:00002dc0       ?FLIndex@InterfaceOBJ@@0PAPAPAV1@A 10086dc0     Economic.obj
 0003:000035c0       ?NowTime@@3HA              100875c0     Economic.obj
 0003:000035c8       ?FL@FormationList@@2V?$vector@VFormation@@V?$allocator@VFormation@@@std@@@std@@A 100875c8     Economic.obj
 0003:000035d8       ?ONE@@3UGAMEOBJ@@A         100875d8     Economic.obj
 0003:000035e0       ?Flog@@3PAU_iobuf@@A       100875e0     Economic.obj
 0003:000035ec       ?ResourceAmount@ResourceList@@2HA 100875ec     Economic.obj
 0003:000035f0       ?ResID@Barrack@@2HA        100875f0     Economic.obj
 0003:000035f4       ?ThisBilding@Barrack@@2PAVUnitInfo@@A 100875f4     Economic.obj
 0003:000037b0       ?Battle@@3VCBattle@@A      100877b0     BattleDialogs.obj
 0003:00003918       ?Dang@@3PAHA               10087918     Mind.obj
 0003:00007918       ?Player@@3PAVMind@@A       1008b918     Mind.obj
 0003:00176e80       ?PScript@@3PAVCPlayerScript@@A 101fae80     Script.obj
 0003:0018a220       __aenvptr                  1020e220     LIBC:dllcrt0.obj
 0003:0018a224       __wenvptr                  1020e224     LIBC:dllcrt0.obj
 0003:0018a228       ___error_mode              1020e228     LIBC:dllcrt0.obj
 0003:0018a22c       ___app_type                1020e22c     LIBC:dllcrt0.obj
 0003:0018a230       ?_pCurrentException@@3PAUEHExceptionRecord@@A 1020e230     LIBC:frame.obj
 0003:0018a234       ?_pCurrentExContext@@3PAU_CONTEXT@@A 1020e234     LIBC:frame.obj
 0003:0018a238       ?__pSETranslator@@3P6AXIPAU_EXCEPTION_POINTERS@@@ZA 1020e238     LIBC:hooks.obj
 0003:0018a23c       ?__pTerminate@@3P6AXXZA    1020e23c     LIBC:hooks.obj
 0003:0018a240       _errno                     1020e240     LIBC:crt0dat.obj
 0003:0018a244       __doserrno                 1020e244     LIBC:crt0dat.obj
 0003:0018a248       __umaskval                 1020e248     LIBC:crt0dat.obj
 0003:0018a24c       __osver                    1020e24c     LIBC:crt0dat.obj
 0003:0018a250       __winver                   1020e250     LIBC:crt0dat.obj
 0003:0018a254       __winmajor                 1020e254     LIBC:crt0dat.obj
 0003:0018a258       __winminor                 1020e258     LIBC:crt0dat.obj
 0003:0018a25c       ___argc                    1020e25c     LIBC:crt0dat.obj
 0003:0018a260       ___argv                    1020e260     LIBC:crt0dat.obj
 0003:0018a264       ___wargv                   1020e264     LIBC:crt0dat.obj
 0003:0018a268       __environ                  1020e268     LIBC:crt0dat.obj
 0003:0018a26c       ___initenv                 1020e26c     LIBC:crt0dat.obj
 0003:0018a270       __wenviron                 1020e270     LIBC:crt0dat.obj
 0003:0018a274       ___winitenv                1020e274     LIBC:crt0dat.obj
 0003:0018a278       __pgmptr                   1020e278     LIBC:crt0dat.obj
 0003:0018a27c       __wpgmptr                  1020e27c     LIBC:crt0dat.obj
 0003:0018a280       __exitflag                 1020e280     LIBC:crt0dat.obj
 0003:0018a284       __C_Termination_Done       1020e284     LIBC:crt0dat.obj
 0003:0018a288       __C_Exit_Done              1020e288     LIBC:crt0dat.obj
 0003:0018a290       ___lc_handle               1020e290     LIBC:nlsdata2.obj
 0003:0018a2a8       ___lc_codepage             1020e2a8     LIBC:nlsdata2.obj
 0003:0018a2ac       ___lc_collate_cp           1020e2ac     LIBC:nlsdata2.obj
 0003:0018a2b0       __stdbuf                   1020e2b0     LIBC:_sftbuf.obj
 0003:0018a2b8       __cflush                   1020e2b8     LIBC:_file.obj
 0003:0018a3e4       __adbgmsg                  1020e3e4     LIBC:crt0msg.obj
 0003:0018a3f0       ?_pnhHeap@@3P6AHI@ZA       1020e3f0     LIBC:handler.obj
 0003:0018a3f4       __newmode                  1020e3f4     LIBC:_newmode.obj
 0003:0018a3f8       __commode                  1020e3f8     LIBC:ncommode.obj
 0003:0018a3fc       __pxcptinfoptrs            1020e3fc     LIBC:winxfltr.obj
 0003:0018a404       __fmode                    1020e404     LIBC:txtmode.obj
 0003:0018a408       ___mbcodepage              1020e408     <common>
 0003:0018a480       ___mbulinfo                1020e480     <common>
 0003:0018a48c       ___ismbcodepage            1020e48c     <common>
 0003:0018a4a0       __mbcasemap                1020e4a0     <common>
 0003:0018a5a0       __mbctype                  1020e5a0     <common>
 0003:0018a6a4       ___mblcid                  1020e6a4     <common>
 0003:0018a6a8       ___sbh_sizeHeaderList      1020e6a8     <common>
 0003:0018a6b8       ___sbh_indGroupDefer       1020e6b8     <common>
 0003:0018a6bc       ___sbh_pHeaderScan         1020e6bc     <common>
 0003:0018a6c0       ___sbh_pHeaderDefer        1020e6c0     <common>
 0003:0018a6c4       ___sbh_cntHeaderList       1020e6c4     <common>
 0003:0018a6c8       ___sbh_pHeaderList         1020e6c8     <common>
 0003:0018a6e0       ___pioinfo                 1020e6e0     <common>
 0003:0018a81c       __nhandle                  1020e81c     <common>
 0003:0018a820       __crtheap                  1020e820     <common>
 0003:0018a82c       ___piob                    1020e82c     <common>
 0003:0018ab80       __bufin                    1020eb80     <common>
 0003:0018bb80       __nstream                  1020fb80     <common>
 0003:0018bb84       ___env_initialized         1020fb84     <common>
 0003:0018bb94       ___mbctype_initialized     1020fb94     <common>
 0003:0018bb98       ___onexitend               1020fb98     <common>
 0003:0018bb9c       ___onexitbegin             1020fb9c     <common>
 0003:0018bba0       __FPinit                   1020fba0     <common>
 0003:0018bba4       __acmdln                   1020fba4     <common>
 0003:0018bbb4       __pRawDllMain              1020fbb4     <common>
 0004:00000000       __IMPORT_DESCRIPTOR_dmcr   10210000     dmcr:dmcr.exe
 0004:00000014       __IMPORT_DESCRIPTOR_intExplorer 10210014     intExplorer:intExplorer.dll
 0004:00000028       __IMPORT_DESCRIPTOR_KERNEL32 10210028     kernel32:KERNEL32.dll
 0004:0000003c       __IMPORT_DESCRIPTOR_USER32 1021003c     user32:USER32.dll
 0004:00000050       __NULL_IMPORT_DESCRIPTOR   10210050     dmcr:dmcr.exe
 0004:000005a0       __imp__SetEndOfFile@4      102105a0     kernel32:KERNEL32.dll
 0004:000005a4       __imp__UnhandledExceptionFilter@4 102105a4     kernel32:KERNEL32.dll
 0004:000005a8       __imp__CreateFileA@28      102105a8     kernel32:KERNEL32.dll
 0004:000005ac       __imp__FlushFileBuffers@4  102105ac     kernel32:KERNEL32.dll
 0004:000005b0       __imp__SetStdHandle@8      102105b0     kernel32:KERNEL32.dll
 0004:000005b4       __imp__VirtualAlloc@16     102105b4     kernel32:KERNEL32.dll
 0004:000005b8       __imp__GetStringTypeW@16   102105b8     kernel32:KERNEL32.dll
 0004:000005bc       __imp__GetStringTypeA@20   102105bc     kernel32:KERNEL32.dll
 0004:000005c0       __imp__IsBadCodePtr@4      102105c0     kernel32:KERNEL32.dll
 0004:000005c4       __imp__IsBadWritePtr@8     102105c4     kernel32:KERNEL32.dll
 0004:000005c8       __imp__IsBadReadPtr@8      102105c8     kernel32:KERNEL32.dll
 0004:000005cc       __imp__SetUnhandledExceptionFilter@4 102105cc     kernel32:KERNEL32.dll
 0004:000005d0       __imp__SetFilePointer@16   102105d0     kernel32:KERNEL32.dll
 0004:000005d4       __imp__WriteFile@20        102105d4     kernel32:KERNEL32.dll
 0004:000005d8       __imp__GetEnvironmentStringsW@0 102105d8     kernel32:KERNEL32.dll
 0004:000005dc       __imp__GetEnvironmentStrings@0 102105dc     kernel32:KERNEL32.dll
 0004:000005e0       __imp__FreeEnvironmentStringsW@4 102105e0     kernel32:KERNEL32.dll
 0004:000005e4       __imp__FreeEnvironmentStringsA@4 102105e4     kernel32:KERNEL32.dll
 0004:000005e8       __imp__GetStartupInfoA@4   102105e8     kernel32:KERNEL32.dll
 0004:000005ec       __imp__GetFileType@4       102105ec     kernel32:KERNEL32.dll
 0004:000005f0       __imp__GetStdHandle@4      102105f0     kernel32:KERNEL32.dll
 0004:000005f4       __imp__SetHandleCount@4    102105f4     kernel32:KERNEL32.dll
 0004:000005f8       __imp__VirtualFree@12      102105f8     kernel32:KERNEL32.dll
 0004:000005fc       __imp__HeapCreate@12       102105fc     kernel32:KERNEL32.dll
 0004:00000600       __imp__HeapDestroy@4       10210600     kernel32:KERNEL32.dll
 0004:00000604       __imp__LoadLibraryA@4      10210604     kernel32:KERNEL32.dll
 0004:00000608       __imp__GetProcAddress@8    10210608     kernel32:KERNEL32.dll
 0004:0000060c       __imp__SetConsoleCtrlHandler@8 1021060c     kernel32:KERNEL32.dll
 0004:00000610       __imp__CloseHandle@4       10210610     kernel32:KERNEL32.dll
 0004:00000614       __imp__GetLastError@0      10210614     kernel32:KERNEL32.dll
 0004:00000618       __imp__LCMapStringW@24     10210618     kernel32:KERNEL32.dll
 0004:0000061c       __imp__LCMapStringA@24     1021061c     kernel32:KERNEL32.dll
 0004:00000620       __imp__MultiByteToWideChar@24 10210620     kernel32:KERNEL32.dll
 0004:00000624       __imp__WideCharToMultiByte@32 10210624     kernel32:KERNEL32.dll
 0004:00000628       __imp__HeapFree@12         10210628     kernel32:KERNEL32.dll
 0004:0000062c       __imp__HeapSize@12         1021062c     kernel32:KERNEL32.dll
 0004:00000630       __imp__GetCurrentProcess@0 10210630     kernel32:KERNEL32.dll
 0004:00000634       __imp__TerminateProcess@8  10210634     kernel32:KERNEL32.dll
 0004:00000638       __imp__ExitProcess@4       10210638     kernel32:KERNEL32.dll
 0004:0000063c       __imp__HeapAlloc@12        1021063c     kernel32:KERNEL32.dll
 0004:00000640       __imp__HeapReAlloc@16      10210640     kernel32:KERNEL32.dll
 0004:00000644       __imp__GetVersion@0        10210644     kernel32:KERNEL32.dll
 0004:00000648       __imp__GetCommandLineA@0   10210648     kernel32:KERNEL32.dll
 0004:0000064c       __imp__GetModuleFileNameA@12 1021064c     kernel32:KERNEL32.dll
 0004:00000650       __imp__RtlUnwind@16        10210650     kernel32:KERNEL32.dll
 0004:00000654       __imp__GetTickCount@0      10210654     kernel32:KERNEL32.dll
 0004:00000658       __imp__GetACP@0            10210658     kernel32:KERNEL32.dll
 0004:0000065c       __imp__GetOEMCP@0          1021065c     kernel32:KERNEL32.dll
 0004:00000660       __imp__ReadFile@20         10210660     kernel32:KERNEL32.dll
 0004:00000664       __imp__GetCPInfo@8         10210664     kernel32:KERNEL32.dll
 0004:00000668       \177KERNEL32_NULL_THUNK_DATA 10210668     kernel32:KERNEL32.dll
 0004:000006bc       __imp__MessageBoxA@16      102106bc     user32:USER32.dll
 0004:000006c0       \177USER32_NULL_THUNK_DATA 102106c0     user32:USER32.dll
 0004:000006ec       __imp__GetGroupName        102106ec     dmcr:dmcr.exe
 0004:000006f0       __imp__GetAmountOfGroups   102106f0     dmcr:dmcr.exe
 0004:000006f4       __imp__GetGroupCharge      102106f4     dmcr:dmcr.exe
 0004:000006f8       __imp__CreateFriendBuildingsTopList 102106f8     dmcr:dmcr.exe
 0004:000006fc       __imp__CreateTopListEnArmy 102106fc     dmcr:dmcr.exe
 0004:00000700       __imp__AttackByTomahawks   10210700     dmcr:dmcr.exe
 0004:00000704       __imp__DeleteUnitFromGroup 10210704     dmcr:dmcr.exe
 0004:00000708       __imp__GetDiff             10210708     dmcr:dmcr.exe
 0004:0000070c       __imp__isUnitAbsorber      1021070c     dmcr:dmcr.exe
 0004:00000710       __imp__GetOBJ              10210710     dmcr:dmcr.exe
 0004:00000714       __imp__MakeOneShotToBuild  10210714     dmcr:dmcr.exe
 0004:00000718       __imp__SetUnitsState       10210718     dmcr:dmcr.exe
 0004:0000071c       __imp__GetEnemyForce       1021071c     dmcr:dmcr.exe
 0004:00000720       __imp__GetGroupForce       10210720     dmcr:dmcr.exe
 0004:00000724       __imp__CreateDangerMapForTom 10210724     dmcr:dmcr.exe
 0004:00000728       __imp__AttackEnemyPeasantsInZone 10210728     dmcr:dmcr.exe
 0004:0000072c       __imp__CreatePeasantsTopList 1021072c     dmcr:dmcr.exe
 0004:00000730       __imp__CreateDangerMap     10210730     dmcr:dmcr.exe
 0004:00000734       __imp__CreateDangerMapForFire 10210734     dmcr:dmcr.exe
 0004:00000738       __imp__SetToInternalResourcesZero 10210738     dmcr:dmcr.exe
 0004:0000073c       __imp__GrpAttackObject     1021073c     dmcr:dmcr.exe
 0004:00000740       __imp__CheckIfBuildingIsFired 10210740     dmcr:dmcr.exe
 0004:00000744       __imp__ArtAttackObject     10210744     dmcr:dmcr.exe
 0004:00000748       __imp__ArtAttackGroud      10210748     dmcr:dmcr.exe
 0004:0000074c       __imp__CreateNonFiredEnemyBuildingsTopList 1021074c     dmcr:dmcr.exe
 0004:00000750       __imp__CreateDangerMapWithoutPeasants 10210750     dmcr:dmcr.exe
 0004:00000754       __imp__CheckIfNotBusy      10210754     dmcr:dmcr.exe
 0004:00000758       __imp__GetZonesDist        10210758     dmcr:dmcr.exe
 0004:0000075c       __imp__GetAlliesForce      1021075c     dmcr:dmcr.exe
 0004:00000760       __imp__SGP_MoveToPoint     10210760     dmcr:dmcr.exe
 0004:00000764       __imp__GetTopZRealCoor     10210764     dmcr:dmcr.exe
 0004:00000768       __imp__GetLastFullWay      10210768     dmcr:dmcr.exe
 0004:0000076c       __imp__GetTopDist          1021076c     dmcr:dmcr.exe
 0004:00000770       __imp_?DetArcher@@YA_NG@Z  10210770     dmcr:dmcr.exe
 0004:00000774       __imp__FindNextZoneOnTheSafeWay 10210774     dmcr:dmcr.exe
 0004:00000778       __imp__FindNextZoneOnTheSafeWayToObject 10210778     dmcr:dmcr.exe
 0004:0000077c       __imp__CreateTopListForStorm 1021077c     dmcr:dmcr.exe
 0004:00000780       __imp__CreateTopListForStormHard 10210780     dmcr:dmcr.exe
 0004:00000784       __imp__SetDangerMap        10210784     dmcr:dmcr.exe
 0004:00000788       __imp__CreateDangerMapForStorm 10210788     dmcr:dmcr.exe
 0004:0000078c       __imp__CreateDangerMapForStormHard 1021078c     dmcr:dmcr.exe
 0004:00000790       __imp__RemoveGroup         10210790     dmcr:dmcr.exe
 0004:00000794       __imp__RemoveNearestUnit   10210794     dmcr:dmcr.exe
 0004:00000798       __imp__GetBuildingOposit   10210798     dmcr:dmcr.exe
 0004:0000079c       __imp__GetBuildingEntryPoint 1021079c     dmcr:dmcr.exe
 0004:000007a0       __imp__GetTopZone          102107a0     dmcr:dmcr.exe
 0004:000007a4       __imp__DeleteHiddenUnits   102107a4     dmcr:dmcr.exe
 0004:000007a8       __imp__OBJ_SmartSendTo     102107a8     dmcr:dmcr.exe
 0004:000007ac       __imp__GetMaxAttRadius     102107ac     dmcr:dmcr.exe
 0004:000007b0       __imp__FilterUnitsByCategory 102107b0     dmcr:dmcr.exe
 0004:000007b4       __imp__GetTargetObject     102107b4     dmcr:dmcr.exe
 0004:000007b8       __imp__GetListOfNearZones  102107b8     dmcr:dmcr.exe
 0004:000007bc       __imp__SGP_MakeOneStepTo   102107bc     dmcr:dmcr.exe
 0004:000007c0       __imp__RemoveAttackingUnits 102107c0     dmcr:dmcr.exe
 0004:000007c4       __imp__FindNextZoneOnTheSafeWayToLimitedObject 102107c4     dmcr:dmcr.exe
 0004:000007c8       __imp__CreateObject0       102107c8     dmcr:dmcr.exe
 0004:000007cc       __imp__RegisterFormation   102107cc     dmcr:dmcr.exe
 0004:000007d0       __imp__GetTotalAmount1     102107d0     dmcr:dmcr.exe
 0004:000007d4       __imp__CheckLandLocking    102107d4     dmcr:dmcr.exe
 0004:000007d8       __imp_?RClose@@YAXPAX@Z    102107d8     dmcr:dmcr.exe
 0004:000007dc       __imp_?RBlockRead@@YAKPAX0K@Z 102107dc     dmcr:dmcr.exe
 0004:000007e0       __imp_?RFileSize@@YAKPAX@Z 102107e0     dmcr:dmcr.exe
 0004:000007e4       __imp_?RReset@@YAPAXPBD@Z  102107e4     dmcr:dmcr.exe
 0004:000007e8       __imp_?RBlockWrite@@YAKPAX0K@Z 102107e8     dmcr:dmcr.exe
 0004:000007ec       __imp_?RRewrite@@YAPAXPBD@Z 102107ec     dmcr:dmcr.exe
 0004:000007f0       __imp__GetUnitsByNation    102107f0     dmcr:dmcr.exe
 0004:000007f4       __imp__SaveSelectedUnits   102107f4     dmcr:dmcr.exe
 0004:000007f8       __imp__SetInterfaceCallback 102107f8     dmcr:dmcr.exe
 0004:000007fc       __imp__GetNZones           102107fc     dmcr:dmcr.exe
 0004:00000800       __imp_?AssignHint1@@YAXPADH@Z 10210800     dmcr:dmcr.exe
 0004:00000804       __imp_?Close@GFILE@@QAEXXZ 10210804     dmcr:dmcr.exe
 0004:00000808       __imp__GetGrpCenter        10210808     dmcr:dmcr.exe
 0004:0000080c       __imp_?ActivateCMLInterface@@YAXHPAD@Z 1021080c     dmcr:dmcr.exe
 0004:00000810       __imp__ClearGroup          10210810     dmcr:dmcr.exe
 0004:00000814       __imp__InsertUnitToGroup   10210814     dmcr:dmcr.exe
 0004:00000818       __imp__CreateFormation     10210818     dmcr:dmcr.exe
 0004:0000081c       __imp_?ShowFogOfWar@@YAXXZ 1021081c     dmcr:dmcr.exe
 0004:00000820       __imp_?GetMyPlayerID@@YAEXZ 10210820     dmcr:dmcr.exe
 0004:00000824       __imp_?SetNormalMode@@YAXXZ 10210824     dmcr:dmcr.exe
 0004:00000828       __imp_?SetInfoStyle@@YAXEH@Z 10210828     dmcr:dmcr.exe
 0004:0000082c       __imp_?SetDipDlgDX@@YAXH@Z 1021082c     dmcr:dmcr.exe
 0004:00000830       __imp_?CloseDipDialog@@YAXXZ 10210830     dmcr:dmcr.exe
 0004:00000834       __imp__AddResource         10210834     dmcr:dmcr.exe
 0004:00000838       __imp_?GetUpgCost@@YAXEGAAPAG@Z 10210838     dmcr:dmcr.exe
 0004:0000083c       __imp_?GetPlayerColor@@YAEG@Z 1021083c     dmcr:dmcr.exe
 0004:00000840       __imp_?GetMyPlayerColor@@YAEXZ 10210840     dmcr:dmcr.exe
 0004:00000844       __imp_?GetNewUpg@@YAPAVNewUpgrade@@EG@Z 10210844     dmcr:dmcr.exe
 0004:00000848       __imp_?GetNUpgrades@@YAHE@Z 10210848     dmcr:dmcr.exe
 0004:0000084c       __imp_?GetPressentMonsters@@YAXEPAH@Z 1021084c     dmcr:dmcr.exe
 0004:00000850       __imp_?GetNMon@@YAHE@Z     10210850     dmcr:dmcr.exe
 0004:00000854       __imp_?GetPlayerName@@YAPADE@Z 10210854     dmcr:dmcr.exe
 0004:00000858       __imp_?SetObservMode@@YAXXZ 10210858     dmcr:dmcr.exe
 0004:0000085c       __imp__InitialUpgradeNew   1021085c     dmcr:dmcr.exe
 0004:00000860       __imp__ShowVictory         10210860     dmcr:dmcr.exe
 0004:00000864       __imp__LooseGame           10210864     dmcr:dmcr.exe
 0004:00000868       __imp_?GetUnitGPName@@YAPADGAAH0@Z 10210868     dmcr:dmcr.exe
 0004:0000086c       __imp__GetUnitIcon         1021086c     dmcr:dmcr.exe
 0004:00000870       __imp_?GetUnitMessage@@YAPADG@Z 10210870     dmcr:dmcr.exe
 0004:00000874       __imp_?GetProtectIcon@@YAGG@Z 10210874     dmcr:dmcr.exe
 0004:00000878       __imp_?GetWeaponIcon@@YAGG@Z 10210878     dmcr:dmcr.exe
 0004:0000087c       __imp_?DetCannon@@YA_NG@Z  1021087c     dmcr:dmcr.exe
 0004:00000880       __imp_?GetUpgLevel@@YAHG@Z 10210880     dmcr:dmcr.exe
 0004:00000884       __imp_?GetUpgradeIcon@@YAHG@Z 10210884     dmcr:dmcr.exe
 0004:00000888       __imp_?GetUpgHint@@YA_NEGPAD@Z 10210888     dmcr:dmcr.exe
 0004:0000088c       __imp_?GetListOfUpgradesForMon_Old@@YAXEGPAGHAAH@Z 1021088c     dmcr:dmcr.exe
 0004:00000890       __imp_?DetSheep@@YA_NG@Z   10210890     dmcr:dmcr.exe
 0004:00000894       __imp_?GetAttackNFrame@@YAHGG@Z 10210894     dmcr:dmcr.exe
 0004:00000898       __imp_?GetMainChar@@YAHEGPAUSMainChar@@@Z 10210898     dmcr:dmcr.exe
 0004:0000089c       __imp_?getDir@@YAGHH@Z     1021089c     dmcr:dmcr.exe
 0004:000008a0       __imp__OBJ_GoToMine        102108a0     dmcr:dmcr.exe
 0004:000008a4       __imp__AddOneUnitToGroup   102108a4     dmcr:dmcr.exe
 0004:000008a8       __imp_?DetPeasant@@YA_NG@Z 102108a8     dmcr:dmcr.exe
 0004:000008ac       __imp_?GetUnitsGroup@@YAPAVUnitsGroup@@PAUGAMEOBJ@@@Z 102108ac     dmcr:dmcr.exe
 0004:000008b0       __imp__SetBuildingsCollector 102108b0     dmcr:dmcr.exe
 0004:000008b4       __imp__SetUnitsCollector   102108b4     dmcr:dmcr.exe
 0004:000008b8       __imp__SetPlayerName       102108b8     dmcr:dmcr.exe
 0004:000008bc       __imp_?CreateDangerMapBattle@@YAXEPAHH0H@Z 102108bc     dmcr:dmcr.exe
 0004:000008c0       __imp__CreateTopListEnArmyBtl 102108c0     dmcr:dmcr.exe
 0004:000008c4       __imp_?AddEnemyCenterTopList@@YA_NPAGE@Z 102108c4     dmcr:dmcr.exe
 0004:000008c8       __imp_?AddEnemyCaptBuildTopList@@YA_NPAGE@Z 102108c8     dmcr:dmcr.exe
 0004:000008cc       __imp_?GetEnemyTopInfo@@YAXEPAH00@Z 102108cc     dmcr:dmcr.exe
 0004:000008d0       __imp__GetNextZone         102108d0     dmcr:dmcr.exe
 0004:000008d4       __imp_?CreateAGroup@@YAXEPAD@Z 102108d4     dmcr:dmcr.exe
 0004:000008d8       __imp_?ClearAZones@@YAXXZ  102108d8     dmcr:dmcr.exe
 0004:000008dc       __imp_?CreateAZone@@YAXPADHHH@Z 102108dc     dmcr:dmcr.exe
 0004:000008e0       __imp__ClearSelection      102108e0     dmcr:dmcr.exe
 0004:000008e4       __imp_?DetShoot@@YA_NG@Z   102108e4     dmcr:dmcr.exe
 0004:000008e8       __imp_?DetAbsorbeAbility@@YA_NGG@Z 102108e8     dmcr:dmcr.exe
 0004:000008ec       __imp_?DetectAbsorber@@YA_NG@Z 102108ec     dmcr:dmcr.exe
 0004:000008f0       __imp_?EraseBrig@@YAXEG@Z  102108f0     dmcr:dmcr.exe
 0004:000008f4       __imp__OBJ_AttackObj       102108f4     dmcr:dmcr.exe
 0004:000008f8       __imp_?GetGroupPower@@YAJPAUGAMEOBJ@@@Z 102108f8     dmcr:dmcr.exe
 0004:000008fc       __imp_?SetMapOfShooters@@YAXEPAH0@Z 102108fc     dmcr:dmcr.exe
 0004:00000900       __imp_?CreateArmyInfo@@YAHEPAH0H@Z 10210900     dmcr:dmcr.exe
 0004:00000904       __imp__RegisterUpgrade     10210904     dmcr:dmcr.exe
 0004:00000908       __imp_?GetBattleArmyValue@@YAPAEXZ 10210908     dmcr:dmcr.exe
 0004:0000090c       __imp_?GetCurMissionMapName@@YAPADXZ 1021090c     dmcr:dmcr.exe
 0004:00000910       __imp_?Ggetch@@YAHPAVGFILE@@@Z 10210910     dmcr:dmcr.exe
 0004:00000914       __imp__GetZoneCoor         10210914     dmcr:dmcr.exe
 0004:00000918       __imp__GetZoneR            10210918     dmcr:dmcr.exe
 0004:0000091c       __imp__OBJ_SendTo          1021091c     dmcr:dmcr.exe
 0004:00000920       __imp__GetTCos             10210920     dmcr:dmcr.exe
 0004:00000924       __imp_?DrawCMLInterface@@YAXH@Z 10210924     dmcr:dmcr.exe
 0004:00000928       __imp__GetUnitGlobalInfo   10210928     dmcr:dmcr.exe
 0004:0000092c       __imp__GetTSin             1021092c     dmcr:dmcr.exe
 0004:00000930       __imp_?AssignHint@@YAXPADH@Z 10210930     dmcr:dmcr.exe
 0004:00000934       __imp__SetAI_Guard         10210934     dmcr:dmcr.exe
 0004:00000938       __imp__GetRND              10210938     dmcr:dmcr.exe
 0004:0000093c       __imp__AttackEnemyInZone2  1021093c     dmcr:dmcr.exe
 0004:00000940       __imp__CopyUnits           10210940     dmcr:dmcr.exe
 0004:00000944       __imp__SetUnitInfo         10210944     dmcr:dmcr.exe
 0004:00000948       __imp__GetInsideList       10210948     dmcr:dmcr.exe
 0004:0000094c       __imp__DieUnit             1021094c     dmcr:dmcr.exe
 0004:00000950       __imp__AddUnitsInZoneToGroup 10210950     dmcr:dmcr.exe
 0004:00000954       __imp__SetStartPoint       10210954     dmcr:dmcr.exe
 0004:00000958       __imp__GetMoneyString      10210958     dmcr:dmcr.exe
 0004:0000095c       __imp__EraseGroup          1021095c     dmcr:dmcr.exe
 0004:00000960       __imp__ProduceUnitFast     10210960     dmcr:dmcr.exe
 0004:00000964       __imp__GetTotalAmount0     10210964     dmcr:dmcr.exe
 0004:00000968       __imp__SetGroupStartNMASK  10210968     dmcr:dmcr.exe
 0004:0000096c       __imp__SelectUnits         1021096c     dmcr:dmcr.exe
 0004:00000970       __imp__SelChangeNation     10210970     dmcr:dmcr.exe
 0004:00000974       __imp__GetMyNation         10210974     dmcr:dmcr.exe
 0004:00000978       __imp_?ActivateDipDialog@@YAXPAD@Z 10210978     dmcr:dmcr.exe
 0004:0000097c       __imp__GetResource         1021097c     dmcr:dmcr.exe
 0004:00000980       __imp__SetResource         10210980     dmcr:dmcr.exe
 0004:00000984       __imp__GetGlobalTime       10210984     dmcr:dmcr.exe
 0004:00000988       __imp__CleanGroup          10210988     dmcr:dmcr.exe
 0004:0000098c       __imp__GetNatNMASK         1021098c     dmcr:dmcr.exe
 0004:00000990       __imp__SetGroupNMASK       10210990     dmcr:dmcr.exe
 0004:00000994       __imp__ChangeUnitColor     10210994     dmcr:dmcr.exe
 0004:00000998       __imp__InviteUnitIntoBuilding 10210998     dmcr:dmcr.exe
 0004:0000099c       __imp_?SendDipCommand@@YAXPADH@Z 1021099c     dmcr:dmcr.exe
 0004:000009a0       __imp__SGP_RepairBuilding  102109a0     dmcr:dmcr.exe
 0004:000009a4       __imp__SGP_ComeIntoBuilding 102109a4     dmcr:dmcr.exe
 0004:000009a8       __imp_?Gopen@@YAPAVGFILE@@PAD0@Z 102109a8     dmcr:dmcr.exe
 0004:000009ac       __imp_?_ExRealloc@@YAPAXPAXH@Z 102109ac     dmcr:dmcr.exe
 0004:000009b0       __imp__UnitsCenter         102109b0     dmcr:dmcr.exe
 0004:000009b4       __imp__MissErrorMessage    102109b4     dmcr:dmcr.exe
 0004:000009b8       __imp_?GetTextByID@@YAPADPAD@Z 102109b8     dmcr:dmcr.exe
 0004:000009bc       __imp__RegisterUnitType    102109bc     dmcr:dmcr.exe
 0004:000009c0       __imp_?Gclose@@YAXPAVGFILE@@@Z 102109c0     dmcr:dmcr.exe
 0004:000009c4       __imp__RegisterUnits       102109c4     dmcr:dmcr.exe
 0004:000009c8       __imp__GetNUnits           102109c8     dmcr:dmcr.exe
 0004:000009cc       __imp__GetUnitInfo         102109cc     dmcr:dmcr.exe
 0004:000009d0       __imp__RegisterZone        102109d0     dmcr:dmcr.exe
 0004:000009d4       __imp__RegisterDynGroupEx  102109d4     dmcr:dmcr.exe
 0004:000009d8       __imp_?_ExFree@@YAXPAX@Z   102109d8     dmcr:dmcr.exe
 0004:000009dc       __imp_?GetMaxObject@@YAHXZ 102109dc     dmcr:dmcr.exe
 0004:000009e0       __imp_?_ExMalloc@@YAPAXH@Z 102109e0     dmcr:dmcr.exe
 0004:000009e4       \177dmcr_NULL_THUNK_DATA   102109e4     dmcr:dmcr.exe
 0004:00000aa8       __imp__SXP_SetVar          10210aa8     intExplorer:intExplorer.dll
 0004:00000aac       __imp__SXP_GetVar          10210aac     intExplorer:intExplorer.dll
 0004:00000ab0       \177intExplorer_NULL_THUNK_DATA 10210ab0     intExplorer:intExplorer.dll

 entry point at        0001:0004b390


Line numbers for \OLD_PROJECTS_BACKUP\AmericanConquestAddon\_debug\Script.obj(d:\old_projects_backup\americanconquestaddon\dipserver\script.h) segment .text

     3 0001:000493e0     4 0001:00049430    16 0001:00049480    17 0001:000494e0

Line numbers for \OLD_PROJECTS_BACKUP\AmericanConquestAddon\_debug\Script.obj(D:\OLD_PROJECTS_BACKUP\AmericanConquestAddon\DipServer\Script.cpp) segment .text

     7 0001:00048b30    11 0001:00048c30    12 0001:00048c4e    13 0001:00048c7c
    14 0001:00048c8e    16 0001:00048c98    17 0001:00048ca8    18 0001:00048cb7
    19 0001:00048cbf    20 0001:00048cc7    21 0001:00048ccf    22 0001:00048ced
    24 0001:00048cf7    25 0001:00048cfe    29 0001:00048d08    31 0001:00048d1d
    32 0001:00048d42    33 0001:00048d5c    34 0001:00048d74    35 0001:00048da0
    36 0001:00048daa    38 0001:00048daf    39 0001:00048ddf    40 0001:00048de6
    41 0001:00048df0    42 0001:00048df5    43 0001:00048e16    44 0001:00048e1d
    45 0001:00048e27    46 0001:00048e4d    47 0001:00048e52    50 0001:00048e5b
    52 0001:00048e82    53 0001:00048eab    56 0001:00048ec5    57 0001:00048eca
    58 0001:00048ede    59 0001:00048ef6    60 0001:00048f00    61 0001:00048f05
    62 0001:00048f1d    63 0001:00048f24    64 0001:00048f50    65 0001:00048f79
    66 0001:00048f83    67 0001:00048f85    69 0001:00048f8f    70 0001:00048f94
    71 0001:00048fac    72 0001:00048fb6    73 0001:00048fbb    74 0001:00048fc8
    75 0001:00048fe4    77 0001:00048fed    78 0001:00048ff4    80 0001:0004901e
    81 0001:00049047    82 0001:00049051    85 0001:00049064    86 0001:00049069
    88 0001:0004907f    89 0001:00049086    91 0001:000490b0    92 0001:000490d9
    93 0001:000490e2    94 0001:000490f9    95 0001:00049104   101 0001:0004911d
   102 0001:00049122   104 0001:00049138   105 0001:0004913a   106 0001:00049156
   108 0001:00049179   109 0001:0004917b   110 0001:00049198   112 0001:000491bb
   114 0001:00049340   115 0001:0004935d   116 0001:00049387   117 0001:0004939b
   118 0001:000493aa   119 0001:000493ac

Line numbers for \OLD_PROJECTS_BACKUP\AmericanConquestAddon\_debug\Mind.obj(c:\program files (x86)\microsoft visual studio\vc98\include\iterator) segment .text

   251 0001:00048330   223 0001:00048360   251 0001:00048480   223 0001:000484b0

Line numbers for \OLD_PROJECTS_BACKUP\AmericanConquestAddon\_debug\Mind.obj(c:\program files (x86)\microsoft visual studio\vc98\include\xutility) segment .text

    18 0001:00047f10    19 0001:00047f44    20 0001:00047f50    18 0001:00047fa0
    19 0001:00047fd4    20 0001:00047fe0    38 0001:00048030    39 0001:0004805b
    24 0001:00048080    25 0001:000480a0    26 0001:000480be    38 0001:000480e0
    39 0001:0004810b    24 0001:00048130    25 0001:00048150    26 0001:0004816e

Line numbers for \OLD_PROJECTS_BACKUP\AmericanConquestAddon\_debug\Mind.obj(c:\program files (x86)\microsoft visual studio\vc98\include\algorithm) segment .text

  1260 0001:00047d70  1261 0001:00047d88  1298 0001:00047de0  1260 0001:00047e40
  1261 0001:00047e58  1298 0001:00047eb0  1264 0001:00048390  1265 0001:000483a8
  1301 0001:00048400  1302 0001:00048418  1264 0001:000484e0  1265 0001:000484f8
  1301 0001:00048550  1302 0001:00048568  1268 0001:000485d0  1269 0001:000485f6
  1270 0001:0004862d  1271 0001:00048647  1305 0001:000486e0  1306 0001:00048702
  1268 0001:00048750  1269 0001:00048776  1270 0001:000487ad  1271 0001:000487c7
  1305 0001:00048860  1306 0001:00048882  1309 0001:000488d0  1310 0001:000488ee
  1311 0001:000488f8  1312 0001:0004890c  1313 0001:00048932  1314 0001:0004893b
  1315 0001:00048955  1316 0001:0004895d  1317 0001:00048979  1309 0001:000489e0
  1310 0001:000489fe  1311 0001:00048a08  1312 0001:00048a1c  1313 0001:00048a42
  1314 0001:00048a4b  1315 0001:00048a65  1316 0001:00048a6d  1317 0001:00048a89

Line numbers for \OLD_PROJECTS_BACKUP\AmericanConquestAddon\_debug\Mind.obj(c:\program files (x86)\microsoft visual studio\vc98\include\xmemory) segment .text

    64 0001:00046d90    64 0001:000470a0    68 0001:00047270    68 0001:00047440
    59 0001:00047b30    59 0001:00047c80    66 0001:00047cd0    66 0001:00047d20
    38 0001:00047f70    38 0001:00048000    27 0001:00048190    28 0001:000481ae
    30 0001:000481b5    27 0001:000481f0    28 0001:0004820e    30 0001:00048215
    34 0001:00048250    34 0001:000482c0

Line numbers for \OLD_PROJECTS_BACKUP\AmericanConquestAddon\_debug\Mind.obj(c:\program files (x86)\microsoft visual studio\vc98\include\vector) segment .text

    58 0001:00046780    59 0001:000467b3    60 0001:000467d2    58 0001:00046a20
    59 0001:00046a53    60 0001:00046a72    39 0001:00046ad0    93 0001:00046b40
    97 0001:00046b80   118 0001:00046bc0   134 0001:00046c10   142 0001:00046c60
   144 0001:00046cc0   230 0001:00046d20   231 0001:00046d50    39 0001:00046de0
    93 0001:00046e50    97 0001:00046e90   118 0001:00046ed0   134 0001:00046f20
   142 0001:00046f70   144 0001:00046fd0   230 0001:00047030   231 0001:00047060
   114 0001:000470f0   152 0001:00047150   153 0001:00047180   154 0001:00047192
   202 0001:000471d0   203 0001:00047209   204 0001:00047222   205 0001:00047231
   114 0001:000472c0   152 0001:00047320   153 0001:00047350   154 0001:00047362
   202 0001:000473a0   203 0001:000473d9   204 0001:000473f2   205 0001:00047401
   156 0001:00047490   157 0001:000474c5   158 0001:000474f3   159 0001:00047504
   160 0001:0004751e   161 0001:00047532   162 0001:0004754f   163 0001:00047565
   164 0001:00047584   165 0001:00047593   166 0001:000475ad   167 0001:000475b6
   168 0001:000475cc   169 0001:000475e9   170 0001:0004760e   171 0001:00047625
   172 0001:00047637   173 0001:0004763f   174 0001:00047664   175 0001:00047686
   176 0001:000476a0   156 0001:00047760   157 0001:00047795   158 0001:000477c3
   159 0001:000477d4   160 0001:000477ee   161 0001:00047802   162 0001:0004781f
   163 0001:00047835   164 0001:00047854   165 0001:00047863   166 0001:0004787d
   167 0001:00047886   168 0001:0004789c   169 0001:000478b9   170 0001:000478de
   171 0001:000478f5   172 0001:00047907   173 0001:0004790f   174 0001:00047934
   175 0001:00047956   176 0001:00047970   234 0001:00047a30   235 0001:00047a69
   236 0001:00047a7b   238 0001:00047ab0   239 0001:00047ae7   234 0001:00047b80
   235 0001:00047bb9   236 0001:00047bcb   238 0001:00047c00   239 0001:00047c37

Line numbers for \OLD_PROJECTS_BACKUP\AmericanConquestAddon\_debug\Mind.obj(c:\program files (x86)\microsoft visual studio\vc98\include\queue) segment .text

    68 0001:00046590    80 0001:000465f0    84 0001:00046640    88 0001:00046690
    89 0001:000466b9    91 0001:00046710    92 0001:0004674e    68 0001:00046830
    80 0001:00046890    84 0001:000468e0    88 0001:00046930    89 0001:00046959
    91 0001:000469b0    92 0001:000469ee

Line numbers for \OLD_PROJECTS_BACKUP\AmericanConquestAddon\_debug\Mind.obj(d:\old_projects_backup\americanconquestaddon\dipserver\mind.h) segment .text

   236 0001:00045140   166 0001:00048690    90 0001:00048810    91 0001:0004882d
    92 0001:0004883e

Line numbers for \OLD_PROJECTS_BACKUP\AmericanConquestAddon\_debug\Mind.obj(d:\old_projects_backup\americanconquestaddon\dipserver\mind.cpp) segment .text

     8 0001:0003db40    12 0001:0003dc40    13 0001:0003dc58    15 0001:0003dc70
    16 0001:0003dc88    18 0001:0003dca0    19 0001:0003dcb8    20 0001:0003dcd0
    21 0001:0003dce2    22 0001:0003dcea    23 0001:0003dcec    26 0001:0003dd20
    27 0001:0003dd38    28 0001:0003dd3d    31 0001:0003dd60    33 0001:0003dd7d
    35 0001:0003dd83    37 0001:0003ddb4    40 0001:0003ddc9    42 0001:0003dde2
    46 0001:0003ddee    47 0001:0003ddf6    48 0001:0003de10    49 0001:0003de4c
    51 0001:0003de4e    54 0001:0003de52    55 0001:0003de5a    56 0001:0003de62
    57 0001:0003de64    59 0001:0003dec0    62 0001:0003dee7    63 0001:0003deed
    64 0001:0003df03    68 0001:0003df0c    69 0001:0003df40    70 0001:0003df66
    72 0001:0003df72    73 0001:0003df94    74 0001:0003dfa0    75 0001:0003dfac
    77 0001:0003dfd2    79 0001:0003dffa    80 0001:0003e003    81 0001:0003e037
    83 0001:0003e053    85 0001:0003e069    88 0001:0003e0a2   114 0001:0003e0ac
   115 0001:0003e0ba   117 0001:0003e0c4   119 0001:0003e0da   121 0001:0003e0ee
   122 0001:0003e0fb   123 0001:0003e10a   126 0001:0003e120   127 0001:0003e12a
   128 0001:0003e150   129 0001:0003e17d   131 0001:0003e19b   132 0001:0003e1b2
   133 0001:0003e1c6   134 0001:0003e1fa   135 0001:0003e20c   136 0001:0003e21e
   138 0001:0003e23a   139 0001:0003e24a   140 0001:0003e258   141 0001:0003e26d
   142 0001:0003e27c   143 0001:0003e28f   146 0001:0003e298   147 0001:0003e2b3
   153 0001:0003e2ce   154 0001:0003e2d3   156 0001:0003e2d8   160 0001:0003e315
   161 0001:0003e340   163 0001:0003e37b   167 0001:0003e39c   170 0001:0003e3a8
   175 0001:0003e500   176 0001:0003e51d   177 0001:0003e525   179 0001:0003e550
   180 0001:0003e56d   181 0001:0003e575   183 0001:0003e5a0   184 0001:0003e5bd
   185 0001:0003e5d0   186 0001:0003e5d6   187 0001:0003e5e2   189 0001:0003e610
   190 0001:0003e62d   192 0001:0003e64f   193 0001:0003e657   196 0001:0003e680
   197 0001:0003e698   198 0001:0003e6c7   201 0001:0003e6f0   202 0001:0003e708
   203 0001:0003e731   205 0001:0003e7d0   206 0001:0003e7ed   207 0001:0003e819
   209 0001:0003e82d   210 0001:0003e83d   211 0001:0003e866   212 0001:0003e871
   213 0001:0003e87c   214 0001:0003e887   215 0001:0003e892   216 0001:0003e89c
   218 0001:0003e8a6   219 0001:0003e8bc   225 0001:0003e8d2   226 0001:0003e8e8
   232 0001:0003e950   234 0001:0003e973   236 0001:0003e985   238 0001:0003e9bb
   239 0001:0003e9e9   241 0001:0003e9ee   242 0001:0003ea1c   244 0001:0003ea21
   245 0001:0003ea4f   247 0001:0003ea51   248 0001:0003ea7f   250 0001:0003ea81
   255 0001:0003eaaf   257 0001:0003eab7   259 0001:0003eac0   260 0001:0003eae9
   262 0001:0003eb12   265 0001:0003eb2f   266 0001:0003eb55   268 0001:0003eb6f
   270 0001:0003eb8b   272 0001:0003ebb6   273 0001:0003ebc0   274 0001:0003ebc9
   275 0001:0003ebd1   279 0001:0003ebda   283 0001:0003ebe4   284 0001:0003ec00
   285 0001:0003ec1c   286 0001:0003ec29   288 0001:0003ec37   289 0001:0003ec52
   290 0001:0003ec7f   291 0001:0003ecaa   292 0001:0003eccb   293 0001:0003ed28
   294 0001:0003ed40   296 0001:0003ed4f   297 0001:0003ed51   301 0001:0003ed56
   302 0001:0003ed80   303 0001:0003eda8   305 0001:0003edec   306 0001:0003ee21
   307 0001:0003ee3f   308 0001:0003ee5d   309 0001:0003ee72   310 0001:0003ee77
   312 0001:0003ee92   313 0001:0003ee9b   314 0001:0003eed0   315 0001:0003eef9
   316 0001:0003ef07   318 0001:0003ef09   319 0001:0003ef0b   320 0001:0003ef1f
   321 0001:0003ef47   323 0001:0003ef6c   324 0001:0003efbb   327 0001:0003efc0
   328 0001:0003efc9   329 0001:0003efd3   330 0001:0003f000   331 0001:0003f029
   332 0001:0003f04f   333 0001:0003f08f   334 0001:0003f09d   335 0001:0003f0a9
   338 0001:0003f0ba   339 0001:0003f0bf   340 0001:0003f0de   341 0001:0003f0fc
   342 0001:0003f11a   343 0001:0003f12f   344 0001:0003f134   345 0001:0003f140
   357 0001:0003f166   358 0001:0003f189   359 0001:0003f18b   360 0001:0003f1b7
   362 0001:0003f1bc   363 0001:0003f1c5   365 0001:0003f1d6   366 0001:0003f1df
   367 0001:0003f21c   368 0001:0003f293   369 0001:0003f2a1   371 0001:0003f2a3
   372 0001:0003f2a8   373 0001:0003f2bc   375 0001:0003f2db   379 0001:0003f32a
   382 0001:0003f32f   384 0001:0003f36c   387 0001:0003f376   388 0001:0003f38f
   389 0001:0003f3a2   390 0001:0003f3b1   392 0001:0003f3ec   393 0001:0003f3fa
   394 0001:0003f404   396 0001:0003f426   398 0001:0003f428   400 0001:0003f720
   401 0001:0003f73d   402 0001:0003f751   404 0001:0003f76e   405 0001:0003f776
   407 0001:0003f77b   408 0001:0003f783   410 0001:0003f788   411 0001:0003f790
   413 0001:0003f795   414 0001:0003f79d   417 0001:0003f7a2   418 0001:0003f7b4
   419 0001:0003f7c1   422 0001:0003f7e2   423 0001:0003f7e9   424 0001:0003f7f5
   427 0001:0003f805   430 0001:0003f80a   431 0001:0003f81c   432 0001:0003f829
   435 0001:0003f84a   436 0001:0003f851   437 0001:0003f85d   440 0001:0003f86d
   443 0001:0003f86f   444 0001:0003f881   445 0001:0003f88e   448 0001:0003f8af
   449 0001:0003f8b6   450 0001:0003f8c2   457 0001:0003f8d2   459 0001:0003f980
   460 0001:0003f9a7   466 0001:0003f9bb   467 0001:0003f9e8   468 0001:0003fa01
   476 0001:0003fa06   477 0001:0003fa27   478 0001:0003fa3e   479 0001:0003fa4d
   480 0001:0003fa6c   482 0001:0003fa91   485 0001:0003fab6   486 0001:0003faea
   487 0001:0003fb10   489 0001:0003fb1c   490 0001:0003fb3e   491 0001:0003fb4a
   492 0001:0003fb56   494 0001:0003fb7c   496 0001:0003fba4   500 0001:0003fbb3
   504 0001:0003fbed   508 0001:0003fc06   511 0001:0003fc1c   512 0001:0003fc23
   513 0001:0003fc4b   514 0001:0003fc6a   518 0001:0003fc71   523 0001:0003fc9a
   526 0001:0003fcd2   527 0001:0003fcfa   529 0001:0003fd22   530 0001:0003fd37
   532 0001:0003fd8a   533 0001:0003fdf2   534 0001:0003fdf7   538 0001:0003fdfc
   548 0001:0003fe03   550 0001:0003fe16   551 0001:0003fe42   554 0001:0003fe64
   557 0001:0003fe8b   558 0001:0003fe95   559 0001:0003feb2   560 0001:0003fefc
   563 0001:0003ff33   564 0001:0003ff61   573 0001:0003ff9b   576 0001:0003ffa0
   577 0001:0003ffb5   579 0001:0003ffdc   581 0001:0003ffe5   584 0001:0003fff8
   585 0001:00040025   586 0001:0004003c   587 0001:0004004b   588 0001:0004006a
   590 0001:00040077   591 0001:00040088   593 0001:00040099   595 0001:000400a9
   596 0001:000400b3   598 0001:000400bd   600 0001:000400c2   601 0001:000400cb
   602 0001:000400d4   605 0001:000400dd   606 0001:0004010d   607 0001:00040143
   608 0001:0004015f   609 0001:00040174   610 0001:00040182   612 0001:00040190
   614 0001:00040195   616 0001:000401a9   617 0001:000401c1   618 0001:000401cf
   621 0001:000401e1   623 0001:000401f7   625 0001:00040212   626 0001:0004023f
   627 0001:00040270   629 0001:000402a4   636 0001:000402d0   639 0001:000402d5
   640 0001:00040305   641 0001:0004030e   642 0001:00040317   644 0001:00040320
   647 0001:00040335   649 0001:00040364   650 0001:00040393   651 0001:000403b7
   653 0001:000403c5   655 0001:000403ca   656 0001:000403e2   657 0001:00040415
   658 0001:00040442   659 0001:00040474   660 0001:0004047e   661 0001:00040488
   662 0001:0004048a   663 0001:00040494   665 0001:0004049e   667 0001:000404a3
   669 0001:000404a8   671 0001:00040790   672 0001:000407b7   678 0001:000407cb
   681 0001:000407f8   682 0001:00040811   684 0001:0004082a   686 0001:0004083f
   687 0001:00040854   689 0001:00040876   692 0001:00040885   693 0001:0004089e
   696 0001:000408bf   697 0001:000408d8   699 0001:000408f7   700 0001:00040900
   701 0001:00040915   702 0001:0004093e   703 0001:00040955   704 0001:00040963
   706 0001:00040965   709 0001:00040967   712 0001:0004097d   713 0001:00040986
   714 0001:00040990   716 0001:000409e5   717 0001:000409ef   718 0001:00040a15
   719 0001:00040a1f   720 0001:00040a3e   721 0001:00040a47   722 0001:00040a79
   723 0001:00040a8d   727 0001:00040a9e   731 0001:00040ab6   735 0001:00040af0
   740 0001:00040b06   743 0001:00040b3e   744 0001:00040b6b   745 0001:00040b82
   746 0001:00040b91   747 0001:00040bb0   752 0001:00040bbd   753 0001:00040bf1
   754 0001:00040c17   756 0001:00040c23   757 0001:00040c45   758 0001:00040c51
   759 0001:00040c5d   761 0001:00040c83   763 0001:00040cab   765 0001:00040cba
   767 0001:00040cd5   768 0001:00040cf0   772 0001:00040d0f   775 0001:00040d28
   776 0001:00040d2f   777 0001:00040d57   778 0001:00040d76   782 0001:00040d7d
   784 0001:00040da6   785 0001:00040dce   786 0001:00040df6   788 0001:00040e10
   789 0001:00040e25   791 0001:00040e78   792 0001:00040ed6   806 0001:00040eee
   807 0001:00040ef3   809 0001:00040ef8   820 0001:00040eff   821 0001:00040f11
   822 0001:00040f26   825 0001:00040f45   829 0001:00040f68   835 0001:00040f76
   836 0001:00040f7f   837 0001:00040f89   841 0001:00040f9b   843 0001:00040fd5
   844 0001:00041009   846 0001:00041040   847 0001:00041055   849 0001:00041082
   850 0001:000410ce   851 0001:00041114   852 0001:0004111d   855 0001:0004112d
   859 0001:00041132   862 0001:0004113c   863 0001:00041169   864 0001:00041198
   865 0001:000411c4   867 0001:000411f0   868 0001:0004120c   869 0001:00041218
   870 0001:00041224   872 0001:00041232   873 0001:0004125f   876 0001:00041264
   877 0001:0004126e   878 0001:0004127a   881 0001:000412a0   884 0001:000412c5
   887 0001:000412f2   888 0001:000412fc   890 0001:0004130a   892 0001:00041328
   893 0001:0004133d   894 0001:0004136a   895 0001:0004137d   896 0001:0004138a
   897 0001:000413b1   899 0001:000413c9   900 0001:000413f5   901 0001:000413fe
   902 0001:00041420   903 0001:00041442   907 0001:00041454   908 0001:00041459
   909 0001:00041462   910 0001:00041475   911 0001:00041488   920 0001:000414bf
   921 0001:000414ed   923 0001:00041559   925 0001:0004157a   926 0001:0004157c
   927 0001:000415a2   929 0001:000415ab   930 0001:000415cc   931 0001:000415ce
   940 0001:000415ef   942 0001:000415f4   944 0001:000419b0   945 0001:000419ce
   948 0001:000419e0   950 0001:00041a09   951 0001:00041a12   953 0001:00041a1c
   955 0001:00041a4d   958 0001:00041a60   959 0001:00041a6b   961 0001:00041a75
   963 0001:00041a7c   964 0001:00041a89   965 0001:00041a98   967 0001:00041aae
   970 0001:00041ab7   971 0001:00041ac1   972 0001:00041ae7   973 0001:00041b14
   974 0001:00041b32   975 0001:00041b41   976 0001:00041b53   977 0001:00041b60
   978 0001:00041b75   979 0001:00041b84   980 0001:00041b86   983 0001:00041b9a
   985 0001:00041b9f   987 0001:00041bb2   989 0001:00041bc3   990 0001:00041bf3
   991 0001:00041c0b   992 0001:00041c23   994 0001:00041c38   995 0001:00041c3f
   996 0001:00041c44   998 0001:00041c5c   999 0001:00041c6c  1000 0001:00041cb0
  1001 0001:00041cee  1003 0001:00041cf0  1016 0001:00041d00  1018 0001:00041d05
  1019 0001:00041d15  1020 0001:00041d22  1025 0001:00041d3d  1027 0001:00041e40
  1028 0001:00041e5e  1031 0001:00041e69  1032 0001:00041e93  1034 0001:00041eb2
  1035 0001:00041f14  1036 0001:00041f19  1038 0001:00041f70  1040 0001:00041f88
  1041 0001:00041fb3  1048 0001:00041fe0  1049 0001:00042002  1051 0001:00042014
  1052 0001:00042056  1053 0001:0004205f  1056 0001:00042089  1058 0001:0004209f
  1060 0001:000420ae  1061 0001:000420bd  1062 0001:000420c6  1063 0001:000420ec
  1064 0001:00042101  1065 0001:0004210f  1066 0001:0004212b  1068 0001:00042156
  1071 0001:0004215b  1072 0001:00042188  1073 0001:000421a4  1074 0001:000421b7
  1075 0001:000421dc  1076 0001:00042201  1077 0001:0004223a  1078 0001:0004228f
  1079 0001:00042299  1081 0001:000422b8  1083 0001:000422c5  1084 0001:000422ee
  1085 0001:0004230f  1086 0001:0004232b  1087 0001:0004233f  1089 0001:00042341
  1093 0001:00042343  1094 0001:00042355  1096 0001:00042380  1099 0001:000423c5
  1100 0001:000423e6  1104 0001:0004240f  1106 0001:00042414  1108 0001:00042540
  1110 0001:00042563  1111 0001:0004256e  1113 0001:0004257a  1114 0001:00042594
  1116 0001:000425a5  1132 0001:000425ae  1133 0001:000425d3  1135 0001:00042605
  1136 0001:0004260a  1138 0001:00042660  1139 0001:00042687  1141 0001:0004269b
  1143 0001:000426ad  1146 0001:000426ba  1152 0001:000426c9  1154 0001:000426d3
  1155 0001:00042700  1156 0001:00042717  1157 0001:00042726  1158 0001:00042745
  1163 0001:00042752  1165 0001:00042786  1166 0001:000427ac  1168 0001:000427b8
  1169 0001:000427da  1170 0001:000427e6  1171 0001:000427f2  1173 0001:00042818
  1174 0001:0004283c  1175 0001:0004284f  1176 0001:00042862  1177 0001:00042875
  1179 0001:0004288a  1180 0001:00042899  1185 0001:000428a8  1188 0001:000428b7
  1190 0001:000428bc  1194 0001:000428d1  1198 0001:0004290b  1200 0001:00042921
  1203 0001:00042950  1204 0001:00042966  1208 0001:00042970  1212 0001:00042994
  1215 0001:000429aa  1216 0001:000429d3  1217 0001:000429e6  1218 0001:00042a02
  1219 0001:00042a04  1221 0001:00042a14  1225 0001:00042a16  1226 0001:00042a43
  1227 0001:00042a4c  1229 0001:00042a8d  1230 0001:00042aa1  1231 0001:00042ac0
  1232 0001:00042ae8  1235 0001:00042b06  1238 0001:00042b0b  1239 0001:00042b38
  1241 0001:00042b51  1242 0001:00042b66  1244 0001:00042b75  1245 0001:00042b8d
  1246 0001:00042bb6  1247 0001:00042bce  1248 0001:00042bdc  1250 0001:00042c04
  1253 0001:00042c06  1254 0001:00042c21  1256 0001:00042c40  1258 0001:00042c45
  1260 0001:00042c8f  1264 0001:00042ca5  1269 0001:00042e50  1270 0001:00042e77
  1274 0001:00042e8b  1276 0001:00042ea1  1277 0001:00042edc  1278 0001:00042ef3
  1279 0001:00042f11  1280 0001:00042f3d  1281 0001:00042f5a  1286 0001:00042f5c
  1287 0001:00042f61  1289 0001:00042f6b  1291 0001:00042f75  1292 0001:00042f8a
  1293 0001:00042fa9  1295 0001:00042fc1  1296 0001:00042fd6  1297 0001:00043003
  1298 0001:00043022  1299 0001:00043043  1300 0001:00043060  1301 0001:00043079
  1302 0001:000430a5  1303 0001:000430ca  1304 0001:00043111  1307 0001:00043113
  1308 0001:00043118  1309 0001:0004311d  1310 0001:00043142  1311 0001:0004315a
  1312 0001:00043169  1313 0001:0004316e  1314 0001:0004317e  1315 0001:00043199
  1316 0001:000431d1  1317 0001:000431df  1318 0001:000431fd  1319 0001:00043212
  1320 0001:0004322a  1323 0001:00043239  1324 0001:0004323b  1325 0001:0004324b
  1326 0001:00043263  1331 0001:00043272  1334 0001:00043277  1335 0001:0004328b
  1337 0001:0004329b  1338 0001:000432a5  1339 0001:000432d5  1340 0001:00043301
  1341 0001:00043349  1342 0001:0004335b  1344 0001:0004336d  1345 0001:0004337f
  1346 0001:00043391  1348 0001:000433a0  1349 0001:000433aa  1353 0001:000433b3
  1354 0001:000433e0  1355 0001:00043409  1356 0001:0004343d  1357 0001:0004344f
  1358 0001:0004345b  1359 0001:0004346c  1360 0001:000434aa  1361 0001:000434bf
  1362 0001:000434d4  1364 0001:000434e3  1365 0001:000434e8  1366 0001:000434f2
  1370 0001:000434fb  1371 0001:00043528  1372 0001:00043551  1373 0001:00043563
  1374 0001:00043575  1377 0001:0004359d  1379 0001:000435a4  1380 0001:000435b6
  1381 0001:000435e8  1382 0001:00043607  1385 0001:0004362e  1386 0001:0004364d
  1387 0001:00043659  1389 0001:0004366a  1391 0001:00043679  1393 0001:0004367e
  1394 0001:000436c0  1395 0001:000436cc  1396 0001:00043739  1397 0001:0004373b
  1399 0001:00043767  1400 0001:0004376c  1401 0001:00043784  1402 0001:00043790
  1403 0001:00043803  1404 0001:00043805  1408 0001:00043831  1410 0001:00043836
  1411 0001:0004383f  1412 0001:00043852  1413 0001:00043865  1414 0001:00043874
  1420 0001:00043883  1422 0001:00043893  1423 0001:000438c3  1424 0001:000438ef
  1425 0001:00043937  1426 0001:00043949  1430 0001:0004395b  1431 0001:00043965
  1433 0001:0004396e  1434 0001:0004399b  1435 0001:000439c4  1436 0001:000439f8
  1437 0001:00043a0a  1438 0001:00043a16  1439 0001:00043a27  1440 0001:00043a65
  1441 0001:00043a7a  1443 0001:00043a8f  1444 0001:00043a94  1445 0001:00043a9e
  1447 0001:00043aa7  1448 0001:00043ad4  1449 0001:00043afd  1450 0001:00043b15
  1451 0001:00043b2d  1454 0001:00043b49  1456 0001:00043b50  1457 0001:00043b64
  1458 0001:00043b8a  1459 0001:00043ba9  1462 0001:00043bd1  1463 0001:00043bf0
  1464 0001:00043bfc  1467 0001:00043c0d  1469 0001:00043c12  1473 0001:00043c4c
  1475 0001:00043c78  1476 0001:00043c7d  1477 0001:00043c91  1478 0001:00043c9d
  1479 0001:00043ccf  1480 0001:00043cd1  1484 0001:00043cfd  1488 0001:00043d02
  1491 0001:00043d1b  1492 0001:00043d33  1498 0001:00043d3b  1499 0001:00043d68
  1501 0001:00043d7f  1502 0001:00043d8e  1503 0001:00043da1  1504 0001:00043dc6
  1505 0001:00043df5  1506 0001:00043e2d  1507 0001:00043e4e  1510 0001:00043e53
  1511 0001:00043e79  1512 0001:00043eaf  1513 0001:00043eca  1517 0001:00043ecf
  1518 0001:00043ed8  1522 0001:00043ee2  1523 0001:00043f0f  1524 0001:00043f38
  1525 0001:00043f45  1526 0001:00043f85  1527 0001:00043f93  1528 0001:00043f9f
  1529 0001:00043fb0  1530 0001:00043fd3  1531 0001:00043fe8  1532 0001:00043ffd
  1535 0001:0004400e  1537 0001:00044013  1538 0001:00044073  1539 0001:0004408a
  1543 0001:0004408f  1544 0001:00044099  1546 0001:000440a2  1547 0001:000440cf
  1548 0001:000440f8  1549 0001:00044116  1550 0001:00044134  1552 0001:00044150
  1553 0001:0004415e  1554 0001:0004416a  1557 0001:0004417b  1559 0001:00044180
  1560 0001:00044198  1562 0001:000441bc  1563 0001:000441db  1564 0001:000441e4
  1565 0001:00044210  1566 0001:00044244  1568 0001:00044246  1570 0001:0004424b
  1572 0001:00044252  1573 0001:0004427c  1574 0001:000442a8  1575 0001:000442b4
  1576 0001:000442d5  1577 0001:000442d7  1578 0001:000442f8  1579 0001:000442fa
  1580 0001:0004430d  1581 0001:0004432e  1582 0001:00044335  1583 0001:00044337
  1586 0001:00044358  1587 0001:0004435a  1590 0001:0004437b  1591 0001:0004438b
  1592 0001:000443b9  1596 0001:000443f1  1597 0001:00044410  1598 0001:0004441d
  1599 0001:0004444d  1600 0001:0004447a  1601 0001:000444eb  1603 0001:0004451f
  1611 0001:00044524  1613 0001:00044529  1615 0001:00044b00  1616 0001:00044b1d
  1618 0001:00044b31  1620 0001:00044b43  1623 0001:00044b50  1625 0001:00044b58
  1627 0001:00044b6f  1629 0001:00044b77  1631 0001:00044b86  1634 0001:00044bab
  1636 0001:00044bb3  1638 0001:00044bbb  1640 0001:00044bc3  1642 0001:00044bd7
  1647 0001:00044bdf  1649 0001:00044c30  1652 0001:00044c68  1653 0001:00044c85
  1654 0001:00044c91  1655 0001:00044cab  1656 0001:00044cc1  1657 0001:00044ced
  1669 0001:00044cef  1670 0001:00044d04  1672 0001:00044d11  1673 0001:00044d1f
  1675 0001:00044d34  1678 0001:00044d43  1679 0001:00044d5d  1680 0001:00044d7a
  1681 0001:00044d8b  1682 0001:00044da3  1683 0001:00044dcf  1685 0001:00044ddb
  1688 0001:00044ddd  1691 0001:00044e0a  1692 0001:00044e11  1694 0001:00044e38
  1695 0001:00044e5e  1696 0001:00044e80  1698 0001:00044e9f  1699 0001:00044ead
  1700 0001:00044ece  1702 0001:00044ee3  1703 0001:00044ef3  1704 0001:00044f01
  1706 0001:00044f33  1708 0001:00044f5a  1709 0001:00044f62  1710 0001:00044f6b
  1712 0001:00044f70  1714 0001:00044f7c  1715 0001:00044f84  1716 0001:00044f89
  1719 0001:000451a0  1720 0001:000451c2  1722 0001:000451d4  1724 0001:000451e9
  1725 0001:00045205  1726 0001:00045212  1727 0001:00045222  1728 0001:00045227
  1729 0001:0004523c  1730 0001:00045248  1731 0001:0004524d  1733 0001:00045262
  1734 0001:0004527b  1735 0001:00045293  1736 0001:00045298  1738 0001:000452b1
  1739 0001:000452cd  1741 0001:000452e9  1742 0001:00045304  1743 0001:00045319
  1744 0001:00045361  1745 0001:0004537a  1746 0001:0004537c  1747 0001:00045394
  1748 0001:000453ad  1749 0001:000453af  1750 0001:000453c7  1752 0001:000453e0
  1753 0001:000453e2  1755 0001:000453f7  1756 0001:00045418  1759 0001:00045432
  1761 0001:000454f0  1762 0001:0004550d  1765 0001:0004551f  1768 0001:00045533
  1769 0001:0004553e  1770 0001:00045568  1771 0001:00045582  1772 0001:0004558e
  1773 0001:000455cc  1775 0001:000455ce  1779 0001:00045603  1780 0001:0004561c
  1781 0001:00045634  1782 0001:00045660  1785 0001:00045668  1786 0001:00045684
  1789 0001:000456a6  1790 0001:000456c1  1792 0001:000456e2  1793 0001:000456e7
  1795 0001:00045780  1796 0001:000457a3  1797 0001:000457c4  1798 0001:000457d5
  1800 0001:000457de  1801 0001:000457e8  1803 0001:000457f2  1804 0001:0004580b
  1809 0001:00045815  1811 0001:00045840  1812 0001:0004585d  1814 0001:00045866
  1815 0001:00045882  1816 0001:00045888  1817 0001:0004588e  1819 0001:000458ab
  1820 0001:000458c5  1821 0001:000458ce  1822 0001:000458d7  1826 0001:000458e0
  1828 0001:000458ff  1829 0001:00045904  1830 0001:00045980  1831 0001:0004599d
  1832 0001:000459a8  1833 0001:000459b3  1834 0001:000459bd  1835 0001:000459da
  1836 0001:00045a18  1837 0001:00045a1a  1838 0001:00045a20  1840 0001:00045a60
  1841 0001:00045a7d  1842 0001:00045a9a  1843 0001:00045aab  1845 0001:00045ab4
  1847 0001:00045acc  1848 0001:00045aeb  1852 0001:00045af5  1853 0001:00045af7
  1855 0001:00045b40  1858 0001:00045b67  1859 0001:00045b85  1862 0001:00045b96
  1864 0001:00045baf  1866 0001:00045bc8  1869 0001:00045be1  1870 0001:00045bff
  1871 0001:00045c32  1872 0001:00045c47  1873 0001:00045c64  1874 0001:00045c86
  1875 0001:00045ca4  1876 0001:00045cc2  1877 0001:00045cd4  1878 0001:00045cd9
  1879 0001:00045ce2  1880 0001:00045cf5  1884 0001:00045d08  1887 0001:00045d1d
  1888 0001:00045d36  1891 0001:00045d55  1894 0001:00045d6b  1896 0001:00045d74
  1898 0001:00045dc8  1900 0001:00045ddc  1901 0001:00045dfb  1902 0001:00045e04
  1909 0001:00045e30  1910 0001:00045e3a  1912 0001:00045e43  1913 0001:00045e91
  1915 0001:00045ea9  1917 0001:00045ed5  1918 0001:00045efd  1919 0001:00045f0b
  1920 0001:00045f17  1921 0001:00045f25  1922 0001:00045f31  1925 0001:00045f3d
  1926 0001:00045f4b  1927 0001:00045f63  1928 0001:00045f6d  1929 0001:00045fbc
  1930 0001:00045fd1  1932 0001:00045fee  1933 0001:0004601c  1934 0001:0004602a
  1935 0001:00046036  1939 0001:00046044  1940 0001:0004605b  1941 0001:00046076
  1942 0001:00046090  1945 0001:000460ab  1952 0001:000460c3  1953 0001:000460d2
  1954 0001:000460e6  1956 0001:00046112  1957 0001:00046145  1958 0001:0004615a
  1960 0001:00046176  1961 0001:0004619c  1963 0001:000461b1  1964 0001:000461cf
  1965 0001:000461ea  1967 0001:00046209  1968 0001:00046247  1969 0001:00046273
  1971 0001:00046278  1972 0001:0004627d  1977 0001:00046470  1978 0001:0004648d
  1979 0001:0004649b  1980 0001:000464ae  1981 0001:000464b6  1982 0001:000464c2
  1983 0001:000464da  1987 0001:00046510  1988 0001:0004652d  1992 0001:00046550
  1993 0001:0004656d

Line numbers for \OLD_PROJECTS_BACKUP\AmericanConquestAddon\_debug\BattleDialogs.obj(c:\program files (x86)\microsoft visual studio\vc98\include\xutility) segment .text

    18 0001:0003c840    19 0001:0003c874    20 0001:0003c882    18 0001:0003c8b0
    19 0001:0003c8e4    20 0001:0003c8f2    38 0001:0003ca30    39 0001:0003ca5b
    24 0001:0003ca90    25 0001:0003cab0    26 0001:0003cad0    38 0001:0003cb40
    39 0001:0003cb6b    24 0001:0003cb90    25 0001:0003cbb0    26 0001:0003cbd0
    38 0001:0003cdc0    39 0001:0003cdeb    24 0001:0003ce20    25 0001:0003ce40
    26 0001:0003ce60    18 0001:0003da30    19 0001:0003da64    20 0001:0003da72
    18 0001:0003daa0    19 0001:0003dad4    20 0001:0003dae2

Line numbers for \OLD_PROJECTS_BACKUP\AmericanConquestAddon\_debug\BattleDialogs.obj(c:\program files (x86)\microsoft visual studio\vc98\include\xmemory) segment .text

    64 0001:0003ae60    59 0001:0003b1b0    64 0001:0003b200    59 0001:0003b440
    64 0001:0003b490    59 0001:0003b6d0    64 0001:0003b720    68 0001:0003bae0
    66 0001:0003bdf0    68 0001:0003be40    42 0001:0003be90    66 0001:0003bec0
    68 0001:0003bf10    66 0001:0003bf60    68 0001:0003bfb0    59 0001:0003c400
    59 0001:0003c6b0    64 0001:0003c700    66 0001:0003c750    66 0001:0003c7a0
    68 0001:0003c7f0    27 0001:0003c910    28 0001:0003c92e    30 0001:0003c935
    27 0001:0003c970    28 0001:0003c98e    30 0001:0003c995    27 0001:0003c9d0
    28 0001:0003c9ee    30 0001:0003c9f5    38 0001:0003cb00    34 0001:0003cbf0
    34 0001:0003cc70    38 0001:0003ccf0    34 0001:0003cd20    38 0001:0003cd90
    27 0001:0003ce90    28 0001:0003ceae    30 0001:0003ceb5    27 0001:0003cef0
    28 0001:0003cf0e    30 0001:0003cf15    34 0001:0003cf50    34 0001:0003d000
    38 0001:0003d0b0

Line numbers for \OLD_PROJECTS_BACKUP\AmericanConquestAddon\_debug\BattleDialogs.obj(c:\program files (x86)\microsoft visual studio\vc98\include\vector) segment .text

    39 0001:0003a150    58 0001:0003a1c0    59 0001:0003a1f3    60 0001:0003a212
    93 0001:0003a270    97 0001:0003a2b0   114 0001:0003a2f0   132 0001:0003a350
   142 0001:0003a3a0   202 0001:0003a400   203 0001:0003a439   204 0001:0003a452
   205 0001:0003a461    39 0001:0003a4a0    58 0001:0003a510    59 0001:0003a543
    60 0001:0003a561    82 0001:0003a5b0    83 0001:0003a5de    84 0001:0003a5ef
    85 0001:0003a609    86 0001:0003a61f    87 0001:0003a63d    88 0001:0003a64c
    89 0001:0003a660    93 0001:0003a6b0    97 0001:0003a6f0   114 0001:0003a730
   118 0001:0003a790   132 0001:0003a7e0   134 0001:0003a830   138 0001:0003a880
   142 0001:0003a8d0   144 0001:0003a930   212 0001:0003a990    82 0001:0003a9f0
    83 0001:0003aa1e    84 0001:0003aa2f    85 0001:0003aa49    86 0001:0003aa5f
    87 0001:0003aa7d    88 0001:0003aa8c    89 0001:0003aaa0   132 0001:0003aaf0
    82 0001:0003ab40    83 0001:0003ab6e    84 0001:0003ab7f    85 0001:0003ab99
    86 0001:0003abaf    87 0001:0003abcb    88 0001:0003abd7    89 0001:0003abea
   132 0001:0003ac40    93 0001:0003ac90    97 0001:0003acd0   142 0001:0003ad10
   152 0001:0003ad70   153 0001:0003ada0   154 0001:0003adb2   230 0001:0003adf0
   231 0001:0003ae20    91 0001:0003aeb0   152 0001:0003af10   153 0001:0003af3f
   154 0001:0003af51   202 0001:0003af90   203 0001:0003afc9   204 0001:0003afe2
   205 0001:0003aff1   207 0001:0003b030   208 0001:0003b069   209 0001:0003b07e
   210 0001:0003b087   230 0001:0003b0c0   231 0001:0003b0f0   234 0001:0003b130
   235 0001:0003b169   236 0001:0003b17b    91 0001:0003b250    93 0001:0003b2b0
   114 0001:0003b2f0   230 0001:0003b350   231 0001:0003b380   234 0001:0003b3c0
   235 0001:0003b3f9   236 0001:0003b40b    91 0001:0003b4e0    93 0001:0003b540
   114 0001:0003b580   230 0001:0003b5e0   231 0001:0003b610   234 0001:0003b650
   235 0001:0003b689   236 0001:0003b69b   152 0001:0003b770   153 0001:0003b7a7
   154 0001:0003b7b9   156 0001:0003b800   157 0001:0003b835   158 0001:0003b863
   159 0001:0003b874   160 0001:0003b88e   161 0001:0003b8a2   162 0001:0003b8c1
   163 0001:0003b8d7   164 0001:0003b8f6   165 0001:0003b907   166 0001:0003b925
   167 0001:0003b92e   168 0001:0003b944   169 0001:0003b963   170 0001:0003b988
   171 0001:0003b99f   172 0001:0003b9b3   173 0001:0003b9bb   174 0001:0003b9e0
   175 0001:0003ba02   176 0001:0003ba1e   156 0001:0003bb30   157 0001:0003bb64
   158 0001:0003bb92   159 0001:0003bba3   160 0001:0003bbbd   161 0001:0003bbd1
   162 0001:0003bbee   163 0001:0003bc04   164 0001:0003bc22   165 0001:0003bc31
   166 0001:0003bc4b   167 0001:0003bc54   168 0001:0003bc69   169 0001:0003bc86
   170 0001:0003bcaa   171 0001:0003bcc1   172 0001:0003bcd3   173 0001:0003bcdb
   174 0001:0003bcff   175 0001:0003bd20   176 0001:0003bd3a   156 0001:0003c000
   157 0001:0003c03a   158 0001:0003c068   159 0001:0003c079   160 0001:0003c093
   161 0001:0003c0a7   162 0001:0003c0c6   163 0001:0003c0dc   164 0001:0003c102
   165 0001:0003c113   166 0001:0003c131   167 0001:0003c13a   168 0001:0003c155
   169 0001:0003c174   170 0001:0003c19e   171 0001:0003c1b5   172 0001:0003c1c9
   173 0001:0003c1d1   174 0001:0003c1f6   175 0001:0003c218   176 0001:0003c234
   234 0001:0003c300   235 0001:0003c339   236 0001:0003c34b   238 0001:0003c380
   239 0001:0003c3b7   238 0001:0003c450   239 0001:0003c487   114 0001:0003c4d0
   230 0001:0003c540   231 0001:0003c570   234 0001:0003c5b0   235 0001:0003c5e9
   236 0001:0003c5fb   238 0001:0003c630   239 0001:0003c667    50 0001:0003d330
    51 0001:0003d370    52 0001:0003d397    62 0001:0003d3e0    64 0001:0003d405
    65 0001:0003d420    66 0001:0003d444    67 0001:0003d457    68 0001:0003d470
    69 0001:0003d48b    70 0001:0003d4a5    71 0001:0003d4c1    72 0001:0003d4dd
    73 0001:0003d4f6    74 0001:0003d4fb    75 0001:0003d511    76 0001:0003d530
    78 0001:0003d549    79 0001:0003d570    80 0001:0003d57c    50 0001:0003d600
    51 0001:0003d640    52 0001:0003d667    62 0001:0003d6b0    64 0001:0003d6d5
    65 0001:0003d6f0    66 0001:0003d714    67 0001:0003d727    68 0001:0003d73e
    69 0001:0003d759    70 0001:0003d771    71 0001:0003d78d    72 0001:0003d7a9
    73 0001:0003d7c0    74 0001:0003d7c5    75 0001:0003d7db    76 0001:0003d7f9
    78 0001:0003d812    79 0001:0003d839    80 0001:0003d845    91 0001:0003d8d0
    95 0001:0003d930    99 0001:0003d970    95 0001:0003d9b0    99 0001:0003d9f0

Line numbers for \OLD_PROJECTS_BACKUP\AmericanConquestAddon\_debug\BattleDialogs.obj(d:\old_projects_backup\americanconquestaddon\dipserver\battledialogs.cpp) segment .text

     5 0001:00034a40     9 0001:00034b10    10 0001:00034b28    11 0001:00034b32
    13 0001:00034b50    14 0001:00034b68    15 0001:00034b8e    16 0001:00034ba0
    17 0001:00034bb5    19 0001:00034bcc    20 0001:00034bd2    21 0001:00034bdb
    22 0001:00034bf3    23 0001:00034bf8    24 0001:00034c0f    25 0001:00034c2e
    26 0001:00034c41    27 0001:00034c52    28 0001:00034c61    30 0001:00034c6d
    31 0001:00034c72    32 0001:00034c89    34 0001:00034c9a    35 0001:00034ca0
    36 0001:00034ca9    38 0001:00034cbc    80 0001:00034cd4    81 0001:00034cd9
    82 0001:00034cf4    83 0001:00034cf8    84 0001:00034d10    85 0001:00034d26
    86 0001:00034d28    87 0001:00034d49    88 0001:00034d56    89 0001:00034d5c
    91 0001:00034d65    92 0001:00034d74    93 0001:00034d87    94 0001:00034d93
    95 0001:00034d9a    96 0001:00034da6    99 0001:00034da8   100 0001:00034dbf
   102 0001:00034dc1   104 0001:00034dcd   105 0001:00034dd3   106 0001:00034ddc
   112 0001:00034df4   114 0001:00034ec0   116 0001:00034ed8   117 0001:00034ede
   118 0001:00034ef5   119 0001:00034f0d   121 0001:00034f40   122 0001:00034f63
   123 0001:00034f6c   124 0001:00034f87   125 0001:00034fa1   126 0001:00034fa7
   129 0001:00034fab   130 0001:00034fc5   132 0001:00034fe1   133 0001:00034fe4
   134 0001:00035030   135 0001:0003504d   136 0001:00035065   140 0001:00035090
   141 0001:000350ae   142 0001:000350c0   143 0001:000350d2   144 0001:000350d8
   145 0001:000350e2   146 0001:000350ed   147 0001:000350f8   148 0001:000350ff
   149 0001:00035129   151 0001:00035154   152 0001:0003517f   154 0001:0003518b
   155 0001:0003518f   156 0001:000351cd   157 0001:000351d1   159 0001:000351d3
   160 0001:000351e1   161 0001:000351f3   164 0001:00035213   167 0001:00035218
   168 0001:00035232   169 0001:00035239   170 0001:00035258   171 0001:00035262
   172 0001:00035280   173 0001:00035284   175 0001:0003528f   176 0001:000352d0
   177 0001:000352d4   179 0001:000352d9   180 0001:000352dd   181 0001:0003531f
   182 0001:00035323   184 0001:00035325   185 0001:00035333   186 0001:00035376
   189 0001:0003537a   190 0001:00035387   191 0001:000353a8   193 0001:000353b9
   220 0001:000353ce   225 0001:000353da   227 0001:000353df   228 0001:000353ee
   229 0001:00035405   232 0001:0003540a   234 0001:00035438   235 0001:0003544f
   236 0001:0003545e   237 0001:00035472   239 0001:00035488   240 0001:0003549c
   241 0001:000354a0   242 0001:000354de   243 0001:000354e2   245 0001:000354e4
   246 0001:000354f3   247 0001:00035502   248 0001:00035509   255 0001:00035513
   258 0001:00035660   259 0001:00035678   260 0001:00035682   262 0001:000356a0
   264 0001:000356bd   265 0001:000356d9   266 0001:000356e9   267 0001:000356f9
   268 0001:00035716   269 0001:00035727   270 0001:00035730   272 0001:00035752
   273 0001:00035754   274 0001:00035776   275 0001:00035798   276 0001:0003579d
   277 0001:000357b0   280 0001:00035810   281 0001:0003582d   282 0001:00035840
   284 0001:00035870   285 0001:0003588d   286 0001:00035895   288 0001:000358c0
   289 0001:000358e3   291 0001:000358eb   292 0001:000358ff   294 0001:00035915
   296 0001:00035924   298 0001:00035944   299 0001:0003595f   301 0001:00035978
   302 0001:0003599f   303 0001:000359b5   305 0001:000359cb   307 0001:000359dd
   308 0001:000359e4   309 0001:00035a08   310 0001:00035a0f   311 0001:00035a16
   313 0001:00035a1b   317 0001:00035a22   318 0001:00035a3b   319 0001:00035a57
   321 0001:00035a6c   324 0001:00035a86   325 0001:00035a8c   326 0001:00035a92
   327 0001:00035ac0   328 0001:00035ac8   330 0001:00035ad6   331 0001:00035ae9
   332 0001:00035afa   333 0001:00035b0d   334 0001:00035b0f   336 0001:00035b11
   338 0001:00035b1e   340 0001:00035b34   342 0001:00035b3d   343 0001:00035b56
   344 0001:00035b5e   345 0001:00035b64   346 0001:00035b80   351 0001:00035b95
   354 0001:00035b9a   355 0001:00035bac   356 0001:00035bc2   358 0001:00035bdc
   359 0001:00035bfa   360 0001:00035c09   362 0001:00035c0b   363 0001:00035c10
   365 0001:00035c3e   367 0001:00035c48   368 0001:00035c57   370 0001:00035c61
   372 0001:00035d70   373 0001:00035d8d   374 0001:00035d9f   375 0001:00035db4
   377 0001:00035dce   378 0001:00035dec   379 0001:00035dfb   381 0001:00035dfd
   382 0001:00035e15   383 0001:00035e25   385 0001:00035e53   386 0001:00035e5a
   387 0001:00035e62   389 0001:00035e81   390 0001:00035e85   392 0001:00035ee0
   393 0001:00035efd   396 0001:00035f0c   398 0001:00035f1c   399 0001:00035f2e
   400 0001:00035f4c   401 0001:00035f65   402 0001:00035f80   403 0001:00035f8c
   404 0001:00035fb5   405 0001:00035fcd   406 0001:00035fd9   407 0001:00035ff6
   408 0001:00036020   412 0001:00036022   414 0001:00036027   415 0001:00036061
   419 0001:00036071   420 0001:00036085   421 0001:0003609f   422 0001:000360ae
   423 0001:000360b6   424 0001:000360b8   425 0001:000360bc   426 0001:000360d4
   427 0001:0003610f   428 0001:00036111   429 0001:0003611e   430 0001:0003612d
   438 0001:00036135   440 0001:000361e0   441 0001:00036218   442 0001:0003622a
   443 0001:00036241   444 0001:00036251   446 0001:00036266   447 0001:00036275
   448 0001:00036281   449 0001:0003628e   451 0001:000362b3   452 0001:000362bf
   453 0001:000362cc   457 0001:000362d8   460 0001:000362f7   461 0001:00036301
   462 0001:0003630b   463 0001:0003634d   464 0001:0003636d   466 0001:00036383
   467 0001:0003639b   469 0001:000363b2   470 0001:000363cf   472 0001:000363e6
   473 0001:0003640d   475 0001:00036424   476 0001:0003643f   477 0001:00036449
   478 0001:0003649b   479 0001:000364c9   481 0001:000364e0   482 0001:000364f8
   483 0001:0003650d   484 0001:00036524   485 0001:00036526   487 0001:0003653b
   489 0001:00036563   490 0001:0003658d   491 0001:000365a3   493 0001:000365ba
   494 0001:000365c9   496 0001:000365d8   497 0001:00036643   502 0001:000366b8
   503 0001:000366cf   505 0001:000366f1   506 0001:00036709   507 0001:00036713
   508 0001:0003672c   509 0001:00036748   510 0001:00036752   511 0001:0003675c
   513 0001:00036766   515 0001:00036785   517 0001:0003678f   518 0001:000367bf
   519 0001:000367de   520 0001:00036816   523 0001:0003682e   525 0001:00036844
   526 0001:00036864   527 0001:0003687b   528 0001:000368ad   529 0001:000368c4
   530 0001:000368dd   532 0001:000368f4   533 0001:00036921   534 0001:00036938
   535 0001:00036950   537 0001:00036967   540 0001:00036976   542 0001:00036988
   543 0001:000369a8   544 0001:000369bf   545 0001:000369d2   546 0001:000369e9
   547 0001:00036a15   549 0001:00036a2c   550 0001:00036a59   551 0001:00036a70
   552 0001:00036a8e   554 0001:00036aa5   557 0001:00036ab4   559 0001:00036ac6
   560 0001:00036ae6   561 0001:00036afd   562 0001:00036b10   563 0001:00036b27
   564 0001:00036b53   566 0001:00036b6a   567 0001:00036b97   568 0001:00036bae
   569 0001:00036bcf   571 0001:00036be6   573 0001:00036bf5   574 0001:00036c04
   575 0001:00036c0d   576 0001:00036c17   579 0001:00036c2e   580 0001:00036c3d
   582 0001:00036c42   583 0001:00036c4b   584 0001:00036c55   587 0001:00036c67
   590 0001:00036c79   593 0001:00036c8a   595 0001:00036ca0   596 0001:00036cb5
   597 0001:00036cc8   598 0001:00036cdf   599 0001:00036cfc   601 0001:00036d13
   602 0001:00036d40   603 0001:00036d57   604 0001:00036d6f   606 0001:00036d86
   608 0001:00036d95   609 0001:00036da4   612 0001:00036db3   613 0001:00036dc9
   614 0001:00036dde   615 0001:00036df3   616 0001:00036e0e   617 0001:00036e25
   618 0001:00036e43   619 0001:00036e5a   621 0001:00036e69   623 0001:00036e7b
   626 0001:00036e85   627 0001:00036e8f   628 0001:00036e9b   629 0001:00036ea5
   630 0001:00036ed5   631 0001:00036ef2   632 0001:00036f05   634 0001:00036f11
   636 0001:00036f27   637 0001:00036f47   638 0001:00036f5e   639 0001:00036f90
   640 0001:00036fa7   641 0001:00036fd3   643 0001:00036fea   644 0001:00037013
   645 0001:0003702a   646 0001:00037054   647 0001:0003706b   649 0001:0003707a
   650 0001:00037089   651 0001:00037092   652 0001:0003709c   655 0001:000370ae
   656 0001:000370bd   657 0001:000370cc   659 0001:000370d1   662 0001:000370ef
   663 0001:000370f9   664 0001:00037103   665 0001:0003710d   666 0001:00037117
   667 0001:00037121   669 0001:0003712b   670 0001:000371af   671 0001:00037242
   672 0001:000372e4   673 0001:00037399   675 0001:0003745d   676 0001:0003748a
   678 0001:000374a1   679 0001:000374b1   680 0001:000374c0   683 0001:000374cf
   684 0001:000374e1   685 0001:00037510   686 0001:0003753f   687 0001:0003755f
   688 0001:00037568   689 0001:0003757f   691 0001:00037596   692 0001:000375de
   694 0001:000375ed   695 0001:000375ff   696 0001:00037611   697 0001:00037640
   699 0001:0003764f   700 0001:00037661   701 0001:00037690   702 0001:000376b0
   705 0001:000376d0   706 0001:000376fe   707 0001:0003770b   708 0001:0003772d
   709 0001:0003775f   710 0001:00037791   711 0001:000377f0   714 0001:0003782e
   715 0001:00037858   716 0001:00037882   717 0001:000378ac   718 0001:000378d6
   722 0001:000378e5   724 0001:000378f7   781 0001:00037901   782 0001:0003790b
   783 0001:0003791d   784 0001:00037931   785 0001:00037945   787 0001:00037990
   788 0001:00037999   789 0001:000379ab   792 0001:000379b5   793 0001:000379c7
   794 0001:000379dc   795 0001:000379f1   796 0001:00037a09   797 0001:00037a20
   798 0001:00037a3a   799 0001:00037a49   801 0001:00037a58   802 0001:00037a6c
   803 0001:00037a80   806 0001:00037a92   807 0001:00037aa3   808 0001:00037ab4
   809 0001:00037ac6   810 0001:00037ad8   811 0001:00037ae7   812 0001:00037b0f
   813 0001:00037b1f   815 0001:00037b21   816 0001:00037b3b   817 0001:00037b4b
   818 0001:00037b5b   824 0001:00037b5d   825 0001:00037b6c   827 0001:00037b71
   828 0001:00037b83   829 0001:00037bbd   830 0001:00037bda   831 0001:00037bec
   834 0001:00037bf6   835 0001:00037c0a   836 0001:00037c44   837 0001:00037c61
   838 0001:00037c73   842 0001:00037c7d   843 0001:00037c8c   845 0001:00037c91
   846 0001:00037ca5   847 0001:00037cb9   848 0001:00037ccb   850 0001:00037cdb
   852 0001:00037d15   853 0001:00037d32   854 0001:00037d44   856 0001:00037d4e
   857 0001:00037d5d   860 0001:00037d62   862 0001:00037d67   863 0001:00037d8a
   864 0001:00037d96   865 0001:00037da3   866 0001:00037dba   868 0001:00038590
   869 0001:000385c8   870 0001:000385da   871 0001:000385ef   873 0001:00038610
   875 0001:00038624   876 0001:00038637   878 0001:00038644   879 0001:00038656
   880 0001:00038658   884 0001:0003866a   885 0001:00038682   886 0001:00038696
   887 0001:000386b1   888 0001:000386c5   889 0001:000386e0   891 0001:000386f4
   892 0001:00038716   894 0001:0003872a   895 0001:0003873f   896 0001:00038753
   897 0001:00038768   899 0001:0003877c   900 0001:000387a5   902 0001:000387b9
   903 0001:000387d6   904 0001:000387dd   906 0001:000387f1   907 0001:000387fd
   912 0001:000388e0   913 0001:00038903   915 0001:00038948   916 0001:00038974
   917 0001:00038988   920 0001:00038992   923 0001:00038999   925 0001:000389a0
   927 0001:000389c5   928 0001:000389db   929 0001:00038a0b   932 0001:00038a15
   933 0001:00038a20   934 0001:00038a28   935 0001:00038a44   942 0001:00038a5b
   943 0001:00038a85   945 0001:00038aaf   948 0001:00038adc   950 0001:00038ae8
   951 0001:00038af7   953 0001:00038ba0   954 0001:00038bbd   955 0001:00038bcf
   956 0001:00038bed   958 0001:00038bf7   959 0001:00038bfe   961 0001:00038c2a
   962 0001:00038c31   964 0001:00038c33   965 0001:00038c3a   967 0001:00038c3c
   968 0001:00038c43   970 0001:00038c45   974 0001:00038c4c   976 0001:00038c56
   977 0001:00038c64   978 0001:00038c72   979 0001:00038c80   980 0001:00038c8c
   981 0001:00038c9e   985 0001:00038ca4   986 0001:00038cc5   988 0001:00038cd6
   989 0001:00038cda   990 0001:00038ce6   991 0001:00038cef   992 0001:00038d0c
   993 0001:00038d27   994 0001:00038d2b   996 0001:00038d2d   997 0001:00038d2f
   998 0001:00038d31   999 0001:00038d41  1004 0001:00038d45  1006 0001:00038d56
  1008 0001:00038d75  1009 0001:00038d99  1011 0001:00038d9e  1012 0001:00038dab
  1013 0001:00038dc8  1014 0001:00038de5  1015 0001:00038e2d  1016 0001:00038e2f
  1017 0001:00038e31  1018 0001:00038e33  1019 0001:00038e50  1020 0001:00038e9e
  1022 0001:00038ea0  1025 0001:00038ea5  1026 0001:00038eae  1027 0001:00038ecb
  1028 0001:00038efb  1029 0001:00038efd  1030 0001:00038eff  1032 0001:00038f29
  1034 0001:00038f2b  1035 0001:00038f48  1036 0001:00038f80  1040 0001:00038f82
  1043 0001:00038f87  1045 0001:000390e0  1046 0001:000390f8  1047 0001:00039108
  1048 0001:00039115  1049 0001:00039145  1051 0001:0003917e  1052 0001:000391af
  1054 0001:000391d4  1055 0001:00039230  1056 0001:00039248  1057 0001:00039261
  1058 0001:0003928f  1060 0001:000392b1  1061 0001:000392f0  1062 0001:00039308
  1063 0001:00039321  1064 0001:00039341  1066 0001:00039355  1067 0001:00039380
  1068 0001:00039398  1069 0001:000393a8  1070 0001:000393b5  1071 0001:00039404
  1073 0001:0003942c  1074 0001:0003945d  1076 0001:00039482  1082 0001:000394e0
  1083 0001:000394fd  1085 0001:00039527  1087 0001:00039534  1088 0001:00039584
  1089 0001:000395d2  1090 0001:000395e0  1091 0001:00039630  1092 0001:0003965f
  1093 0001:00039680  1094 0001:000396ac  1095 0001:000396c2  1096 0001:000396c4
  1098 0001:000396d2  1100 0001:00039770  1101 0001:000397a2  1102 0001:000397e9
  1104 0001:00039830  1105 0001:0003984d  1106 0001:0003985b  1107 0001:00039869
  1108 0001:00039891  1109 0001:000398a8  1110 0001:000398bf  1111 0001:000398d2
  1113 0001:000398da  1114 0001:000398e1  1115 0001:000398eb  1116 0001:0003990a
  1117 0001:00039913  1119 0001:00039915  1121 0001:00039970  1123 0001:0003998e
  1124 0001:000399a7  1125 0001:000399c3  1127 0001:000399d8  1129 0001:000399f2
  1131 0001:00039a20  1133 0001:00039a27  1135 0001:00039a2e  1137 0001:00039a34
  1139 0001:00039a59  1140 0001:00039a77  1141 0001:00039a9c  1142 0001:00039ac5
  1144 0001:00039acd  1145 0001:00039ad7  1146 0001:00039ae6  1147 0001:00039b08
  1149 0001:00039b11  1153 0001:00039b16  1155 0001:00039b31  1160 0001:00039bc0
  1161 0001:00039c21  1162 0001:00039c2b  1164 0001:00039c34  1165 0001:00039c44
  1166 0001:00039c62  1167 0001:00039c70  1168 0001:00039c83  1169 0001:00039c8b
  1170 0001:00039ca7  1171 0001:00039cd9  1172 0001:00039ce5  1174 0001:00039cf1
  1175 0001:00039d29  1176 0001:00039d4b  1177 0001:00039d93  1178 0001:00039da1
  1179 0001:00039dad  1183 0001:00039db9  1184 0001:00039df2  1186 0001:00039e03
  1187 0001:00039e14  1188 0001:00039e25  1189 0001:00039e2d  1192 0001:00039e2f
  1193 0001:00039e3e  1194 0001:00039e76  1195 0001:00039e92  1196 0001:00039edc
  1197 0001:00039eea  1198 0001:00039ef6  1202 0001:00039f02  1203 0001:00039f14
  1204 0001:00039f28  1209 0001:00039f37  1210 0001:00039f3c  1212 0001:0003a060
  1214 0001:0003a099  1229 0001:0003a0f0  1230 0001:0003a10d  1231 0001:0003a11d
  1232 0001:0003a123

Line numbers for \OLD_PROJECTS_BACKUP\AmericanConquestAddon\_debug\ParseRQ.obj(d:\old_projects_backup\americanconquestaddon\intexplorer\parserq.cpp) segment .text

     5 0001:000333c0     6 0001:000333dd     7 0001:000333ed     8 0001:00033420
     9 0001:0003343d    10 0001:00033445    11 0001:00033470    13 0001:0003348d
    14 0001:0003349f    15 0001:000334a3    16 0001:000334cf    17 0001:000334ed
    18 0001:00033504    19 0001:0003351b    20 0001:00033532    21 0001:00033541
    22 0001:00033590    23 0001:000335ad    24 0001:000335ba    25 0001:000335d0
    26 0001:000335fd    27 0001:00033625    28 0001:00033645    29 0001:0003365b
    30 0001:00033688    31 0001:0003369a    33 0001:000336a9    34 0001:00033710
    35 0001:0003372d    36 0001:0003374e    37 0001:00033775    38 0001:0003379e
    39 0001:000337a0    40 0001:000337d6    41 0001:0003380c    42 0001:00033811
    43 0001:00033833    44 0001:00033843    45 0001:000338b0    46 0001:000338c8
    47 0001:000338da    48 0001:000338e3    49 0001:000338f5    50 0001:000338fe
    51 0001:00033900    52 0001:00033920    53 0001:00033943    54 0001:0003394b
    56 0001:00033952    57 0001:00033988    58 0001:00033991    59 0001:00033998
    60 0001:0003399a    61 0001:000339ae    62 0001:000339b7    64 0001:000339c0
    66 0001:000339c4    67 0001:000339ca    69 0001:000339fa    70 0001:00033a1d
    71 0001:00033a34    72 0001:00033a3c    73 0001:00033a48    74 0001:00033a51
    75 0001:00033a57    76 0001:00033a64    77 0001:00033a71    78 0001:00033a77
    79 0001:00033aa7    81 0001:00033ac6    82 0001:00033acf    83 0001:00033ad6
    84 0001:00033af0    85 0001:00033aff    86 0001:00033b08    87 0001:00033b3e
    88 0001:00033b47    89 0001:00033b52    90 0001:00033b5f    91 0001:00033b68
    92 0001:00033b6d    93 0001:00033b7d    94 0001:00033b93    95 0001:00033b9c
    97 0001:00033ba1    98 0001:00033bad    99 0001:00033bbd   100 0001:00033c80
   101 0001:00033c9d   103 0001:00033ca4   104 0001:00033cab   105 0001:00033cc8
   106 0001:00033cfc   107 0001:00033d41   108 0001:00033d46   110 0001:00033d5c
   111 0001:00033d6c   112 0001:00033d75   113 0001:00033d96   114 0001:00033db0
   115 0001:00033dbb   116 0001:00033dc4   117 0001:00033de6   118 0001:00033def
   119 0001:00033e02   120 0001:00033e0f   121 0001:00033e18   122 0001:00033e32
   123 0001:00033e4b   124 0001:00033e56   125 0001:00033e5f   126 0001:00033e89
   127 0001:00033e92   128 0001:00033e94   129 0001:00033e99   130 0001:00033e9c
   131 0001:00033f40   132 0001:00033f79   133 0001:00033f80   134 0001:00033f88
   135 0001:00033f8f   136 0001:00033f9b   137 0001:00033fa4   138 0001:00033fc2
   139 0001:00033fce   141 0001:00033fd7   142 0001:00033ff2   143 0001:00034009
   144 0001:00034011   145 0001:0003401a   146 0001:00034026   147 0001:0003402f
   148 0001:0003403b   149 0001:00034055   150 0001:00034060   151 0001:00034069
   152 0001:0003407c   153 0001:00034085   154 0001:00034087   155 0001:0003408c
   156 0001:0003409b   158 0001:00034120   160 0001:00034143   161 0001:00034152
   162 0001:00034173   163 0001:00034194   164 0001:000341a7   165 0001:000341c5
   166 0001:000341ce   167 0001:000341e7   168 0001:00034200   169 0001:00034209
   170 0001:00034223   171 0001:0003422e   172 0001:00034289   173 0001:00034294
   174 0001:00034299   175 0001:0003429e   176 0001:000342a3   177 0001:000342bc
   178 0001:000342cc   179 0001:000342db   180 0001:000342fc   181 0001:0003430d
   182 0001:00034316   183 0001:00034331   184 0001:00034350   185 0001:00034363
   186 0001:00034381   187 0001:00034392   188 0001:0003439b   189 0001:000343b4
   190 0001:000343cd   191 0001:000343dc   192 0001:000343e3   193 0001:00034401
   194 0001:0003440c   195 0001:00034462   196 0001:00034472   197 0001:00034497
   198 0001:000344bb   199 0001:000344cf   200 0001:000344d8   201 0001:000344e1
   202 0001:000344e3   203 0001:000344f5   204 0001:00034509   206 0001:00034512
   207 0001:00034517   208 0001:0003451c   209 0001:00034521   210 0001:0003452a
   211 0001:0003452d   212 0001:00034650   213 0001:0003466d   214 0001:0003467c
   215 0001:000346ce   216 0001:00034704   217 0001:0003473a   218 0001:00034780
   220 0001:0003478f   221 0001:00034800   222 0001:0003481d   223 0001:0003482c
   224 0001:0003483d   225 0001:0003486a   226 0001:00034892   227 0001:000348b2
   228 0001:000348c8   229 0001:000348f5   230 0001:00034907   232 0001:00034916
   233 0001:00034980   235 0001:000349a3   236 0001:000349b5   237 0001:000349d1

Line numbers for \OLD_PROJECTS_BACKUP\AmericanConquestAddon\_debug\Economic.obj(c:\program files (x86)\microsoft visual studio\vc98\include\new) segment .text

    42 0001:00030a50    45 0001:00031310

Line numbers for \OLD_PROJECTS_BACKUP\AmericanConquestAddon\_debug\Economic.obj(c:\program files (x86)\microsoft visual studio\vc98\include\xutility) segment .text

    38 0001:000307e0    39 0001:0003080b    24 0001:00030840    25 0001:00030860
    26 0001:00030881    38 0001:000308d0    39 0001:000308fb    24 0001:00030920
    25 0001:00030940    26 0001:0003095e    38 0001:00030ab0    39 0001:00030adb
    24 0001:00030b10    25 0001:00030b30    26 0001:00030b50    38 0001:00030bc0
    39 0001:00030beb    24 0001:00030c20    25 0001:00030c40    26 0001:00030c61
    38 0001:00030cb0    39 0001:00030cdb    24 0001:00030d10    25 0001:00030d30
    26 0001:00030d50    38 0001:00030dc0    39 0001:00030deb    24 0001:00030e20
    25 0001:00030e40    26 0001:00030e60    38 0001:00030ee0    39 0001:00030f0b
    24 0001:00030f30    25 0001:00030f50    26 0001:00030f6e    38 0001:00031470
    39 0001:0003149b    24 0001:000314d0    25 0001:000314f0    26 0001:00031510
    18 0001:00033290    19 0001:000332c4    20 0001:000332d0    18 0001:000332f0
    19 0001:00033324    20 0001:00033332    18 0001:00033360    19 0001:00033394
    20 0001:000333a3

Line numbers for \OLD_PROJECTS_BACKUP\AmericanConquestAddon\_debug\Economic.obj(d:\old_projects_backup\americanconquestaddon\dipserver\economic.h) segment .text

   136 0001:00030720   137 0001:0003073d   138 0001:00030759

Line numbers for \OLD_PROJECTS_BACKUP\AmericanConquestAddon\_debug\Economic.obj(c:\program files (x86)\microsoft visual studio\vc98\include\algorithm) segment .text

    49 0001:00030690    50 0001:000306bb    51 0001:000306e6    52 0001:000306e8

Line numbers for \OLD_PROJECTS_BACKUP\AmericanConquestAddon\_debug\Economic.obj(c:\program files (x86)\microsoft visual studio\vc98\include\xmemory) segment .text

    64 0001:00028ac0    59 0001:00028da0    64 0001:00028df0    64 0001:00028fc0
    64 0001:00029190    64 0001:00029360    64 0001:00029a10    64 0001:00029bd0
    64 0001:0002c080    68 0001:0002c400    61 0001:0002c720    62 0001:0002c73d
    66 0001:0002c770    68 0001:0002c7c0    68 0001:0002cb10    68 0001:0002ce60
    68 0001:0002d1b0    68 0001:0002d5b0    68 0001:0002d8d0    61 0001:0002da60
    62 0001:0002da7d    64 0001:0002dab0    66 0001:0002db00    61 0001:0002dd70
    62 0001:0002dd8d    64 0001:0002ddc0    66 0001:0002de10    61 0001:0002e080
    62 0001:0002e09d    64 0001:0002e0d0    66 0001:0002e120    61 0001:0002e390
    62 0001:0002e3ad    64 0001:0002e3e0    66 0001:0002e430    61 0001:0002e6a0
    62 0001:0002e6bd    64 0001:0002e6f0    66 0001:0002e740    61 0001:0002e950
    62 0001:0002e96d    64 0001:0002e9a0    66 0001:0002e9f0    61 0001:0002eb80
    62 0001:0002eb9d    64 0001:0002ebd0    66 0001:0002ec20    68 0001:0002ec70
    61 0001:0002ef40    62 0001:0002ef5d    64 0001:0002ef90    66 0001:0002efe0
    61 0001:0002f1f0    62 0001:0002f20d    64 0001:0002f240    66 0001:0002f290
    68 0001:0002f6c0    59 0001:0002f810    59 0001:0002f9e0    59 0001:0002fb30
    59 0001:0002fc80    59 0001:0002fdd0    59 0001:0002ff20    68 0001:0002ff70
    68 0001:0002ffc0    68 0001:00030010    68 0001:00030060    68 0001:000300b0
    68 0001:00030100    68 0001:00030200    68 0001:00030250    59 0001:00030410
    66 0001:00030460    66 0001:000304b0    66 0001:00030500    66 0001:00030550
    66 0001:000305a0    66 0001:000305f0    66 0001:00030640    27 0001:00030780
    28 0001:0003079e    30 0001:000307a5    38 0001:000308a0    27 0001:00030980
    28 0001:0003099e    30 0001:000309a5    34 0001:000309e0    38 0001:00030a80
    38 0001:00030b80    38 0001:00030c80    38 0001:00030d80    38 0001:00030e90
    38 0001:00030f90    34 0001:00030fc0    34 0001:00031030    34 0001:000310a0
    34 0001:00031110    34 0001:00031180    34 0001:000311f0    34 0001:00031260
    38 0001:00031340    34 0001:00031390    34 0001:00031400    38 0001:00031540
    27 0001:00031590    28 0001:000315ae    30 0001:000315b5    27 0001:000315f0
    28 0001:0003160e    30 0001:00031615    27 0001:00031650    28 0001:0003166e
    30 0001:00031675    27 0001:000316b0    28 0001:000316ce    30 0001:000316d5
    27 0001:00031710    28 0001:0003172e    30 0001:00031735    27 0001:00031770
    28 0001:0003178e    30 0001:00031795    38 0001:000317d0    38 0001:00031800
    38 0001:00031830    38 0001:00031860    38 0001:00031890    38 0001:000318c0
    38 0001:000318f0    38 0001:00031920    27 0001:00031950    28 0001:0003196e
    30 0001:00031975    34 0001:000319b0    34 0001:00031a30    34 0001:00031ae0
    34 0001:00031b60    34 0001:00031c10    34 0001:00031cc0    34 0001:00031d30

Line numbers for \OLD_PROJECTS_BACKUP\AmericanConquestAddon\_debug\Economic.obj(c:\program files (x86)\microsoft visual studio\vc98\include\list) segment .text

   131 0001:00025ae0   151 0001:00025b50   152 0001:00025b97   153 0001:00025ba6
   166 0001:00025bf0   170 0001:00025c60   188 0001:00025cc0   196 0001:00025d00
   206 0001:00025d60   208 0001:00025dc0   247 0001:00025e30    96 0001:00025ea0
   101 0001:00025ef0   105 0001:00025f40   106 0001:00025f72   108 0001:00025fa0
   109 0001:00025fc5   110 0001:00025fcd   121 0001:00026000   131 0001:000264d0
   151 0001:00026540   152 0001:00026587   153 0001:00026596   166 0001:000265e0
   170 0001:00026650   188 0001:000266b0   208 0001:000266f0    96 0001:00026760
   101 0001:000267b0   105 0001:00026800   106 0001:00026832   121 0001:00026860
   131 0001:000268c0   151 0001:00026930   152 0001:00026977   153 0001:00026986
   166 0001:000269d0   170 0001:00026a40   188 0001:00026aa0   208 0001:00026ae0
    96 0001:00026b50   101 0001:00026ba0   105 0001:00026bf0   106 0001:00026c22
   121 0001:00026c50   131 0001:00026cb0   151 0001:00026d20   152 0001:00026d67
   153 0001:00026d76   166 0001:00026dc0   170 0001:00026e30   188 0001:00026e90
   208 0001:00026ed0    96 0001:00026f40   101 0001:00026f90   105 0001:00026fe0
   106 0001:00027012   121 0001:00027040   131 0001:000270a0   151 0001:00027110
   152 0001:00027157   153 0001:00027166   166 0001:000271b0   170 0001:00027220
   208 0001:00027280    96 0001:000272f0   101 0001:00027340   105 0001:00027390
   106 0001:000273c2   121 0001:000273f0   131 0001:00027450   151 0001:000274c0
   152 0001:00027507   153 0001:00027516   166 0001:00027560   170 0001:000275d0
   188 0001:00027630   208 0001:00027670    96 0001:000276e0   101 0001:00027730
   105 0001:00027780   106 0001:000277b2   108 0001:000277e0   109 0001:00027805
   110 0001:0002780d   121 0001:00027840   131 0001:000278a0   151 0001:00027910
   152 0001:00027957   153 0001:00027966   166 0001:000279b0   170 0001:00027a20
   188 0001:00027a80   208 0001:00027ac0    96 0001:00027b30   101 0001:00027b80
   105 0001:00027bd0   106 0001:00027c02   121 0001:00027c30   131 0001:00027c90
   151 0001:00027d00   152 0001:00027d47   153 0001:00027d56   166 0001:00027da0
   188 0001:00027e10   206 0001:00027e50   208 0001:00027eb0   103 0001:00027f20
   131 0001:00027f70   151 0001:00027fe0   152 0001:00028027   153 0001:00028036
   166 0001:00028080   170 0001:000280f0   188 0001:00028150   208 0001:00028190
    96 0001:00028200   101 0001:00028250   105 0001:000282a0   106 0001:000282d2
   108 0001:00028300   109 0001:00028325   110 0001:0002832d   121 0001:00028360
   131 0001:000283c0   151 0001:00028430   152 0001:00028477   153 0001:00028486
   166 0001:000284d0   170 0001:00028540   208 0001:000285a0    96 0001:00028610
   101 0001:00028660   105 0001:000286b0   106 0001:000286e2   121 0001:00028710
    96 0001:00028970   218 0001:000293b0   219 0001:000293d8   220 0001:00029403
   221 0001:00029414   222 0001:00029430   223 0001:00029449   224 0001:00029458
   235 0001:000294c0   236 0001:000294f5   237 0001:0002951e   238 0001:00029547
   239 0001:0002955c   240 0001:00029568   241 0001:00029577   243 0001:000295d0
   244 0001:00029602   245 0001:00029621   386 0001:00029660   387 0001:0002967d
   388 0001:0002968a   389 0001:000296af   390 0001:000296d4   392 0001:00029710
    37 0001:00029760    41 0001:00029790    59 0001:000297c0    98 0001:000297f0
   119 0001:00029840   218 0001:00029c20   219 0001:00029c48   220 0001:00029c73
   221 0001:00029c84   222 0001:00029ca0   223 0001:00029cb9   224 0001:00029cc8
   243 0001:00029d30   244 0001:00029d62   245 0001:00029d81   386 0001:00029dc0
   387 0001:00029ddd   388 0001:00029dea   389 0001:00029e0f   390 0001:00029e34
   392 0001:00029e70    37 0001:00029ec0    41 0001:00029ef0    59 0001:00029f20
    98 0001:00029f50   119 0001:00029fa0   218 0001:00029ff0   219 0001:0002a018
   220 0001:0002a043   221 0001:0002a054   222 0001:0002a070   223 0001:0002a089
   224 0001:0002a098   243 0001:0002a100   244 0001:0002a132   245 0001:0002a151
   386 0001:0002a190   387 0001:0002a1ad   388 0001:0002a1ba   389 0001:0002a1df
   390 0001:0002a204   392 0001:0002a240    37 0001:0002a290    41 0001:0002a2c0
    59 0001:0002a2f0    98 0001:0002a320   119 0001:0002a370   218 0001:0002a3c0
   219 0001:0002a3e8   220 0001:0002a413   221 0001:0002a424   222 0001:0002a440
   223 0001:0002a459   224 0001:0002a468   243 0001:0002a4d0   244 0001:0002a502
   245 0001:0002a521   386 0001:0002a560   387 0001:0002a57d   388 0001:0002a58a
   389 0001:0002a5af   390 0001:0002a5d4   392 0001:0002a610    37 0001:0002a660
    41 0001:0002a690    59 0001:0002a6c0    98 0001:0002a6f0   119 0001:0002a740
   218 0001:0002a790   219 0001:0002a7b8   220 0001:0002a7e3   221 0001:0002a7f4
   222 0001:0002a810   223 0001:0002a829   224 0001:0002a838   243 0001:0002a8a0
   244 0001:0002a8d2   245 0001:0002a8f1   386 0001:0002a930   387 0001:0002a94d
   388 0001:0002a95a   389 0001:0002a97f   390 0001:0002a9a4   392 0001:0002a9e0
    37 0001:0002aa30    41 0001:0002aa60    59 0001:0002aa90    98 0001:0002aac0
   119 0001:0002ab10   218 0001:0002ab60   219 0001:0002ab88   220 0001:0002abb3
   221 0001:0002abc4   222 0001:0002abe0   223 0001:0002abf9   224 0001:0002ac08
   243 0001:0002ac70   244 0001:0002aca2   245 0001:0002acc1   386 0001:0002ad00
   387 0001:0002ad1d   388 0001:0002ad2a   389 0001:0002ad4f   390 0001:0002ad74
   392 0001:0002adb0    37 0001:0002ae00    41 0001:0002ae30    59 0001:0002ae60
    98 0001:0002ae90   119 0001:0002aee0   218 0001:0002af30   219 0001:0002af58
   220 0001:0002af83   221 0001:0002af94   222 0001:0002afb0   223 0001:0002afc9
   224 0001:0002afd8   243 0001:0002b040   244 0001:0002b072   245 0001:0002b091
   386 0001:0002b0d0   387 0001:0002b0ed   388 0001:0002b0fa   389 0001:0002b11f
   390 0001:0002b144   392 0001:0002b180    37 0001:0002b1d0    41 0001:0002b200
    59 0001:0002b230    98 0001:0002b260   119 0001:0002b2b0   170 0001:0002b300
   218 0001:0002b360   219 0001:0002b388   220 0001:0002b3b3   221 0001:0002b3c4
   222 0001:0002b3e0   223 0001:0002b3f9   224 0001:0002b408   235 0001:0002b470
   236 0001:0002b4a5   237 0001:0002b4ce   238 0001:0002b4f7   239 0001:0002b50c
   240 0001:0002b518   241 0001:0002b527   243 0001:0002b580   244 0001:0002b5b2
   245 0001:0002b5d1   386 0001:0002b610   387 0001:0002b62d   388 0001:0002b63a
   389 0001:0002b65f   390 0001:0002b684   392 0001:0002b6c0    37 0001:0002b710
    98 0001:0002b740   101 0001:0002b790   218 0001:0002b7e0   219 0001:0002b808
   220 0001:0002b833   221 0001:0002b844   222 0001:0002b860   223 0001:0002b879
   224 0001:0002b888   243 0001:0002b8f0   244 0001:0002b922   245 0001:0002b941
   386 0001:0002b980   387 0001:0002b99d   388 0001:0002b9aa   389 0001:0002b9cf
   390 0001:0002b9f4   392 0001:0002ba30    37 0001:0002ba80    41 0001:0002bab0
    59 0001:0002bae0    98 0001:0002bb10   119 0001:0002bb60   218 0001:0002bbb0
   219 0001:0002bbd8   220 0001:0002bc03   221 0001:0002bc14   222 0001:0002bc30
   223 0001:0002bc49   224 0001:0002bc58   243 0001:0002bcc0   244 0001:0002bcf2
   245 0001:0002bd11   386 0001:0002bd50   387 0001:0002bd6d   388 0001:0002bd7a
   389 0001:0002bd9f   390 0001:0002bdc4   392 0001:0002be00    37 0001:0002be50
    41 0001:0002be80    59 0001:0002beb0    98 0001:0002bee0   119 0001:0002bf30
    59 0001:0002c0d0    39 0001:0002d200    61 0001:0002d230    88 0001:0002d270
   235 0001:0002d920   236 0001:0002d955   237 0001:0002d97e   238 0001:0002d9a7
   239 0001:0002d9bc   240 0001:0002d9c8   241 0001:0002d9d7    39 0001:0002da30
    61 0001:0002db50    88 0001:0002db90   108 0001:0002dbd0   109 0001:0002dbf5
   110 0001:0002dbfd   235 0001:0002dc30   236 0001:0002dc65   237 0001:0002dc8e
   238 0001:0002dcb7   239 0001:0002dccc   240 0001:0002dcd8   241 0001:0002dce7
    39 0001:0002dd40    61 0001:0002de60    88 0001:0002dea0   108 0001:0002dee0
   109 0001:0002df05   110 0001:0002df0d   235 0001:0002df40   236 0001:0002df75
   237 0001:0002df9e   238 0001:0002dfc7   239 0001:0002dfdc   240 0001:0002dfe8
   241 0001:0002dff7    39 0001:0002e050    61 0001:0002e170    88 0001:0002e1b0
   108 0001:0002e1f0   109 0001:0002e215   110 0001:0002e21d   235 0001:0002e250
   236 0001:0002e285   237 0001:0002e2ae   238 0001:0002e2d7   239 0001:0002e2ec
   240 0001:0002e2f8   241 0001:0002e307    39 0001:0002e360    61 0001:0002e480
    88 0001:0002e4c0   108 0001:0002e500   109 0001:0002e525   110 0001:0002e52d
   235 0001:0002e560   236 0001:0002e595   237 0001:0002e5be   238 0001:0002e5e7
   239 0001:0002e5fc   240 0001:0002e608   241 0001:0002e617    39 0001:0002e670
    61 0001:0002e790    88 0001:0002e7d0   235 0001:0002e810   236 0001:0002e845
   237 0001:0002e86e   238 0001:0002e897   239 0001:0002e8ac   240 0001:0002e8b8
   241 0001:0002e8c7    39 0001:0002e920    61 0001:0002ea40    88 0001:0002ea80
   108 0001:0002eac0   109 0001:0002eae5   110 0001:0002eaed    39 0001:0002eb20
    41 0001:0002eb50    61 0001:0002ecc0    88 0001:0002ed00   108 0001:0002ed40
   109 0001:0002ed65   110 0001:0002ed6d   121 0001:0002eda0   235 0001:0002ee00
   236 0001:0002ee35   237 0001:0002ee5e   238 0001:0002ee87   239 0001:0002ee9c
   240 0001:0002eea8   241 0001:0002eeb7    39 0001:0002ef10    61 0001:0002f030
    88 0001:0002f070   235 0001:0002f0b0   236 0001:0002f0e5   237 0001:0002f10e
   238 0001:0002f137   239 0001:0002f14c   240 0001:0002f158   241 0001:0002f167
    39 0001:0002f1c0    61 0001:0002f2e0    88 0001:0002f320   108 0001:0002f360
   109 0001:0002f385   110 0001:0002f38d   105 0001:00030150   106 0001:00030182
   119 0001:000301b0

Line numbers for \OLD_PROJECTS_BACKUP\AmericanConquestAddon\_debug\Economic.obj(c:\program files (x86)\microsoft visual studio\vc98\include\vector) segment .text

    39 0001:00024d40    58 0001:00024db0    59 0001:00024de3    60 0001:00024e07
    93 0001:00024e60    97 0001:00024ea0   114 0001:00024ee0   132 0001:00024f50
   142 0001:00024fa0    39 0001:00025000    50 0001:00025070    51 0001:000250b0
    52 0001:000250d7    58 0001:00025120    59 0001:00025153    60 0001:00025172
    82 0001:000251d0    83 0001:000251fe    84 0001:0002520f    85 0001:00025229
    86 0001:0002523f    87 0001:0002525e    88 0001:0002526d    89 0001:00025281
    93 0001:000252d0   114 0001:00025310   132 0001:00025370   142 0001:000253c0
    39 0001:00025420    58 0001:00025490    59 0001:000254c3    60 0001:000254e7
   114 0001:00025540   132 0001:000255b0   142 0001:00025600    39 0001:00025660
    58 0001:000256d0    59 0001:00025703    60 0001:00025727   114 0001:00025780
   132 0001:000257f0   142 0001:00025840    39 0001:000258a0    58 0001:00025910
    59 0001:00025943    60 0001:00025967   114 0001:000259c0   132 0001:00025a30
   142 0001:00025a80    39 0001:00026060    58 0001:000260d0    59 0001:00026103
    60 0001:00026127   114 0001:00026180   132 0001:000261f0   142 0001:00026240
    39 0001:000262a0    58 0001:00026310    59 0001:00026343    60 0001:00026362
   114 0001:000263c0   132 0001:00026420   142 0001:00026470    39 0001:00028770
    58 0001:000287e0    59 0001:00028813    60 0001:00028837    93 0001:00028890
    97 0001:000288d0   142 0001:00028910   152 0001:000289c0   153 0001:000289f7
   154 0001:00028a09   230 0001:00028a50   231 0001:00028a80    91 0001:00028b10
    95 0001:00028b70    97 0001:00028bb0    99 0001:00028bf0   152 0001:00028c30
   153 0001:00028c60   154 0001:00028c72   230 0001:00028cb0   231 0001:00028ce0
   234 0001:00028d20   235 0001:00028d59   236 0001:00028d6b    93 0001:00028e40
    97 0001:00028e80   152 0001:00028ec0   153 0001:00028ef7   154 0001:00028f09
   230 0001:00028f50   231 0001:00028f80    93 0001:00029010    97 0001:00029050
   152 0001:00029090   153 0001:000290c7   154 0001:000290d9   230 0001:00029120
   231 0001:00029150    93 0001:000291e0    97 0001:00029220   152 0001:00029260
   153 0001:00029297   154 0001:000292a9   230 0001:000292f0   231 0001:00029320
    93 0001:00029890    97 0001:000298d0   152 0001:00029910   153 0001:00029947
   154 0001:00029959   230 0001:000299a0   231 0001:000299d0    93 0001:00029a60
    97 0001:00029aa0   152 0001:00029ae0   153 0001:00029b10   154 0001:00029b22
   230 0001:00029b60   231 0001:00029b90   152 0001:0002bf80   153 0001:0002bfb7
   154 0001:0002bfc9   230 0001:0002c010   231 0001:0002c040   156 0001:0002c100
   157 0001:0002c13a   158 0001:0002c168   159 0001:0002c179   160 0001:0002c193
   161 0001:0002c1a7   162 0001:0002c1c6   163 0001:0002c1dc   164 0001:0002c202
   165 0001:0002c213   166 0001:0002c231   167 0001:0002c23a   168 0001:0002c255
   169 0001:0002c274   170 0001:0002c29e   171 0001:0002c2b5   172 0001:0002c2c9
   173 0001:0002c2d1   174 0001:0002c2f6   175 0001:0002c318   176 0001:0002c334
   156 0001:0002c450   157 0001:0002c485   158 0001:0002c4b3   159 0001:0002c4c4
   160 0001:0002c4de   161 0001:0002c4f2   162 0001:0002c50f   163 0001:0002c525
   164 0001:0002c544   165 0001:0002c553   166 0001:0002c56d   167 0001:0002c576
   168 0001:0002c58c   169 0001:0002c5a9   170 0001:0002c5ce   171 0001:0002c5e5
   172 0001:0002c5f7   173 0001:0002c5ff   174 0001:0002c624   175 0001:0002c646
   176 0001:0002c660   156 0001:0002c810   157 0001:0002c84a   158 0001:0002c878
   159 0001:0002c889   160 0001:0002c8a3   161 0001:0002c8b7   162 0001:0002c8d6
   163 0001:0002c8ec   164 0001:0002c912   165 0001:0002c923   166 0001:0002c941
   167 0001:0002c94a   168 0001:0002c965   169 0001:0002c984   170 0001:0002c9ae
   171 0001:0002c9c5   172 0001:0002c9d9   173 0001:0002c9e1   174 0001:0002ca06
   175 0001:0002ca28   176 0001:0002ca44   156 0001:0002cb60   157 0001:0002cb9a
   158 0001:0002cbc8   159 0001:0002cbd9   160 0001:0002cbf3   161 0001:0002cc07
   162 0001:0002cc26   163 0001:0002cc3c   164 0001:0002cc62   165 0001:0002cc73
   166 0001:0002cc91   167 0001:0002cc9a   168 0001:0002ccb5   169 0001:0002ccd4
   170 0001:0002ccfe   171 0001:0002cd15   172 0001:0002cd29   173 0001:0002cd31
   174 0001:0002cd56   175 0001:0002cd78   176 0001:0002cd94   156 0001:0002ceb0
   157 0001:0002ceea   158 0001:0002cf18   159 0001:0002cf29   160 0001:0002cf43
   161 0001:0002cf57   162 0001:0002cf76   163 0001:0002cf8c   164 0001:0002cfb2
   165 0001:0002cfc3   166 0001:0002cfe1   167 0001:0002cfea   168 0001:0002d005
   169 0001:0002d024   170 0001:0002d04e   171 0001:0002d065   172 0001:0002d079
   173 0001:0002d081   174 0001:0002d0a6   175 0001:0002d0c8   176 0001:0002d0e4
   156 0001:0002d2b0   157 0001:0002d2ea   158 0001:0002d318   159 0001:0002d329
   160 0001:0002d343   161 0001:0002d357   162 0001:0002d376   163 0001:0002d38c
   164 0001:0002d3b2   165 0001:0002d3c3   166 0001:0002d3e1   167 0001:0002d3ea
   168 0001:0002d405   169 0001:0002d424   170 0001:0002d44e   171 0001:0002d465
   172 0001:0002d479   173 0001:0002d481   174 0001:0002d4a6   175 0001:0002d4c8
   176 0001:0002d4e4   156 0001:0002d600   157 0001:0002d635   158 0001:0002d663
   159 0001:0002d674   160 0001:0002d68e   161 0001:0002d6a2   162 0001:0002d6bf
   163 0001:0002d6d5   164 0001:0002d6f4   165 0001:0002d703   166 0001:0002d71d
   167 0001:0002d726   168 0001:0002d73c   169 0001:0002d759   170 0001:0002d77e
   171 0001:0002d795   172 0001:0002d7a7   173 0001:0002d7af   174 0001:0002d7d4
   175 0001:0002d7f6   176 0001:0002d810   156 0001:0002f3c0   157 0001:0002f3fa
   158 0001:0002f428   159 0001:0002f439   160 0001:0002f453   161 0001:0002f467
   162 0001:0002f486   163 0001:0002f49c   164 0001:0002f4c2   165 0001:0002f4d3
   166 0001:0002f4f1   167 0001:0002f4fa   168 0001:0002f515   169 0001:0002f534
   170 0001:0002f55e   171 0001:0002f575   172 0001:0002f589   173 0001:0002f591
   174 0001:0002f5b6   175 0001:0002f5d8   176 0001:0002f5f4   234 0001:0002f710
   235 0001:0002f749   236 0001:0002f75b   238 0001:0002f790   239 0001:0002f7c7
   238 0001:0002f860   239 0001:0002f897   234 0001:0002f8e0   235 0001:0002f919
   236 0001:0002f92b   238 0001:0002f960   239 0001:0002f997   234 0001:0002fa30
   235 0001:0002fa69   236 0001:0002fa7b   238 0001:0002fab0   239 0001:0002fae7
   234 0001:0002fb80   235 0001:0002fbb9   236 0001:0002fbcb   238 0001:0002fc00
   239 0001:0002fc37   234 0001:0002fcd0   235 0001:0002fd09   236 0001:0002fd1b
   238 0001:0002fd50   239 0001:0002fd87   234 0001:0002fe20   235 0001:0002fe59
   236 0001:0002fe6b   238 0001:0002fea0   239 0001:0002fed7   114 0001:000302a0
   234 0001:00030310   235 0001:00030349   236 0001:0003035b   238 0001:00030390
   239 0001:000303c7    62 0001:000328d0    64 0001:000328f5    65 0001:00032910
    66 0001:00032934    67 0001:00032947    68 0001:0003295e    69 0001:00032979
    70 0001:00032991    71 0001:000329ad    72 0001:000329c9    73 0001:000329e0
    74 0001:000329e5    75 0001:000329fb    76 0001:00032a1a    78 0001:00032a33
    79 0001:00032a5a    80 0001:00032a66    50 0001:00032af0    51 0001:00032b30
    52 0001:00032b57    62 0001:00032ba0    64 0001:00032bc5    65 0001:00032be0
    66 0001:00032c04    67 0001:00032c17    68 0001:00032c30    69 0001:00032c4b
    70 0001:00032c65    71 0001:00032c81    72 0001:00032c9d    73 0001:00032cb6
    74 0001:00032cbb    75 0001:00032cd1    76 0001:00032cf7    78 0001:00032d10
    79 0001:00032d37    80 0001:00032d43    50 0001:00032dd0    51 0001:00032e10
    52 0001:00032e37    62 0001:00032e80    64 0001:00032ea5    65 0001:00032ec0
    66 0001:00032ee4    67 0001:00032ef7    68 0001:00032f10    69 0001:00032f2b
    70 0001:00032f45    71 0001:00032f61    72 0001:00032f7d    73 0001:00032f96
    74 0001:00032f9b    75 0001:00032fb1    76 0001:00032fd7    78 0001:00032ff0
    79 0001:00033017    80 0001:00033023    91 0001:000330b0    95 0001:00033120
    99 0001:00033160    91 0001:000331a0    95 0001:00033210    99 0001:00033250

Line numbers for \OLD_PROJECTS_BACKUP\AmericanConquestAddon\_debug\Economic.obj(d:\old_projects_backup\americanconquestaddon\dipserver\addscenario.h) segment .text

    90 0001:0001c770    91 0001:0001c788    92 0001:0001c7a4

Line numbers for \OLD_PROJECTS_BACKUP\AmericanConquestAddon\_debug\Economic.obj(d:\old_projects_backup\americanconquestaddon\dipserver\economic.cpp) segment .text

    20 0001:000156e0    21 0001:000156f8    22 0001:00015714    25 0001:00015740
    26 0001:0001586c    27 0001:00015879    28 0001:00015886    29 0001:00015893
    30 0001:000158a0    33 0001:000159a0    34 0001:000159e8    35 0001:00015a10
    36 0001:00015a38    39 0001:00015a42    40 0001:00015a4a    41 0001:00015a89
    42 0001:00015acb    43 0001:00015ad3    44 0001:00015b12    45 0001:00015b54
    46 0001:00015b5c    47 0001:00015b9b    48 0001:00015bdd    49 0001:00015be5
    50 0001:00015c24    51 0001:00015c66    52 0001:00015c6e    53 0001:00015cad
    54 0001:00015cef    55 0001:00015cf7    56 0001:00015d36    57 0001:00015d8a
    59 0001:00015fa0    63 0001:00015fd8    65 0001:00015feb    66 0001:00015fff
    71 0001:00016008    74 0001:00016014    75 0001:00016021    80 0001:00016038
    81 0001:00016066    83 0001:0001606f    84 0001:00016077    86 0001:000160bc
    87 0001:000160e6    89 0001:000160e8    90 0001:00016108    92 0001:00016132
    94 0001:00016147    95 0001:00016153    96 0001:0001615b    98 0001:000161a0
    99 0001:000161af   100 0001:000161b1   101 0001:000161b9   103 0001:000161fe
   104 0001:00016228   105 0001:0001622a   106 0001:00016232   108 0001:00016277
   109 0001:0001629a   110 0001:0001629c   111 0001:000162a4   113 0001:000162ed
   115 0001:00016307   116 0001:0001632a   117 0001:0001633b   118 0001:00016394
   119 0001:000163a9   120 0001:00016402   121 0001:0001645b   122 0001:000164b4
   123 0001:0001650d   124 0001:0001651c   125 0001:0001652b   126 0001:0001653a
   127 0001:00016549   129 0001:00016558   130 0001:00016567   131 0001:0001656c
   132 0001:00016574   133 0001:000165b9   135 0001:000165ca   139 0001:000165d2
   142 0001:00016606   143 0001:00016628   144 0001:0001662c   145 0001:00016634
   147 0001:00016679   149 0001:00016698   150 0001:0001669c   152 0001:000166ab
   153 0001:000166ad   154 0001:000166b5   155 0001:000166c2   157 0001:00016707
   159 0001:00016726   160 0001:0001672a   162 0001:00016739   166 0001:0001673b
   167 0001:00016743   168 0001:00016750   170 0001:00016795   172 0001:000167b4
   173 0001:000167b8   175 0001:000167c7   176 0001:000167c9   177 0001:000167d4
   179 0001:00016822   181 0001:00016844   182 0001:00016848   183 0001:0001685a
   189 0001:00016871   192 0001:00016885   193 0001:00016887   194 0001:0001689b
   195 0001:000168a0   196 0001:000168ab   198 0001:000168f9   202 0001:00016918
   203 0001:0001692f   205 0001:00016946   218 0001:0001694b   221 0001:00016be0
   222 0001:00016c18   224 0001:00016c20   226 0001:00016c33   227 0001:00016c4c
   228 0001:00016c77   229 0001:00016c9e   230 0001:00016cc5   231 0001:00016cec
   233 0001:00016d08   235 0001:00016d3b   238 0001:00016d4d   240 0001:00016d6b
   242 0001:00016d92   244 0001:00016d9f   245 0001:00016dc6   247 0001:00016dda
   249 0001:00016df6   250 0001:00016e43   251 0001:00016e59   252 0001:00016e75
   253 0001:00016e8a   257 0001:00016e99   258 0001:00016e9e   260 0001:00016eba
   261 0001:00016f04   262 0001:00016f1a   263 0001:00016f36   265 0001:00016f45
   266 0001:00016f4a   268 0001:00016f66   269 0001:00016fb9   270 0001:00016fce
   271 0001:00016fea   273 0001:00016ff9   274 0001:00016ffe   276 0001:0001701a
   277 0001:00017076   278 0001:0001708c   279 0001:000170a7   281 0001:000170b6
   282 0001:000170bb   284 0001:000170d7   285 0001:00017133   286 0001:00017149
   287 0001:00017165   289 0001:00017174   290 0001:00017179   292 0001:00017195
   293 0001:000171f1   294 0001:00017206   295 0001:00017222   297 0001:00017231
   298 0001:00017236   300 0001:00017252   301 0001:000172ae   302 0001:000172c4
   303 0001:000172e2   307 0001:000172f1   308 0001:000172f6   310 0001:000172fe
   312 0001:000174f0   313 0001:00017513   314 0001:00017527   315 0001:00017546
   317 0001:00017565   318 0001:00017577   321 0001:00017596   323 0001:000175b5
   324 0001:000175dd   326 0001:00017605   327 0001:0001762d   329 0001:00017655
   330 0001:0001765c   331 0001:00017663   332 0001:0001766b   334 0001:000176aa
   335 0001:000176c8   336 0001:000176e6   337 0001:000176ef   338 0001:000176f8
   339 0001:000176fa   340 0001:00017702   342 0001:00017741   343 0001:0001775f
   344 0001:0001777d   345 0001:00017786   346 0001:0001778f   348 0001:00017791
   349 0001:00017799   351 0001:000177d8   352 0001:000177f6   353 0001:00017814
   354 0001:0001781d   355 0001:00017826   357 0001:00017828   358 0001:00017830
   360 0001:0001786f   361 0001:0001788d   362 0001:00017896   364 0001:00017898
   365 0001:000178a0   367 0001:000178df   368 0001:000178fd   369 0001:00017906
   371 0001:00017908   373 0001:00017928   374 0001:0001793a   375 0001:0001795d
   376 0001:00017980   377 0001:00017982   379 0001:00017ac0   380 0001:00017af8
   382 0001:00017b11   383 0001:00017b20   385 0001:00017b2d   386 0001:00017b5a
   387 0001:00017b6f   388 0001:00017b7c   389 0001:00017b84   390 0001:00017b91
   391 0001:00017ba0   392 0001:00017ba5   394 0001:00017bbe   395 0001:00017bc2
   396 0001:00017bca   397 0001:00017bd1   399 0001:00017c27   400 0001:00017c30
   402 0001:00017c56   404 0001:00017c5a   405 0001:00017c60   406 0001:00017c66
   407 0001:00017c6e   408 0001:00017c81   411 0001:00017c99   413 0001:00017c9e
   414 0001:00017ca3   416 0001:00017cbc   417 0001:00017cc0   418 0001:00017cc8
   419 0001:00017cd2   421 0001:00017d2c   422 0001:00017d3b   424 0001:00017d5e
   426 0001:00017d62   427 0001:00017d6b   428 0001:00017d74   429 0001:00017d82
   430 0001:00017d98   432 0001:00017db3   434 0001:00017db8   435 0001:00017dbd
   437 0001:00017dd6   438 0001:00017ddd   439 0001:00017de8   440 0001:00017df2
   442 0001:00017e58   443 0001:00017e67   445 0001:00017e91   446 0001:00017e98
   447 0001:00017ead   448 0001:00017ec9   450 0001:00017f2e   452 0001:00017f33
   453 0001:00017f38   455 0001:00017f51   456 0001:00017f58   457 0001:00017f63
   458 0001:00017f6d   460 0001:00017fd3   461 0001:00017fe2   463 0001:0001800c
   464 0001:00018013   465 0001:0001802e   467 0001:0001803b   469 0001:0001804a
   470 0001:00018053   471 0001:0001805c   472 0001:0001806a   473 0001:0001808e
   474 0001:000180cb   475 0001:000180e9   476 0001:0001810b   479 0001:00018120
   481 0001:00018125   483 0001:000182f0   484 0001:00018328   485 0001:0001832e
   488 0001:00018342   490 0001:00018379   492 0001:000183a9   493 0001:000183b1
   494 0001:000183c5   495 0001:000183f5   496 0001:0001841a   497 0001:0001843c
   499 0001:00018442   501 0001:0001845c   502 0001:0001846b   503 0001:00018481
   504 0001:00018494   505 0001:000184a3   508 0001:000184b4   510 0001:000184b9
   512 0001:000184e5   513 0001:000184ed   514 0001:00018501   515 0001:00018534
   517 0001:0001855c   519 0001:00018561   521 0001:00018591   522 0001:00018599
   523 0001:000185b0   524 0001:000185e3   525 0001:00018606   527 0001:00018629
   528 0001:00018654   529 0001:00018673   530 0001:0001868e   531 0001:000186b7
   532 0001:000186bc   537 0001:000186ce   539 0001:00018840   540 0001:00018878
   541 0001:00018897   543 0001:000188a1   547 0001:000188ab   548 0001:000188bf
   550 0001:000188d1   551 0001:000188ef   553 0001:0001890a   554 0001:00018919
   556 0001:00018946   559 0001:00018966   560 0001:0001897a   561 0001:0001898c
   567 0001:0001899e   569 0001:000189b1   570 0001:000189d0   576 0001:000189da
   577 0001:000189f8   580 0001:00018a13   582 0001:00018a32   585 0001:00018a41
   586 0001:00018a51   588 0001:00018a63   590 0001:00018a65   592 0001:00018a72
   593 0001:00018a84   594 0001:00018a94   595 0001:00018aa6   597 0001:00018b70
   599 0001:00018ba8   600 0001:00018bc0   601 0001:00018be4   607 0001:00018bf1
   608 0001:00018c12   610 0001:00018c36   611 0001:00018c45   613 0001:00018c64
   615 0001:00018c7c   617 0001:00018c8d   619 0001:00018c8f   620 0001:00018ca1
   621 0001:00018cbc   622 0001:00018cce   625 0001:00018ce0   626 0001:00018cf4
   628 0001:00018d09   630 0001:00018d0b   631 0001:00018d26   633 0001:00018d35
   635 0001:00018dd0   636 0001:00018ded   637 0001:00018df4   638 0001:00018dfb
   639 0001:00018e02   641 0001:00018e22   643 0001:00018e48   645 0001:00018e74
   646 0001:00018e89   649 0001:00018e8f   650 0001:00018e94   651 0001:00018e97
   653 0001:00018ee0   654 0001:00018efd   655 0001:00018f0b   657 0001:00018f25
   658 0001:00018f43   659 0001:00018f52   661 0001:00018f58   662 0001:00018f86
   664 0001:00018f91   665 0001:00018f93   667 0001:00018fe0   669 0001:00018ffd
   672 0001:00019010   673 0001:00019061   674 0001:00019070   675 0001:0001907d
   676 0001:0001909a   677 0001:000190b2   679 0001:00019180   681 0001:000191a6
   688 0001:000191e0   691 0001:00019203   692 0001:00019218   693 0001:0001921e
   695 0001:0001922c   696 0001:0001923a   697 0001:00019249   699 0001:00019280
   701 0001:0001929d   703 0001:000192ae   704 0001:000192c2   706 0001:000192ca
   708 0001:00019300   709 0001:0001931d   714 0001:00019328   716 0001:0001933b
   717 0001:0001933d   719 0001:00019370   720 0001:0001938d   722 0001:00019398
   723 0001:000193ad   725 0001:000193b2   726 0001:000193b7   728 0001:000193e0
   729 0001:000193fd   731 0001:00019408   732 0001:0001941c   733 0001:00019429
   735 0001:0001943a   737 0001:00019470   738 0001:0001948d   739 0001:000194aa
   740 0001:000194ba   742 0001:000194f0   743 0001:0001950d   744 0001:0001951d
   745 0001:0001952e   747 0001:00019560   748 0001:0001957d   749 0001:0001958c
   750 0001:0001959b   751 0001:0001959f   752 0001:000195b1   753 0001:000195b5
   754 0001:000195b8   756 0001:000195f0   757 0001:0001960d   758 0001:00019618
   760 0001:00019630   761 0001:0001964d   762 0001:00019655   764 0001:00019670
   765 0001:0001968d   766 0001:000196aa   768 0001:000196d0   769 0001:000196ed
   771 0001:0001970a   772 0001:00019729   773 0001:0001972e   774 0001:00019730
   775 0001:00019733   777 0001:00019770   778 0001:000197a9   780 0001:000197b9
   782 0001:000197d6   783 0001:000197f7   785 0001:000197f9   787 0001:00019860
   788 0001:00019899   790 0001:000198a9   792 0001:000198c6   793 0001:000198f0
   795 0001:000198f2   797 0001:00019950   798 0001:00019973   803 0001:00019977
   804 0001:00019992   805 0001:000199aa   806 0001:000199ae   807 0001:000199b0
   808 0001:000199d6   809 0001:000199f5   810 0001:00019a12   811 0001:00019a14
   813 0001:00019aa0   814 0001:00019bf0   817 0001:00019d00   818 0001:00019d55
   819 0001:00019d5f   820 0001:00019d66   821 0001:00019d70   823 0001:00019e30
   824 0001:00019e72   825 0001:00019e7c   826 0001:00019e86   827 0001:00019e90
   829 0001:00019ef0   832 0001:00019f0d   833 0001:00019f2f   834 0001:00019f38
   835 0001:00019f41   837 0001:00019f4e   839 0001:00019f80   840 0001:00019f88
   841 0001:00019f9f   843 0001:00019fa8   845 0001:00019fb6   846 0001:00019fc5
   848 0001:00019fd1   850 0001:00019fd3   851 0001:00019fdf   855 0001:00019fe8
   857 0001:00019fea   860 0001:0001a009   862 0001:0001a00b   863 0001:0001a01f
   865 0001:0001a02b   867 0001:0001a0a0   869 0001:0001a0c3   870 0001:0001a0cb
   871 0001:0001a0d2   872 0001:0001a0d9   873 0001:0001a0e1   875 0001:0001a0ff
   876 0001:0001a10e   878 0001:0001a125   879 0001:0001a15b   880 0001:0001a173
   882 0001:0001a17d   883 0001:0001a198   884 0001:0001a1b3   886 0001:0001a1bb
   887 0001:0001a1c1   888 0001:0001a1cf   890 0001:0001a1de   891 0001:0001a1eb
   893 0001:0001a1fd   897 0001:0001a211   898 0001:0001a216   900 0001:0001a220
   901 0001:0001a224   902 0001:0001a24c   903 0001:0001a254   905 0001:0001a2a1
   907 0001:0001a2d6   908 0001:0001a30c   909 0001:0001a314   911 0001:0001a318
   925 0001:0001a35a   927 0001:0001a35e   928 0001:0001a363   930 0001:0001a370
   931 0001:0001a398   932 0001:0001a3c0   935 0001:0001a3db   936 0001:0001a3de
   938 0001:0001a4d0   940 0001:0001a4ed   942 0001:0001a51e   943 0001:0001a526
   945 0001:0001a544   946 0001:0001a553   947 0001:0001a57e   948 0001:0001a58b
   950 0001:0001a5ac   951 0001:0001a5cd   952 0001:0001a5e8   954 0001:0001a5f4
   955 0001:0001a5fa   956 0001:0001a608   957 0001:0001a612   959 0001:0001a61d
   960 0001:0001a62a   962 0001:0001a634   964 0001:0001a63f   965 0001:0001a64c
   967 0001:0001a656   969 0001:0001a672   970 0001:0001a687   974 0001:0001a69a
   977 0001:0001a69f   979 0001:0001a730   981 0001:0001a74d   983 0001:0001a75a
   984 0001:0001a763   986 0001:0001a781   987 0001:0001a793   988 0001:0001a7a5
   990 0001:0001a7c9   991 0001:0001a7ea   992 0001:0001a7f4   994 0001:0001a802
   995 0001:0001a812   997 0001:0001a81c   999 0001:0001a838  1000 0001:0001a84b
  1003 0001:0001a860  1006 0001:0001a865  1008 0001:0001a8d0  1009 0001:0001a8ed
  1011 0001:0001a8f4  1012 0001:0001a8fb  1014 0001:0001a919  1015 0001:0001a945
  1017 0001:0001a963  1018 0001:0001a98b  1020 0001:0001a993  1021 0001:0001a9b6
  1023 0001:0001a9be  1024 0001:0001a9c4  1025 0001:0001a9d0  1028 0001:0001a9df
  1029 0001:0001a9e4  1030 0001:0001a9e9  1031 0001:0001a9ef  1032 0001:0001a9f9
  1033 0001:0001a9fc  1035 0001:0001aa60  1038 0001:0001aa83  1039 0001:0001aaa3
  1040 0001:0001aabe  1041 0001:0001aad7  1043 0001:0001ab00  1044 0001:0001ab16
  1045 0001:0001ab57  1046 0001:0001ab59  1047 0001:0001ab74  1048 0001:0001ab96
  1049 0001:0001abb1  1050 0001:0001abbd  1051 0001:0001abd6  1052 0001:0001abd8
  1053 0001:0001abf1  1054 0001:0001abfa  1055 0001:0001ac24  1056 0001:0001ac3f
  1058 0001:0001acd0  1059 0001:0001aced  1060 0001:0001acfd  1061 0001:0001ad21
  1064 0001:0001ad50  1065 0001:0001ada5  1066 0001:0001adaf  1067 0001:0001adb9
  1068 0001:0001adc3  1069 0001:0001adcd  1070 0001:0001add7  1071 0001:0001adde
  1073 0001:0001aea0  1075 0001:0001af40  1076 0001:0001af5d  1077 0001:0001af74
  1078 0001:0001af83  1079 0001:0001af89  1081 0001:0001afb0  1083 0001:0001afcd
  1084 0001:0001afd1  1086 0001:0001afdc  1087 0001:0001afeb  1088 0001:0001b005
  1090 0001:0001b009  1091 0001:0001b00c  1093 0001:0001b040  1094 0001:0001b05d
  1095 0001:0001b061  1097 0001:0001b067  1099 0001:0001b072  1100 0001:0001b08c
  1101 0001:0001b09b  1104 0001:0001b09f  1105 0001:0001b0a1  1106 0001:0001b0bb
  1107 0001:0001b0be  1109 0001:0001b100  1110 0001:0001b11d  1111 0001:0001b120
  1113 0001:0001b130  1114 0001:0001b14d  1115 0001:0001b157  1116 0001:0001b161
  1117 0001:0001b16d  1118 0001:0001b179  1119 0001:0001b188  1121 0001:0001b1c0
  1123 0001:0001b1e3  1124 0001:0001b202  1125 0001:0001b21a  1126 0001:0001b233
  1128 0001:0001b247  1131 0001:0001b290  1132 0001:0001b2be  1133 0001:0001b2c8
  1135 0001:0001b360  1137 0001:0001b3b0  1144 0001:0001b3cd  1145 0001:0001b3f7
  1147 0001:0001b420  1149 0001:0001b43d  1152 0001:0001b450  1154 0001:0001b47e
  1157 0001:0001b520  1158 0001:0001b578  1159 0001:0001b582  1161 0001:0001b640
  1163 0001:0001b6e0  1164 0001:0001b6fd  1165 0001:0001b701  1167 0001:0001b71e
  1168 0001:0001b730  1169 0001:0001b742  1170 0001:0001b74e  1171 0001:0001b752
  1172 0001:0001b754  1174 0001:0001b761  1175 0001:0001b76a  1177 0001:0001b779
  1178 0001:0001b77b  1180 0001:0001b78a  1182 0001:0001b79c  1183 0001:0001b7ab
  1185 0001:0001b7b5  1187 0001:0001b7be  1188 0001:0001b7cd  1190 0001:0001b7d7
  1192 0001:0001b7e4  1194 0001:0001b805  1195 0001:0001b817  1197 0001:0001b81d
  1198 0001:0001b83e  1200 0001:0001b868  1201 0001:0001b896  1203 0001:0001b89b
  1204 0001:0001b8a3  1206 0001:0001b930  1207 0001:0001b953  1209 0001:0001b95b
  1210 0001:0001b97d  1211 0001:0001b998  1213 0001:0001b9d0  1214 0001:0001b9ed
  1215 0001:0001b9fd  1216 0001:0001ba24  1217 0001:0001ba30  1220 0001:0001ba60
  1221 0001:0001bb67  1222 0001:0001bb71  1223 0001:0001bb7e  1224 0001:0001bb8b
  1225 0001:0001bb98  1227 0001:0001bbb5  1228 0001:0001bbc9  1229 0001:0001bbec
  1230 0001:0001bc0f  1231 0001:0001bc11  1232 0001:0001bc1b  1234 0001:0001bd30
  1236 0001:0001bea0  1239 0001:0001bec3  1240 0001:0001bef1  1241 0001:0001bf0c
  1242 0001:0001bf25  1244 0001:0001bf52  1246 0001:0001bf68  1247 0001:0001bf7e
  1249 0001:0001bfdb  1250 0001:0001bfe0  1251 0001:0001bffb  1252 0001:0001c014
  1254 0001:0001c041  1256 0001:0001c057  1257 0001:0001c06d  1259 0001:0001c0ca
  1262 0001:0001c0cf  1264 0001:0001c180  1265 0001:0001c19d  1266 0001:0001c1a0
  1268 0001:0001c1b0  1270 0001:0001c1cd  1271 0001:0001c1d4  1272 0001:0001c1e6
  1284 0001:0001c1f8  1285 0001:0001c21e  1286 0001:0001c233  1287 0001:0001c235
  1293 0001:0001c269  1294 0001:0001c276  1295 0001:0001c279  1297 0001:0001c2d0
  1298 0001:0001c2ed  1299 0001:0001c2f4  1300 0001:0001c306  1301 0001:0001c318
  1302 0001:0001c329  1303 0001:0001c32c  1305 0001:0001c360  1306 0001:0001c383
  1307 0001:0001c393  1308 0001:0001c3b7  1309 0001:0001c3db  1311 0001:0001c3ff
  1312 0001:0001c419  1313 0001:0001c422  1314 0001:0001c430  1315 0001:0001c45b
  1316 0001:0001c47d  1318 0001:0001c4e0  1319 0001:0001c4fd  1321 0001:0001c51b
  1323 0001:0001c53c  1324 0001:0001c54e  1325 0001:0001c565  1327 0001:0001c56f
  1328 0001:0001c576  1329 0001:0001c5ac  1330 0001:0001c5cb  1331 0001:0001c5ea
  1332 0001:0001c5f0  1334 0001:0001c606  1335 0001:0001c60b  1337 0001:0001c619
  1339 0001:0001c680  1340 0001:0001c69d  1341 0001:0001c6b4  1342 0001:0001c6cd
  1343 0001:0001c6e9  1344 0001:0001c70b  1345 0001:0001c71a  1346 0001:0001c729
  1348 0001:0001c7d0  1349 0001:0001c7ed  1350 0001:0001c800  1351 0001:0001c806
  1352 0001:0001c81c  1353 0001:0001c81e  1354 0001:0001c836  1356 0001:0001c870
  1357 0001:0001c88d  1359 0001:0001c8ab  1361 0001:0001c8cc  1362 0001:0001c8de
  1363 0001:0001c8f0  1364 0001:0001c905  1365 0001:0001c91a  1367 0001:0001c924
  1369 0001:0001c92c  1370 0001:0001c932  1371 0001:0001c946  1372 0001:0001c948
  1373 0001:0001c950  1375 0001:0001c964  1377 0001:0001c970  1379 0001:0001c978
  1380 0001:0001c97a  1381 0001:0001c982  1382 0001:0001c999  1385 0001:0001c9ad
  1387 0001:0001c9b7  1388 0001:0001c9bf  1389 0001:0001c9ef  1390 0001:0001c9f7
  1392 0001:0001ca27  1393 0001:0001ca2c  1395 0001:0001ca3b  1397 0001:0001ca60
  1399 0001:0001ca81  1400 0001:0001ca93  1401 0001:0001caa5  1403 0001:0001caab
  1404 0001:0001cac2  1405 0001:0001cae6  1406 0001:0001cafa  1408 0001:0001cb10
  1409 0001:0001cb24  1410 0001:0001cb38  1411 0001:0001cb3d  1413 0001:0001cb4c
  1415 0001:0001cc20  1416 0001:0001cc3d  1417 0001:0001cc44  1419 0001:0001cc62
  1420 0001:0001cc6e  1421 0001:0001cca3  1423 0001:0001ccc9  1424 0001:0001cce6
  1426 0001:0001cd01  1427 0001:0001cd06  1428 0001:0001cd09  1430 0001:0001cd60
  1431 0001:0001cd7d  1432 0001:0001cda8  1433 0001:0001cdbd  1434 0001:0001cdd3
  1437 0001:0001ce10  1438 0001:0001ce3e  1439 0001:0001ce48  1441 0001:0001cee0
  1443 0001:0001cf30  1444 0001:0001cf4d  1445 0001:0001cf60  1447 0001:0001cf90
  1448 0001:0001cfad  1449 0001:0001cfbd  1451 0001:0001cfda  1452 0001:0001cfee
  1453 0001:0001cff0  1456 0001:0001d020  1458 0001:0001d046  1459 0001:0001d050
  1461 0001:0001d0e0  1463 0001:0001d120  1464 0001:0001d13d  1465 0001:0001d140
  1467 0001:0001d150  1468 0001:0001d16d  1469 0001:0001d17d  1471 0001:0001d1a0
  1476 0001:0001d1bd  1478 0001:0001d1d0  1479 0001:0001d1ed  1480 0001:0001d1f9
  1482 0001:0001d210  1483 0001:0001d22d  1484 0001:0001d237  1486 0001:0001d250
  1487 0001:0001d26d  1488 0001:0001d276  1489 0001:0001d295  1491 0001:0001d2c0
  1492 0001:0001d2dd  1493 0001:0001d2e3  1497 0001:0001d300  1498 0001:0001d331
  1499 0001:0001d33b  1501 0001:0001d3e0  1503 0001:0001d440  1504 0001:0001d463
  1505 0001:0001d46a  1508 0001:0001d471  1509 0001:0001d493  1510 0001:0001d49c
  1512 0001:0001d4a5  1514 0001:0001d4c3  1516 0001:0001d4ed  1518 0001:0001d4f9
  1519 0001:0001d521  1521 0001:0001d52a  1524 0001:0001d53c  1526 0001:0001d54e
  1528 0001:0001d558  1529 0001:0001d565  1530 0001:0001d578  1532 0001:0001d584
  1533 0001:0001d588  1534 0001:0001d590  1536 0001:0001d5d5  1537 0001:0001d60d
  1538 0001:0001d611  1539 0001:0001d613  1541 0001:0001d620  1542 0001:0001d626
  1543 0001:0001d62c  1547 0001:0001d632  1548 0001:0001d637  1550 0001:0001d63d
  1551 0001:0001d662  1553 0001:0001d67b  1555 0001:0001d730  1556 0001:0001d74d
  1557 0001:0001d75c  1560 0001:0001d780  1561 0001:0001d7a5  1562 0001:0001d7af
  1563 0001:0001d7b9  1566 0001:0001d7e0  1568 0001:0001d890  1570 0001:0001d8d0
  1571 0001:0001d909  1572 0001:0001d917  1574 0001:0001d9b0  1575 0001:0001d9cd
  1576 0001:0001d9d4  1577 0001:0001d9e9  1578 0001:0001d9fa  1579 0001:0001d9fd
  1581 0001:0001da30  1585 0001:0001da53  1586 0001:0001da71  1589 0001:0001da8d
  1591 0001:0001daa5  1593 0001:0001daac  1594 0001:0001daae  1596 0001:0001dac6
  1599 0001:0001dad2  1601 0001:0001dae6  1602 0001:0001dae8  1604 0001:0001db40
  1608 0001:0001db78  1610 0001:0001db8a  1611 0001:0001dba8  1614 0001:0001dbcc
  1616 0001:0001dbe4  1617 0001:0001dbf5  1619 0001:0001dbfc  1621 0001:0001dc14
  1622 0001:0001dc36  1623 0001:0001dc4e  1624 0001:0001dc58  1626 0001:0001dc62
  1627 0001:0001dc67  1629 0001:0001dc7f  1631 0001:0001dca1  1632 0001:0001dcc1
  1633 0001:0001dcd3  1634 0001:0001dcdd  1636 0001:0001dce7  1637 0001:0001dcec
  1639 0001:0001dd04  1641 0001:0001dd26  1642 0001:0001dd2b  1644 0001:0001dd43
  1646 0001:0001dd65  1647 0001:0001dd67  1649 0001:0001dd7f  1650 0001:0001dda1
  1651 0001:0001ddb9  1654 0001:0001ddc8  1655 0001:0001dddc  1656 0001:0001ddfb
  1658 0001:0001dee0  1660 0001:0001defd  1662 0001:0001df03  1663 0001:0001df10
  1664 0001:0001df2a  1665 0001:0001df40  1666 0001:0001df45  1667 0001:0001df47
  1668 0001:0001df4a  1670 0001:0001df80  1672 0001:0001df9d  1673 0001:0001dfaa
  1674 0001:0001dfc4  1675 0001:0001dfe6  1676 0001:0001dfeb  1677 0001:0001dff0
  1678 0001:0001e070  1681 0001:0001e180  1682 0001:0001e1e0  1683 0001:0001e1ea
  1684 0001:0001e1f4  1685 0001:0001e1fe  1686 0001:0001e208  1688 0001:0001e2d0
  1690 0001:0001e370  1691 0001:0001e393  1693 0001:0001e397  1694 0001:0001e3af
  1696 0001:0001e3d3  1698 0001:0001e3e0  1702 0001:0001e3e4  1706 0001:0001e3eb
  1707 0001:0001e40c  1710 0001:0001e430  1712 0001:0001e448  1713 0001:0001e467
  1714 0001:0001e490  1716 0001:0001e4a1  1717 0001:0001e4a6  1719 0001:0001e4be
  1721 0001:0001e4d9  1722 0001:0001e4de  1724 0001:0001e4f6  1726 0001:0001e511
  1727 0001:0001e516  1729 0001:0001e52e  1731 0001:0001e549  1732 0001:0001e54e
  1734 0001:0001e566  1736 0001:0001e581  1737 0001:0001e583  1739 0001:0001e5a2
  1741 0001:0001e5b8  1742 0001:0001e5ba  1744 0001:0001e5d2  1747 0001:0001e5e1
  1748 0001:0001e5f5  1750 0001:0001e60a  1752 0001:0001e60c  1753 0001:0001e627
  1755 0001:0001e636  1756 0001:0001e639  1758 0001:0001e710  1759 0001:0001e749
  1760 0001:0001e75c  1761 0001:0001e76a  1763 0001:0001e784  1764 0001:0001e7a4
  1765 0001:0001e7d8  1766 0001:0001e7da  1767 0001:0001e7fe  1769 0001:0001e860
  1770 0001:0001e898  1771 0001:0001e89c  1775 0001:0001e8ab  1777 0001:0001e8bb
  1778 0001:0001e8d6  1780 0001:0001e8ee  1781 0001:0001e8fd  1783 0001:0001e901
  1784 0001:0001e903  1786 0001:0001e929  1788 0001:0001e948  1789 0001:0001e965
  1790 0001:0001e981  1792 0001:0001eaa0  1793 0001:0001eac3  1796 0001:0001eac7
  1798 0001:0001eae2  1800 0001:0001eafa  1802 0001:0001eafe  1803 0001:0001eb00
  1805 0001:0001eb26  1807 0001:0001eb38  1808 0001:0001eb56  1809 0001:0001eb58
  1814 0001:0001ebb0  1815 0001:0001ec34  1816 0001:0001ec3e  1818 0001:0001ed00
  1820 0001:0001edd0  1821 0001:0001eded  1824 0001:0001edfd  1825 0001:0001ee0b
  1828 0001:0001ee29  1829 0001:0001ee3e  1830 0001:0001ee6a  1831 0001:0001ee6c
  1832 0001:0001ee81  1833 0001:0001ee9e  1834 0001:0001eea4  1835 0001:0001eeb6
  1836 0001:0001eebb  1838 0001:0001ef10  1840 0001:0001ef33  1841 0001:0001ef44
  1843 0001:0001ef4c  1844 0001:0001ef50  1845 0001:0001ef62  1846 0001:0001ef66
  1847 0001:0001ef6b  1855 0001:0001ef89  1856 0001:0001ef90  1858 0001:0001efa1
  1860 0001:0001efbf  1862 0001:0001efe8  1863 0001:0001f00e  1865 0001:0001f04b
  1866 0001:0001f070  1869 0001:0001f0a6  1871 0001:0001f0ab  1873 0001:0001f0b1
  1874 0001:0001f0d2  1875 0001:0001f0ec  1877 0001:0001f10f  1879 0001:0001f134
  1880 0001:0001f159  1881 0001:0001f16d  1883 0001:0001f18e  1885 0001:0001f193
  1888 0001:0001f1a9  1889 0001:0001f1c0  1890 0001:0001f1d8  1892 0001:0001f1eb
  1893 0001:0001f1f9  1894 0001:0001f206  1895 0001:0001f223  1896 0001:0001f245
  1897 0001:0001f254  1898 0001:0001f25e  1899 0001:0001f26b  1901 0001:0001f278
  1903 0001:0001f27d  1904 0001:0001f284  1905 0001:0001f28d  1906 0001:0001f2b2
  1907 0001:0001f2b4  1908 0001:0001f2c0  1910 0001:0001f2ca  1911 0001:0001f2d8
  1913 0001:0001f2f9  1914 0001:0001f308  1915 0001:0001f31d  1917 0001:0001f333
  1918 0001:0001f345  1920 0001:0001f34f  1921 0001:0001f35a  1924 0001:0001f363
  1925 0001:0001f371  1926 0001:0001f37a  1927 0001:0001f390  1928 0001:0001f3a2
  1929 0001:0001f3ca  1934 0001:0001f3df  1936 0001:0001f3e4  1938 0001:0001f40d
  1939 0001:0001f417  1940 0001:0001f425  1941 0001:0001f433  1942 0001:0001f440
  1943 0001:0001f44d  1944 0001:0001f45a  1946 0001:0001f463  1948 0001:0001f474
  1949 0001:0001f476  1952 0001:0001f47f  1956 0001:0001f496  1957 0001:0001f4af
  1958 0001:0001f4b9  1959 0001:0001f4c6  1970 0001:0001f4e9  1971 0001:0001f4f4
  1973 0001:0001f539  1974 0001:0001f56d  1976 0001:0001f56f  1978 0001:0001f730
  1979 0001:0001f753  1981 0001:0001f75b  1982 0001:0001f76f  1984 0001:0001f79c
  1986 0001:0001f7b5  1987 0001:0001f7cb  1989 0001:0001f82e  1990 0001:0001f833
  1991 0001:0001f84e  1993 0001:0001f8b0  1995 0001:0001f8cd  1996 0001:0001f8de
  1998 0001:0001f8fc  2000 0001:0001f921  2002 0001:0001f99f  2004 0001:0001f9c8
  2006 0001:0001fa52  2007 0001:0001fa57  2009 0001:0001fae0  2010 0001:0001fb03
  2011 0001:0001fb14  2013 0001:0001fb1e  2014 0001:0001fb2f  2015 0001:0001fb49
  2016 0001:0001fb56  2018 0001:0001fb5d  2020 0001:0001fb8a  2022 0001:0001fba4
  2024 0001:0001fbad  2026 0001:0001fbb2  2027 0001:0001fbc5  2028 0001:0001fbd9
  2029 0001:0001fc07  2030 0001:0001fc1b  2031 0001:0001fc58  2032 0001:0001fc65
  2034 0001:0001fc6c  2035 0001:0001fc88  2037 0001:0001fc8d  2039 0001:0001fd20
  2040 0001:0001fd5c  2041 0001:0001fd6b  2043 0001:0001fd78  2044 0001:0001fd7f
  2045 0001:0001fd8e  2046 0001:0001fd9d  2047 0001:0001fda4  2048 0001:0001fdb3
  2049 0001:0001fdc2  2050 0001:0001fdce  2052 0001:0001fe40  2053 0001:0001fe5d
  2055 0001:0001fe64  2056 0001:0001fe75  2058 0001:0001fe7b  2059 0001:0001fe98
  2061 0001:0001febf  2062 0001:0001fed8  2064 0001:0001ff20  2065 0001:0001ff3d
  2066 0001:0001ff4e  2068 0001:0001ff54  2069 0001:0001ff79  2070 0001:0001ff92
  2071 0001:0001ffa0  2072 0001:0001ffa2  2073 0001:0001ffae  2074 0001:00020030
  2077 0001:00020130  2079 0001:00020161  2081 0001:00020200  2084 0001:00020260
  2086 0001:00020310  2088 0001:00020350  2089 0001:00020388  2090 0001:000203a6
  2096 0001:000203b0  2097 0001:000203b7  2099 0001:000203c9  2100 0001:000203e7
  2102 0001:0002040a  2104 0001:0002042d  2106 0001:00020445  2108 0001:0002044c
  2109 0001:00020451  2111 0001:00020469  2112 0001:00020470  2114 0001:00020477
  2115 0001:0002047c  2117 0001:000204dc  2118 0001:000204eb  2119 0001:00020501
  2120 0001:00020517  2121 0001:00020523  2122 0001:0002053b  2123 0001:00020553
  2124 0001:0002056b  2125 0001:00020583  2126 0001:0002059b  2127 0001:000205b3
  2128 0001:000205cb  2129 0001:000205e3  2131 0001:00020610  2132 0001:00020645
  2133 0001:00020673  2134 0001:000206a1  2135 0001:000206cf  2136 0001:000206d4
  2137 0001:000206e5  2140 0001:000206f4  2141 0001:00020707  2142 0001:00020719
  2143 0001:0002072b  2146 0001:0002072d  2147 0001:00020745  2149 0001:00020754
  2150 0001:000208c0  2153 0001:000209d0  2154 0001:000209f6  2155 0001:00020a1f
  2156 0001:00020a48  2157 0001:00020a71  2158 0001:00020a9a  2159 0001:00020ac3
  2161 0001:00020b90  2163 0001:00020bd0  2165 0001:00020bed  2166 0001:00020c0c
  2167 0001:00020c2b  2168 0001:00020c74  2170 0001:00020cc0  2172 0001:00020cdd
  2173 0001:00020cfc  2174 0001:00020d1b  2175 0001:00020d51  2177 0001:00020d90
  2178 0001:00020dad  2179 0001:00020dc6  2180 0001:00020ddf  2181 0001:00020df8
  2182 0001:00020e11  2183 0001:00020e2a  2185 0001:00020e70  2186 0001:00020e8d
  2187 0001:00020e91  2189 0001:00020e9e  2190 0001:00020ea2  2192 0001:00020eae
  2193 0001:00020ecc  2195 0001:00020ed0  2197 0001:00020edc  2198 0001:00020efa
  2200 0001:00020efe  2202 0001:00020f0a  2203 0001:00020f28  2205 0001:00020f2c
  2206 0001:00020f50  2208 0001:00020f54  2209 0001:00020f57  2212 0001:00020fb0
  2213 0001:00021084  2214 0001:0002108b  2215 0001:000210ac  2216 0001:000210bd
  2217 0001:000210ca  2218 0001:000210d4  2219 0001:000210de  2221 0001:000211d0
  2222 0001:00021212  2223 0001:0002123a  2225 0001:00021330  2226 0001:0002134d
  2227 0001:00021355  2229 0001:00021380  2230 0001:0002139d  2232 0001:000213ac
  2234 0001:000213b8  2235 0001:000213c9  2237 0001:000213d0  2238 0001:000213d2
  2240 0001:000213e9  2241 0001:000213f4  2242 0001:00021402  2245 0001:00021409
  2246 0001:0002140b  2247 0001:00021412  2249 0001:00021450  2250 0001:0002146d
  2251 0001:0002147b  2252 0001:0002148b  2253 0001:0002149c  2254 0001:000214b9
  2255 0001:000214dd  2257 0001:000214e4  2258 0001:000214ea  2260 0001:000214f4
  2261 0001:00021500  2262 0001:00021509  2263 0001:00021524  2264 0001:0002152d
  2265 0001:00021549  2266 0001:00021552  2267 0001:0002156e  2268 0001:0002157b
  2269 0001:00021598  2271 0001:000215b5  2272 0001:000215b7  2274 0001:00021630
  2275 0001:0002164d  2276 0001:00021651  2278 0001:0002165b  2279 0001:00021678
  2280 0001:00021699  2281 0001:0002169d  2283 0001:000216b0  2284 0001:000216cd
  2285 0001:000216ed  2286 0001:00021704  2287 0001:0002171a  2288 0001:00021724
  2289 0001:00021732  2292 0001:00021754  2293 0001:00021757  2295 0001:000217c0
  2296 0001:000217dd  2297 0001:000217e9  2298 0001:0002180d  2299 0001:00021829
  2301 0001:00021860  2302 0001:0002187d  2303 0001:0002188b  2306 0001:000218a5
  2308 0001:000218c6  2309 0001:00021917  2310 0001:0002191c  2312 0001:00021970
  2313 0001:00021993  2314 0001:000219a1  2316 0001:000219ab  2317 0001:000219bc
  2318 0001:000219d3  2319 0001:000219e0  2321 0001:000219e7  2323 0001:00021a14
  2325 0001:00021a2e  2327 0001:00021a37  2329 0001:00021a39  2330 0001:00021a4c
  2331 0001:00021a7a  2332 0001:00021a87  2334 0001:00021a8e  2335 0001:00021aaa
  2337 0001:00021aaf  2339 0001:00021b20  2340 0001:00021b43  2341 0001:00021b51
  2343 0001:00021b5b  2344 0001:00021b6c  2345 0001:00021b83  2346 0001:00021b90
  2348 0001:00021b97  2350 0001:00021bc4  2352 0001:00021bde  2354 0001:00021be7
  2356 0001:00021be9  2357 0001:00021bfc  2358 0001:00021c2a  2359 0001:00021c37
  2361 0001:00021c3e  2362 0001:00021c5a  2363 0001:00021c5f  2364 0001:00021c72
  2365 0001:00021c80  2368 0001:00021c9f  2370 0001:00021d20  2371 0001:00021d5c
  2372 0001:00021d6b  2374 0001:00021d78  2375 0001:00021d7f  2376 0001:00021d8e
  2377 0001:00021d9d  2378 0001:00021da4  2379 0001:00021db3  2380 0001:00021dc2
  2381 0001:00021dc9  2382 0001:00021dd8  2383 0001:00021de7  2384 0001:00021df3
  2386 0001:00021e70  2387 0001:00021e8d  2388 0001:00021e94  2389 0001:00021e9d
  2390 0001:00021eb1  2392 0001:00021ed2  2393 0001:00021ee1  2395 0001:00021eeb
  2396 0001:00021efd  2398 0001:00021f3c  2400 0001:00021f5b  2401 0001:00021f80
  2403 0001:00021f8a  2404 0001:00021f9b  2406 0001:00021fa0  2407 0001:00021fa9
  2409 0001:00021fb1  2410 0001:00021fd7  2412 0001:00022011  2414 0001:00022018
  2416 0001:0002201a  2417 0001:00022023  2418 0001:00022049  2423 0001:00022083
  2425 0001:00022088  2426 0001:0002208d  2427 0001:00022090  2429 0001:00022130
  2430 0001:0002214d  2431 0001:00022154  2432 0001:00022168  2434 0001:00022189
  2435 0001:00022198  2437 0001:000221a2  2438 0001:000221b4  2440 0001:000221f3
  2441 0001:00022212  2442 0001:00022237  2444 0001:00022241  2445 0001:00022252
  2447 0001:00022257  2448 0001:00022260  2450 0001:00022268  2451 0001:0002228e
  2452 0001:0002229e  2453 0001:000222b1  2455 0001:000222b8  2457 0001:000222ba
  2458 0001:000222c3  2459 0001:000222e9  2460 0001:000222f9  2464 0001:0002230c
  2466 0001:00022311  2467 0001:00022316  2468 0001:00022319  2470 0001:000223b0
  2471 0001:000223cd  2472 0001:000223f5  2473 0001:00022401  2474 0001:0002240a
  2475 0001:00022430  2476 0001:0002244f  2477 0001:00022458  2479 0001:00022480
  2480 0001:00022487  2482 0001:000224a5  2483 0001:000224d1  2485 0001:00022526
  2486 0001:00022548  2488 0001:00022551  2489 0001:00022556  2490 0001:00022580
  2491 0001:00022585  2493 0001:00022620  2494 0001:00022638  2495 0001:0002263f
  2496 0001:00022647  2498 0001:0002264f  2500 0001:00022663  2501 0001:000226a6
  2502 0001:000226ea  2503 0001:0002273f  2504 0001:00022741  2506 0001:00022796
  2507 0001:00022799  2509 0001:00022810  2510 0001:0002282d  2511 0001:00022830
  2513 0001:00022880  2517 0001:00022980  2518 0001:000229d5  2519 0001:000229dc
  2520 0001:00022a05  2521 0001:00022a23  2523 0001:00022af0  2525 0001:00022b90
  2526 0001:00022bad  2527 0001:00022bb4  2529 0001:00022bd5  2530 0001:00022bed
  2531 0001:00022c05  2532 0001:00022c14  2533 0001:00022c21  2534 0001:00022c3c
  2535 0001:00022c4f  2536 0001:00022c64  2537 0001:00022c79  2538 0001:00022c7e
  2540 0001:00022ce0  2541 0001:00022cfd  2543 0001:00022d1a  2544 0001:00022d39
  2545 0001:00022d5a  2546 0001:00022d7e  2547 0001:00022d8f  2548 0001:00022d94
  2549 0001:00022d9b  2550 0001:00022da3  2552 0001:00022df0  2553 0001:00022e0d
  2554 0001:00022e28  2555 0001:00022e2f  2556 0001:00022e39  2558 0001:00022e60
  2560 0001:00022e7d  2561 0001:00022e85  2562 0001:00022e8d  2563 0001:00022e94
  2565 0001:00022ec3  2566 0001:00022ee2  2567 0001:00022ef4  2568 0001:00022efe
  2569 0001:00022f08  2570 0001:00022f2a  2571 0001:00022f31  2574 0001:00022f80
  2575 0001:00022fb5  2576 0001:00022fbf  2577 0001:00022fc9  2578 0001:00022fd3
  2579 0001:00022fdd  2581 0001:00023080  2583 0001:000230e0  2584 0001:000230fd
  2586 0001:0002310a  2588 0001:00023130  2589 0001:00023144  2591 0001:00023151
  2592 0001:00023196  2593 0001:000231a5  2594 0001:000231a7  2596 0001:000231c3
  2598 0001:000231d4  2599 0001:00023236  2600 0001:00023245  2601 0001:00023247
  2603 0001:00023280  2605 0001:00023285  2607 0001:000232a6  2609 0001:000232d9
  2610 0001:000232fb  2612 0001:00023317  2613 0001:0002331b  2614 0001:00023349
  2615 0001:00023362  2616 0001:00023366  2617 0001:0002339f  2620 0001:000233bd
  2621 0001:00023415  2622 0001:0002342a  2623 0001:00023441  2624 0001:00023448
  2626 0001:00023469  2627 0001:0002347e  2628 0001:000234ac  2630 0001:000234b8
  2631 0001:000234bf  2632 0001:000234c7  2633 0001:000234cd  2634 0001:000234cf
  2635 0001:000234d5  2636 0001:000234ee  2637 0001:0002350e  2638 0001:0002351e
  2640 0001:00023522  2641 0001:00023527  2642 0001:0002353e  2643 0001:00023559
  2645 0001:0002355b  2646 0001:0002356d  2647 0001:00023592  2648 0001:00023594
  2649 0001:0002359b  2651 0001:000235a0  2653 0001:000235a5  2656 0001:000236f0
  2657 0001:0002370d  2658 0001:00023717  2659 0001:00023721  2660 0001:0002372b
  2662 0001:00023750  2664 0001:00023780  2665 0001:0002379d  2666 0001:000237a7
  2667 0001:000237b1  2668 0001:000237bb  2669 0001:000237c4  2670 0001:000237e6
  2672 0001:00023820  2673 0001:0002383d  2674 0001:0002384c  2675 0001:0002386e
  2681 0001:000238a0  2683 0001:000238c6  2685 0001:00023950  2688 0001:00023976
  2690 0001:00023990  2692 0001:000239ad  2694 0001:000239c0  2701 0001:000239d8
  2703 0001:000239e2  2704 0001:000239eb  2705 0001:000239f7  2706 0001:00023a04
  2707 0001:00023a17  2709 0001:00023a19  2710 0001:00023a3f  2711 0001:00023a5d
  2714 0001:00023a70  2716 0001:00023ac0  2717 0001:00023ad8  2718 0001:00023ae6
  2719 0001:00023af8  2720 0001:00023b05  2722 0001:00023b18  2723 0001:00023b46
  2725 0001:00023b4a  2726 0001:00023b4c  2749 0001:00023b90  2750 0001:00023bb6
  2751 0001:00023bc0  2752 0001:00023bca  2754 0001:00023c60  2755 0001:00023c86
  2756 0001:00023c96  2757 0001:00023c9f  2758 0001:00023cbe  2759 0001:00023cc8
  2760 0001:00023cd2  2761 0001:00023cdc  2763 0001:00023d20  2764 0001:00023d3d
  2765 0001:00023d66  2767 0001:00023d90  2770 0001:00023dd0  2771 0001:00023df6
  2772 0001:00023e00  2773 0001:00023e0a  2774 0001:00023e14  2775 0001:00023e1e
  2776 0001:00023e2b  2777 0001:00023e35  2779 0001:00023e3f  2780 0001:00023e4c
  2781 0001:00023e56  2782 0001:00023e60  2783 0001:00023e6a  2785 0001:00023f10
  2786 0001:00023f36  2787 0001:00023f53  2788 0001:00023f91  2789 0001:00023fae
  2790 0001:00023fec  2792 0001:0002400e  2794 0001:00024070  2795 0001:000240a2
  2797 0001:000240b4  2798 0001:000240d6  2799 0001:000240f5  2800 0001:00024117
  2802 0001:00024136  2804 0001:00024154  2805 0001:0002416d  2807 0001:00024177
  2809 0001:00024186  2810 0001:000241d7  2812 0001:000241e6  2814 0001:000241e8
  2815 0001:00024239  2818 0001:00024248  2819 0001:0002424d  2821 0001:000242f0
  2822 0001:0002430d  2823 0001:00024315  2825 0001:00024335  2827 0001:00024343
  2828 0001:00024351  2829 0001:00024363  2830 0001:00024377  2831 0001:00024383
  2832 0001:00024393  2834 0001:000243a2  2836 0001:000243a7  2837 0001:000243b1
  2838 0001:000243c8  2840 0001:000243e0  2841 0001:000243f8  2842 0001:0002443b
  2843 0001:0002444f  2844 0001:00024451  2846 0001:00024468  2848 0001:0002447d
  2850 0001:00024500  2851 0001:0002451d  2852 0001:00024535  2854 0001:0002454e
  2856 0001:0002456f  2857 0001:0002457e  2859 0001:000245a2  2860 0001:000245b2
  2861 0001:000245c5  2863 0001:000245cb  2864 0001:000245d2  2866 0001:000245db
  2867 0001:00024601  2868 0001:00024627  2870 0001:00024645  2871 0001:0002464a
  2872 0001:0002464f  2874 0001:00024670  2875 0001:0002467f  2877 0001:0002469f
  2878 0001:000246af  2879 0001:000246c2  2881 0001:000246c8  2882 0001:000246d2
  2884 0001:0002470a  2885 0001:0002470f  2886 0001:00024714  2888 0001:000247b0
  2889 0001:000247cd  2890 0001:000247d4  2891 0001:000247e0  2892 0001:0002482d
  2893 0001:00024830  2895 0001:00024870  2896 0001:0002488d  2897 0001:00024894
  2898 0001:000248a0  2899 0001:000248d7  2900 0001:000248da  2902 0001:00024910
  2903 0001:0002492d  2905 0001:00024937  2906 0001:00024949  2907 0001:0002495b
  2908 0001:00024962  2909 0001:0002496e  2911 0001:00024986  2913 0001:0002499e
  2914 0001:000249c3  2915 0001:000249eb  2916 0001:000249ed  2917 0001:000249ef
  2918 0001:000249fa  2964 0001:00024a05  2966 0001:00024a60  2967 0001:00024a7d
  2968 0001:00024a8f  2970 0001:00024aa1  2971 0001:00024aa8  2973 0001:00024ad0
  2975 0001:00024aff  2976 0001:00024b06  2977 0001:00024b18  2978 0001:00024b3e
  2979 0001:00024b5b  2980 0001:00024b68  2982 0001:00024b71  2983 0001:00024b74
  2985 0001:00024bd0  2986 0001:00024bed  2987 0001:00024bf4  2988 0001:00024c04
  2989 0001:00024c14  2991 0001:00024c32  2993 0001:00024c50  2994 0001:00024c56
  2995 0001:00024c64  2996 0001:00024c88  2997 0001:00024c9a  2998 0001:00024cb2
  3010 0001:00024cd7  3011 0001:00024cdc  3012 0001:00024ce1

Line numbers for \OLD_PROJECTS_BACKUP\AmericanConquestAddon\_debug\DString.obj(d:\old_projects_backup\americanconquestaddon\dipserver\dstring.cpp) segment .text

    36 0001:00014ae0    37 0001:00014b0d    38 0001:00014b20    39 0001:00014b2c
    40 0001:00014b38    41 0001:00014b50    43 0001:00014b90    44 0001:00014bad
    45 0001:00014bb9    46 0001:00014bbc    47 0001:00014be0    48 0001:00014bfd
    49 0001:00014c09    50 0001:00014c0c    51 0001:00014c30    52 0001:00014c4d
    53 0001:00014c59    54 0001:00014c5c    55 0001:00014c80    56 0001:00014c9d
    57 0001:00014ca9    58 0001:00014cac    59 0001:00014cd0    60 0001:00014ced
    61 0001:00014cf9    62 0001:00014cfc    63 0001:00014d20    64 0001:00014d3d
    65 0001:00014d5d    66 0001:00014d5f    67 0001:00014d80    68 0001:00014d9d
    69 0001:00014dab    70 0001:00014dc4    71 0001:00014dc6    72 0001:00014df0
    73 0001:00014e0d    74 0001:00014e1d    75 0001:00014e38    76 0001:00014e3a
    78 0001:00014e70    79 0001:00014e8d    80 0001:00014e96    81 0001:00014ea0
    82 0001:00014eaa    83 0001:00014ed0    84 0001:00014eed    85 0001:00014ef6
    86 0001:00014f00    87 0001:00014f0a    88 0001:00014f16    89 0001:00014f50
    90 0001:00014f6d    91 0001:00014f8d    92 0001:00014f96    93 0001:00014fa0
    94 0001:00014faa    95 0001:00014fe0    96 0001:00014ffd    97 0001:00015005
    98 0001:00015014    99 0001:0001501a   100 0001:00015029   101 0001:0001502f
   102 0001:0001503e   103 0001:00015054   104 0001:00015060   106 0001:00015074
   108 0001:00015080   109 0001:000150c0   110 0001:000150dd   111 0001:000150ec
   112 0001:000150f2   113 0001:00015113   115 0001:0001511f   116 0001:00015150
   117 0001:0001516d   118 0001:00015177   119 0001:00015190   120 0001:000151a4
   121 0001:000151b8   122 0001:000151f0   123 0001:0001520d   124 0001:0001522c
   125 0001:0001523e   126 0001:00015252   127 0001:00015290   128 0001:000152ad
   129 0001:000152ba   130 0001:000152c2   131 0001:000152d1   133 0001:000152e0
   134 0001:000152f3   135 0001:000152fd   136 0001:00015308   137 0001:00015320
   138 0001:00015350   139 0001:00015369   140 0001:0001537d   142 0001:0001538b
   143 0001:00015395   144 0001:000153f0   145 0001:0001540d   146 0001:00015417
   147 0001:00015429   148 0001:00015450   149 0001:0001546d   150 0001:00015477
   151 0001:00015487   152 0001:000154a0   153 0001:000154bd   154 0001:000154c5
   155 0001:000154d7   156 0001:000154e9   157 0001:000154fb   158 0001:00015530
   159 0001:0001554d   160 0001:00015563   161 0001:0001556d   162 0001:000155a0
   163 0001:000155bd   164 0001:000155dd   165 0001:000155e6   166 0001:000155f0
   167 0001:000155fa   168 0001:00015630   169 0001:0001564d   170 0001:00015658
   171 0001:0001566d   172 0001:00015691   174 0001:000156a0

Line numbers for \OLD_PROJECTS_BACKUP\AmericanConquestAddon\_debug\DipServer.obj(d:\old_projects_backup\americanconquestaddon\dipserver\dipserver.cpp) segment .text

    12 0001:00013960    13 0001:00013978    14 0001:0001397d    42 0001:00013990
    43 0001:000139ad    44 0001:000139bd    45 0001:000139da    46 0001:00013a10
    47 0001:00013a2d    48 0001:00013a88    49 0001:00013a9a    50 0001:00013b50
    51 0001:00013b9f    52 0001:00013baf    53 0001:00013c00    54 0001:00013c39
    55 0001:00013c5b    56 0001:00013c6b    59 0001:00013cd0    60 0001:00013cf3
    61 0001:00013d26    62 0001:00013d37    63 0001:00013d48    64 0001:00013d59
    65 0001:00013d73    66 0001:00013d78    67 0001:00013d91    68 0001:00013dac
    69 0001:00013dc7    70 0001:00013de0    71 0001:00013dea    72 0001:00013dfb
    73 0001:00013e05    74 0001:00013e14    75 0001:00013e30    76 0001:00013e44
    77 0001:00013e50    78 0001:00013e68    79 0001:00013e83    80 0001:00013ead
    83 0001:00013ec3    84 0001:00013ee2    85 0001:00013ef4    86 0001:00013ef9
    87 0001:00013f12    88 0001:00013f1c    91 0001:00013f34    92 0001:00013f42
    93 0001:00013f6f    94 0001:00013f96    95 0001:00013fbe    96 0001:00013fd3
    97 0001:00013fe0    98 0001:00013ff5    99 0001:00014017   100 0001:00014034
   101 0001:00014043   102 0001:00014064   103 0001:000140a8   105 0001:000140c1
   106 0001:000140c6   108 0001:000140f8   109 0001:00014117   110 0001:00014129
   111 0001:0001412b   112 0001:0001414e   113 0001:00014180   115 0001:0001419f
   117 0001:000141c4   118 0001:000141c9   119 0001:00014320   120 0001:00014352
   121 0001:00014359   122 0001:0001437c   123 0001:0001438a   124 0001:000143cb
   126 0001:000143d9   127 0001:000143db   128 0001:000143e5   129 0001:000143f4
   130 0001:0001441b   131 0001:0001445c   133 0001:0001446e   134 0001:0001447a
   135 0001:00014489   136 0001:0001449c   137 0001:000144a6   138 0001:000144b0
   139 0001:000144b8   140 0001:000144be   141 0001:00014550   142 0001:0001456d
   143 0001:000145cf   144 0001:000145e0   145 0001:000145fa   146 0001:0001461e
   147 0001:0001462f   149 0001:00014655   150 0001:00014668   151 0001:0001467b
   152 0001:00014682   153 0001:00014687   154 0001:00014689   155 0001:000146f0
   156 0001:0001470d   157 0001:0001474b   158 0001:0001477b   159 0001:0001478a
   160 0001:0001478c   161 0001:000147d0   162 0001:000147ed   163 0001:0001482f
   165 0001:000148a0   167 0001:00014970   168 0001:00014988   169 0001:0001499a
   171 0001:000149c0   172 0001:000149d8   173 0001:000149e2   175 0001:00014a00
   176 0001:00014a18   177 0001:00014a2e   179 0001:00014a50   180 0001:00014a68
   181 0001:00014a76   183 0001:00014aa0   184 0001:00014ab8   185 0001:00014ac2

Line numbers for \OLD_PROJECTS_BACKUP\AmericanConquestAddon\_debug\DipMain.obj(D:\OLD_PROJECTS_BACKUP\AmericanConquestAddon\DipServer\DipMain.cpp) segment .text

     5 0001:00011910    17 0001:00011950    18 0001:00011968    19 0001:0001197a
    21 0001:0001198a    38 0001:000119b0    39 0001:000119c8    40 0001:000119cf
    41 0001:000119ea    42 0001:000119f8    43 0001:00011a19    44 0001:00011a44
    45 0001:00011a69    46 0001:00011a9a    47 0001:00011aa3    48 0001:00011aa8
    49 0001:00011b48    50 0001:00011be8    51 0001:00011c8d    52 0001:00011d33
    53 0001:00011dda    54 0001:00011e7a    55 0001:00011f1f    56 0001:00011fc5
    57 0001:0001206c    58 0001:00012111    59 0001:00012138    60 0001:00012154
    61 0001:00012160    62 0001:00012171    63 0001:00012179    64 0001:00012184
    66 0001:00012390    67 0001:000123a8    68 0001:000123c9    69 0001:000123d3
    71 0001:00012400    72 0001:00012418    73 0001:00012435    74 0001:00012459
    75 0001:00012474    76 0001:00012476    77 0001:00012498    78 0001:000124a2
    79 0001:000124ac    80 0001:000124b6    81 0001:000124d7    82 0001:000124f9
    83 0001:0001251b    84 0001:0001253c    85 0001:0001255e    86 0001:00012580
    87 0001:000125a1    88 0001:000125c3    89 0001:000125e5    90 0001:00012606
    91 0001:0001261a    92 0001:0001261f   102 0001:000126c0   103 0001:000126ed
   104 0001:000126f2   105 0001:000126f9   106 0001:00012704   107 0001:00012725
   108 0001:00012746   109 0001:00012751   110 0001:0001275a   111 0001:00012765
   112 0001:0001276e   113 0001:00012780   114 0001:000127cd   115 0001:000127fd
   116 0001:00012813   118 0001:00012820   119 0001:00012825   120 0001:00012893
   121 0001:000128fe   122 0001:0001296e   123 0001:000129de   124 0001:00012a4e
   125 0001:00012aba   126 0001:00012b2c   127 0001:00012b9e   128 0001:00012c10
   129 0001:00012c82   130 0001:00012c9b   131 0001:00012ca7   133 0001:00012cba
   134 0001:00012cc3   136 0001:00012cef   138 0001:00012ea0   139 0001:00012eb8
   141 0001:00012ec2   143 0001:00012ee0   144 0001:00012ef8   146 0001:00012f02
   147 0001:00012f30   148 0001:00012f3a   150 0001:00012f70   151 0001:00012f88
   153 0001:00012fa0   154 0001:00012fd3   155 0001:00012fec   156 0001:00012ff6
   157 0001:00013007   158 0001:00013019   159 0001:00013027   161 0001:00013050
   162 0001:00013056   163 0001:0001305e   164 0001:00013066   165 0001:00013079
   166 0001:00013091   167 0001:000130a5   168 0001:000130b4   169 0001:000130c1
   170 0001:000130ea   171 0001:00013105   172 0001:0001311c   173 0001:00013145
   174 0001:00013152   175 0001:0001315a   176 0001:00013167   177 0001:00013177
   179 0001:00013186   180 0001:0001318b   181 0001:000131a4   182 0001:000131b5
   183 0001:000131c7   184 0001:000131d6   185 0001:000131ff   186 0001:0001320e
   187 0001:0001321d   188 0001:0001322a   189 0001:00013253   190 0001:0001326e
   191 0001:00013285   192 0001:000132b3   193 0001:000132c0   194 0001:000132c8
   195 0001:000132d5   196 0001:000132e5   197 0001:000132f4   198 0001:000132f9
   199 0001:00013312   200 0001:0001331c   201 0001:0001332d   202 0001:0001333f
   203 0001:0001334d   205 0001:00013365   206 0001:0001336b   207 0001:00013373
   208 0001:0001337b   209 0001:0001338e   210 0001:000133a6   211 0001:000133bb
   212 0001:000133ca   213 0001:000133d7   214 0001:00013400   215 0001:0001341b
   216 0001:00013432   217 0001:0001345b   218 0001:00013468   219 0001:00013470
   220 0001:0001347d   221 0001:0001348d   223 0001:0001349c   224 0001:000134a1
   225 0001:000134b6   226 0001:000134c2   227 0001:000134ca   228 0001:000134d7
   229 0001:000134e1   230 0001:000134e6   231 0001:000134fb   232 0001:00013507
   233 0001:0001350f   234 0001:0001351c   235 0001:00013526   236 0001:0001352b
   237 0001:00013544   238 0001:0001354e   239 0001:00013562   240 0001:00013570
   241 0001:00013585   243 0001:00013590   244 0001:000135b8   245 0001:000135d1
   246 0001:000135d9   249 0001:000135e6   250 0001:00013604   251 0001:0001360e
   252 0001:00013622   253 0001:00013637   254 0001:0001364c   255 0001:0001365e
   256 0001:00013672   257 0001:00013685   258 0001:000136b7   259 0001:000136c2
   260 0001:000136d9   261 0001:000136fc   262 0001:000136fe   263 0001:00013715
   264 0001:00013720   265 0001:00013728   271 0001:00013735   274 0001:0001374d

Line numbers for \OLD_PROJECTS_BACKUP\AmericanConquestAddon\_debug\DiplomacySystem.obj(D:\OLD_PROJECTS_BACKUP\AmericanConquestAddon\DipServer\DiplomacySystem.cpp) segment .text

     3 0001:00009e00     4 0001:00009e1d     6 0001:00009e30     7 0001:00009e43
     8 0001:00009e56     9 0001:00009e7a    10 0001:00009e81    16 0001:00009ec0
    17 0001:00009ed8    18 0001:00009eee    19 0001:00009f03    21 0001:00009f2e
    24 0001:00009f60    25 0001:00009f78    26 0001:00009f91    27 0001:00009fa6
    29 0001:00009fcd    32 0001:0000a000    33 0001:0000a018    34 0001:0000a028
    35 0001:0000a03d    37 0001:0000a049    40 0001:0000a070    42 0001:0000a08e
    43 0001:0000a0a3    44 0001:0000a0bd    47 0001:0000a0f0    48 0001:0000a122
    49 0001:0000a14d    50 0001:0000a19c    51 0001:0000a1d6    52 0001:0000a1ef
    53 0001:0000a206    54 0001:0000a215    55 0001:0000a21e    57 0001:0000a330
    58 0001:0000a368    59 0001:0000a380    60 0001:0000a38a    61 0001:0000a394
    62 0001:0000a39e    63 0001:0000a3a8    64 0001:0000a3ba    65 0001:0000a3d8
    66 0001:0000a3f1    69 0001:0000a440    70 0001:0000a456    71 0001:0000a46d
    72 0001:0000a4ad    73 0001:0000a4d8    74 0001:0000a53f    75 0001:0000a587
    76 0001:0000a5a0    77 0001:0000a5b7    79 0001:0000a5c6    81 0001:0000a61a
    82 0001:0000a62d    83 0001:0000a634    84 0001:0000a63b    87 0001:0000a642
    88 0001:0000a66c    90 0001:0000a68c    91 0001:0000a69f    92 0001:0000a6b7
    94 0001:0000a6d6    95 0001:0000a6e0    96 0001:0000a6ed    97 0001:0000a716
    98 0001:0000a746    99 0001:0000a75b   101 0001:0000a76a   102 0001:0000a76c
   103 0001:0000a779   104 0001:0000a7c4   105 0001:0000a7d2   107 0001:0000a7e1
   108 0001:0000a7f4   109 0001:0000a802   110 0001:0000a81a   111 0001:0000a837
   112 0001:0000a841   113 0001:0000a871   119 0001:0000a880   121 0001:0000a885
   122 0001:0000a88f   123 0001:0000a898   124 0001:0000a8b1   126 0001:0000a8cc
   127 0001:0000a8f2   129 0001:0000a936   130 0001:0000a938   131 0001:0000a965
   132 0001:0000a985   133 0001:0000a9a7   134 0001:0000a9a9   135 0001:0000a9d6
   136 0001:0000a9ee   137 0001:0000aa14   138 0001:0000ac00   139 0001:0000ac1d
   140 0001:0000ac23   142 0001:0000ac33   144 0001:0000ac6b   147 0001:0000aca0
   149 0001:0000acb8   150 0001:0000acbb   151 0001:0000acbe   152 0001:0000acc0
   153 0001:0000acc2   154 0001:0000acc5   155 0001:0000acc8   156 0001:0000acca
   157 0001:0000accc   158 0001:0000acce   159 0001:0000acd0   160 0001:0000acd2
   161 0001:0000acd4   162 0001:0000acd6   163 0001:0000acd8   164 0001:0000acda
   166 0001:0000acdc   169 0001:0000ad00   170 0001:0000ad18   171 0001:0000ad22
   172 0001:0000ad2d   173 0001:0000ad3c   177 0001:0000ad60   178 0001:0000ad78
   179 0001:0000ad8e   181 0001:0000adb0   182 0001:0000adcd   183 0001:0000adde
   184 0001:0000adf4   185 0001:0000ae07   186 0001:0000ae1a   188 0001:0000ae2b
   189 0001:0000ae2d   192 0001:0000ae60   196 0001:0000ae87   198 0001:0000aea8
   199 0001:0000aef7   200 0001:0000aefb   201 0001:0000af02   202 0001:0000af29
   203 0001:0000af50   204 0001:0000af58   205 0001:0000af5e   208 0001:0000af64
   210 0001:0000af77   211 0001:0000af7d   212 0001:0000af85   213 0001:0000af8e
   214 0001:0000af94   217 0001:0000afac   219 0001:0000afb1   222 0001:0000aff4
   223 0001:0000b015   224 0001:0000b019   225 0001:0000b04c   226 0001:0000b06c
   227 0001:0000b070   228 0001:0000b07d   229 0001:0000b0a1   230 0001:0000b0c5
   234 0001:0000b0f8   235 0001:0000b108   236 0001:0000b116   237 0001:0000b147
   239 0001:0000b178   240 0001:0000b181   242 0001:0000b190   244 0001:0000b195
   245 0001:0000b1b6   246 0001:0000b1c7   247 0001:0000b1cd   248 0001:0000b1d6
   249 0001:0000b1dd   250 0001:0000b1f3   251 0001:0000b226   252 0001:0000b230
   254 0001:0000b245   257 0001:0000b25a   260 0001:0000b27d   261 0001:0000b2aa
   264 0001:0000b2d0   266 0001:0000b303   267 0001:0000b31b   270 0001:0000b345
   271 0001:0000b34f   272 0001:0000b35d   274 0001:0000b36b   275 0001:0000b375
   276 0001:0000b396   277 0001:0000b39f   278 0001:0000b3ad   280 0001:0000b3c4
   282 0001:0000b3d3   283 0001:0000b3ef   285 0001:0000b401   287 0001:0000b40a
   289 0001:0000b423   295 0001:0000b457   297 0001:0000b484   300 0001:0000b486
   302 0001:0000b4aa   304 0001:0000b4ac   305 0001:0000b4da   306 0001:0000b4e3
   307 0001:0000b4fd   310 0001:0000b507   312 0001:0000b50c   313 0001:0000b521
   315 0001:0000b52d   319 0001:0000b547   320 0001:0000b578   321 0001:0000b59e
   322 0001:0000b5aa   324 0001:0000b5b6   325 0001:0000b5d5   326 0001:0000b5e1
   327 0001:0000b5ed   329 0001:0000b613   330 0001:0000b63b   334 0001:0000b647
   335 0001:0000b681   336 0001:0000b68b   337 0001:0000b694   338 0001:0000b6cd
   339 0001:0000b6cf   340 0001:0000b708   344 0001:0000b735   345 0001:0000b779
   348 0001:0000b792   349 0001:0000b799   350 0001:0000b7a3   352 0001:0000b7ad
   353 0001:0000b7da   354 0001:0000b7f1   355 0001:0000b808   356 0001:0000b817
   357 0001:0000b826   358 0001:0000b832   359 0001:0000b840   360 0001:0000b84c
   361 0001:0000b853   363 0001:0000b855   364 0001:0000b863   365 0001:0000b86f
   366 0001:0000b87b   370 0001:0000b882   372 0001:0000b887   373 0001:0000b890
   375 0001:0000b89a   376 0001:0000b8a3   377 0001:0000b8bf   379 0001:0000b8e8
   380 0001:0000b915   381 0001:0000b923   383 0001:0000b925   386 0001:0000b927
   387 0001:0000b93b   388 0001:0000b944   390 0001:0000b95c   391 0001:0000b98b
   392 0001:0000b98d   394 0001:0000b9b5   395 0001:0000b9f2   396 0001:0000b9f4
   398 0001:0000ba2d   399 0001:0000ba39   400 0001:0000ba42   401 0001:0000ba4c
   408 0001:0000ba4e   409 0001:0000ba9f   413 0001:0000bab6   414 0001:0000bac6
   415 0001:0000bad0   418 0001:0000bada   419 0001:0000bae3   420 0001:0000bb24
   421 0001:0000bb30   424 0001:0000bb3c   426 0001:0000bb70   427 0001:0000bb7d
   428 0001:0000bb99   430 0001:0000bbc6   431 0001:0000bbf3   432 0001:0000bc27
   433 0001:0000bc35   436 0001:0000bc41   439 0001:0000bc46   440 0001:0000bc53
   441 0001:0000bc62   442 0001:0000bc70   443 0001:0000bc7e   459 0001:0000bca3
   461 0001:0000bca5   462 0001:0000bcb3   463 0001:0000bcc1   464 0001:0000bccb
   467 0001:0000bcef   469 0001:0000bcf4   470 0001:0000bd02   471 0001:0000bd10
   472 0001:0000bd1a   473 0001:0000bd2e   475 0001:0000bd4d   476 0001:0000bd54
   477 0001:0000bd5d   478 0001:0000bd87   480 0001:0000bd8c   481 0001:0000bdab
   482 0001:0000bde8   484 0001:0000be11   486 0001:0000be3b   487 0001:0000be4b
   490 0001:0000be81   491 0001:0000be83   492 0001:0000be8d   495 0001:0000beb1
   497 0001:0000beb3   498 0001:0000bec1   499 0001:0000becf   500 0001:0000bed9
   503 0001:0000befd   509 0001:0000bf09   511 0001:0000bf0e   512 0001:0000bf2f
   513 0001:0000bf43   514 0001:0000bf4f   515 0001:0000bf59   516 0001:0000bf78
   518 0001:0000bf85   521 0001:0000bfb9   522 0001:0000bfdb   524 0001:0000c007
   525 0001:0000c02d   527 0001:0000c055   528 0001:0000c091   529 0001:0000c0a8
   530 0001:0000c0c5   531 0001:0000c0ee   532 0001:0000c0f7   537 0001:0000c117
   538 0001:0000c142   539 0001:0000c151   540 0001:0000c160   544 0001:0000c16f
   545 0001:0000c1a9   546 0001:0000c1e2   557 0001:0000c218   559 0001:0000c238
   561 0001:0000c241   563 0001:0000c27e   571 0001:0000c2c8   572 0001:0000c2e7
   573 0001:0000c2f1   574 0001:0000c31a   575 0001:0000c332   576 0001:0000c348
   578 0001:0000c354   580 0001:0000c356   581 0001:0000c360   582 0001:0000c36a
   583 0001:0000c374   584 0001:0000c380   585 0001:0000c3b0   587 0001:0000c3d8
   589 0001:0000c3da   590 0001:0000c400   591 0001:0000c414   595 0001:0000c43c
   597 0001:0000c464   599 0001:0000c480   600 0001:0000c495   601 0001:0000c4c3
   602 0001:0000c4c5   604 0001:0000c4f2   605 0001:0000c4f4   607 0001:0000c530
   614 0001:0000c53f   615 0001:0000c54e   617 0001:0000c553   618 0001:0000c59d
   619 0001:0000c5b1   620 0001:0000c5bd   621 0001:0000c5dc   623 0001:0000c5e9
   624 0001:0000c5fe   625 0001:0000c60f   627 0001:0000c620   628 0001:0000c646
   629 0001:0000c694   630 0001:0000c6a3   632 0001:0000c6f9   634 0001:0000c729
   635 0001:0000c737   636 0001:0000c745   637 0001:0000c74f   639 0001:0000c779
   640 0001:0000c785   641 0001:0000c787   643 0001:0000c7b7   644 0001:0000c7bc
   645 0001:0000c7d4   647 0001:0000c7e3   649 0001:0000c7fc   650 0001:0000c830
   651 0001:0000c856   653 0001:0000c862   654 0001:0000c884   655 0001:0000c890
   656 0001:0000c89c   658 0001:0000c8c2   659 0001:0000c8ea   663 0001:0000c900
   664 0001:0000c93a   665 0001:0000c944   666 0001:0000c97d   675 0001:0000c9b2
   688 0001:0000c9b9   691 0001:0000c9e8   692 0001:0000c9f1   693 0001:0000ca2e
   694 0001:0000ca56   695 0001:0000ca60   696 0001:0000ca6a   697 0001:0000ca79
   698 0001:0000caa8   699 0001:0000cab4   701 0001:0000cac0   702 0001:0000cac2
   705 0001:0000caef   706 0001:0000cafc   708 0001:0000cb30   709 0001:0000cb39
   710 0001:0000cb65   711 0001:0000cb76   712 0001:0000cb87   714 0001:0000cb8c
   715 0001:0000cb9a   716 0001:0000cba8   717 0001:0000cbb2   721 0001:0000cbd1
   722 0001:0000cbf0   723 0001:0000cc2d   725 0001:0000cc56   727 0001:0000ccc9
   731 0001:0000ccd8   732 0001:0000ccda   739 0001:0000ccf9   740 0001:0000ccfe
   741 0001:0000cd1f   743 0001:0000cd34   744 0001:0000cd48   745 0001:0000cd54
   746 0001:0000cd73   748 0001:0000cd9f   751 0001:0000cdae   752 0001:0000cdea
   753 0001:0000ce10   755 0001:0000ce1c   756 0001:0000ce3e   757 0001:0000ce4a
   758 0001:0000ce56   760 0001:0000ce7c   761 0001:0000cea4   765 0001:0000ceba
   766 0001:0000cef4   767 0001:0000cefe   768 0001:0000cf37   770 0001:0000cf82
   771 0001:0000cf91   772 0001:0000cfa4   774 0001:0000cfd5   775 0001:0000cfde
   776 0001:0000d01b   784 0001:0000d022   785 0001:0000d038   787 0001:0000d06b
   788 0001:0000d079   789 0001:0000d087   790 0001:0000d091   791 0001:0000d0c5
   794 0001:0000d0d2   795 0001:0000d0e0   796 0001:0000d0ee   799 0001:0000d0fe
   800 0001:0000d108   801 0001:0000d174   802 0001:0000d176   803 0001:0000d1b5
   806 0001:0000d1e6   810 0001:0000d1eb   813 0001:0000d204   814 0001:0000d20d
   815 0001:0000d219   816 0001:0000d225   818 0001:0000d22a   819 0001:0000d249
   820 0001:0000d286   823 0001:0000d2af   825 0001:0000d322   826 0001:0000d33b
   830 0001:0000d351   831 0001:0000d353   836 0001:0000d36e   837 0001:0000d373
   838 0001:0000d394   839 0001:0000d3a9   840 0001:0000d3bd   841 0001:0000d3df
   842 0001:0000d3ee   856 0001:0000d3fb   858 0001:0000d413   861 0001:0000d422
   862 0001:0000d459   863 0001:0000d468   864 0001:0000d477   865 0001:0000d49d
   867 0001:0000d4a9   868 0001:0000d4ce   869 0001:0000d4da   870 0001:0000d4e6
   872 0001:0000d50c   873 0001:0000d534   877 0001:0000d542   878 0001:0000d57c
   880 0001:0000d586   884 0001:0000d5bf   885 0001:0000d60e   892 0001:0000d627
   893 0001:0000d654   894 0001:0000d676   896 0001:0000d69e   897 0001:0000d6a5
   898 0001:0000d6ac   899 0001:0000d6b3   902 0001:0000d6ba   903 0001:0000d6ff
   904 0001:0000d718   905 0001:0000d745   906 0001:0000d75c   907 0001:0000d775
   908 0001:0000d784   909 0001:0000d7d6   912 0001:0000d7eb   913 0001:0000d7f0
   914 0001:0000d7f9   915 0001:0000d836   916 0001:0000d859   918 0001:0000d867
   919 0001:0000d870   920 0001:0000d8a5   922 0001:0000d8c2   925 0001:0000d8d2
   926 0001:0000d908   934 0001:0000d93a   935 0001:0000d967   936 0001:0000d988
   937 0001:0000d991   938 0001:0000d9fc   939 0001:0000da03   940 0001:0000da17
   941 0001:0000da3c   942 0001:0000da68   946 0001:0000da6f   948 0001:0000da95
   949 0001:0000da9f   950 0001:0000daaf   952 0001:0000dad9   953 0001:0000daf0
   954 0001:0000dafe   958 0001:0000db0d   959 0001:0000db33   960 0001:0000db5a
   962 0001:0000db91   964 0001:0000dbb0   965 0001:0000dbea   966 0001:0000dc11
   967 0001:0000dc33   968 0001:0000dc6a   970 0001:0000dc98   971 0001:0000dcb8
   972 0001:0000dccf   974 0001:0000dcde   975 0001:0000dce3   976 0001:0000dce5
   980 0001:0000dcec   981 0001:0000dd00   983 0001:0000dd1d   984 0001:0000dd2c
   985 0001:0000dd4d   986 0001:0000dd4f   989 0001:0000dd70   990 0001:0000dd9c
   992 0001:0000ddcf   999 0001:0000ddde  1001 0001:0000dde3  1002 0001:0000ddf7
  1003 0001:0000ddfe  1004 0001:0000de05  1005 0001:0000de1c  1006 0001:0000de1e
  1007 0001:0000de3f  1008 0001:0000de78  1013 0001:0000de7f  1033 0001:0000dec5
  1034 0001:0000def0  1035 0001:0000df1d  1036 0001:0000df4d  1038 0001:0000df70
  1040 0001:0000dfa7  1041 0001:0000dfb7  1045 0001:0000dfc6  1046 0001:0000dfcd
  1051 0001:0000dfe1  1052 0001:0000e003  1053 0001:0000e02d  1054 0001:0000e034
  1055 0001:0000e036  1056 0001:0000e048  1057 0001:0000e068  1058 0001:0000e078
  1064 0001:0000e09a  1065 0001:0000e0fb  1067 0001:0000e10f  1069 0001:0000e11e
  1084 0001:0000e148  1085 0001:0000e17c  1086 0001:0000e1a8  1088 0001:0000e1b7
  1089 0001:0000e1d6  1093 0001:0000e213  1098 0001:0000e286  1099 0001:0000e2b5
  1115 0001:0000e2c4  1116 0001:0000e2d3  1117 0001:0000e2e5  1118 0001:0000e2e7
  1119 0001:0000e319  1120 0001:0000e32e  1121 0001:0000e330  1124 0001:0000e33f
  1125 0001:0000e341  1126 0001:0000e350  1127 0001:0000e371  1128 0001:0000e373
  1130 0001:0000e394  1132 0001:0000e3be  1133 0001:0000e3c0  1150 0001:0000e3cf
  1156 0001:0000e3f1  1157 0001:0000e3f6  1158 0001:0000e42d  1159 0001:0000e435
  1161 0001:0000f1d0  1162 0001:0000f208  1163 0001:0000f217  1164 0001:0000f223
  1165 0001:0000f22f  1166 0001:0000f23c  1168 0001:0000f265  1169 0001:0000f272
  1170 0001:0000f279  1171 0001:0000f2c3  1172 0001:0000f2d1  1174 0001:0000f2de
  1175 0001:0000f307  1176 0001:0000f32a  1177 0001:0000f342  1178 0001:0000f356
  1179 0001:0000f367  1180 0001:0000f378  1181 0001:0000f384  1182 0001:0000f38d
  1183 0001:0000f392  1184 0001:0000f39f  1185 0001:0000f3ac  1186 0001:0000f3b6
  1187 0001:0000f3e6  1188 0001:0000f4a0  1189 0001:0000f4bd  1191 0001:0000f4d0
  1192 0001:0000f4fd  1193 0001:0000f527  1194 0001:0000f551  1195 0001:0000f565
  1196 0001:0000f579  1199 0001:0000f588  1200 0001:0000f5e0  1201 0001:0000f603
  1202 0001:0000f61c  1204 0001:0000f626  1205 0001:0000f642  1206 0001:0000f655
  1207 0001:0000f681  1209 0001:0000f695  1210 0001:0000f69e  1212 0001:0000f6a7
  1213 0001:0000f6ad  1214 0001:0000f6d3  1215 0001:0000f6ed  1217 0001:0000f6f6
  1219 0001:0000f6fd  1220 0001:0000f724  1222 0001:0000f741  1223 0001:0000f74a
  1225 0001:0000f754  1227 0001:0000f75e  1230 0001:0000f76d  1231 0001:0000f7f0
  1232 0001:0000f80d  1233 0001:0000f83e  1234 0001:0000f86a  1236 0001:0000f87e
  1237 0001:0000f887  1238 0001:0000f8ad  1239 0001:0000f8d2  1240 0001:0000f8fb
  1242 0001:0000f904  1243 0001:0000f90e  1245 0001:0000f918  1247 0001:0000f922
  1249 0001:0000f929  1251 0001:0000f932  1252 0001:0000f941  1253 0001:0000f9b0
  1254 0001:0000f9cd  1255 0001:0000f9f8  1256 0001:0000fa24  1257 0001:0000fa58
  1258 0001:0000fa8b  1259 0001:0000faa1  1260 0001:0000fab7  1261 0001:0000fad9
  1263 0001:0000fafb  1264 0001:0000fb12  1265 0001:0000fb21  1266 0001:0000fba0
  1267 0001:0000fbbd  1268 0001:0000fbe8  1270 0001:0000fc14  1271 0001:0000fc48
  1272 0001:0000fc7b  1273 0001:0000fc91  1274 0001:0000fcb3  1276 0001:0000fcd5
  1277 0001:0000fcec  1278 0001:0000fd02  1279 0001:0000fd11  1280 0001:0000fd90
  1281 0001:0000fdad  1282 0001:0000fdd8  1283 0001:0000fe04  1284 0001:0000fe18
  1286 0001:0000fe41  1287 0001:0000fe56  1288 0001:0000fe7a  1289 0001:0000fe83
  1291 0001:0000fea0  1292 0001:0000fec7  1293 0001:0000fecf  1294 0001:0000feda
  1295 0001:0000fee3  1296 0001:0000feec  1297 0001:0000ff01  1299 0001:0000ff16
  1300 0001:0000ff37  1301 0001:0000ff4c  1304 0001:0000ff55  1305 0001:0000ff74
  1306 0001:0000ff85  1307 0001:0000ffa6  1308 0001:0000ffa8  1311 0001:0000ffb2
  1312 0001:0000ffbc  1313 0001:0000ffcb  1316 0001:00010080  1317 0001:00010098
  1318 0001:000100ae  1320 0001:000100d0  1321 0001:000100e8  1322 0001:000100fa
  1324 0001:00010120  1325 0001:00010138  1326 0001:00010157  1328 0001:00010180
  1329 0001:00010198  1330 0001:000101aa  1332 0001:000101d0  1333 0001:000101e8
  1334 0001:000101fe  1335 0001:00010220  1336 0001:0001023d  1337 0001:00010272
  1338 0001:00010293  1339 0001:000102a8  1340 0001:000102f0  1341 0001:0001030d
  1342 0001:00010342  1343 0001:00010365  1344 0001:0001037a  1346 0001:000103c0
  1347 0001:000103de  1348 0001:000103ec  1349 0001:000103fa  1351 0001:00010422
  1352 0001:00010432  1353 0001:0001043e  1355 0001:00010457  1356 0001:0001045e
  1357 0001:00010468  1358 0001:00010482  1359 0001:000104a9  1360 0001:000104b5
  1362 0001:000104be  1363 0001:000104c0  1364 0001:000104ca  1365 0001:000104f7
  1366 0001:000104ff  1368 0001:0001050d  1369 0001:00010520  1370 0001:00010528
  1371 0001:00010554  1372 0001:00010566  1373 0001:00010580  1374 0001:0001059f
  1375 0001:000105c6  1379 0001:000105d7  1380 0001:000105d9  1381 0001:00010680
  1382 0001:000106a7  1383 0001:000106c5  1384 0001:000106e1  1385 0001:0001070e
  1386 0001:00010726  1388 0001:0001074c  1390 0001:00010769  1391 0001:00010779
  1392 0001:00010798  1393 0001:0001079c  1394 0001:000107b0  1395 0001:000107b7
  1396 0001:000107be  1397 0001:000107dc  1399 0001:00010811  1400 0001:00010817
  1401 0001:0001081e  1402 0001:0001084b  1403 0001:0001085a  1404 0001:0001086d
  1405 0001:00010888  1406 0001:000108a5  1409 0001:000108a9  1410 0001:000108c9
  1411 0001:000108f3  1412 0001:000108f5  1414 0001:000108f9  1415 0001:00010907
  1416 0001:0001091b  1417 0001:0001092e  1418 0001:00010930  1419 0001:00010940
  1420 0001:00010966  1421 0001:0001096a  1423 0001:00010970  1424 0001:00010977
  1425 0001:00010994  1428 0001:000109b6  1429 0001:000109cb  1431 0001:000109d6
  1432 0001:000109f1  1433 0001:00010a2d  1434 0001:00010a51  1437 0001:00010a69
  1443 0001:00010a6e  1444 0001:00010a7a  1445 0001:00010a8c  1448 0001:00010aa5
  1449 0001:00010adf  1453 0001:00010b0a  1455 0001:00010b30  1456 0001:00010b60
  1457 0001:00010b70  1458 0001:00010b8c  1459 0001:00010b9c  1460 0001:00010bac
  1461 0001:00010bd0  1462 0001:00010bde  1463 0001:00010c04  1464 0001:00010c0f
  1465 0001:00010c24  1470 0001:00010c39  1471 0001:00010c42  1472 0001:00010c47
  1473 0001:00010c53  1474 0001:00010c68  1475 0001:00010c98  1476 0001:00010cbb
  1477 0001:00010ccb  1479 0001:00010cdb  1480 0001:00010d01  1481 0001:00010d10
  1482 0001:00010d26  1485 0001:00010d36  1486 0001:00010d85  1487 0001:00010d9a
  1488 0001:00010da9  1489 0001:00010dc8  1491 0001:00010df7  1492 0001:00010e1f
  1493 0001:00010e26  1494 0001:00010e30  1496 0001:00010e32  1497 0001:00010e59
  1498 0001:00010e6f  1500 0001:00010eaf  1501 0001:00010eb4  1502 0001:00010eda
  1504 0001:00010ee9  1505 0001:00010f0f  1506 0001:00010f1c  1508 0001:00010f49
  1510 0001:00010f70  1512 0001:00010f8c  1513 0001:00010fb9  1514 0001:00010fea
  1516 0001:00010ff3  1517 0001:0001101b  1518 0001:00011098  1519 0001:0001109a
  1520 0001:000110a1  1523 0001:000110a3  1524 0001:000110a8  1529 0001:000110b4
  1531 0001:000110b9  1533 0001:000110d1  1534 0001:000110f7  1536 0001:00011106
  1537 0001:0001112c  1539 0001:00011139  1540 0001:00011143  1541 0001:0001114d
  1542 0001:00011161  1543 0001:0001118e  1544 0001:000111ac  1545 0001:000111c5
  1546 0001:000111d3  1547 0001:000111df  1548 0001:000111eb  1549 0001:000111f7
  1550 0001:00011203  1551 0001:00011205  1552 0001:00011213  1553 0001:0001121f
  1556 0001:0001122b  1557 0001:00011230  1558 0001:0001123a  1560 0001:00011244
  1561 0001:00011271  1562 0001:00011280  1564 0001:000112a5  1566 0001:000112cc
  1568 0001:000112e8  1569 0001:00011315  1570 0001:00011342  1572 0001:000113ad
  1573 0001:000113b2  1574 0001:000113be  1577 0001:000113e0  1579 0001:000113e5
  1581 0001:00011401  1582 0001:0001142e  1583 0001:0001148b  1585 0001:000114f6
  1590 0001:000114fb  1591 0001:00011504  1593 0001:00011509

Line numbers for \OLD_PROJECTS_BACKUP\AmericanConquestAddon\_debug\DipInit.obj(D:\OLD_PROJECTS_BACKUP\AmericanConquestAddon\DipServer\DipInit.cpp) segment .text

     3 0001:00009d10     4 0001:00009d28     5 0001:00009d2e     7 0001:00009d35
     8 0001:00009d3c     9 0001:00009d48    10 0001:00009d61    11 0001:00009d73
    12 0001:00009d7e    13 0001:00009d87    15 0001:00009d90    16 0001:00009d92
    17 0001:00009d9b    19 0001:00009dbe

Line numbers for \OLD_PROJECTS_BACKUP\AmericanConquestAddon\_debug\DIP_SimpleBuilding.obj(d:\old_projects_backup\americanconquestaddon\dipserver\dstring.h) segment .text

    19 0001:00008930    21 0001:0000894d    22 0001:00008962    23 0001:00008976
    24 0001:000089a0    27 0001:000089be    28 0001:000089c7    29 0001:000089e1
    30 0001:000089eb    31 0001:000089fe

Line numbers for \OLD_PROJECTS_BACKUP\AmericanConquestAddon\_debug\DIP_SimpleBuilding.obj(D:\OLD_PROJECTS_BACKUP\AmericanConquestAddon\DipServer\DIP_SimpleBuilding.cpp) segment .text

     3 0001:00002f00     4 0001:00002f1d     5 0001:00002f3d     6 0001:00002f5d
     7 0001:00002f75     8 0001:00002f9a    10 0001:00002fa8    11 0001:00002fd3
    14 0001:00002fe1    16 0001:00003000    18 0001:0000302c    20 0001:00003090
    23 0001:000030b3    25 0001:000030bd    26 0001:000030c7    27 0001:000030ce
    28 0001:000030d8    29 0001:000030e2    30 0001:000030ef    31 0001:000030fb
    32 0001:00003107    33 0001:00003113    34 0001:0000311f    35 0001:0000312b
    36 0001:00003137    37 0001:00003144    38 0001:00003150    39 0001:0000315d
    40 0001:00003173    41 0001:0000318a    42 0001:000031a0    43 0001:000031a7
    50 0001:000031d1    51 0001:000031ed    52 0001:00003210    54 0001:00003228
    55 0001:00003244    56 0001:00003266    57 0001:00003273    59 0001:0000329e
    60 0001:000032c9    62 0001:000032f3    63 0001:0000331e    64 0001:0000334a
    65 0001:00003375    67 0001:0000339f    68 0001:000033c5    70 0001:000033d3
    71 0001:00003400    75 0001:00003411    76 0001:00003429    77 0001:0000344d
    78 0001:00003471    79 0001:0000347e    82 0001:00003485    83 0001:000034a6
    85 0001:000034ba    86 0001:000034d5    88 0001:000034f1    89 0001:00003558
    90 0001:00003565    91 0001:0000359d    92 0001:000035b9    93 0001:000035eb
    94 0001:0000361a    95 0001:0000362f    96 0001:0000365b    97 0001:00003668
    98 0001:00003690    99 0001:000036b8   100 0001:000036ba   101 0001:000036dc
   103 0001:000036fa   104 0001:000036ff   105 0001:00003717   106 0001:0000373c
   107 0001:00003741   108 0001:00003759   109 0001:0000377e   110 0001:00003783
   111 0001:0000379b   112 0001:000037bf   113 0001:000037c4   114 0001:000037dc
   115 0001:00003801   116 0001:00003806   117 0001:0000381e   118 0001:00003873
   119 0001:00003878   122 0001:00003894   123 0001:000038b6   124 0001:000038c0
   126 0001:000038c7   127 0001:000038e4   128 0001:00003903   129 0001:00003920
   130 0001:00003929   131 0001:00003938   132 0001:00003941   133 0001:00003964
   134 0001:00003971   135 0001:00003973   137 0001:0000398b   138 0001:00003990
   139 0001:000039ac   140 0001:000039b6   141 0001:000039c0   142 0001:000039f2
   143 0001:000039fb   144 0001:00003a18   145 0001:00003a27   146 0001:00003a2c
   147 0001:00003a48   149 0001:00003a52   150 0001:00003a81   152 0001:00003a8a
   153 0001:00003aaa   154 0001:00003ab6   155 0001:00003ac7   158 0001:00003ad8
   159 0001:00003add   162 0001:00003b11   163 0001:00003b4e   165 0001:00003b57
   166 0001:00003b77   167 0001:00003b83   168 0001:00003b94   169 0001:00003ba5
   170 0001:00003bb6   175 0001:00003bc7   176 0001:00003bdb   177 0001:00003bf4
   178 0001:00003bf6   179 0001:00003c11   182 0001:00003c2f   183 0001:00003f40
   184 0001:00003f5d   185 0001:00003f66   186 0001:00003f80   187 0001:00003f9d
   188 0001:00003fd1   189 0001:00004007   190 0001:0000400a   192 0001:00004050
   193 0001:00004073   194 0001:00004077   195 0001:00004090   197 0001:000040a5
   200 0001:000040b2   201 0001:000040b8   202 0001:000040c3   203 0001:000040cb
   204 0001:000040e3   205 0001:000040e8   206 0001:000040fd   209 0001:0000410a
   210 0001:00004113   211 0001:00004121   212 0001:0000412c   213 0001:00004147
   214 0001:0000414c   215 0001:00004161   218 0001:0000416e   219 0001:00004177
   220 0001:00004185   221 0001:00004190   222 0001:000041ab   223 0001:000041b0
   224 0001:000041c5   227 0001:000041d2   228 0001:000041db   229 0001:000041e9
   230 0001:000041f4   231 0001:0000420f   232 0001:00004214   233 0001:00004229
   236 0001:00004236   237 0001:0000423f   238 0001:0000424d   239 0001:00004258
   240 0001:00004273   241 0001:00004275   242 0001:0000428a   245 0001:00004297
   246 0001:000042a0   247 0001:000042ae   248 0001:000042b9   250 0001:000042d4
   251 0001:000042e1   252 0001:000042eb   254 0001:00004311   255 0001:000043e0
   256 0001:00004403   257 0001:00004412   258 0001:0000442f   259 0001:00004437
   261 0001:0000444e   263 0001:00004453   264 0001:00004459   267 0001:0000448f
   268 0001:0000449b   269 0001:000044b4   273 0001:000044cd   274 0001:000044ff
   276 0001:00004509   277 0001:0000455b   278 0001:00004580   279 0001:00004585
   280 0001:00004587   281 0001:000045f7   282 0001:00004617   283 0001:00004623
   284 0001:00004630   287 0001:00004648   288 0001:0000467e   289 0001:00004688
   291 0001:000046a8   292 0001:000046b5   293 0001:000046bf   294 0001:000046e5
   295 0001:000046e7   297 0001:000046f4   298 0001:00004722   300 0001:00004738
   301 0001:0000473d   304 0001:00004756   305 0001:00004791   307 0001:0000479e
   308 0001:00004802   309 0001:00004827   310 0001:0000482c   311 0001:00004831
   312 0001:000048b6   313 0001:000048d9   314 0001:000048e8   315 0001:000048f5
   318 0001:0000490d   319 0001:0000494f   320 0001:00004959   322 0001:00004982
   323 0001:0000498f   324 0001:00004999   325 0001:000049bf   326 0001:000049c1
   328 0001:000049ce   329 0001:000049fc   331 0001:00004a12   332 0001:00004a17
   336 0001:00004a30   337 0001:00004a6b   339 0001:00004a78   340 0001:00004adc
   341 0001:00004b01   342 0001:00004b06   343 0001:00004b0b   344 0001:00004b90
   345 0001:00004bb3   346 0001:00004bc2   347 0001:00004bcf   350 0001:00004be7
   351 0001:00004c29   352 0001:00004c33   354 0001:00004c5c   355 0001:00004c69
   356 0001:00004c73   357 0001:00004c99   358 0001:00004c9b   360 0001:00004ca8
   361 0001:00004cd6   363 0001:00004cec   364 0001:00004cf1   368 0001:00004d0a
   369 0001:00004d45   371 0001:00004d52   372 0001:00004db6   373 0001:00004ddb
   374 0001:00004de0   375 0001:00004de5   376 0001:00004e6a   377 0001:00004e8d
   378 0001:00004e9c   379 0001:00004ea9   382 0001:00004ec1   383 0001:00004f03
   384 0001:00004f0d   386 0001:00004f36   387 0001:00004f43   388 0001:00004f4d
   389 0001:00004f73   390 0001:00004f75   392 0001:00004f82   393 0001:00004fb0
   395 0001:00004fc6   396 0001:00004fcb   400 0001:00004fe4   401 0001:0000501f
   403 0001:0000502c   404 0001:00005090   405 0001:000050b5   406 0001:000050ba
   407 0001:000050bf   408 0001:00005144   409 0001:00005167   410 0001:00005176
   411 0001:00005183   414 0001:0000519b   415 0001:000051dd   416 0001:000051e7
   418 0001:00005210   419 0001:0000521d   420 0001:00005227   421 0001:0000524d
   422 0001:0000524f   424 0001:0000525c   425 0001:0000528a   427 0001:000052a0
   428 0001:000052a5   432 0001:000052be   433 0001:000052f9   435 0001:00005306
   436 0001:0000536a   437 0001:0000538f   438 0001:00005394   439 0001:00005399
   440 0001:0000541e   441 0001:00005441   442 0001:00005450   443 0001:0000545d
   446 0001:00005475   447 0001:000054b7   448 0001:000054c1   450 0001:000054ea
   451 0001:000054f7   452 0001:00005501   453 0001:00005527   454 0001:00005529
   456 0001:00005536   457 0001:00005564   461 0001:0000557a   464 0001:0000557f
   465 0001:0000558b   466 0001:000055a8   467 0001:000055b0   469 0001:000055c7
   470 0001:000055e0   471 0001:000055fc   472 0001:00005636   473 0001:00005673
   474 0001:00005681   475 0001:00005699   476 0001:000056a2   478 0001:000056c1
   479 0001:000056ea   480 0001:00005711   481 0001:00005731   482 0001:00005733
   483 0001:00005754   487 0001:00005794   491 0001:00005799   492 0001:000057a5
   493 0001:000057ac   494 0001:00005809   495 0001:0000581b   496 0001:0000583a
   498 0001:0000585f   499 0001:00005864   500 0001:00005888   501 0001:000058d9
   502 0001:000058fb   503 0001:00005900   504 0001:0000590c   505 0001:00005929
   506 0001:00005931   508 0001:00005948   509 0001:00005961   510 0001:0000597d
   511 0001:000059b7   512 0001:000059f4   513 0001:00005a02   514 0001:00005a1a
   515 0001:00005a23   517 0001:00005a42   518 0001:00005a6b   519 0001:00005a92
   520 0001:00005ab2   521 0001:00005ab4   522 0001:00005ad5   528 0001:00005b15
   529 0001:00005b24   531 0001:00005b41   532 0001:00005b4d   536 0001:00005b64
   537 0001:00006160   538 0001:0000617d   539 0001:00006189   541 0001:00006193
   542 0001:000061af   544 0001:000061b3   546 0001:000061bf   547 0001:000061df
   548 0001:00006217   549 0001:00006224   550 0001:00006229   552 0001:00006233
   553 0001:00006252   554 0001:0000628f   556 0001:000062c0   557 0001:000062dc
   558 0001:000062f9   559 0001:00006306   560 0001:00006321   562 0001:00006357
   563 0001:00006361   564 0001:0000636e   565 0001:00006385   566 0001:0000638d
   569 0001:000063a4   571 0001:000063ac   572 0001:00006460   573 0001:0000647d
   574 0001:00006489   576 0001:00006493   577 0001:000064af   579 0001:000064b3
   581 0001:000064bf   582 0001:000064df   583 0001:00006517   584 0001:00006524
   585 0001:00006529   587 0001:00006533   588 0001:00006552   589 0001:0000658f
   590 0001:000065c0   591 0001:000065dc   592 0001:000065fa   593 0001:00006636
   594 0001:00006656   595 0001:00006672   596 0001:0000667c   597 0001:00006689
   598 0001:000066a0   599 0001:000066a8   602 0001:000066bf   604 0001:000066c7
   606 0001:00006780   607 0001:0000679d   608 0001:000067a9   610 0001:000067b3
   611 0001:000067cf   613 0001:000067d3   615 0001:000067df   616 0001:000067ff
   617 0001:00006837   618 0001:00006844   619 0001:00006849   621 0001:00006853
   622 0001:00006872   623 0001:000068af   624 0001:000068e0   625 0001:000068fc
   626 0001:0000691a   627 0001:00006956   628 0001:00006976   629 0001:00006992
   630 0001:0000699c   631 0001:000069a9   632 0001:000069c0   633 0001:000069c8
   636 0001:000069df   638 0001:000069e7   640 0001:00006aa0   641 0001:00006abd
   642 0001:00006ac9   644 0001:00006ad3   645 0001:00006aef   647 0001:00006af3
   649 0001:00006aff   650 0001:00006b1f   651 0001:00006b57   652 0001:00006b64
   653 0001:00006b69   655 0001:00006b73   656 0001:00006b92   657 0001:00006bcf
   658 0001:00006c00   659 0001:00006c1c   660 0001:00006c3a   661 0001:00006c76
   662 0001:00006c9a   663 0001:00006cb6   664 0001:00006cc0   665 0001:00006ccd
   666 0001:00006ce4   667 0001:00006cec   670 0001:00006d03   672 0001:00006d0b
   674 0001:00006dc0   675 0001:00006ddd   676 0001:00006de9   678 0001:00006df3
   679 0001:00006e0f   681 0001:00006e13   683 0001:00006e1f   684 0001:00006e3f
   685 0001:00006e77   686 0001:00006e84   687 0001:00006e89   689 0001:00006e93
   690 0001:00006eb2   691 0001:00006eef   692 0001:00006f20   693 0001:00006f3c
   694 0001:00006f5a   695 0001:00006f96   696 0001:00006fb4   697 0001:00006fd0
   698 0001:00006fda   699 0001:00006fe7   700 0001:00006ffe   701 0001:00007006
   704 0001:0000701d   706 0001:00007025   707 0001:000070e0   708 0001:00007103
   709 0001:0000710f   711 0001:00007119   712 0001:00007135   714 0001:00007139
   716 0001:00007145   717 0001:00007165   718 0001:0000719d   719 0001:000071aa
   720 0001:000071af   722 0001:000071b9   723 0001:000071d8   724 0001:00007215
   725 0001:00007246   726 0001:00007262   728 0001:00007280   729 0001:000072b5
   730 0001:000072cf   731 0001:000072fc   733 0001:0000730f   734 0001:00007311
   735 0001:0000732d   736 0001:00007337   737 0001:00007344   738 0001:0000735b
   739 0001:00007363   742 0001:0000737a   744 0001:00007382   745 0001:00007450
   748 0001:00007488   749 0001:0000748e   750 0001:00007492   751 0001:00007496
   752 0001:0000749a   754 0001:000074b3   755 0001:000074db   756 0001:000074e3
   758 0001:000074f5   759 0001:00007508   760 0001:00007530   761 0001:00007537
   762 0001:00007549   763 0001:00007561   764 0001:0000757c   765 0001:000075a2
   766 0001:000075bc   767 0001:000075be   769 0001:000075da   770 0001:0000760a
   772 0001:00007628   775 0001:00007632   777 0001:00007637   778 0001:00007640
   779 0001:0000766b   780 0001:0000769a   781 0001:000076bd   782 0001:000076e0
   784 0001:00007702   786 0001:00007725   787 0001:00007742   788 0001:0000775d
   789 0001:00007779   790 0001:000077a7   792 0001:000077c7   793 0001:000077d1
   794 0001:000077da   795 0001:000077eb   796 0001:000077f7   797 0001:0000782c
   799 0001:0000785a   801 0001:0000785e   802 0001:0000787d   803 0001:0000788a
   804 0001:0000789d   806 0001:000078b2   807 0001:000078cb   809 0001:000078dc
   810 0001:000078e6   811 0001:000078ef   812 0001:00007900   813 0001:0000791c
   815 0001:00007946   817 0001:0000797e   819 0001:000079bf   820 0001:000079f8
   821 0001:00007a28   822 0001:00007a30   824 0001:00007a38   825 0001:00007a55
   826 0001:00007a68   827 0001:00007a72   828 0001:00007a7b   829 0001:00007a8c
   830 0001:00007aa8   831 0001:00007ad1   833 0001:00007b09   834 0001:00007b3a
   835 0001:00007b6a   838 0001:00007b72   839 0001:00007b94   841 0001:00007bbd
   842 0001:00007bf0   843 0001:00007bff   844 0001:00007c0e   846 0001:00007c27
   847 0001:00007c2c   848 0001:00007c31   849 0001:00007c4a   850 0001:00007c7b
   851 0001:00007cab   854 0001:00007cb3   855 0001:00007cb5   856 0001:00007cbc
   859 0001:00007cc1   860 0001:00007cc3   861 0001:00007cca   863 0001:00007ccf
   865 0001:00007ce0   866 0001:00007d08   867 0001:00007d11   868 0001:00007d21
   869 0001:00007d33   874 0001:00007d4d   875 0001:00007d5c   877 0001:00007d92
   878 0001:00007d9a   880 0001:00007d9c   881 0001:00007da4   883 0001:00007da6
   884 0001:00007dae   886 0001:00007db0   887 0001:00007db8   889 0001:00007dba
   890 0001:00007dc2   892 0001:00007dc4   895 0001:00007dcc   906 0001:00007dd1
   911 0001:00007de4   912 0001:00007e00   913 0001:00007e10   915 0001:00007e1a
   917 0001:00007e33   918 0001:00007e64   919 0001:00007e86   921 0001:00007e99
   922 0001:00007e9e   923 0001:00007eba   924 0001:00007eca   926 0001:00007ed4
   928 0001:00007eed   929 0001:00007f1e   931 0001:00007f40   932 0001:00007f53
   933 0001:00007f80   934 0001:00007fb7   935 0001:00007fe7   936 0001:00007ff8
   938 0001:00008002   939 0001:0000801a   941 0001:0000803d   942 0001:00008062
   944 0001:0000807b   945 0001:0000808d   946 0001:0000809d   947 0001:000080c9
   948 0001:000080e6   949 0001:00008100   950 0001:00008131   951 0001:0000815d
   952 0001:00008189   953 0001:000081c5   954 0001:00008202   955 0001:00008212
   956 0001:00008229   957 0001:00008239   958 0001:0000824b   959 0001:00008250
   961 0001:0000825a   962 0001:00008272   965 0001:00008295   966 0001:000082ba
   968 0001:000082d3   969 0001:000082e5   970 0001:000082f5   971 0001:00008321
   972 0001:0000833e   973 0001:00008358   974 0001:000083ac   975 0001:000083d8
   976 0001:00008404   977 0001:00008441   978 0001:0000847d   979 0001:0000848d
   980 0001:000084a4   981 0001:000084b4   985 0001:000084c6   989 0001:000084cb
   991 0001:00008a30   992 0001:00008a68   993 0001:00008a77   994 0001:00008a83
   995 0001:00008aa4   996 0001:00008ab1   997 0001:00008ada   998 0001:00008af4
   999 0001:00008b0b  1000 0001:00008b34  1001 0001:00008b41  1002 0001:00008b51
  1004 0001:00008b71  1005 0001:00008b84  1006 0001:00008b91  1007 0001:00008bba
  1008 0001:00008bd5  1009 0001:00008bec  1010 0001:00008c17  1011 0001:00008c24
  1012 0001:00008c39  1014 0001:00008c59  1015 0001:00008c66  1016 0001:00008c8f
  1017 0001:00008ca9  1018 0001:00008cc0  1019 0001:00008cee  1020 0001:00008d12
  1021 0001:00008d1f  1022 0001:00008d33  1025 0001:00008d44  1026 0001:00008d7b
  1027 0001:00008db7  1028 0001:00008ddf  1029 0001:00008e02  1030 0001:00008e0b
  1031 0001:00008e14  1032 0001:00008e1e  1033 0001:00008e53  1035 0001:00008e69
  1036 0001:00008e6e  1037 0001:00008e86  1038 0001:00008eba  1039 0001:00008ec6
  1040 0001:00008ecb  1041 0001:00008ed8  1042 0001:00008ee8  1043 0001:00009060
  1044 0001:00009078  1045 0001:00009083  1047 0001:000090a1  1048 0001:000090ab
  1049 0001:000090b1  1050 0001:000090b7  1051 0001:000090b9  1052 0001:000090bf
  1054 0001:000090c5  1055 0001:000090f7  1056 0001:00009129  1057 0001:0000912e
  1058 0001:00009180  1059 0001:000091a7  1060 0001:000091c5  1062 0001:000091cf
  1063 0001:000091ff  1064 0001:0000921f  1065 0001:0000922b  1067 0001:0000922f
  1068 0001:00009249  1069 0001:0000926d  1070 0001:0000928a  1071 0001:0000928c
  1072 0001:0000929d  1076 0001:000092b2  1077 0001:000092be  1078 0001:000092e4
  1079 0001:000092e9  1080 0001:00009307  1082 0001:0000932d  1083 0001:00009339
  1084 0001:00009345  1085 0001:0000934f  1086 0001:00009359  1088 0001:0000935e
  1089 0001:0000936a  1090 0001:00009376  1091 0001:00009380  1092 0001:0000938a
  1094 0001:0000938c  1095 0001:00009398  1096 0001:000093a4  1097 0001:000093ae
  1098 0001:000093b8  1100 0001:000093ba  1101 0001:000093c6  1102 0001:000093d2
  1103 0001:000093dc  1107 0001:000093e6  1108 0001:0000941c  1109 0001:0000943a
  1110 0001:0000945e  1111 0001:0000946f  1113 0001:000094b5  1117 0001:000094ba
  1118 0001:000095c0  1119 0001:000095f2  1120 0001:00009601  1121 0001:0000960e
  1122 0001:00009637  1123 0001:00009652  1124 0001:00009669  1125 0001:00009692
  1126 0001:000096bb  1127 0001:000096d2  1128 0001:000096df  1129 0001:000096f6
  1130 0001:00009706  1132 0001:00009790  1133 0001:000097ad  1134 0001:000097b4
  1135 0001:000097c0  1137 0001:000097c6  1138 0001:000097fa  1139 0001:00009813
  1140 0001:00009850  1141 0001:0000986d  1142 0001:000098af  1143 0001:000098c6
  1144 0001:000098dc  1145 0001:000098df  1146 0001:00009950  1147 0001:0000996d
  1148 0001:00009974  1149 0001:0000999b  1150 0001:000099b4  1151 0001:000099e5
  1152 0001:00009a02  1153 0001:00009a0e  1154 0001:00009a39  1156 0001:00009a62
  1157 0001:00009ac0  1158 0001:00009add  1159 0001:00009afc  1160 0001:00009b09
  1161 0001:00009b34  1162 0001:00009b70  1163 0001:00009b8d  1164 0001:00009bb5
  1165 0001:00009bc9  1167 0001:00009c00  1168 0001:00009c18  1170 0001:00009c55
  1171 0001:00009c93  1172 0001:00009ca4  1174 0001:00009cbb  1175 0001:00009cc0

Line numbers for \OLD_PROJECTS_BACKUP\AmericanConquestAddon\_debug\BasicDiploRelation.obj(d:\old_projects_backup\americanconquestaddon\common.h) segment .text

    86 0001:00002e60    87 0001:00002e78    88 0001:00002e8e    91 0001:00002eb0
    92 0001:00002ec8    93 0001:00002ede

Line numbers for \OLD_PROJECTS_BACKUP\AmericanConquestAddon\_debug\BasicDiploRelation.obj(d:\old_projects_backup\americanconquestaddon\dipserver\basicdiplorelation.cpp) segment .text

     3 0001:00002bf0     4 0001:00002c0d     5 0001:00002c20     6 0001:00002c3d
     7 0001:00002c50     8 0001:00002c6d     9 0001:00002c6f    10 0001:00002c80
    11 0001:00002c9d    12 0001:00002c9f    13 0001:00002cc0    14 0001:00002cdd
    15 0001:00002cf0    16 0001:00002d0d    17 0001:00002d20    18 0001:00002d3d
    19 0001:00002d50    20 0001:00002d6d    21 0001:00002d6f    22 0001:00002d90
    23 0001:00002dad    24 0001:00002dc0    25 0001:00002ddd    26 0001:00002dfc
    27 0001:00002e09    28 0001:00002e30    29 0001:00002e4d

 Exports

  ordinal    name

        1    ?ActivateMind@@YAXEH@Z (void __cdecl ActivateMind(unsigned char,int))
        2    ?AddAnimals@@YA_NPAUGAMEOBJ@@0@Z (bool __cdecl AddAnimals(struct GAMEOBJ *,struct GAMEOBJ *))
        3    ?AddCannon@@YAXPAUGAMEOBJ@@E@Z (void __cdecl AddCannon(struct GAMEOBJ *,unsigned char))
        4    ?AddDipCenter@@YAGPAD000@Z (unsigned short __cdecl AddDipCenter(char *,char *,char *,char *))
        5    ?AddDipFriends@@YAXGPAUGAMEOBJ@@@Z (void __cdecl AddDipFriends(unsigned short,struct GAMEOBJ *))
        6    ?AddFirers@@YAXPAUGAMEOBJ@@E@Z (void __cdecl AddFirers(struct GAMEOBJ *,unsigned char))
        7    ?AddPsKillers@@YAXPAUGAMEOBJ@@E_N@Z (void __cdecl AddPsKillers(struct GAMEOBJ *,unsigned char,bool))
        8    ?AddStorm@@YAXPAUGAMEOBJ@@EH@Z (void __cdecl AddStorm(struct GAMEOBJ *,unsigned char,int))
        9    ?AddTomahawks@@YAXPAUGAMEOBJ@@EGHH@Z (void __cdecl AddTomahawks(struct GAMEOBJ *,unsigned char,unsigned short,int,int))
       10    ?CheckDipBuilding@@YAXEH@Z (void __cdecl CheckDipBuilding(unsigned char,int))
       11    ?ClearAllDipData@@YAXXZ (void __cdecl ClearAllDipData(void))
       12    ?CloseBattle@@YAXXZ (void __cdecl CloseBattle(void))
       13    ?CloseMind@@YAXXZ (void __cdecl CloseMind(void))
       14    ?DS_CloseAll@@YAXXZ (void __cdecl DS_CloseAll(void))
       15    ?DS_CloseRequest@@YAXK@Z (void __cdecl DS_CloseRequest(unsigned long))
       16    ?DS_GetRequestResult@@YAKKPAPADPAH@Z (unsigned long __cdecl DS_GetRequestResult(unsigned long,char * *,int *))
       17    ?DS_Process@@YAXXZ (void __cdecl DS_Process(void))
       18    ?DS_SendRequest@@YAKPADH@Z (unsigned long __cdecl DS_SendRequest(char *,int))
       19    ?DeactivateMind@@YAXE@Z (void __cdecl DeactivateMind(unsigned char))
       20    ?FreeSaveDipData@@YAXPAE@Z (void __cdecl FreeSaveDipData(unsigned char *))
       21    ?InitDipForThisMap@@YAXXZ (void __cdecl InitDipForThisMap(void))
       22    ?LoadAllDipData@@YAXPAEH@Z (void __cdecl LoadAllDipData(unsigned char *,int))
       23    ?LoadScript@@YAXXZ (void __cdecl LoadScript(void))
       24    ?MindCheats@@YAXEPAD@Z (void __cdecl MindCheats(unsigned char,char *))
       25    ?PerformDipCommand@@YAXPADH@Z (void __cdecl PerformDipCommand(char *,int))
       26    ?ProcessDipRelations@@YAXXZ (void __cdecl ProcessDipRelations(void))
       27    ?RunProtectUpg@@YAXEH@Z (void __cdecl RunProtectUpg(unsigned char,int))
       28    ?SaveAllDipData@@YAXPAPAEPAH@Z (void __cdecl SaveAllDipData(unsigned char * *,int *))
       29    ?SetAIForDiplo@@YA_NEHH@Z (bool __cdecl SetAIForDiplo(unsigned char,int,int))
       30    ?SetDipEasyTalk@@YAXG_N@Z (void __cdecl SetDipEasyTalk(unsigned short,bool))
       31    ?SetDipTalkRadius@@YAXGH@Z (void __cdecl SetDipTalkRadius(unsigned short,int))
       32    ?StartBattle@@YAXXZ (void __cdecl StartBattle(void))
