 intExplorer

 Timestamp is 3e6f293d (Wed Mar 12 14:34:05 2003)

 Preferred load address is 10000000

 Start         Length     Name                   Class
 0001:00000000 0002ac58H .text                   CODE
 0001:0002ac60 000001aaH .text$x                 CODE
 0002:00000000 000002d8H .idata$5                DATA
 0002:000002d8 00001050H .rdata                  DATA
 0002:00001328 000002a0H .xdata$x                DATA
 0002:000015c8 0000008cH .idata$2                DATA
 0002:00001654 00000014H .idata$3                DATA
 0002:00001668 000002d8H .idata$4                DATA
 0002:00001940 00001350H .idata$6                DATA
 0002:00002c90 000001e2H .edata                  DATA
 0003:00000000 00000004H .CRT$XCA                DATA
 0003:00000004 00000010H .CRT$XCU                DATA
 0003:00000014 00000004H .CRT$XCZ                DATA
 0003:00000018 00000004H .CRT$XIA                DATA
 0003:0000001c 0000000cH .CRT$XIC                DATA
 0003:00000028 00000004H .CRT$XIY                DATA
 0003:0000002c 00000004H .CRT$XIZ                DATA
 0003:00000030 00000004H .CRT$XPA                DATA
 0003:00000034 00000004H .CRT$XPX                DATA
 0003:00000038 00000004H .CRT$XPZ                DATA
 0003:0000003c 00000004H .CRT$XTA                DATA
 0003:00000040 00000004H .CRT$XTB                DATA
 0003:00000044 00000004H .CRT$XTZ                DATA
 0003:00000050 00002a68H .data                   DATA
 0003:00002ab8 00014150H .bss                    DATA

  Address         Publics by Value              Rva+Base     Lib:Object

 0001:00000000       ?SaveToBMP24@@YAXPADHHPAE@Z 10001000 f   Bmptool.obj
 0001:00000130       ?ReadBMP24@@YA_NPADPAUBMPformat@@PAPAE@Z 10001130 f   Bmptool.obj
 0001:00000270       ?ReadBMP8@@YA_NPADPAUBMPformat@@PAPAE@Z 10001270 f   Bmptool.obj
 0001:000003b0       ?ReadBMP8TOBPX@@YA_NPADPAPAE@Z 100013b0 f   Bmptool.obj
 0001:00000500       ?LoadBitmapLikeGrayscale@@YA_NPADPAH1PAPAE@Z 10001500 f   Bmptool.obj
 0001:00000640       ?GetResVal@@YAHPAEHHHHHH@Z 10001640 f   Bmptool.obj
 0001:00000810       ?GetSumm@@YAKPAD@Z         10001810 f   Bmptool.obj
 0001:000008d0       ?SaveToBMP8@@YAXPADHHPAEPAUPAL3@@@Z 100018d0 f   Bmptool.obj
 0001:00000ab0       ??2@YAPAXI@Z               10001ab0 f i Bmptool.obj
 0001:00000af0       ??3@YAXPAX@Z               10001af0 f i Bmptool.obj
 0001:00000b30       ?ReportIt@@YAXPADZZ        10001b30 f   DataXchange.obj
 0001:00000c20       ??0SXP_DevScope@@QAE@XZ    10001c20 f   DataXchange.obj
 0001:00000c70       ??1SXP_DevScope@@QAE@XZ    10001c70 f   DataXchange.obj
 0001:00000cb0       ?SendRequest@SXP_DevScope@@QAEKPAVsicExplorer@@PAD_N2@Z 10001cb0 f   DataXchange.obj
 0001:00000dc0       ?SendRequest@SXP_DevScope@@QAEKPAVsicExplorer@@PAVParsedRQ@@_N2@Z 10001dc0 f   DataXchange.obj
 0001:00001000       ?GetRequestResult@SXP_DevScope@@QAEKKPAVParsedRQ@@@Z 10002000 f   DataXchange.obj
 0001:00001100       ?CloseRequest@SXP_DevScope@@QAEXK@Z 10002100 f   DataXchange.obj
 0001:00001220       ?Process@SXP_DevScope@@QAEXXZ 10002220 f   DataXchange.obj
 0001:000012a0       ?CloseAll@SXP_DevScope@@QAEXXZ 100022a0 f   DataXchange.obj
 0001:00001320       ?Shutdown@SXP_DevScope@@QAEXXZ 10002320 f   DataXchange.obj
 0001:000013e0       ?RegisterDevice@SXP_DevScope@@QAEXPAD0@Z 100023e0 f   DataXchange.obj
 0001:000016f0       ?InitDevs@@YAXXZ           100026f0 f   DataXchange.obj
 0001:00001760       ?SendGlobalRequest@@YAKPAVsicExplorer@@PAD_N@Z 10002760 f   DataXchange.obj
 0001:000017b0       ?LoadDefaults@@YAHPAPAE@Z  100027b0 f   DataXchange.obj
 0001:00001860       ?SaveCurrentResult@@YAPADPAVOneSicWindow@@PAD@Z 10002860 f   DataXchange.obj
 0001:00001900       ?SaveCurrentResultTo@@YAPADPAVOneSicWindow@@PAD@Z 10002900 f   DataXchange.obj
 0001:00001980       ?EraseTempFiles@@YAXXZ     10002980 f   DataXchange.obj
 0001:00001a50       ?exec_LW_time@@YAXHPAPADPAH@Z 10002a50 f   DataXchange.obj
 0001:00001b70       ?exec_LW_move@@YAXHPAPADPAH@Z 10002b70 f   DataXchange.obj
 0001:00001c90       ?exec_LW_lockall@@YAXHPAPADPAH@Z 10002c90 f   DataXchange.obj
 0001:00001df0       ?exec_LW_lockbox@@YAXHPAPADPAH@Z 10002df0 f   DataXchange.obj
 0001:00001fc0       ?exec_LW_lock@@YAXHPAPADPAH@Z 10002fc0 f   DataXchange.obj
 0001:000021d0       ?exec_LW_visbox@@YAXHPAPADPAH@Z 100031d0 f   DataXchange.obj
 0001:000023e0       ?exec_LW_vis@@YAXHPAPADPAH@Z 100033e0 f   DataXchange.obj
 0001:00002650       ?exec_LW_enbbox@@YAXHPAPADPAH@Z 10003650 f   DataXchange.obj
 0001:00002830       ?exec_LW_enb@@YAXHPAPADPAH@Z 10003830 f   DataXchange.obj
 0001:00002a70       ?exec_LW_mapdata@@YAXHPAPADPAH@Z 10003a70 f   DataXchange.obj
 0001:00002b40       ?exec_LW_show@@YAXHPAPAD@Z 10003b40 f   DataXchange.obj
 0001:000030b0       ?exec_LW_file@@YAXHPAPAD@Z 100040b0 f   DataXchange.obj
 0001:000036c0       ?exec_LW_pfile@@YAXHPAPAD@Z 100046c0 f   DataXchange.obj
 0001:00003930       ?exec_LW_cfile@@YAXHPAPADPAH@Z 10004930 f   DataXchange.obj
 0001:00003ac0       ?exec_LW_bonus@@YAXHPAPADPAH@Z 10004ac0 f   DataXchange.obj
 0001:00003b50       ?exec_LW_message@@YAXHPAPADPAH@Z 10004b50 f   DataXchange.obj
 0001:00003be0       ?exec_LW_abort@@YAXHPAPADPAH@Z 10004be0 f   DataXchange.obj
 0001:00003c20       ?exec_LW_mupdate@@YAXHPAPADPAH@Z 10004c20 f   DataXchange.obj
 0001:00003d40       ?ForceOpenFile@@YAPAXPAD@Z 10004d40 f   DataXchange.obj
 0001:00003e70       ?exec_LW_mpt@@YAXHPAPADPAH@Z 10004e70 f   DataXchange.obj
 0001:00004030       ?exec_LW_mpclear@@YAXHPAPADPAH@Z 10005030 f   DataXchange.obj
 0001:00004070       ?exec_LW_xcfile@@YAXHPAPADPAH@Z 10005070 f   DataXchange.obj
 0001:00004220       ?exec_LW_key@@YAXHPAPADPAH@Z 10005220 f   DataXchange.obj
 0001:00004310       ?exec_LW_gvar@@YAXHPAPADPAH@Z 10005310 f   DataXchange.obj
 0001:00004420       ?exec_LW_compose@@YAXHPAPADPAH@Z 10005420 f   DataXchange.obj
 0001:000045d0       ?exec_LW_proc@@YAXHPAPADPAH@Z 100055d0 f   DataXchange.obj
 0001:00004630       ?exec_LW_mem@@YAXHPAPADPAH@Z 10005630 f   DataXchange.obj
 0001:000046c0       ?exec_LW_dtbl@@YAXHPAPADPAH@Z 100056c0 f   DataXchange.obj
 0001:000048d0       ?exec_LW_tbl@@YAXHPAPADPAH@Z 100058d0 f   DataXchange.obj
 0001:00004b10       ?ProcessDataXchange@@YAXXZ 10005b10 f   DataXchange.obj
 0001:000057f0       ?FilterRQ2Send@@YAXPAVsicExplorer@@PAVParsedRQ@@_N@Z 100067f0 f   DataXchange.obj
 0001:00006a70       ?StartDownloadInternetFile@@YAXPAD00@Z 10007a70 f   DataXchange.obj
 0001:00006de0       ?ProcessDownloadInternetFiles@@YAXXZ 10007de0 f   DataXchange.obj
 0001:00007010       ?SendRecBuffer@@YAXPAEH_N@Z 10008010 f   DataXchange.obj
 0001:00007200       ?exec_LW_dfp@@YAXHPAPADPAH@Z 10008200 f   DataXchange.obj
 0001:00007460       ?exec_LW_dff@@YAXHPAPADPAH@Z 10008460 f   DataXchange.obj
 0001:000076b0       ?exec_LW_uprec@@YAXHPAPADPAH@Z 100086b0 f   DataXchange.obj
 0001:00007770       ?exec_LW_showrec@@YAXHPAPADPAH@Z 10008770 f   DataXchange.obj
 0001:00007840       ??H@YAAAVDString@@PADAAV0@@Z 10008840 f   DString.obj
 0001:000078d0       ??4DString@@QAEAAV0@PAD@Z  100088d0 f   DString.obj
 0001:00007910       ??HDString@@QAEAAV0@PAD@Z  10008910 f   DString.obj
 0001:00007950       ??HDString@@QAEAAV0@AAV0@@Z 10008950 f   DString.obj
 0001:00007990       ??YDString@@QAEAAV0@PAD@Z  10008990 f   DString.obj
 0001:000079d0       ??YDString@@QAEAAV0@AAV0@@Z 100089d0 f   DString.obj
 0001:00007a10       ??ADString@@QAEDH@Z        10008a10 f   DString.obj
 0001:00007a60       ??8DString@@QAE_NPAD@Z     10008a60 f   DString.obj
 0001:00007ac0       ??8DString@@QAE_NAAV0@@Z   10008ac0 f   DString.obj
 0001:00007b20       ??0DString@@QAE@XZ         10008b20 f   DString.obj
 0001:00007b70       ??0DString@@QAE@PAD@Z      10008b70 f   DString.obj
 0001:00007bd0       ??1DString@@QAE@XZ         10008bd0 f   DString.obj
 0001:00007c40       ?ReadFromFile@DString@@QAEXPAD@Z 10008c40 f   DString.obj
 0001:00007d00       ?WriteToFile@DString@@QAEXPAD@Z 10008d00 f   DString.obj
 0001:00007d80       ?Add@DString@@QAEXAAV1@@Z  10008d80 f   DString.obj
 0001:00007e00       ?Add@DString@@QAEXPAD@Z    10008e00 f   DString.obj
 0001:00007e80       ?Replace0@DString@@QAEXPAD0@Z 10008e80 f   DString.obj
 0001:00007fa0       ?Replace@DString@@QAEXPADAAV1@@Z 10008fa0 f   DString.obj
 0001:00007ff0       ?Clear@DString@@QAEXXZ     10008ff0 f   DString.obj
 0001:00008030       ?Assign@DString@@QAEXPAD@Z 10009030 f   DString.obj
 0001:000080a0       ?Assign@DString@@QAEXAAV1@@Z 100090a0 f   DString.obj
 0001:000080f0       ?Free@DString@@QAEXXZ      100090f0 f   DString.obj
 0001:00008160       ?Allocate@DString@@QAEXH@Z 10009160 f   DString.obj
 0001:000081f0       ?Process@OneSicWindow@@QAEXXZ 100091f0 f   Explore.obj
 0001:00008810       ?Replace@@YAXPAPADPAD1AAH@Z 10009810 f   Explore.obj
 0001:00008980       ?DownloadRefs@OneSicWindow@@QAEXXZ 10009980 f   Explore.obj
 0001:00008e40       ?ReadNumber@@YAHPADPAHH@Z  10009e40 f   Explore.obj
 0001:00008f30       ?CReadX@@YAHPAPADHH@Z      10009f30 f   Explore.obj
 0001:00009090       ?CReadY@@YAHPAPADHHPAVOneBox@@@Z 1000a090 f   Explore.obj
 0001:000092f0       ?ReadCoordinates@@YAXPAPADAAH111PAVOneBox@@@Z 1000a2f0 f   Explore.obj
 0001:00009790       ?GetFontByName@sicExplorer@@QAEPAVRLCFont@@PAD@Z 1000a790 f   Explore.obj
 0001:00009ae0       ?GETHX@@YAHD@Z             1000aae0 f   Explore.obj
 0001:00009b40       ?ParseTheWholeText@OneSicWindow@@QAEHXZ 1000ab40 f   Explore.obj
 0001:0000d8e0       ??1OneInterfaceElement@@QAE@XZ 1000e8e0 f i Explore.obj
 0001:0000d920       ??0OneSicWindow@@QAE@XZ    1000e920 f   Explore.obj
 0001:0000d970       ??1OneSicWindow@@QAE@XZ    1000e970 f   Explore.obj
 0001:0000d9d0       ??0OneBox@@QAE@XZ          1000e9d0 f   Explore.obj
 0001:0000da30       ??1OneBox@@QAE@XZ          1000ea30 f   Explore.obj
 0001:0000da70       ?Erase@OneSicWindow@@QAEXXZ 1000ea70 f   Explore.obj
 0001:0000de20       ?EraseAllDialogs@sicExplorer@@QAEXXZ 1000ee20 f   Explore.obj
 0001:0000e090       ??1sicExplorer@@QAE@XZ     1000f090 f   Explore.obj
 0001:0000e1b0       ?CreateVar@OneSicWindow@@QAEPADPADH@Z 1000f1b0 f   Explore.obj
 0001:0000e330       ?GetVar@OneSicWindow@@QAEPADPAD@Z 1000f330 f   Explore.obj
 0001:0000e3c0       ?CreateGVar@sicExplorer@@QAEPADPADH@Z 1000f3c0 f   Explore.obj
 0001:0000e4e0       ?GetGVar@sicExplorer@@QAEPADPAD@Z 1000f4e0 f   Explore.obj
 0001:0000e570       ?CreateVar@sicExplorer@@QAEPADPADH@Z 1000f570 f   Explore.obj
 0001:0000e5e0       ?GetVar@sicExplorer@@QAEPADPAD@Z 1000f5e0 f   Explore.obj
 0001:0000e640       ?CreateSXProcess@OneSicWindow@@QAEPAXP6AXPAVsicExplorer@@PAXH@Z2H@Z 1000f640 f   Explore.obj
 0001:0000e760       ?CreateSXProcess@sicExplorer@@QAEPAXP6AXPAV1@PAXH@Z2H@Z 1000f760 f   Explore.obj
 0001:0000e7d0       ?InstallSXP_Device@@YAXPAD0@Z 1000f7d0 f   Explore.obj
 0001:0000e7f0       ?RegisterOutput@sicExplorer@@QAEXHHHH@Z 1000f7f0 f   Explore.obj
 0001:0000e850       ?ChangeOutput@sicExplorer@@QAEXHHHH@Z 1000f850 f   Explore.obj
 0001:0000ec10       ?NewWindow@sicExplorer@@QAEXPAD0@Z 1000fc10 f   Explore.obj
 0001:0000ee50       ?StepBack@sicExplorer@@QAEXXZ 1000fe50 f   Explore.obj
 0001:0000eea0       ?StepForward@sicExplorer@@QAEXXZ 1000fea0 f   Explore.obj
 0001:0000eef0       ?Refresh@sicExplorer@@QAEXXZ 1000fef0 f   Explore.obj
 0001:0000f0a0       _SXP_StepBack              100100a0 f   Explore.obj
 0001:0000f0e0       _SXP_StepForw              100100e0 f   Explore.obj
 0001:0000f120       _SXP_Refresh               10010120 f   Explore.obj
 0001:0000f160       _InitSXP                   10010160 f   Explore.obj
 0001:0000f280       _RunSXP                    10010280 f   Explore.obj
 0001:0000f390       _OpenRef                   10010390 f   Explore.obj
 0001:0000f450       _ResizeSXP                 10010450 f   Explore.obj
 0001:0000f4b0       _CloseSXP                  100104b0 f   Explore.obj
 0001:0000f500       _ProcessSXP                10010500 f   Explore.obj
 0001:0000ff10       ?EraseSXP@@YAXXZ           10010f10 f   Explore.obj
 0001:0000ff80       ?GetAccessKey@@YAPADH@Z    10010f80 f   Explore.obj
 0001:0000ffb0       ?SetAccessKey@@YAXHPAD@Z   10010fb0 f   Explore.obj
 0001:00010010       _SXP_SetVar                10011010 f   Explore.obj
 0001:00010170       _SXP_GetVar                10011170 f   Explore.obj
 0001:00010260       ?SaveCookies@OneSicWindow@@QAEXXZ 10011260 f   Explore.obj
 0001:00010390       ?LoadCookies@OneSicWindow@@QAEXXZ 10011390 f   Explore.obj
 0001:000104c0       ?CreateTable@sicExplorer@@QAEPAUOneSXPTable@@PAD@Z 100114c0 f   Explore.obj
 0001:000105c0       ?GetTable@sicExplorer@@QAEPAUOneSXPTable@@PAD@Z 100115c0 f   Explore.obj
 0001:00010650       ?GetHVAL@@YAKPAD@Z         10011650 f   Explore.obj
 0001:000108e0       ?GetTableHash@@YAKPAUOneSXPTable@@H@Z 100118e0 f   Explore.obj
 0001:000109c0       ?SendTableRefresh@sicExplorer@@QAEXPAD0@Z 100119c0 f   Explore.obj
 0001:00010c50       ?GetGPPictureIndex@sicExplorer@@QAEHPAD@Z 10011c50 f   Explore.obj
 0001:000112e0       ?ReParse@OneSicWindow@@QAEXXZ 100122e0 f   Explore.obj
 0001:00011800       ?LoadDefaultSettings@OneSicWindow@@QAEXXZ 10012800 f   Explore.obj
 0001:00011cd0       ??0OneInterfaceElement@@QAE@XZ 10012cd0 f   Explore.obj
 0001:00011d20       ?ClearActive@OneInterfaceElement@@QAEXXZ 10012d20 f   Explore.obj
 0001:00011de0       ?ClearParams@OneInterfaceElement@@QAEXXZ 10012de0 f   Explore.obj
 0001:00011ea0       ?Clear@OneInterfaceElement@@QAEXXZ 10012ea0 f   Explore.obj
 0001:00011fc0       ?SendToServer@@YA_NPAVSimpleDialog@@@Z 10012fc0 f   FnDefine.obj
 0001:00012050       ?SendSmartRequest@@YAXPAVsicExplorer@@PAD@Z 10013050 f   FnDefine.obj
 0001:00012860       ?ADI_Txt@@YA_NPAVsicExplorer@@PAVDialogsSystem@@PAH222HPAPADH3PAD@Z 10013860 f   FnDefine.obj
 0001:000134d0       ?ADI_Edit@@YA_NPAVsicExplorer@@PAVDialogsSystem@@PAH222HPAPADH3PAD@Z 100144d0 f   FnDefine.obj
 0001:000135d0       ?ProcPing@@YAXPAVsicExplorer@@PAXH@Z 100145d0 f   FnDefine.obj
 0001:00013640       ?ADI_Ping@@YA_NPAVsicExplorer@@PAVDialogsSystem@@PAH222HPAPADH3PAD@Z 10014640 f   FnDefine.obj
 0001:00013700       ?CBB_Process@@YAXPAVsicExplorer@@PAXH@Z 10014700 f   FnDefine.obj
 0001:000137d0       ?ADI_Combo@@YA_NPAVsicExplorer@@PAVDialogsSystem@@PAH222HPAPADH3PAD@Z 100147d0 f   FnDefine.obj
 0001:00013b30       ?CBB_Process2@@YAXPAVsicExplorer@@PAXH@Z 10014b30 f   FnDefine.obj
 0001:00013bf0       ?CBB_Close2@@YAXPAVsicExplorer@@PAXH@Z 10014bf0 f   FnDefine.obj
 0001:00013c90       ?ADI_Combo2@@YA_NPAVsicExplorer@@PAVDialogsSystem@@PAH222HPAPADH3PAD@Z 10014c90 f   FnDefine.obj
 0001:00014070       ?ADI_Btn@@YA_NPAVsicExplorer@@PAVDialogsSystem@@PAH222HPAPADH3PAD@Z 10015070 f   FnDefine.obj
 0001:00014430       ?ADI_SBtn@@YA_NPAVsicExplorer@@PAVDialogsSystem@@PAH222HPAPADH3PAD@Z 10015430 f   FnDefine.obj
 0001:00014680       ?CHK_Process@@YAXPAVsicExplorer@@PAXH@Z 10015680 f   FnDefine.obj
 0001:00014790       ?ADI_Chk@@YA_NPAVsicExplorer@@PAVDialogsSystem@@PAH222HPAPADH3PAD@Z 10015790 f   FnDefine.obj
 0001:00014a50       ?ADI_Rad@@YA_NPAVsicExplorer@@PAVDialogsSystem@@PAH222HPAPADH3PAD@Z 10015a50 f   FnDefine.obj
 0001:00014d30       ?ADI_Pan@@YA_NPAVsicExplorer@@PAVDialogsSystem@@PAH222HPAPADH3PAD@Z 10015d30 f   FnDefine.obj
 0001:00014e90       ?ADI_APan@@YA_NPAVsicExplorer@@PAVDialogsSystem@@PAH222HPAPADH3PAD@Z 10015e90 f   FnDefine.obj
 0001:000150f0       ?SOR_Process@@YAXPAVsicExplorer@@PAXH@Z 100160f0 f   FnDefine.obj
 0001:000151b0       ?ADI_Sort@@YA_NPAVsicExplorer@@PAVDialogsSystem@@PAH222HPAPADH3PAD@Z 100161b0 f   FnDefine.obj
 0001:00015450       ?ADI_Poly@@YA_NPAVsicExplorer@@PAVDialogsSystem@@PAH222HPAPADH3PAD@Z 10016450 f   FnDefine.obj
 0001:00015610       ?LimitString@@YAXPADPAVRLCFont@@H@Z 10016610 f   FnDefine.obj
 0001:000156a0       ?ADI_Stbl@@YA_NPAVsicExplorer@@PAVDialogsSystem@@PAH222HPAPADH3PAD@Z 100166a0 f   FnDefine.obj
 0001:00016090       ?ShowPixString@@YAXPAVsicExplorer@@HHHHPAVRLCFont@@PAD_N@Z 10017090 f   FnDefine.obj
 0001:000163b0       ?Draw_DBTBL@@YAXHHHHHEH@Z  100173b0 f   FnDefine.obj
 0001:00016910       ?Process_DBTBL@@YAXPAVsicExplorer@@PAXH@Z 10017910 f   FnDefine.obj
 0001:000172c0       ?Close_DBTBL@@YAXPAVsicExplorer@@PAXH@Z 100182c0 f   FnDefine.obj
 0001:000172e0       ?ADI_AddDBTBL@@YA_NPAVsicExplorer@@PAVDialogsSystem@@PAH222HPAPADH3PAD@Z 100182e0 f   FnDefine.obj
 0001:00018410       ?ShowPixProcess@@YAXPAVsicExplorer@@PAXH@Z 10019410 f   FnDefine.obj
 0001:00018510       ?ADI_Pix@@YA_NPAVsicExplorer@@PAVDialogsSystem@@PAH222HPAPADH3PAD@Z 10019510 f   FnDefine.obj
 0001:00018680       ?ADI_Ubtn@@YA_NPAVsicExplorer@@PAVDialogsSystem@@PAH222HPAPADH3PAD@Z 10019680 f   FnDefine.obj
 0001:00018870       ?ADI_gpBtn@@YA_NPAVsicExplorer@@PAVDialogsSystem@@PAH222HPAPADH3PAD@Z 10019870 f   FnDefine.obj
 0001:00018ad0       ?ADI_def_gp_btn@@YA_NPAVsicExplorer@@PAVDialogsSystem@@PAH222HPAPADH3PAD@Z 10019ad0 f   FnDefine.obj
 0001:00018be0       ?ADI_Hint@@YA_NPAVsicExplorer@@PAVDialogsSystem@@PAH222HPAPADH3PAD@Z 10019be0 f   FnDefine.obj
 0001:00018e10       ?ADI_HintParam@@YA_NPAVsicExplorer@@PAVDialogsSystem@@PAH222HPAPADH3PAD@Z 10019e10 f   FnDefine.obj
 0001:00018f10       ?ADI_Time@@YA_NPAVsicExplorer@@PAVDialogsSystem@@PAH222HPAPADH3PAD@Z 10019f10 f   FnDefine.obj
 0001:00019030       ?DrawMap@@YAXHHHHHEH@Z     1001a030 f   FnDefine.obj
 0001:00019090       ?MapClick@@YA_NPAVSimpleDialog@@@Z 1001a090 f   FnDefine.obj
 0001:00019230       ?ADI_Map@@YA_NPAVsicExplorer@@PAVDialogsSystem@@PAH222HPAPADH3PAD@Z 1001a230 f   FnDefine.obj
 0001:00019390       ?SetTitle@OneMap@@QAEXPAD@Z 1001a390 f i FnDefine.obj
 0001:000193d0       ?ADI_murl@@YA_NPAVsicExplorer@@PAVDialogsSystem@@PAH222HPAPADH3PAD@Z 1001a3d0 f   FnDefine.obj
 0001:00019450       ?ADI_uurl@@YA_NPAVsicExplorer@@PAVDialogsSystem@@PAH222HPAPADH3PAD@Z 1001a450 f   FnDefine.obj
 0001:00019550       ?sgetFile@@YAXPAVsicExplorer@@PAD@Z 1001a550 f   FnDefine.obj
 0001:000195f0       ?ADI_getf@@YA_NPAVsicExplorer@@PAVDialogsSystem@@PAH222HPAPADH3PAD@Z 1001a5f0 f   FnDefine.obj
 0001:00019650       ?ADI_ftxt@@YA_NPAVsicExplorer@@PAVDialogsSystem@@PAH222HPAPADH3PAD@Z 1001a650 f   FnDefine.obj
 0001:000197b0       ?SortStrings@@YAXPAPADH@Z  1001a7b0 f   FnDefine.obj
 0001:00019860       ?FileClickProc@@YAXPAPADH@Z 1001a860 f   FnDefine.obj
 0001:00019a90       ?EnumFilesInDirectory@@YAXPADPAPADH00@Z 1001aa90 f   FnDefine.obj
 0001:0001a1a0       ?BrowseChDisk@@YAXPAVsicExplorer@@PAXH@Z 1001b1a0 f   FnDefine.obj
 0001:0001a270       ?ADI_FBrowse@@YA_NPAVsicExplorer@@PAVDialogsSystem@@PAH222HPAPADH3PAD@Z 1001b270 f   FnDefine.obj
 0001:0001a690       ?ADI_NewFont@@YA_NPAVsicExplorer@@PAVDialogsSystem@@PAH222HPAPADH3PAD@Z 1001b690 f   FnDefine.obj
 0001:0001a980       ?CheckCondition@@YA_NPAD@Z 1001b980 f   FnDefine.obj
 0001:0001a9b0       ?ADI_if@@YA_NPAVsicExplorer@@PAVDialogsSystem@@PAH222HPAPADH3PAD@Z 1001b9b0 f   FnDefine.obj
 0001:0001a9f0       ?ShowVar@@YAXPAVsicExplorer@@PAXH@Z 1001b9f0 f   FnDefine.obj
 0001:0001ab60       ?ADI_Label@@YA_NPAVsicExplorer@@PAVDialogsSystem@@PAH222HPAPADH3PAD@Z 1001bb60 f   FnDefine.obj
 0001:0001adb0       ?InitIFNS@@YAXXZ           1001bdb0 f   FnDefine.obj
 0001:0001c3c0       ??0OneMap@@QAE@XZ          1001d3c0 f   GameOnMap.obj
 0001:0001c410       ?PushWindow@@YAXPAUTempWindow@@@Z 1001d410 f   GameOnMap.obj
 0001:0001c490       ?PopWindow@@YAXPAUTempWindow@@@Z 1001d490 f   GameOnMap.obj
 0001:0001c510       ?IntersectWindows@@YAXHHHH@Z 1001d510 f   GameOnMap.obj
 0001:0001c610       ?ReadWinStringF@@YA_NPAU_iobuf@@PADH@Z 1001d610 f   GameOnMap.obj
 0001:0001c6d0       ?LoadMapData@OneMap@@QAEXPAVsicExplorer@@@Z 1001d6d0 f   GameOnMap.obj
 0001:0001d1b0       ?ApplyColorsToScaleLayer@OneMap@@QAEXH@Z 1001e1b0 f   GameOnMap.obj
 0001:0001d3e0       ?ShowMapPart@OneMap@@QAEXXZ 1001e3e0 f   GameOnMap.obj
 0001:0001da20       ?SetCenterCoor@OneMap@@QAEXHH@Z 1001ea20 f   GameOnMap.obj
 0001:0001da70       ?RelativeMove@OneMap@@QAEXHH@Z 1001ea70 f   GameOnMap.obj
 0001:0001db30       ?ChangeScale@OneMap@@QAEXH@Z 1001eb30 f   GameOnMap.obj
 0001:0001db90       ?NormalizeCoordinates@OneMap@@QAEXXZ 1001eb90 f   GameOnMap.obj
 0001:0001de50       ?ClearAll@OneMap@@QAEXXZ   1001ee50 f   GameOnMap.obj
 0001:0001dfc0       ??1OneMap@@QAE@XZ          1001efc0 f   GameOnMap.obj
 0001:0001e000       ?UpdateMapData@OneMap@@QAEXPAE@Z 1001f000 f   GameOnMap.obj
 0001:0001e3c0       ?AddMapPicture@OneMap@@QAEXPADHHHHH@Z 1001f3c0 f   GameOnMap.obj
 0001:0001e650       ?ClearMapPictures@OneMap@@QAEXXZ 1001f650 f   GameOnMap.obj
 0001:0001e690       _DllMain@12                1001f690 f   IntExplorer.obj
 0001:0001e710       ??0ParsedRQ@@QAE@XZ        1001f710 f   ParseRQ.obj
 0001:0001e760       ??1ParsedRQ@@QAE@XZ        1001f760 f   ParseRQ.obj
 0001:0001e7a0       ?AddComm@ParsedRQ@@QAEXPAD@Z 1001f7a0 f   ParseRQ.obj
 0001:0001e890       ?AddParam@ParsedRQ@@QAEXPADH@Z 1001f890 f   ParseRQ.obj
 0001:0001e9c0       ?Clear@ParsedRQ@@QAEXXZ    1001f9c0 f   ParseRQ.obj
 0001:0001eb10       ?GetHVal@@YAHD@Z           1001fb10 f   ParseRQ.obj
 0001:0001eb70       ?Parse@ParsedRQ@@QAEXPAD@Z 1001fb70 f   ParseRQ.obj
 0001:0001ee30       ?Compact@ParsedRQ@@QAEHPADH@Z 1001fe30 f   ParseRQ.obj
 0001:0001f060       ?Extract@ParsedRQ@@QAEXPADH@Z 10020060 f   ParseRQ.obj
 0001:0001f1f0       ?UnParse@ParsedRQ@@QAEHPADH@Z 100201f0 f   ParseRQ.obj
 0001:0001f5e0       ?DelComm@ParsedRQ@@QAEXH@Z 100205e0 f   ParseRQ.obj
 0001:0001f730       ?AddParamToCom@ParsedRQ@@QAEXHPADH@Z 10020730 f   ParseRQ.obj
 0001:0001f860       ?AddIntParam@ParsedRQ@@QAEXH@Z 10020860 f   ParseRQ.obj
 0001:0001f8d0       ??0PingEngine@@QAE@XZ      100208d0 f   PingEngine.obj
 0001:0001f920       ??1PingEngine@@QAE@XZ      10020920 f   PingEngine.obj
 0001:0001f950       ?Setup@PingEngine@@QAEXXZ  10020950 f   PingEngine.obj
 0001:0001fae0       ?SendPingToIP@PingEngine@@QAE_NK@Z 10020ae0 f   PingEngine.obj
 0001:0001fc00       ?Process@PingEngine@@QAEXXZ 10020c00 f   PingEngine.obj
 0001:0001ff50       ?GetPing@PingEngine@@QAEHK@Z 10020f50 f   PingEngine.obj
 0001:000200b0       ?checksum@@YAGPAGH@Z       100210b0 f   PingEngine.obj
 0001:00020140       ?fill_icmp_data@@YAXPADH@Z 10021140 f   PingEngine.obj
 0001:000201d0       ?decode_resp@@YA_NPADHPAUsockaddr_in@@PAH@Z 100211d0 f   PingEngine.obj
 0001:00020370       ?GETPING@@YAHK@Z           10021370 f   PingEngine.obj
 0001:000203c6       ?RClose@@YAXPAX@Z          100213c6 f   dmcr:dmcr.exe
 0001:000203cc       ?RBlockWrite@@YAKPAX0K@Z   100213cc f   dmcr:dmcr.exe
 0001:000203d2       ?RRewrite@@YAPAXPBD@Z      100213d2 f   dmcr:dmcr.exe
 0001:000203d8       ?RSeek@@YAKPAXH@Z          100213d8 f   dmcr:dmcr.exe
 0001:000203de       ?_ExMalloc@@YAPAXH@Z       100213de f   dmcr:dmcr.exe
 0001:000203e4       ?RBlockRead@@YAKPAX0K@Z    100213e4 f   dmcr:dmcr.exe
 0001:000203ea       ?RReset@@YAPAXPBD@Z        100213ea f   dmcr:dmcr.exe
 0001:000203f0       ?_ExFree@@YAXPAX@Z         100213f0 f   dmcr:dmcr.exe
 0001:000203f6       ?RFileSize@@YAKPAX@Z       100213f6 f   dmcr:dmcr.exe
 0001:000203fc       ?_ExRealloc@@YAPAXPAXH@Z   100213fc f   dmcr:dmcr.exe
 0001:00020402       ?SetCurPtr@@YAXH@Z         10021402 f   dmcr:dmcr.exe
 0001:00020408       ?SetExComm@@YAXPADH@Z      10021408 f   dmcr:dmcr.exe
 0001:0002040e       ?PlayRecfile@@YAXPAD@Z     1002140e f   dmcr:dmcr.exe
 0001:00020414       ?addNewGP_VScrollBar@DialogsSystem@@QAEPAVVScrollBar@@PAVSimpleDialog@@HHHHHHH@Z 10021414 f   dmcr:dmcr.exe
 0001:0002041a       ?addClipper@DialogsSystem@@QAEPAVSimpleDialog@@HHHH@Z 1002141a f   dmcr:dmcr.exe
 0001:00020420       ?addCustomBorder@DialogsSystem@@QAEPAVCustomBorder@@HHHHHPAH0HH@Z 10021420 f   dmcr:dmcr.exe
 0001:00020426       ??0DialogsSystem@@QAE@XZ   10021426 f   dmcr:dmcr.exe
 0001:0002042c       ??1DialogsSystem@@QAE@XZ   1002142c f   dmcr:dmcr.exe
 0001:00020432       ?CloseDialogs@DialogsSystem@@QAEXXZ 10021432 f   dmcr:dmcr.exe
 0001:00020438       ?PreLoadGPImage@GP_System@@QAEHPAD@Z 10021438 f   dmcr:dmcr.exe
 0001:0002043e       ?ProcessDialogs@DialogsSystem@@QAEXXZ 1002143e f   dmcr:dmcr.exe
 0001:00020444       ?ProcessMessages@@YA_NXZ   10021444 f   dmcr:dmcr.exe
 0001:0002044a       ?addGP_Button@DialogsSystem@@QAEPAVGP_Button@@PAVSimpleDialog@@HHHHH@Z 1002144a f   dmcr:dmcr.exe
 0001:00020450       ?addTextButton@DialogsSystem@@QAEPAVTextButton@@PAVSimpleDialog@@HHPADPAVRLCFont@@22E@Z 10021450 f   dmcr:dmcr.exe
 0001:00020456       ?GetGPWidth@GP_System@@QAEHHH@Z 10021456 f   dmcr:dmcr.exe
 0001:0002045c       ?LoadGP@GP_System@@QAE_NH@Z 1002145c f   dmcr:dmcr.exe
 0001:00020462       ?GetRLCWidthUNICODE@@YAHPAUxRLCTable@@PAEPAH@Z 10021462 f   dmcr:dmcr.exe
 0001:00020468       ?GetRLCHeight@@YAHPAUxRLCTable@@E@Z 10021468 f   dmcr:dmcr.exe
 0001:0002046e       ?addInputBox@DialogsSystem@@QAEPAVInputBox@@PAVSimpleDialog@@HHPADHHHPAVRLCFont@@2@Z 1002146e f   dmcr:dmcr.exe
 0001:00020474       ?AddLine@ComboBox@@QAEXPAD@Z 10021474 f   dmcr:dmcr.exe
 0001:0002047a       ?AssignScroll@ComboBox@@QAEXPAVDialogsSystem@@PAPAVVScrollBar@@HHH@Z 1002147a f   dmcr:dmcr.exe
 0001:00020480       ?addGP_ComboBoxDLX@DialogsSystem@@QAEPAVComboBox@@PAVSimpleDialog@@HHHHHHHPAVRLCFont@@1PAD@Z 10021480 f   dmcr:dmcr.exe
 0001:00020486       ?addGP_TextButtonLimited@DialogsSystem@@QAEPAVGP_TextButton@@PAVSimpleDialog@@HHPADHHHHPAVRLCFont@@2@Z 10021486 f   dmcr:dmcr.exe
 0001:0002048c       ?GetGPHeight@GP_System@@QAEHHH@Z 1002148c f   dmcr:dmcr.exe
 0001:00020492       ?addStdGP_TextButton@DialogsSystem@@QAEPAVGP_TextButton@@HHHPADHHPAVRLCFont@@1@Z 10021492 f   dmcr:dmcr.exe
 0001:00020498       ?addGP_TextButton@DialogsSystem@@QAEPAVGP_TextButton@@PAVSimpleDialog@@HHPADHHPAVRLCFont@@2@Z 10021498 f   dmcr:dmcr.exe
 0001:0002049e       ?addGPPicture@DialogsSystem@@QAEPAVGPPicture@@PAVSimpleDialog@@HHHH@Z 1002149e f   dmcr:dmcr.exe
 0001:000204a4       ?addGP_CheckBox@DialogsSystem@@QAEPAVCheckBox@@PAVSimpleDialog@@HHPADPAVRLCFont@@2H_NHHHH@Z 100214a4 f   dmcr:dmcr.exe
 0001:000204aa       ?AddLine@Canvas@@QAEXHHHHE@Z 100214aa f   dmcr:dmcr.exe
 0001:000204b0       ?AddCanvas@DialogsSystem@@QAEPAVCanvas@@HHHH@Z 100214b0 f   dmcr:dmcr.exe
 0001:000204b6       ?GetPaletteColor@@YAEHHH@Z 100214b6 f   dmcr:dmcr.exe
 0001:000204bc       ?GetRLCStrWidth@@YAHPADPAVRLCFont@@@Z 100214bc f   dmcr:dmcr.exe
 0001:000204c2       ?ShowCharUNICODE@@YAXHHPAEPAVRLCFont@@@Z 100214c2 f   dmcr:dmcr.exe
 0001:000204c8       ?ShowGP@GP_System@@QAEXHHHHE@Z 100214c8 f   dmcr:dmcr.exe
 0001:000204ce       ?DrawFilledRect3@@YAXHHHHPAUCorners@@HHH@Z 100214ce f   dmcr:dmcr.exe
 0001:000204d4       ?addComplexBox@DialogsSystem@@QAEPAVComplexBox@@HHHHP6AXHHHHHEH@ZHH@Z 100214d4 f   dmcr:dmcr.exe
 0001:000204da       ?CheckGP_Inside@@YA_NHHHH@Z 100214da f   dmcr:dmcr.exe
 0001:000204e0       ?addCustomBox@DialogsSystem@@QAEPAVCustomBox@@HHHHP6AXHHHHHEH@Z@Z 100214e0 f   dmcr:dmcr.exe
 0001:000204e6       ?addTextViewer@DialogsSystem@@QAEPAVTextViewer@@PAVSimpleDialog@@HHHHPADPAVRLCFont@@@Z 100214e6 f   dmcr:dmcr.exe
 0001:000204ec       ?Clear@ComboBox@@QAEXXZ    100214ec f   dmcr:dmcr.exe
 0001:000204f2       ?SetShadowGP@RLCFont@@QAEXHHH@Z 100214f2 f   dmcr:dmcr.exe
 0001:000204f8       ?SetStdShadow@RLCFont@@QAEXXZ 100214f8 f   dmcr:dmcr.exe
 0001:000204fe       ?SetColorTable@RLCFont@@QAEXH@Z 100214fe f   dmcr:dmcr.exe
 0001:00020504       ?SetGPIndex@RLCFont@@QAEXH@Z 10021504 f   dmcr:dmcr.exe
 0001:0002050a       ?GetPalColor@@YAXEPAE00@Z  1002150a f   dmcr:dmcr.exe
 0001:00020510       ?ShowString@@YAXHHPBDPAVRLCFont@@@Z 10021510 f   dmcr:dmcr.exe
 0001:00020516       ?GPNFrames@GP_System@@QAEHH@Z 10021516 f   dmcr:dmcr.exe
 0001:0002051c       _ioctlsocket@12            1002151c f   wsock32:WSOCK32.dll
 0001:00020522       _setsockopt@20             10021522 f   wsock32:WSOCK32.dll
 0001:00020528       _WSAStartup@8              10021528 f   wsock32:WSOCK32.dll
 0001:0002052e       _sendto@24                 1002152e f   wsock32:WSOCK32.dll
 0001:00020534       _recvfrom@24               10021534 f   wsock32:WSOCK32.dll
 0001:0002053a       _WSASocketA@24             1002153a f   ws2_32:WS2_32.dll
 0001:00020540       ?SetGameID@@YAXPAD@Z       10021540 f   ichat:iChat.dll
 0001:00020546       ?SetChatWState@@YAXHH@Z    10021546 f   ichat:iChat.dll
 0001:0002054c       _GetSystemTime@4           1002154c f   kernel32:KERNEL32.dll
 0001:00020552       _FreeLibrary@4             10021552 f   kernel32:KERNEL32.dll
 0001:00020558       _GetProcAddress@8          10021558 f   kernel32:KERNEL32.dll
 0001:0002055e       _LoadLibraryA@4            1002155e f   kernel32:KERNEL32.dll
 0001:00020564       _GetTickCount@0            10021564 f   kernel32:KERNEL32.dll
 0001:0002056a       _FindClose@4               1002156a f   kernel32:KERNEL32.dll
 0001:00020570       _FindNextFileA@8           10021570 f   kernel32:KERNEL32.dll
 0001:00020576       _DeleteFileA@4             10021576 f   kernel32:KERNEL32.dll
 0001:0002057c       _FindFirstFileA@8          1002157c f   kernel32:KERNEL32.dll
 0001:00020582       _ExitProcess@4             10021582 f   kernel32:KERNEL32.dll
 0001:00020588       _CreateDirectoryA@8        10021588 f   kernel32:KERNEL32.dll
 0001:0002058e       _GetCurrentDirectoryA@8    1002158e f   kernel32:KERNEL32.dll
 0001:00020594       _GetLogicalDriveStringsA@8 10021594 f   kernel32:KERNEL32.dll
 0001:0002059a       _GetCurrentProcessId@0     1002159a f   kernel32:KERNEL32.dll
 0001:000205a0       _GetCursorPos@4            100215a0 f   user32:USER32.dll
 0001:000205a6       _ShellExecuteA@24          100215a6 f   shell32:SHELL32.dll
 0001:000205ac       __chkesp                   100215ac f   LIBC:chkesp.obj
 0001:000205c4       _fclose                    100215c4 f   LIBC:fclose.obj
 0001:0002061a       _fprintf                   1002161a f   LIBC:fprintf.obj
 0001:0002064c       _vsprintf                  1002164c f   LIBC:vsprintf.obj
 0001:0002069d       _sprintf                   1002169d f   LIBC:sprintf.obj
 0001:000206ef       __fsopen                   100216ef f   LIBC:fopen.obj
 0001:0002070f       _fopen                     1002170f f   LIBC:fopen.obj
 0001:00020730       __chkstk                   10021730 f   LIBC:chkstk.obj
 0001:00020730       __alloca_probe             10021730 f   LIBC:chkstk.obj
 0001:00020760       _memset                    10021760 f   LIBC:memset.obj
 0001:000207b8       ?_JumpToContinuation@@YGXPAXPAUEHRegistrationNode@@@Z 100217b8 f   LIBC:trnsctrl.obj
 0001:000207ec       ?_CallMemberFunction0@@YGXPAX0@Z 100217ec f   LIBC:trnsctrl.obj
 0001:000207f3       ?_CallMemberFunction1@@YGXPAX00@Z 100217f3 f   LIBC:trnsctrl.obj
 0001:000207fa       ?_CallMemberFunction2@@YGXPAX00H@Z 100217fa f   LIBC:trnsctrl.obj
 0001:00020801       ?_UnwindNestedFrames@@YGXPAUEHRegistrationNode@@PAUEHExceptionRecord@@@Z 10021801 f   LIBC:trnsctrl.obj
 0001:00020850       ___CxxFrameHandler         10021850 f   LIBC:trnsctrl.obj
 0001:00020886       ___CxxLongjmpUnwind@4      10021886 f   LIBC:trnsctrl.obj
 0001:000208a0       ?_CallCatchBlock2@@YAPAXPAUEHRegistrationNode@@PBU_s_FuncInfo@@PAXHK@Z 100218a0 f   LIBC:trnsctrl.obj
 0001:00020919       ?_CallSETranslator@@YAHPAUEHExceptionRecord@@PAUEHRegistrationNode@@PAX2PBU_s_FuncInfo@@H1@Z 10021919 f   LIBC:trnsctrl.obj
 0001:00020a42       ?_GetRangeOfTrysToCheck@@YAPBU_s_TryBlockMapEntry@@PBU_s_FuncInfo@@HHPAI1@Z 10021a42 f   LIBC:trnsctrl.obj
 0001:00020ac0       __global_unwind2           10021ac0 f   LIBC:exsup.obj
 0001:00020b02       __local_unwind2            10021b02 f   LIBC:exsup.obj
 0001:00020b5a       __NLG_Return2              10021b5a f   LIBC:exsup.obj
 0001:00020b6a       __abnormal_termination     10021b6a f   LIBC:exsup.obj
 0001:00020b8d       __NLG_Notify1              10021b8d f   LIBC:exsup.obj
 0001:00020b96       __NLG_Notify               10021b96 f   LIBC:exsup.obj
 0001:00020ba9       __NLG_Dispatch             10021ba9 f   LIBC:exsup.obj
 0001:00020bb0       _strcmp                    10021bb0 f   LIBC:strcmp.obj
 0001:00020c40       _memcpy                    10021c40 f   LIBC:memcpy.obj
 0001:00020f80       _strcpy                    10021f80 f   LIBC:strcat.obj
 0001:00020f90       _strcat                    10021f90 f   LIBC:strcat.obj
 0001:00021070       __onexit                   10022070 f   LIBC:onexit.obj
 0001:000210dd       _atexit                    100220dd f   LIBC:onexit.obj
 0001:000210ef       ___onexitinit              100220ef f   LIBC:onexit.obj
 0001:00021120       _strlen                    10022120 f   LIBC:strlen.obj
 0001:000211a0       _strncpy                   100221a0 f   LIBC:strncpy.obj
 0001:0002129e       _atol                      1002229e f   LIBC:atox.obj
 0001:00021329       _atoi                      10022329 f   LIBC:atox.obj
 0001:00021334       __atoi64                   10022334 f   LIBC:atox.obj
 0001:00021400       _strchr                    10022400 f   LIBC:strchr.obj
 0001:00021406       ___from_strstr_to_strchr   10022406 f   LIBC:strchr.obj
 0001:000214c0       _memmove                   100224c0 f   LIBC:memmove.obj
 0001:00021800       _strstr                    10022800 f   LIBC:strstr.obj
 0001:00021880       _fscanf                    10022880 f   LIBC:fscanf.obj
 0001:00021896       __utime                    10022896 f   LIBC:utime.obj
 0001:000218cd       __futime                   100228cd f   LIBC:utime.obj
 0001:00021a03       _sscanf                    10022a03 f   LIBC:sscanf.obj
 0001:00021a37       _fwrite                    10022a37 f   LIBC:fwrite.obj
 0001:00021b41       _rename                    10022b41 f   LIBC:rename.obj
 0001:00021b6f       _remove                    10022b6f f   LIBC:unlink.obj
 0001:00021b99       __unlink                   10022b99 f   LIBC:unlink.obj
 0001:00021ba4       ??_M@YGXPAXIHP6EX0@Z@Z     10022ba4 f   LIBC:ehvecdtr.obj
 0001:00021c24       ?__ArrayUnwind@@YGXPAXIHP6EX0@Z@Z 10022c24 f   LIBC:ehvecdtr.obj
 0001:00021c98       _abs                       10022c98 f   LIBC:abs.obj
 0001:00021ca3       ___dtoxmode                10022ca3 f   LIBC:stat.obj
 0001:00021d5b       __stat                     10022d5b f   LIBC:stat.obj
 0001:0002207e       _fgetc                     1002307e f   LIBC:fgetc.obj
 0001:00022098       _getc                      10023098 f   LIBC:fgetc.obj
 0001:000220a3       __CRT_INIT@12              100230a3 f   LIBC:dllcrt0.obj
 0001:0002215b       __DllMainCRTStartup@12     1002315b f   LIBC:dllcrt0.obj
 0001:000221f8       __amsg_exit                100231f8 f   LIBC:dllcrt0.obj
 0001:0002222b       _free                      1002322b f   LIBC:free.obj
 0001:00022294       __close                    10023294 f   LIBC:close.obj
 0001:00022347       __freebuf                  10023347 f   LIBC:_freebuf.obj
 0001:00022372       _fflush                    10023372 f   LIBC:fflush.obj
 0001:000223ad       __flush                    100233ad f   LIBC:fflush.obj
 0001:00022409       __flushall                 10023409 f   LIBC:fflush.obj
 0001:0002247f       __stbuf                    1002347f f   LIBC:_sftbuf.obj
 0001:0002250c       __ftbuf                    1002350c f   LIBC:_sftbuf.obj
 0001:00022549       __output                   10023549 f   LIBC:output.obj
 0001:00022d53       __flsbuf                   10023d53 f   LIBC:_flsbuf.obj
 0001:00022e68       __openfile                 10023e68 f   LIBC:_open.obj
 0001:00022fd8       __getstream                10023fd8 f   LIBC:stream.obj
 0001:00023050       ___InternalCxxFrameHandler 10024050 f   LIBC:frame.obj
 0001:00023397       ___FrameUnwindToState      10024397 f   LIBC:frame.obj
 0001:000237c0       ?_DestructExceptionObject@@YAXPAUEHExceptionRecord@@E@Z 100247c0 f   LIBC:frame.obj
 0001:00023850       __CallSettingFrame@12      10024850 f   LIBC:lowhelpr.obj
 0001:00023877       __NLG_Return               10024877 f   LIBC:lowhelpr.obj
 0001:0002389c       ?terminate@@YAXXZ          1002489c f   LIBC:hooks.obj
 0001:000238f2       ?unexpected@@YAXXZ         100248f2 f   LIBC:hooks.obj
 0001:00023902       ?_inconsistency@@YAXXZ     10024902 f   LIBC:hooks.obj
 0001:00023958       _realloc                   10024958 f   LIBC:realloc.obj
 0001:00023bf8       __cinit                    10024bf8 f   LIBC:crt0dat.obj
 0001:00023c25       _exit                      10024c25 f   LIBC:crt0dat.obj
 0001:00023c36       __exit                     10024c36 f   LIBC:crt0dat.obj
 0001:00023c47       __cexit                    10024c47 f   LIBC:crt0dat.obj
 0001:00023c56       __c_exit                   10024c56 f   LIBC:crt0dat.obj
 0001:00023d18       __msize                    10024d18 f   LIBC:msize.obj
 0001:00023d79       _malloc                    10024d79 f   LIBC:malloc.obj
 0001:00023d8b       __nh_malloc                10024d8b f   LIBC:malloc.obj
 0001:00023db7       __heap_alloc               10024db7 f   LIBC:malloc.obj
 0001:00023e2b       __isctype                  10024e2b f   LIBC:isctype.obj
 0001:00023ea0       __allmul                   10024ea0 f   LIBC:llmul.obj
 0001:00023ed4       __input                    10024ed4 f   LIBC:input.obj
 0001:00024985       __open                     10025985 f   LIBC:open.obj
 0001:0002499c       __sopen                    1002599c f   LIBC:open.obj
 0001:00024c55       __alloc_osfhnd             10025c55 f   LIBC:osfinfo.obj
 0001:00024cea       __set_osfhnd               10025cea f   LIBC:osfinfo.obj
 0001:00024d61       __free_osfhnd              10025d61 f   LIBC:osfinfo.obj
 0001:00024ddb       __get_osfhandle            10025ddb f   LIBC:osfinfo.obj
 0001:00024e18       __open_osfhandle           10025e18 f   LIBC:osfinfo.obj
 0001:00024eb5       _localtime                 10025eb5 f   LIBC:localtim.obj
 0001:00025015       _time                      10026015 f   LIBC:time.obj
 0001:000250f1       __write                    100260f1 f   LIBC:write.obj
 0001:0002529e       __dosmaperr                1002629e f   LIBC:dosmap.obj
 0001:00025310       __except_handler3          10026310 f   LIBC:exsup3.obj
 0001:000253cd       __seh_longjmp_unwind@4     100263cd f   LIBC:exsup3.obj
 0001:000253e8       __mbsicmp                  100263e8 f   LIBC:mbsicmp.obj
 0001:00025556       __mbsrchr                  10026556 f   LIBC:mbsrchr.obj
 0001:000255b6       ___loctotime_t             100265b6 f   LIBC:dtoxtime.obj
 0001:00025678       __fullpath                 10026678 f   LIBC:fullpath.obj
 0001:0002571b       __getdrive                 1002671b f   LIBC:drive.obj
 0001:0002575e       __chdrive                  1002675e f   LIBC:drive.obj
 0001:000257b5       __mbctolower               100267b5 f   LIBC:mbtolwr.obj
 0001:00025830       __mbspbrk                  10026830 f   LIBC:mbspbrk.obj
 0001:000258b5       __filbuf                   100268b5 f   LIBC:_filbuf.obj
 0001:0002598e       __GetLinkerVersion         1002698e f   LIBC:heapinit.obj
 0001:000259bb       ___heap_select             100269bb f   LIBC:heapinit.obj
 0001:00025b03       __heap_init                10026b03 f   LIBC:heapinit.obj
 0001:00025b60       __heap_term                10026b60 f   LIBC:heapinit.obj
 0001:00025c08       __ioinit                   10026c08 f   LIBC:ioinit.obj
 0001:00025db3       __ioterm                   10026db3 f   LIBC:ioinit.obj
 0001:00025dd6       __setenvp                  10026dd6 f   LIBC:stdenvp.obj
 0001:00025e8f       __setargv                  10026e8f f   LIBC:stdargv.obj
 0001:000260dc       ___crtGetEnvironmentStringsA 100270dc f   LIBC:a_env.obj
 0001:0002620e       __FF_MSGBANNER             1002720e f   LIBC:crt0msg.obj
 0001:00026247       __NMSG_WRITE               10027247 f   LIBC:crt0msg.obj
 0001:0002639a       __GET_RTERRMSG             1002739a f   LIBC:crt0msg.obj
 0001:000263cb       __get_sbh_threshold        100273cb f   LIBC:sbheap.obj
 0001:000263ea       __set_sbh_threshold        100273ea f   LIBC:sbheap.obj
 0001:0002649d       ___sbh_heap_init           1002749d f   LIBC:sbheap.obj
 0001:000264e5       ___sbh_find_block          100274e5 f   LIBC:sbheap.obj
 0001:00026510       ___sbh_free_block          10027510 f   LIBC:sbheap.obj
 0001:00026839       ___sbh_alloc_block         10027839 f   LIBC:sbheap.obj
 0001:00026b42       ___sbh_alloc_new_region    10027b42 f   LIBC:sbheap.obj
 0001:00026bf3       ___sbh_alloc_new_group     10027bf3 f   LIBC:sbheap.obj
 0001:00026cee       ___sbh_resize_block        10027cee f   LIBC:sbheap.obj
 0001:00026fe4       ___sbh_heapmin             10027fe4 f   LIBC:sbheap.obj
 0001:000270b5       ___sbh_heap_check          100280b5 f   LIBC:sbheap.obj
 0001:000273e4       __get_old_sbh_threshold    100283e4 f   LIBC:sbheap.obj
 0001:000273ea       __set_old_sbh_threshold    100283ea f   LIBC:sbheap.obj
 0001:00027406       ___old_sbh_new_region      10028406 f   LIBC:sbheap.obj
 0001:0002754a       ___old_sbh_release_region  1002854a f   LIBC:sbheap.obj
 0001:000275a0       ___old_sbh_decommit_pages  100285a0 f   LIBC:sbheap.obj
 0001:00027662       ___old_sbh_find_block      10028662 f   LIBC:sbheap.obj
 0001:000276b9       ___old_sbh_free_block      100286b9 f   LIBC:sbheap.obj
 0001:000276fe       ___old_sbh_alloc_block     100286fe f   LIBC:sbheap.obj
 0001:00027906       ___old_sbh_alloc_block_from_page 10028906 f   LIBC:sbheap.obj
 0001:00027a2a       ___old_sbh_resize_block    10028a2a f   LIBC:sbheap.obj
 0001:00027ad3       ___old_sbh_heap_check      10028ad3 f   LIBC:sbheap.obj
 0001:00027c31       __commit                   10028c31 f   LIBC:commit.obj
 0001:00027c88       ___initstdio               10028c88 f   LIBC:_file.obj
 0001:00027d2d       ___endstdio                10028d2d f   LIBC:_file.obj
 0001:00027d41       __isatty                   10028d41 f   LIBC:isatty.obj
 0001:00027d67       _wctomb                    10028d67 f   LIBC:wctomb.obj
 0001:00027dd0       __aulldiv                  10028dd0 f   LIBC:ulldiv.obj
 0001:00027e40       __aullrem                  10028e40 f   LIBC:ullrem.obj
 0001:00027eb5       __lseek                    10028eb5 f   LIBC:lseek.obj
 0001:00027f4f       __getbuf                   10028f4f f   LIBC:_getbuf.obj
 0001:00027f93       ?__CxxUnhandledExceptionFilter@@YGJPAU_EXCEPTION_POINTERS@@@Z 10028f93 f   LIBC:unhandld.obj
 0001:00027fd9       ?__CxxSetUnhandledExceptionFilter@@YAXXZ 10028fd9 f   LIBC:unhandld.obj
 0001:00027fea       ?__CxxRestoreUnhandledExceptionFilter@@YAXXZ 10028fea f   LIBC:unhandld.obj
 0001:00027ff7       ?_ValidateRead@@YAHPBXI@Z  10028ff7 f   LIBC:validate.obj
 0001:00028013       ?_ValidateWrite@@YAHPAXI@Z 10029013 f   LIBC:validate.obj
 0001:0002802f       ?_ValidateExecute@@YAHP6GHXZ@Z 1002902f f   LIBC:validate.obj
 0001:00028047       _abort                     10029047 f   LIBC:abort.obj
 0001:0002805e       ?_set_new_handler@@YAP6AHI@ZP6AHI@Z@Z 1002905e f   LIBC:handler.obj
 0001:0002806e       ?_query_new_handler@@YAP6AHI@ZXZ 1002906e f   LIBC:handler.obj
 0001:00028074       __callnewh                 10029074 f   LIBC:handler.obj
 0001:0002808f       ___crtGetStringTypeA       1002908f f   LIBC:a_str.obj
 0001:000281d8       _mbtowc                    100291d8 f   LIBC:mbtowc.obj
 0001:000282a0       _isalpha                   100292a0 f   LIBC:_ctype.obj
 0001:000282ce       _isupper                   100292ce f   LIBC:_ctype.obj
 0001:000282f6       _islower                   100292f6 f   LIBC:_ctype.obj
 0001:0002831e       _isdigit                   1002931e f   LIBC:_ctype.obj
 0001:00028346       _isxdigit                  10029346 f   LIBC:_ctype.obj
 0001:00028373       _isspace                   10029373 f   LIBC:_ctype.obj
 0001:0002839b       _ispunct                   1002939b f   LIBC:_ctype.obj
 0001:000283c3       _isalnum                   100293c3 f   LIBC:_ctype.obj
 0001:000283f1       _isprint                   100293f1 f   LIBC:_ctype.obj
 0001:0002841f       _isgraph                   1002941f f   LIBC:_ctype.obj
 0001:0002844d       _iscntrl                   1002944d f   LIBC:_ctype.obj
 0001:00028475       ___isascii                 10029475 f   LIBC:_ctype.obj
 0001:00028482       ___toascii                 10029482 f   LIBC:_ctype.obj
 0001:0002848a       ___iscsymf                 1002948a f   LIBC:_ctype.obj
 0001:000284c7       ___iscsym                  100294c7 f   LIBC:_ctype.obj
 0001:00028510       __allshl                   10029510 f   LIBC:llshl.obj
 0001:0002852f       _ungetc                    1002952f f   LIBC:ungetc.obj
 0001:0002859d       __chsize                   1002959d f   LIBC:chsize.obj
 0001:000286e3       __read                     100296e3 f   LIBC:read.obj
 0001:000288d9       ___tzset                   100298d9 f   LIBC:tzset.obj
 0001:000288ee       __tzset                    100298ee f   LIBC:tzset.obj
 0001:00028b4c       __isindst                  10029b4c f   LIBC:tzset.obj
 0001:00028e38       _gmtime                    10029e38 f   LIBC:gmtime.obj
 0001:00028f31       __setmbcp                  10029f31 f   LIBC:mbctype.obj
 0001:000292f5       __getmbcp                  1002a2f5 f   LIBC:mbctype.obj
 0001:00029305       ___initmbctable            1002a305 f   LIBC:mbctype.obj
 0001:00029321       ___crtLCMapStringA         1002a321 f   LIBC:a_map.obj
 0001:00029570       __stricmp                  1002a570 f   LIBC:stricmp.obj
 0001:00029570       __strcmpi                  1002a570 f   LIBC:stricmp.obj
 0001:00029570       _stricmp                   1002a570 f   LIBC:stricmp.obj
 0001:00029600       _strrchr                   1002a600 f   LIBC:strrchr.obj
 0001:00029627       __getcwd                   1002a627 f   LIBC:getcwd.obj
 0001:0002963a       __getdcwd                  1002a63a f   LIBC:getcwd.obj
 0001:0002970b       __validdrive               1002a70b f   LIBC:getcwd.obj
 0001:00029742       __toupper                  1002a742 f   LIBC:toupper.obj
 0001:0002974a       _toupper                   1002a74a f   LIBC:toupper.obj
 0001:00029820       _strpbrk                   1002a820 f   LIBC:strpbrk.obj
 0001:0002985a       _strtol                    1002a85a f   LIBC:strtol.obj
 0001:00029a79       _strtoul                   1002aa79 f   LIBC:strtol.obj
 0001:00029a90       _strncmp                   1002aa90 f   LIBC:strncmp.obj
 0001:00029ac8       ___crtMessageBoxA          1002aac8 f   LIBC:crtmbox.obj
 0001:00029b51       _calloc                    1002ab51 f   LIBC:calloc.obj
 0001:00029c02       __fcloseall                1002ac02 f   LIBC:closeall.obj
 0001:00029c5a       __fptrap                   1002ac5a f   LIBC:crt0fp.obj
 0001:00029c63       _signal                    1002ac63 f   LIBC:winsig.obj
 0001:00029da7       _raise                     1002ada7 f   LIBC:winsig.obj
 0001:00029f19       __setmode                  1002af19 f   LIBC:setmode.obj
 0001:00029f8f       _getenv                    1002af8f f   LIBC:getenv.obj
 0001:0002a00c       __tolower                  1002b00c f   LIBC:tolower.obj
 0001:0002a014       _tolower                   1002b014 f   LIBC:tolower.obj
 0001:0002a0df       __XcptFilter               1002b0df f   LIBC:winxfltr.obj
 0001:0002a263       __mbsnbicoll               1002b263 f   LIBC:mbsnbico.obj
 0001:0002a2a2       ___wtomb_environ           1002b2a2 f   LIBC:wtombenv.obj
 0001:0002a310       ___crtCompareStringA       1002b310 f   LIBC:a_cmp.obj
 0001:0002a5b8       ___crtsetenv               1002b5b8 f   LIBC:setenv.obj
 0001:0002a7fe       __mbschr                   1002b7fe f   LIBC:mbschr.obj
 0001:0002a871       __strdup                   1002b871 f   LIBC:strdup.obj
 0001:0002a8a0       _RtlUnwind@16              1002b8a0 f   kernel32:KERNEL32.dll
 0001:0002a8a6       _SetFileTime@16            1002b8a6 f   kernel32:KERNEL32.dll
 0001:0002a8ac       _LocalFileTimeToFileTime@8 1002b8ac f   kernel32:KERNEL32.dll
 0001:0002a8b2       _SystemTimeToFileTime@8    1002b8b2 f   kernel32:KERNEL32.dll
 0001:0002a8b8       _GetLastError@0            1002b8b8 f   kernel32:KERNEL32.dll
 0001:0002a8be       _MoveFileA@8               1002b8be f   kernel32:KERNEL32.dll
 0001:0002a8c4       _FileTimeToSystemTime@8    1002b8c4 f   kernel32:KERNEL32.dll
 0001:0002a8ca       _FileTimeToLocalFileTime@8 1002b8ca f   kernel32:KERNEL32.dll
 0001:0002a8d0       _GetDriveTypeA@4           1002b8d0 f   kernel32:KERNEL32.dll
 0001:0002a8d6       _GetCommandLineA@0         1002b8d6 f   kernel32:KERNEL32.dll
 0001:0002a8dc       _GetVersion@0              1002b8dc f   kernel32:KERNEL32.dll
 0001:0002a8e2       _HeapFree@12               1002b8e2 f   kernel32:KERNEL32.dll
 0001:0002a8e8       _CloseHandle@4             1002b8e8 f   kernel32:KERNEL32.dll
 0001:0002a8ee       _HeapReAlloc@16            1002b8ee f   kernel32:KERNEL32.dll
 0001:0002a8f4       _HeapAlloc@12              1002b8f4 f   kernel32:KERNEL32.dll
 0001:0002a8fa       _TerminateProcess@8        1002b8fa f   kernel32:KERNEL32.dll
 0001:0002a900       _GetCurrentProcess@0       1002b900 f   kernel32:KERNEL32.dll
 0001:0002a906       _HeapSize@12               1002b906 f   kernel32:KERNEL32.dll
 0001:0002a90c       _GetFileType@4             1002b90c f   kernel32:KERNEL32.dll
 0001:0002a912       _CreateFileA@28            1002b912 f   kernel32:KERNEL32.dll
 0001:0002a918       _SetStdHandle@8            1002b918 f   kernel32:KERNEL32.dll
 0001:0002a91e       _GetTimeZoneInformation@4  1002b91e f   kernel32:KERNEL32.dll
 0001:0002a924       _GetLocalTime@4            1002b924 f   kernel32:KERNEL32.dll
 0001:0002a92a       _WriteFile@20              1002b92a f   kernel32:KERNEL32.dll
 0001:0002a930       _GetFullPathNameA@16       1002b930 f   kernel32:KERNEL32.dll
 0001:0002a936       _SetCurrentDirectoryA@4    1002b936 f   kernel32:KERNEL32.dll
 0001:0002a93c       _GetModuleHandleA@4        1002b93c f   kernel32:KERNEL32.dll
 0001:0002a942       _GetModuleFileNameA@12     1002b942 f   kernel32:KERNEL32.dll
 0001:0002a948       _GetEnvironmentVariableA@12 1002b948 f   kernel32:KERNEL32.dll
 0001:0002a94e       _GetVersionExA@4           1002b94e f   kernel32:KERNEL32.dll
 0001:0002a954       _HeapDestroy@4             1002b954 f   kernel32:KERNEL32.dll
 0001:0002a95a       _HeapCreate@12             1002b95a f   kernel32:KERNEL32.dll
 0001:0002a960       _VirtualFree@12            1002b960 f   kernel32:KERNEL32.dll
 0001:0002a966       _SetHandleCount@4          1002b966 f   kernel32:KERNEL32.dll
 0001:0002a96c       _GetStdHandle@4            1002b96c f   kernel32:KERNEL32.dll
 0001:0002a972       _GetStartupInfoA@4         1002b972 f   kernel32:KERNEL32.dll
 0001:0002a978       _FreeEnvironmentStringsA@4 1002b978 f   kernel32:KERNEL32.dll
 0001:0002a97e       _FreeEnvironmentStringsW@4 1002b97e f   kernel32:KERNEL32.dll
 0001:0002a984       _WideCharToMultiByte@32    1002b984 f   kernel32:KERNEL32.dll
 0001:0002a98a       _GetEnvironmentStrings@0   1002b98a f   kernel32:KERNEL32.dll
 0001:0002a990       _GetEnvironmentStringsW@0  1002b990 f   kernel32:KERNEL32.dll
 0001:0002a996       _VirtualAlloc@16           1002b996 f   kernel32:KERNEL32.dll
 0001:0002a99c       _IsBadWritePtr@8           1002b99c f   kernel32:KERNEL32.dll
 0001:0002a9a2       _FlushFileBuffers@4        1002b9a2 f   kernel32:KERNEL32.dll
 0001:0002a9a8       _SetFilePointer@16         1002b9a8 f   kernel32:KERNEL32.dll
 0001:0002a9ae       _SetUnhandledExceptionFilter@4 1002b9ae f   kernel32:KERNEL32.dll
 0001:0002a9b4       _IsBadReadPtr@8            1002b9b4 f   kernel32:KERNEL32.dll
 0001:0002a9ba       _IsBadCodePtr@4            1002b9ba f   kernel32:KERNEL32.dll
 0001:0002a9c0       _MultiByteToWideChar@24    1002b9c0 f   kernel32:KERNEL32.dll
 0001:0002a9c6       _GetStringTypeA@20         1002b9c6 f   kernel32:KERNEL32.dll
 0001:0002a9cc       _GetStringTypeW@16         1002b9cc f   kernel32:KERNEL32.dll
 0001:0002a9d2       _SetEndOfFile@4            1002b9d2 f   kernel32:KERNEL32.dll
 0001:0002a9d8       _ReadFile@20               1002b9d8 f   kernel32:KERNEL32.dll
 0001:0002a9de       _GetCPInfo@8               1002b9de f   kernel32:KERNEL32.dll
 0001:0002a9e4       _GetACP@0                  1002b9e4 f   kernel32:KERNEL32.dll
 0001:0002a9ea       _GetOEMCP@0                1002b9ea f   kernel32:KERNEL32.dll
 0001:0002a9f0       _LCMapStringA@24           1002b9f0 f   kernel32:KERNEL32.dll
 0001:0002a9f6       _LCMapStringW@24           1002b9f6 f   kernel32:KERNEL32.dll
 0001:0002a9fc       _SetConsoleCtrlHandler@8   1002b9fc f   kernel32:KERNEL32.dll
 0001:0002aa02       _UnhandledExceptionFilter@4 1002ba02 f   kernel32:KERNEL32.dll
 0001:0002aa08       _CompareStringA@24         1002ba08 f   kernel32:KERNEL32.dll
 0001:0002aa0e       _CompareStringW@24         1002ba0e f   kernel32:KERNEL32.dll
 0001:0002aa14       _SetEnvironmentVariableA@8 1002ba14 f   kernel32:KERNEL32.dll
 0001:0002aa1a       __strupr                   1002ba1a f   LIBC:strupr.obj
 0001:0002aa1a       _strupr                    1002ba1a f   LIBC:strupr.obj
 0001:0002aab8       __itoa                     1002bab8 f   LIBC:xtoa.obj
 0001:0002aab8       _itoa                      1002bab8 f   LIBC:xtoa.obj
 0001:0002ab41       __ltoa                     1002bb41 f   LIBC:xtoa.obj
 0001:0002ab6b       __ultoa                    1002bb6b f   LIBC:xtoa.obj
 0001:0002ab86       __i64toa                   1002bb86 f   LIBC:xtoa.obj
 0001:0002ac3d       __ui64toa                  1002bc3d f   LIBC:xtoa.obj
 0002:00000000       __imp__GetTimeZoneInformation@4 1002c000     kernel32:KERNEL32.dll
 0002:00000004       __imp__SetEnvironmentVariableA@8 1002c004     kernel32:KERNEL32.dll
 0002:00000008       __imp__CompareStringW@24   1002c008     kernel32:KERNEL32.dll
 0002:0000000c       __imp__CompareStringA@24   1002c00c     kernel32:KERNEL32.dll
 0002:00000010       __imp__UnhandledExceptionFilter@4 1002c010     kernel32:KERNEL32.dll
 0002:00000014       __imp__SetConsoleCtrlHandler@8 1002c014     kernel32:KERNEL32.dll
 0002:00000018       __imp__LCMapStringW@24     1002c018     kernel32:KERNEL32.dll
 0002:0000001c       __imp__LCMapStringA@24     1002c01c     kernel32:KERNEL32.dll
 0002:00000020       __imp__GetOEMCP@0          1002c020     kernel32:KERNEL32.dll
 0002:00000024       __imp__GetACP@0            1002c024     kernel32:KERNEL32.dll
 0002:00000028       __imp__GetCPInfo@8         1002c028     kernel32:KERNEL32.dll
 0002:0000002c       __imp__ReadFile@20         1002c02c     kernel32:KERNEL32.dll
 0002:00000030       __imp__SetEndOfFile@4      1002c030     kernel32:KERNEL32.dll
 0002:00000034       __imp__GetStringTypeW@16   1002c034     kernel32:KERNEL32.dll
 0002:00000038       __imp__GetStringTypeA@20   1002c038     kernel32:KERNEL32.dll
 0002:0000003c       __imp__MultiByteToWideChar@24 1002c03c     kernel32:KERNEL32.dll
 0002:00000040       __imp__IsBadCodePtr@4      1002c040     kernel32:KERNEL32.dll
 0002:00000044       __imp__IsBadReadPtr@8      1002c044     kernel32:KERNEL32.dll
 0002:00000048       __imp__SetUnhandledExceptionFilter@4 1002c048     kernel32:KERNEL32.dll
 0002:0000004c       __imp__SetFilePointer@16   1002c04c     kernel32:KERNEL32.dll
 0002:00000050       __imp__FlushFileBuffers@4  1002c050     kernel32:KERNEL32.dll
 0002:00000054       __imp__IsBadWritePtr@8     1002c054     kernel32:KERNEL32.dll
 0002:00000058       __imp__VirtualAlloc@16     1002c058     kernel32:KERNEL32.dll
 0002:0000005c       __imp__GetEnvironmentStringsW@0 1002c05c     kernel32:KERNEL32.dll
 0002:00000060       __imp__GetEnvironmentStrings@0 1002c060     kernel32:KERNEL32.dll
 0002:00000064       __imp__WideCharToMultiByte@32 1002c064     kernel32:KERNEL32.dll
 0002:00000068       __imp__FreeEnvironmentStringsW@4 1002c068     kernel32:KERNEL32.dll
 0002:0000006c       __imp__FreeEnvironmentStringsA@4 1002c06c     kernel32:KERNEL32.dll
 0002:00000070       __imp__GetStartupInfoA@4   1002c070     kernel32:KERNEL32.dll
 0002:00000074       __imp__GetStdHandle@4      1002c074     kernel32:KERNEL32.dll
 0002:00000078       __imp__SetHandleCount@4    1002c078     kernel32:KERNEL32.dll
 0002:0000007c       __imp__VirtualFree@12      1002c07c     kernel32:KERNEL32.dll
 0002:00000080       __imp__HeapCreate@12       1002c080     kernel32:KERNEL32.dll
 0002:00000084       __imp__HeapDestroy@4       1002c084     kernel32:KERNEL32.dll
 0002:00000088       __imp__GetVersionExA@4     1002c088     kernel32:KERNEL32.dll
 0002:0000008c       __imp__GetEnvironmentVariableA@12 1002c08c     kernel32:KERNEL32.dll
 0002:00000090       __imp__GetModuleFileNameA@12 1002c090     kernel32:KERNEL32.dll
 0002:00000094       __imp__GetModuleHandleA@4  1002c094     kernel32:KERNEL32.dll
 0002:00000098       __imp__SetCurrentDirectoryA@4 1002c098     kernel32:KERNEL32.dll
 0002:0000009c       __imp__GetFullPathNameA@16 1002c09c     kernel32:KERNEL32.dll
 0002:000000a0       __imp__WriteFile@20        1002c0a0     kernel32:KERNEL32.dll
 0002:000000a4       __imp__GetLocalTime@4      1002c0a4     kernel32:KERNEL32.dll
 0002:000000a8       __imp__RtlUnwind@16        1002c0a8     kernel32:KERNEL32.dll
 0002:000000ac       __imp__SetStdHandle@8      1002c0ac     kernel32:KERNEL32.dll
 0002:000000b0       __imp__CreateFileA@28      1002c0b0     kernel32:KERNEL32.dll
 0002:000000b4       __imp__GetFileType@4       1002c0b4     kernel32:KERNEL32.dll
 0002:000000b8       __imp__HeapSize@12         1002c0b8     kernel32:KERNEL32.dll
 0002:000000bc       __imp__GetCurrentProcess@0 1002c0bc     kernel32:KERNEL32.dll
 0002:000000c0       __imp__TerminateProcess@8  1002c0c0     kernel32:KERNEL32.dll
 0002:000000c4       __imp__HeapAlloc@12        1002c0c4     kernel32:KERNEL32.dll
 0002:000000c8       __imp__HeapReAlloc@16      1002c0c8     kernel32:KERNEL32.dll
 0002:000000cc       __imp__CloseHandle@4       1002c0cc     kernel32:KERNEL32.dll
 0002:000000d0       __imp__HeapFree@12         1002c0d0     kernel32:KERNEL32.dll
 0002:000000d4       __imp__GetVersion@0        1002c0d4     kernel32:KERNEL32.dll
 0002:000000d8       __imp__GetCommandLineA@0   1002c0d8     kernel32:KERNEL32.dll
 0002:000000dc       __imp__GetDriveTypeA@4     1002c0dc     kernel32:KERNEL32.dll
 0002:000000e0       __imp__FileTimeToLocalFileTime@8 1002c0e0     kernel32:KERNEL32.dll
 0002:000000e4       __imp__FileTimeToSystemTime@8 1002c0e4     kernel32:KERNEL32.dll
 0002:000000e8       __imp__MoveFileA@8         1002c0e8     kernel32:KERNEL32.dll
 0002:000000ec       __imp__GetLastError@0      1002c0ec     kernel32:KERNEL32.dll
 0002:000000f0       __imp__SystemTimeToFileTime@8 1002c0f0     kernel32:KERNEL32.dll
 0002:000000f4       __imp__LocalFileTimeToFileTime@8 1002c0f4     kernel32:KERNEL32.dll
 0002:000000f8       __imp__SetFileTime@16      1002c0f8     kernel32:KERNEL32.dll
 0002:000000fc       __imp__ExitProcess@4       1002c0fc     kernel32:KERNEL32.dll
 0002:00000100       __imp__FindFirstFileA@8    1002c100     kernel32:KERNEL32.dll
 0002:00000104       __imp__CreateDirectoryA@8  1002c104     kernel32:KERNEL32.dll
 0002:00000108       __imp__GetSystemTime@4     1002c108     kernel32:KERNEL32.dll
 0002:0000010c       __imp__FreeLibrary@4       1002c10c     kernel32:KERNEL32.dll
 0002:00000110       __imp__GetCurrentProcessId@0 1002c110     kernel32:KERNEL32.dll
 0002:00000114       __imp__GetLogicalDriveStringsA@8 1002c114     kernel32:KERNEL32.dll
 0002:00000118       __imp__GetCurrentDirectoryA@8 1002c118     kernel32:KERNEL32.dll
 0002:0000011c       __imp__LoadLibraryA@4      1002c11c     kernel32:KERNEL32.dll
 0002:00000120       __imp__GetProcAddress@8    1002c120     kernel32:KERNEL32.dll
 0002:00000124       __imp__DeleteFileA@4       1002c124     kernel32:KERNEL32.dll
 0002:00000128       __imp__FindNextFileA@8     1002c128     kernel32:KERNEL32.dll
 0002:0000012c       __imp__FindClose@4         1002c12c     kernel32:KERNEL32.dll
 0002:00000130       __imp__GetTickCount@0      1002c130     kernel32:KERNEL32.dll
 0002:00000134       \177KERNEL32_NULL_THUNK_DATA 1002c134     kernel32:KERNEL32.dll
 0002:00000138       __imp__ShellExecuteA@24    1002c138     shell32:SHELL32.dll
 0002:0000013c       \177SHELL32_NULL_THUNK_DATA 1002c13c     shell32:SHELL32.dll
 0002:00000140       __imp__GetCursorPos@4      1002c140     user32:USER32.dll
 0002:00000144       \177USER32_NULL_THUNK_DATA 1002c144     user32:USER32.dll
 0002:00000148       __imp__WSASocketA@24       1002c148     ws2_32:WS2_32.dll
 0002:0000014c       \177WS2_32_NULL_THUNK_DATA 1002c14c     ws2_32:WS2_32.dll
 0002:00000150       __imp__WSAStartup@8        1002c150     wsock32:WSOCK32.dll
 0002:00000154       __imp__ioctlsocket@12      1002c154     wsock32:WSOCK32.dll
 0002:00000158       __imp__sendto@24           1002c158     wsock32:WSOCK32.dll
 0002:0000015c       __imp__setsockopt@20       1002c15c     wsock32:WSOCK32.dll
 0002:00000160       __imp__recvfrom@24         1002c160     wsock32:WSOCK32.dll
 0002:00000164       \177WSOCK32_NULL_THUNK_DATA 1002c164     wsock32:WSOCK32.dll
 0002:00000168       __imp_?RClose@@YAXPAX@Z    1002c168     dmcr:dmcr.exe
 0002:0000016c       __imp_?GPNFrames@GP_System@@QAEHH@Z 1002c16c     dmcr:dmcr.exe
 0002:00000170       __imp_?ScreenPtr@@3PAXA    1002c170     dmcr:dmcr.exe
 0002:00000174       __imp_?GameInProgress@@3_NA 1002c174     dmcr:dmcr.exe
 0002:00000178       __imp_?GetPalColor@@YAXEPAE00@Z 1002c178     dmcr:dmcr.exe
 0002:0000017c       __imp_?ScrWidth@@3HA       1002c17c     dmcr:dmcr.exe
 0002:00000180       __imp_?WindY1@@3HA         1002c180     dmcr:dmcr.exe
 0002:00000184       __imp_?WindLx@@3HA         1002c184     dmcr:dmcr.exe
 0002:00000188       __imp_?RRewrite@@YAPAXPBD@Z 1002c188     dmcr:dmcr.exe
 0002:0000018c       __imp_?SetGPIndex@RLCFont@@QAEXH@Z 1002c18c     dmcr:dmcr.exe
 0002:00000190       __imp_?SetColorTable@RLCFont@@QAEXH@Z 1002c190     dmcr:dmcr.exe
 0002:00000194       __imp_?SetStdShadow@RLCFont@@QAEXXZ 1002c194     dmcr:dmcr.exe
 0002:00000198       __imp_?SetShadowGP@RLCFont@@QAEXHHH@Z 1002c198     dmcr:dmcr.exe
 0002:0000019c       __imp_?Clear@ComboBox@@QAEXXZ 1002c19c     dmcr:dmcr.exe
 0002:000001a0       __imp_?addTextViewer@DialogsSystem@@QAEPAVTextViewer@@PAVSimpleDialog@@HHHHPADPAVRLCFont@@@Z 1002c1a0     dmcr:dmcr.exe
 0002:000001a4       __imp_?addCustomBox@DialogsSystem@@QAEPAVCustomBox@@HHHHP6AXHHHHHEH@Z@Z 1002c1a4     dmcr:dmcr.exe
 0002:000001a8       __imp_?CheckGP_Inside@@YA_NHHHH@Z 1002c1a8     dmcr:dmcr.exe
 0002:000001ac       __imp_?addComplexBox@DialogsSystem@@QAEPAVComplexBox@@HHHHP6AXHHHHHEH@ZHH@Z 1002c1ac     dmcr:dmcr.exe
 0002:000001b0       __imp_?DrawFilledRect3@@YAXHHHHPAUCorners@@HHH@Z 1002c1b0     dmcr:dmcr.exe
 0002:000001b4       __imp_?ShowGP@GP_System@@QAEXHHHHE@Z 1002c1b4     dmcr:dmcr.exe
 0002:000001b8       __imp_?ShowCharUNICODE@@YAXHHPAEPAVRLCFont@@@Z 1002c1b8     dmcr:dmcr.exe
 0002:000001bc       __imp_?GetRLCStrWidth@@YAHPADPAVRLCFont@@@Z 1002c1bc     dmcr:dmcr.exe
 0002:000001c0       __imp_?GetPaletteColor@@YAEHHH@Z 1002c1c0     dmcr:dmcr.exe
 0002:000001c4       __imp_?AddCanvas@DialogsSystem@@QAEPAVCanvas@@HHHH@Z 1002c1c4     dmcr:dmcr.exe
 0002:000001c8       __imp_?AddLine@Canvas@@QAEXHHHHE@Z 1002c1c8     dmcr:dmcr.exe
 0002:000001cc       __imp_?addGP_CheckBox@DialogsSystem@@QAEPAVCheckBox@@PAVSimpleDialog@@HHPADPAVRLCFont@@2H_NHHHH@Z 1002c1cc     dmcr:dmcr.exe
 0002:000001d0       __imp_?addGPPicture@DialogsSystem@@QAEPAVGPPicture@@PAVSimpleDialog@@HHHH@Z 1002c1d0     dmcr:dmcr.exe
 0002:000001d4       __imp_?addGP_TextButton@DialogsSystem@@QAEPAVGP_TextButton@@PAVSimpleDialog@@HHPADHHPAVRLCFont@@2@Z 1002c1d4     dmcr:dmcr.exe
 0002:000001d8       __imp_?addStdGP_TextButton@DialogsSystem@@QAEPAVGP_TextButton@@HHHPADHHPAVRLCFont@@1@Z 1002c1d8     dmcr:dmcr.exe
 0002:000001dc       __imp_?GetGPHeight@GP_System@@QAEHHH@Z 1002c1dc     dmcr:dmcr.exe
 0002:000001e0       __imp_?addGP_TextButtonLimited@DialogsSystem@@QAEPAVGP_TextButton@@PAVSimpleDialog@@HHPADHHHHPAVRLCFont@@2@Z 1002c1e0     dmcr:dmcr.exe
 0002:000001e4       __imp_?addGP_ComboBoxDLX@DialogsSystem@@QAEPAVComboBox@@PAVSimpleDialog@@HHHHHHHPAVRLCFont@@1PAD@Z 1002c1e4     dmcr:dmcr.exe
 0002:000001e8       __imp_?AssignScroll@ComboBox@@QAEXPAVDialogsSystem@@PAPAVVScrollBar@@HHH@Z 1002c1e8     dmcr:dmcr.exe
 0002:000001ec       __imp_?AddLine@ComboBox@@QAEXPAD@Z 1002c1ec     dmcr:dmcr.exe
 0002:000001f0       __imp_?addInputBox@DialogsSystem@@QAEPAVInputBox@@PAVSimpleDialog@@HHPADHHHPAVRLCFont@@2@Z 1002c1f0     dmcr:dmcr.exe
 0002:000001f4       __imp_?GetRLCHeight@@YAHPAUxRLCTable@@E@Z 1002c1f4     dmcr:dmcr.exe
 0002:000001f8       __imp_?GetRLCWidthUNICODE@@YAHPAUxRLCTable@@PAEPAH@Z 1002c1f8     dmcr:dmcr.exe
 0002:000001fc       __imp_?LoadGP@GP_System@@QAE_NH@Z 1002c1fc     dmcr:dmcr.exe
 0002:00000200       __imp_?GetGPWidth@GP_System@@QAEHHH@Z 1002c200     dmcr:dmcr.exe
 0002:00000204       __imp_?addTextButton@DialogsSystem@@QAEPAVTextButton@@PAVSimpleDialog@@HHPADPAVRLCFont@@22E@Z 1002c204     dmcr:dmcr.exe
 0002:00000208       __imp_?addGP_Button@DialogsSystem@@QAEPAVGP_Button@@PAVSimpleDialog@@HHHHH@Z 1002c208     dmcr:dmcr.exe
 0002:0000020c       __imp_?CurPalette@@3HA     1002c20c     dmcr:dmcr.exe
 0002:00000210       __imp_?ShowString@@YAXHHPBDPAVRLCFont@@@Z 1002c210     dmcr:dmcr.exe
 0002:00000214       __imp_?ProcessMessages@@YA_NXZ 1002c214     dmcr:dmcr.exe
 0002:00000218       __imp_?ProcessDialogs@DialogsSystem@@QAEXXZ 1002c218     dmcr:dmcr.exe
 0002:0000021c       __imp_?WindX@@3HA          1002c21c     dmcr:dmcr.exe
 0002:00000220       __imp_?WindX1@@3HA         1002c220     dmcr:dmcr.exe
 0002:00000224       __imp_?WindY@@3HA          1002c224     dmcr:dmcr.exe
 0002:00000228       __imp_?RSeek@@YAKPAXH@Z    1002c228     dmcr:dmcr.exe
 0002:0000022c       __imp_?RBlockWrite@@YAKPAX0K@Z 1002c22c     dmcr:dmcr.exe
 0002:00000230       __imp_?WindLy@@3HA         1002c230     dmcr:dmcr.exe
 0002:00000234       __imp_?GPS@@3VGP_System@@A 1002c234     dmcr:dmcr.exe
 0002:00000238       __imp_?PreLoadGPImage@GP_System@@QAEHPAD@Z 1002c238     dmcr:dmcr.exe
 0002:0000023c       __imp_?CloseDialogs@DialogsSystem@@QAEXXZ 1002c23c     dmcr:dmcr.exe
 0002:00000240       __imp_??1DialogsSystem@@QAE@XZ 1002c240     dmcr:dmcr.exe
 0002:00000244       __imp_??0DialogsSystem@@QAE@XZ 1002c244     dmcr:dmcr.exe
 0002:00000248       __imp_?addCustomBorder@DialogsSystem@@QAEPAVCustomBorder@@HHHHHPAH0HH@Z 1002c248     dmcr:dmcr.exe
 0002:0000024c       __imp_?RealLy@@3HA         1002c24c     dmcr:dmcr.exe
 0002:00000250       __imp_?RealLx@@3HA         1002c250     dmcr:dmcr.exe
 0002:00000254       __imp_?addClipper@DialogsSystem@@QAEPAVSimpleDialog@@HHHH@Z 1002c254     dmcr:dmcr.exe
 0002:00000258       __imp_?addNewGP_VScrollBar@DialogsSystem@@QAEPAVVScrollBar@@PAVSimpleDialog@@HHHHHHH@Z 1002c258     dmcr:dmcr.exe
 0002:0000025c       __imp_?fn10@@3VRLCFont@@A  1002c25c     dmcr:dmcr.exe
 0002:00000260       __imp_?fn8@@3VRLCFont@@A   1002c260     dmcr:dmcr.exe
 0002:00000264       __imp_?WhiteFont@@3VRLCFont@@A 1002c264     dmcr:dmcr.exe
 0002:00000268       __imp_?YellowFont@@3VRLCFont@@A 1002c268     dmcr:dmcr.exe
 0002:0000026c       __imp_?RedFont@@3VRLCFont@@A 1002c26c     dmcr:dmcr.exe
 0002:00000270       __imp_?BlackFont@@3VRLCFont@@A 1002c270     dmcr:dmcr.exe
 0002:00000274       __imp_?SmallWhiteFont@@3VRLCFont@@A 1002c274     dmcr:dmcr.exe
 0002:00000278       __imp_?SmallYellowFont@@3VRLCFont@@A 1002c278     dmcr:dmcr.exe
 0002:0000027c       __imp_?SmallRedFont@@3VRLCFont@@A 1002c27c     dmcr:dmcr.exe
 0002:00000280       __imp_?SmallBlackFont@@3VRLCFont@@A 1002c280     dmcr:dmcr.exe
 0002:00000284       __imp_?BigWhiteFont@@3VRLCFont@@A 1002c284     dmcr:dmcr.exe
 0002:00000288       __imp_?BigYellowFont@@3VRLCFont@@A 1002c288     dmcr:dmcr.exe
 0002:0000028c       __imp_?BigRedFont@@3VRLCFont@@A 1002c28c     dmcr:dmcr.exe
 0002:00000290       __imp_?BigBlackFont@@3VRLCFont@@A 1002c290     dmcr:dmcr.exe
 0002:00000294       __imp_?SpecialWhiteFont@@3VRLCFont@@A 1002c294     dmcr:dmcr.exe
 0002:00000298       __imp_?SpecialYellowFont@@3VRLCFont@@A 1002c298     dmcr:dmcr.exe
 0002:0000029c       __imp_?SpecialRedFont@@3VRLCFont@@A 1002c29c     dmcr:dmcr.exe
 0002:000002a0       __imp_?SpecialBlackFont@@3VRLCFont@@A 1002c2a0     dmcr:dmcr.exe
 0002:000002a4       __imp_?PlayRecfile@@YAXPAD@Z 1002c2a4     dmcr:dmcr.exe
 0002:000002a8       __imp_?SetExComm@@YAXPADH@Z 1002c2a8     dmcr:dmcr.exe
 0002:000002ac       __imp_?SetCurPtr@@YAXH@Z   1002c2ac     dmcr:dmcr.exe
 0002:000002b0       __imp_?_ExRealloc@@YAPAXPAXH@Z 1002c2b0     dmcr:dmcr.exe
 0002:000002b4       __imp_?RFileSize@@YAKPAX@Z 1002c2b4     dmcr:dmcr.exe
 0002:000002b8       __imp_?_ExFree@@YAXPAX@Z   1002c2b8     dmcr:dmcr.exe
 0002:000002bc       __imp_?RReset@@YAPAXPBD@Z  1002c2bc     dmcr:dmcr.exe
 0002:000002c0       __imp_?RBlockRead@@YAKPAX0K@Z 1002c2c0     dmcr:dmcr.exe
 0002:000002c4       __imp_?_ExMalloc@@YAPAXH@Z 1002c2c4     dmcr:dmcr.exe
 0002:000002c8       \177dmcr_NULL_THUNK_DATA   1002c2c8     dmcr:dmcr.exe
 0002:000002cc       __imp_?SetGameID@@YAXPAD@Z 1002c2cc     ichat:iChat.dll
 0002:000002d0       __imp_?SetChatWState@@YAXHH@Z 1002c2d0     ichat:iChat.dll
 0002:000002d4       \177iChat_NULL_THUNK_DATA  1002c2d4     ichat:iChat.dll
 0002:000002fc       ??_C@_02DILL@?$CFs?$AA@    1002c2fc     DataXchange.obj
 0002:00000300       ??_C@_0CK@LPFI@?$CFd?3?$CFd?5?$CFdms?5?5?5?5?5?5?5?5?5?5?5?5?5?5?5?5?5?5?5?5?5?5@ 1002c300     DataXchange.obj
 0002:0000032c       ??_C@_05KGFJ@s?4log?$AA@   1002c32c     DataXchange.obj
 0002:00000334       ??_C@_01FNLH@a?$AA@        1002c334     DataXchange.obj
 0002:00000338       ??_C@_03HHKO@?$CFs?6?$AA@  1002c338     DataXchange.obj
 0002:0000033c       ??_C@_0M@JCNF@too?5long?4?4?4?$AA@ 1002c33c     DataXchange.obj
 0002:00000348       ??_C@_0BJ@JMID@?$DP?$CFs_CloseRequest?$EA?$EAYAXK?$EAZ?$AA@ 1002c348     DataXchange.obj
 0002:00000364       ??_C@_0BE@COGG@?$DP?$CFs_CloseAll?$EA?$EAYAXXZ?$AA@ 1002c364     DataXchange.obj
 0002:00000378       ??_C@_0BD@NDOI@?$DP?$CFs_Process?$EA?$EAYAXXZ?$AA@ 1002c378     DataXchange.obj
 0002:0000038c       ??_C@_0CF@EFNA@?$DP?$CFs_GetRequestResult?$EA?$EAYAKKPAPADP@ 1002c38c     DataXchange.obj
 0002:000003b4       ??_C@_0BL@KELC@?$DP?$CFs_SendRequest?$EA?$EAYAKPADH?$EAZ?$AA@ 1002c3b4     DataXchange.obj
 0002:000003d0       ??_C@_02JCKF@GW?$AA@       1002c3d0     DataXchange.obj
 0002:000003d4       ??_C@_0O@LHOL@GW_Server?4DLL?$AA@ 1002c3d4     DataXchange.obj
 0002:000003e4       ??_C@_02DAG@DS?$AA@        1002c3e4     DataXchange.obj
 0002:000003e8       ??_C@_0O@LEKG@DipServer?4DLL?$AA@ 1002c3e8     DataXchange.obj
 0002:000003f8       ??_C@_02BPOJ@LF?$AA@       1002c3f8     DataXchange.obj
 0002:000003fc       ??_C@_0O@HMHA@LF_Server?4DLL?$AA@ 1002c3fc     DataXchange.obj
 0002:0000040c       ??_C@_0BK@BFNO@Internet?2Cash?2default?4cml?$AA@ 1002c40c     DataXchange.obj
 0002:00000428       ??_C@_0BN@DNAD@Internet?1Cash?1tempcml_?$CFX?4cml?$AA@ 1002c428     DataXchange.obj
 0002:00000448       ??_C@_0BB@JMAB@Internet?2Cash?2?$CFs?$AA@ 1002c448     DataXchange.obj
 0002:0000045c       ??_C@_0BM@OKPB@Internet?2Cash?2tempcml_?$CK?4cml?$AA@ 1002c45c     DataXchange.obj
 0002:00000478       ??_C@_0L@LOI@?$DM?$CBgoback?$CB?$DO?$AA@ 1002c478     DataXchange.obj
 0002:00000484       ??_C@_0M@LJGO@LW_pfile?$CG?$CFs?$AA@ 1002c484     DataXchange.obj
 0002:00000490       ??_C@_0BO@PABH@Internet?1cash?1tmpcml_0000?4cml?$AA@ 1002c490     DataXchange.obj
 0002:000004b0       ??_C@_0BB@EOLF@Internet?2cash?2?$CFs?$AA@ 1002c4b0     DataXchange.obj
 0002:000004c4       ??_C@_0BH@EIFD@GW?$HMmupdate?$CG?$CFs?200?$CG?$CFd?200?$AA@ 1002c4c4     DataXchange.obj
 0002:000004dc       ??_C@_02MHMJ@?$CFu?$AA@    1002c4dc     DataXchange.obj
 0002:000004e0       ??_C@_01LHO@r?$AA@         1002c4e0     DataXchange.obj
 0002:000004e4       ??_C@_0BG@CPDF@Internet?2Cash?2?$CFs?4date?$AA@ 1002c4e4     DataXchange.obj
 0002:000004fc       ??_C@_0BB@NIMC@Internet?1Cash?1?$CFs?$AA@ 1002c4fc     DataXchange.obj
 0002:00000510       ??_C@_02MECO@?$CFd?$AA@    1002c510     DataXchange.obj
 0002:00000514       ??_C@_02MBFK@?$CFX?$AA@    1002c514     DataXchange.obj
 0002:00000518       ??_C@_08KEMP@LW_abort?$AA@ 1002c518     DataXchange.obj
 0002:00000524       ??_C@_06PENL@LW_mem?$AA@   1002c524     DataXchange.obj
 0002:0000052c       ??_C@_07JBJI@LW_proc?$AA@  1002c52c     DataXchange.obj
 0002:00000534       ??_C@_0L@ODMG@LW_mupdate?$AA@ 1002c534     DataXchange.obj
 0002:00000540       ??_C@_0L@KHGC@LW_message?$AA@ 1002c540     DataXchange.obj
 0002:0000054c       ??_C@_08LIIM@LW_bonus?$AA@ 1002c54c     DataXchange.obj
 0002:00000558       ??_C@_06IFCN@LW_mpt?$AA@   1002c558     DataXchange.obj
 0002:00000560       ??_C@_0L@HKCK@LW_mpclear?$AA@ 1002c560     DataXchange.obj
 0002:0000056c       ??_C@_09IMBC@LW_xcfile?$AA@ 1002c56c     DataXchange.obj
 0002:00000578       ??_C@_08NEGF@LW_pfile?$AA@ 1002c578     DataXchange.obj
 0002:00000584       ??_C@_06OLJI@LW_enb?$AA@   1002c584     DataXchange.obj
 0002:0000058c       ??_C@_09KMJB@LW_enbbox?$AA@ 1002c58c     DataXchange.obj
 0002:00000598       ??_C@_06FOHL@LW_vis?$AA@   1002c598     DataXchange.obj
 0002:000005a0       ??_C@_09FIPK@LW_visbox?$AA@ 1002c5a0     DataXchange.obj
 0002:000005ac       ??_C@_0L@MMDO@LW_lockbox?$AA@ 1002c5ac     DataXchange.obj
 0002:000005b8       ??_C@_07GLLE@LW_lock?$AA@  1002c5b8     DataXchange.obj
 0002:000005c0       ??_C@_0L@CNG@LW_lockall?$AA@ 1002c5c0     DataXchange.obj
 0002:000005cc       ??_C@_0L@EFBI@LW_mapdata?$AA@ 1002c5cc     DataXchange.obj
 0002:000005d8       ??_C@_07MDIF@LW_move?$AA@  1002c5d8     DataXchange.obj
 0002:000005e0       ??_C@_0L@FCGE@LW_compose?$AA@ 1002c5e0     DataXchange.obj
 0002:000005ec       ??_C@_07JBBD@LW_time?$AA@  1002c5ec     DataXchange.obj
 0002:000005f4       ??_C@_0L@KABN@LW_showrec?$AA@ 1002c5f4     DataXchange.obj
 0002:00000600       ??_C@_08GFHA@LW_uprec?$AA@ 1002c600     DataXchange.obj
 0002:0000060c       ??_C@_06KGIG@LW_dff?$AA@   1002c60c     DataXchange.obj
 0002:00000614       ??_C@_06PAIE@LW_dfp?$AA@   1002c614     DataXchange.obj
 0002:0000061c       ??_C@_07EFIP@LW_dtbl?$AA@  1002c61c     DataXchange.obj
 0002:00000624       ??_C@_06NMNA@LW_tbl?$AA@   1002c624     DataXchange.obj
 0002:0000062c       ??_C@_07JIDM@LW_file?$AA@  1002c62c     DataXchange.obj
 0002:00000634       ??_C@_07LHBB@LW_gvar?$AA@  1002c634     DataXchange.obj
 0002:0000063c       ??_C@_06BLIA@LW_key?$AA@   1002c63c     DataXchange.obj
 0002:00000644       ??_C@_08DGFP@LW_cfile?$AA@ 1002c644     DataXchange.obj
 0002:00000650       ??_C@_07OILA@LW_show?$AA@  1002c650     DataXchange.obj
 0002:00000658       ??_C@_06ICKE@?9?9?$DO?$CFs?6?$AA@ 1002c658     DataXchange.obj
 0002:00000660       ??_C@_04FBFD@?$CFd?$CFd?$AA@ 1002c660     DataXchange.obj
 0002:00000668       ??_C@_06KKAG@LW_new?$AA@   1002c668     DataXchange.obj
 0002:00000670       ??_C@_00A@?$AA@            1002c670     DataXchange.obj
 0002:00000674       ??_C@_06FJD@dnfile?$AA@    1002c674     DataXchange.obj
 0002:0000067c       ??_C@_0BF@FOGE@Internet?2dnl?2?$CFs?4open?$AA@ 1002c67c     DataXchange.obj
 0002:00000694       ??_C@_0BG@PLIO@Internet?2dnl?2?$CFs?4ready?$AA@ 1002c694     DataXchange.obj
 0002:000006ac       ??_C@_06JJB@upfile?$AA@    1002c6ac     DataXchange.obj
 0002:000006b4       ??_C@_0BG@KDFF@upfile?$CI?$CFs?0?$CFd?$CL?$CFd?9?$DO?$CFd?$CJ?6?$AA@ 1002c6b4     DataXchange.obj
 0002:000006cc       ??_C@_02MLFD@ab?$AA@       1002c6cc     DataXchange.obj
 0002:000006d0       ??_C@_05JEPF@GW?$HM?$CFs?$AA@ 1002c6d0     DataXchange.obj
 0002:000006d8       ??_C@_0O@BKJK@?$FL?$CB?$CB?$CBERROR?$CB?$CB?$CB?$FN?$AA@ 1002c6d8     Explore.obj
 0002:000006e8       ??_C@_0BD@IEPG@Internet?2error?4log?$AA@ 1002c6e8     Explore.obj
 0002:000006fc       ??_C@_04KHOB@open?$AA@     1002c6fc     Explore.obj
 0002:00000704       ??_C@_04KFHH@?4txt?$AA@    1002c704     Explore.obj
 0002:0000070c       ??_C@_01KNJC@?$CG?$AA@     1002c70c     Explore.obj
 0002:00000710       ??_C@_0BF@GHFE@Internet?2cash?2?$CFs?4txt?$AA@ 1002c710     Explore.obj
 0002:00000728       ??_C@_03LOOF@get?$AA@      1002c728     Explore.obj
 0002:0000072c       ??_C@_04MCAD@XXBF?$AA@     1002c72c     Explore.obj
 0002:00000734       ??_C@_04KIKK@XXRF?$AA@     1002c734     Explore.obj
 0002:0000073c       ??_C@_04CGAB@XXYF?$AA@     1002c73c     Explore.obj
 0002:00000744       ??_C@_04OEKK@XXWF?$AA@     1002c744     Explore.obj
 0002:0000074c       ??_C@_04BHNA@SPBF?$AA@     1002c74c     Explore.obj
 0002:00000754       ??_C@_04HNHJ@SPRF?$AA@     1002c754     Explore.obj
 0002:0000075c       ??_C@_04PDNC@SPYF?$AA@     1002c75c     Explore.obj
 0002:00000764       ??_C@_04DBHJ@SPWF?$AA@     1002c764     Explore.obj
 0002:0000076c       ??_C@_03PMMF@BBF?$AA@      1002c76c     Explore.obj
 0002:00000770       ??_C@_03JGGM@BRF?$AA@      1002c770     Explore.obj
 0002:00000774       ??_C@_03BIMH@BYF?$AA@      1002c774     Explore.obj
 0002:00000778       ??_C@_03NKGM@BWF?$AA@      1002c778     Explore.obj
 0002:0000077c       ??_C@_03IPLJ@SBF?$AA@      1002c77c     Explore.obj
 0002:00000780       ??_C@_03OFBA@SRF?$AA@      1002c780     Explore.obj
 0002:00000784       ??_C@_03GLLL@SYF?$AA@      1002c784     Explore.obj
 0002:00000788       ??_C@_03KJBA@SWF?$AA@      1002c788     Explore.obj
 0002:0000078c       ??_C@_02NNEC@BF?$AA@       1002c78c     Explore.obj
 0002:00000790       ??_C@_02LHOL@RF?$AA@       1002c790     Explore.obj
 0002:00000794       ??_C@_02DJEA@YF?$AA@       1002c794     Explore.obj
 0002:00000798       ??_C@_02PLOL@WF?$AA@       1002c798     Explore.obj
 0002:0000079c       ??_C@_02HCHC@F8?$AA@       1002c79c     Explore.obj
 0002:000007a0       ??_C@_03DLBM@F10?$AA@      1002c7a0     Explore.obj
 0002:000007a4       ??_C@_07JKHD@?$CDresize?$AA@ 1002c7a4     Explore.obj
 0002:000007ac       ??_C@_05GFBF@?$CDfont?$AA@ 1002c7ac     Explore.obj
 0002:000007b4       ??_C@_04GGNJ@?$DM?$CFs?$DO?$AA@ 1002c7b4     Explore.obj
 0002:000007bc       ??_C@_05CAPG@?$CDsave?$AA@ 1002c7bc     Explore.obj
 0002:000007c4       ??_C@_07CNCP@?$CDhblock?$AA@ 1002c7c4     Explore.obj
 0002:000007cc       ??_C@_08OFDM@?$CDend?$CI?$CFs?$CJ?$AA@ 1002c7cc     Explore.obj
 0002:000007d8       ??_C@_06PHMN@?$CDblock?$AA@ 1002c7d8     Explore.obj
 0002:000007e0       ??_C@_0M@DMKN@?$CDlockresize?$AA@ 1002c7e0     Explore.obj
 0002:000007ec       ??_C@_06INMJ@?$CDsmall?$AA@ 1002c7ec     Explore.obj
 0002:000007f4       ??_C@_06PGEB@?$CDlarge?$AA@ 1002c7f4     Explore.obj
 0002:000007fc       ??_C@_05OHNG@?$CDexec?$AA@ 1002c7fc     Explore.obj
 0002:00000804       ??_C@_08OGIE@?$CDdef_tbl?$AA@ 1002c804     Explore.obj
 0002:00000810       ??_C@_0L@BBCI@?$CDdef_combo?$AA@ 1002c810     Explore.obj
 0002:0000081c       ??_C@_0M@ECGB@?$CDdef_scroll?$AA@ 1002c81c     Explore.obj
 0002:00000828       ??_C@_09PEP@?$CDdef_sbox?$AA@ 1002c828     Explore.obj
 0002:00000834       ??_C@_08NBOB@?$CDdef_box?$AA@ 1002c834     Explore.obj
 0002:00000840       ??_C@_0L@JKON@?$CDbtn_style?$AA@ 1002c840     Explore.obj
 0002:0000084c       ??_C@_08GDOB@?$CDdef_btn?$AA@ 1002c84c     Explore.obj
 0002:00000858       ??_C@_09LNEP@?$CDdef_sbtn?$AA@ 1002c858     Explore.obj
 0002:00000864       ??_C@_0L@GOLJ@?$CDdef_panel?$AA@ 1002c864     Explore.obj
 0002:00000870       ??_C@_05GIFE@?$CDebox?$AA@ 1002c870     Explore.obj
 0002:00000878       ??_C@_05OCJJ@?$CDsbox?$AA@ 1002c878     Explore.obj
 0002:00000880       ??_C@_04HPI@?$CDbox?$AA@   1002c880     Explore.obj
 0002:00000888       ??_C@_0BE@HMCB@Internet?2pix?2i_bor0?$AA@ 1002c888     Explore.obj
 0002:0000089c       ??_C@_0BE@CJAP@Internet?2pix?2i_bor2?$AA@ 1002c89c     Explore.obj
 0002:000008b0       ??_C@_0BD@OAAH@Interface?2LongBox0?$AA@ 1002c8b0     Explore.obj
 0002:000008c4       ??_C@_0BC@JHGE@Interface?2LongBox?$AA@ 1002c8c4     Explore.obj
 0002:000008d8       ??_C@_0BC@LBKO@Interface?2GScroll?$AA@ 1002c8d8     Explore.obj
 0002:000008ec       ??_C@_0BC@JKAE@Interface?2_Slider?$AA@ 1002c8ec     Explore.obj
 0002:00000900       ??_C@_0BJ@JMFM@Internet?2Cash?2Cookies?2?$CFs?$AA@ 1002c900     Explore.obj
 0002:0000091c       ??_C@_06NCP@GETTBL?$AA@    1002c91c     Explore.obj
 0002:00000924       ??_C@_03PJFH@?4GP?$AA@     1002c924     Explore.obj
 0002:00000928       ??_C@_03HOOF@?4gp?$AA@     1002c928     Explore.obj
 0002:0000092c       ??_C@_0BD@EKJA@Interface?2LongBox1?$AA@ 1002c92c     Explore.obj
 0002:00000940       ??_C@_0BD@NGJN@Interface?2_Slider1?$AA@ 1002c940     Explore.obj
 0002:00000954       ??_C@_0BE@NGLG@Internet?2pix?2i_bor1?$AA@ 1002c954     Explore.obj
 0002:00000968       ??_C@_02CCO@?$DM?$CF?$AA@  1002c968     FnDefine.obj
 0002:0000096c       ??_C@_08JOII@?$DM?$CDWinW?$CD?$DO?$AA@ 1002c96c     FnDefine.obj
 0002:00000978       ??_C@_08JBDG@?$DM?$CDWinH?$CD?$DO?$AA@ 1002c978     FnDefine.obj
 0002:00000984       ??_C@_01IJJ@c?$AA@         1002c984     FnDefine.obj
 0002:00000988       ??_C@_0CA@JFAK@?5?5?5?5?5?5?5?5?5?5?5?5?5?5?5?5?5?5?5?5?5?5?5?5?5?5?5?5?5?5?5?$AA@ 1002c988     FnDefine.obj
 0002:000009a8       ??_C@_01PLJA@0?$AA@        1002c9a8     FnDefine.obj
 0002:000009ac       ??_C@_01FCOA@?5?$AA@       1002c9ac     FnDefine.obj
 0002:000009b0       ??_C@_01FBAH@1?$AA@        1002c9b0     FnDefine.obj
 0002:000009b4       ??_C@_05EPIA@FIXED?$AA@    1002c9b4     FnDefine.obj
 0002:000009bc       ??_C@_04GAEI@ENUM?$AA@     1002c9bc     FnDefine.obj
 0002:000009c4       ??_C@_04NOIG@PING?$AA@     1002c9c4     FnDefine.obj
 0002:000009cc       ??_C@_03IJOL@INT?$AA@      1002c9cc     FnDefine.obj
 0002:000009d0       ??_C@_03JBMD@STR?$AA@      1002c9d0     FnDefine.obj
 0002:000009d4       ??_C@_06ONJN@TBL_SF?$AA@   1002c9d4     FnDefine.obj
 0002:000009dc       ??_C@_05IGEP@TBL_F?$AA@    1002c9dc     FnDefine.obj
 0002:000009e4       ??_C@_05CPPE@TBL_S?$AA@    1002c9e4     FnDefine.obj
 0002:000009ec       ??_C@_0BE@KIKB@GW?$HMfile?$CG?$CFs?200?$CG?$CFu?200?$AA@ 1002c9ec     FnDefine.obj
 0002:00000a00       ??_C@_0BB@KHG@Internet?1cash?1?$CFs?$AA@ 1002ca00     FnDefine.obj
 0002:00000a14       ??_C@_04EDBF@file?$AA@     1002ca14     FnDefine.obj
 0002:00000a1c       ??_C@_01PCFE@?2?$AA@       1002ca1c     FnDefine.obj
 0002:00000a20       ??_C@_05GBJE@chdir?$AA@    1002ca20     FnDefine.obj
 0002:00000a28       ??_C@_05NMKP@updir?$AA@    1002ca28     FnDefine.obj
 0002:00000a30       ??_C@_0CJ@JADD@LW_file?$CGInternet?1Cash?1tempcml_fi@ 1002ca30     FnDefine.obj
 0002:00000a5c       ??_C@_07CAII@file?$CG?$CFs?$AA@ 1002ca5c     FnDefine.obj
 0002:00000a64       ??_C@_0CE@GIN@?$HMInternet?1Cash?1folder?4gp?00?00?00?00@ 1002ca64     FnDefine.obj
 0002:00000a88       ??_C@_08IEFC@chdir?$CG?$CFs?$AA@ 1002ca88     FnDefine.obj
 0002:00000a98       ??_C@_0GL@DAPJ@?$HMInternet?1Cash?1folder?4gp?00?00?01?01@ 1002ca98     FnDefine.obj
 0002:00000b04       ??_C@_0BB@FOEA@?$CDfont?$CIWF?0YF?0WF?$CJ?6?$AA@ 1002cb04     FnDefine.obj
 0002:00000b18       ??_C@_0EH@HKBL@?$CDtxt?$FL?$CF?$CFFDR?$CFd?$FN?$CI?$CFs?$FLx?30?0y?3?$CF?$CFFDR?$CFd?0w@ 1002cb18     FnDefine.obj
 0002:00000b60       ??_C@_0EA@GIEF@?$CDtxt?$FL?$CF?$CFFDR0?$FN?$CI?$CFs?$FLx?30?0y?30?0w?31000?0h@ 1002cb60     FnDefine.obj
 0002:00000ba0       ??_C@_05PBPA@?$DM?$CFs?$DO?6?$AA@ 1002cba0     FnDefine.obj
 0002:00000ba8       ??_C@_0CA@IBAE@Internet?2Cash?2tempcml_files?4cml?$AA@ 1002cba8     FnDefine.obj
 0002:00000bc8       ??_C@_01LLF@w?$AA@         1002cbc8     FnDefine.obj
 0002:00000bcc       ??_C@_02OOND@?4?4?$AA@     1002cbcc     FnDefine.obj
 0002:00000bd0       ??_C@_01PJCK@?4?$AA@       1002cbd0     FnDefine.obj
 0002:00000bd4       ??_C@_05KEJO@?$CFs?2?$CFs?$AA@ 1002cbd4     FnDefine.obj
 0002:00000bdc       ??_C@_04KIKH@none?$AA@     1002cbdc     FnDefine.obj
 0002:00000be4       ??_C@_03CKG@std?$AA@       1002cbe4     FnDefine.obj
 0002:00000be8       ??_C@_0L@DEHC@exception?$CB?$AA@ 1002cbe8     FnDefine.obj
 0002:00000bf4       ??_C@_0BB@EPKN@InvHexValue?$CFd?3?$CFs?$AA@ 1002cbf4     FnDefine.obj
 0002:00000c08       ??_C@_0N@CLON@LV_01ED67_?$CFd?$AA@ 1002cc08     FnDefine.obj
 0002:00000c18       ??_C@_07MNFC@?$CDclabel?$AA@ 1002cc18     FnDefine.obj
 0002:00000c20       ??_C@_06EFB@?$CDlabel?$AA@ 1002cc20     FnDefine.obj
 0002:00000c28       ??_C@_06EHDP@?$CDnfont?$AA@ 1002cc28     FnDefine.obj
 0002:00000c30       ??_C@_05FFGG@?$CDping?$AA@ 1002cc30     FnDefine.obj
 0002:00000c38       ??_C@_08FKHL@?$CDfbrowse?$AA@ 1002cc38     FnDefine.obj
 0002:00000c44       ??_C@_05DCKP@?$CDuurl?$AA@ 1002cc44     FnDefine.obj
 0002:00000c4c       ??_C@_05ENBO@?$CDmurl?$AA@ 1002cc4c     FnDefine.obj
 0002:00000c54       ??_C@_05DPKH@?$CDftxt?$AA@ 1002cc54     FnDefine.obj
 0002:00000c5c       ??_C@_05HKCJ@?$CDgetf?$AA@ 1002cc5c     FnDefine.obj
 0002:00000c64       ??_C@_04LPDP@?$CDmap?$AA@  1002cc64     FnDefine.obj
 0002:00000c6c       ??_C@_05KOPP@?$CDtime?$AA@ 1002cc6c     FnDefine.obj
 0002:00000c74       ??_C@_0L@MOOG@?$CDhintparam?$AA@ 1002cc74     FnDefine.obj
 0002:00000c80       ??_C@_05HMBO@?$CDhint?$AA@ 1002cc80     FnDefine.obj
 0002:00000c88       ??_C@_05OMPC@?$CDapan?$AA@ 1002cc88     FnDefine.obj
 0002:00000c90       ??_C@_05EFAA@?$CDcpix?$AA@ 1002cc90     FnDefine.obj
 0002:00000c98       ??_C@_0M@JMDL@?$CDdef_gp_btn?$AA@ 1002cc98     FnDefine.obj
 0002:00000ca4       ??_C@_06LMEK@?$CDgpbtn?$AA@ 1002cca4     FnDefine.obj
 0002:00000cac       ??_C@_05OKLK@?$CDcbb2?$AA@ 1002ccac     FnDefine.obj
 0002:00000cb4       ??_C@_05IPHF@?$CDubtn?$AA@ 1002ccb4     FnDefine.obj
 0002:00000cbc       ??_C@_04PFEA@?$CDpix?$AA@  1002ccbc     FnDefine.obj
 0002:00000cc4       ??_C@_06KNEK@?$CDDBTBL?$AA@ 1002ccc4     FnDefine.obj
 0002:00000ccc       ??_C@_05FAJJ@?$CDsbtn?$AA@ 1002cccc     FnDefine.obj
 0002:00000cd4       ??_C@_05NFPM@?$CDstbl?$AA@ 1002ccd4     FnDefine.obj
 0002:00000cdc       ??_C@_05FHJ@?$CDsort?$AA@  1002ccdc     FnDefine.obj
 0002:00000ce4       ??_C@_04BGBG@?$CDpan?$AA@  1002cce4     FnDefine.obj
 0002:00000cec       ??_C@_04LDKN@?$CDrad?$AA@  1002ccec     FnDefine.obj
 0002:00000cf4       ??_C@_04GCHC@?$CDchk?$AA@  1002ccf4     FnDefine.obj
 0002:00000cfc       ??_C@_04LFPI@?$CDbtn?$AA@  1002ccfc     FnDefine.obj
 0002:00000d04       ??_C@_05JGPO@?$CDpoly?$AA@ 1002cd04     FnDefine.obj
 0002:00000d0c       ??_C@_04EFM@?$CDcbb?$AA@   1002cd0c     FnDefine.obj
 0002:00000d14       ??_C@_05NDI@?$CDedit?$AA@  1002cd14     FnDefine.obj
 0002:00000d1c       ??_C@_05PPMO@?$CDrtxt?$AA@ 1002cd1c     FnDefine.obj
 0002:00000d24       ??_C@_05IPLN@?$CDctxt?$AA@ 1002cd24     FnDefine.obj
 0002:00000d2c       ??_C@_01JME@l?$AA@         1002cd2c     FnDefine.obj
 0002:00000d30       ??_C@_04DPPN@?$CDtxt?$AA@  1002cd30     FnDefine.obj
 0002:00000d38       ??_C@_0BJ@NHEP@Internet?2Cash?2?$CFs?4nations?$AA@ 1002cd38     GameOnMap.obj
 0002:00000d54       ??_C@_0BN@IPIM@Internet?2Cash?2?$CFs_nations?4bmp?$AA@ 1002cd54     GameOnMap.obj
 0002:00000d74       ??_C@_0BH@EMAB@Internet?2Cash?2?$CFs?4fonts?$AA@ 1002cd74     GameOnMap.obj
 0002:00000d8c       ??_C@_0BI@GFDJ@Internet?2Cash?2?$CFs_?$CFd?4bmp?$AA@ 1002cd8c     GameOnMap.obj
 0002:00000da4       ??_C@_0CC@FBHP@Internet?2Cash?2colors_?$CFd_?$CFd_?$CFd?4da@ 1002cda4     GameOnMap.obj
 0002:00000dc8       ??_C@_06KLBM@?$CFd?$CFd?$CFd?$AA@ 1002cdc8     GameOnMap.obj
 0002:00000dd0       ??_C@_0BI@PEGP@Internet?2Cash?2?$CFs?4colors?$AA@ 1002cdd0     GameOnMap.obj
 0002:00000de8       ??_C@_0BG@HCNB@Internet?2Cash?2?$CFs_?$CK?4gp?$AA@ 1002cde8     GameOnMap.obj
 0002:00000e00       ??_C@_09GFOB@dolog?4dat?$AA@ 1002ce00     IntExplorer.obj
 0002:00000e0c       ??_C@_01KALE@?$HM?$AA@     1002ce0c     ParseRQ.obj
 0002:00000e2c       ??_C@_04GGNP@?4com?$AA@    1002ce2c     LIBC:stat.obj
 0002:00000e34       ??_C@_04KBDN@?4bat?$AA@    1002ce34     LIBC:stat.obj
 0002:00000e3c       ??_C@_04LFKF@?4cmd?$AA@    1002ce3c     LIBC:stat.obj
 0002:00000e44       ??_C@_04NFOM@?4exe?$AA@    1002ce44     LIBC:stat.obj
 0002:00000e4c       ??_C@_03MNBA@?4?1?2?$AA@   1002ce4c     LIBC:stat.obj
 0002:00000e50       ??_C@_02DIIM@?$DP?$CK?$AA@ 1002ce50     LIBC:stat.obj
 0002:00000e54       ___lookuptable             1002ce54     LIBC:output.obj
 0002:00000eb0       ??_C@_1O@POHA@?$AA?$CI?$AAn?$AAu?$AAl?$AAl?$AA?$CJ?$AA?$AA@ 1002ceb0     LIBC:output.obj
 0002:00000ec0       ??_C@_06ONKE@?$CInull?$CJ?$AA@ 1002cec0     LIBC:output.obj
 0002:00000f40       ??_C@_0BH@PHHF@__GLOBAL_HEAP_SELECTED?$AA@ 1002cf40     LIBC:heapinit.obj
 0002:00000f58       ??_C@_0BF@BBGL@__MSVCRT_HEAP_SELECT?$AA@ 1002cf58     LIBC:heapinit.obj
 0002:00000f70       ??_C@_0P@GGKG@runtime?5error?5?$AA@ 1002cf70     LIBC:crt0msg.obj
 0002:00000f80       ??_C@_02PIMC@?$AN?6?$AA@   1002cf80     LIBC:crt0msg.obj
 0002:00000f84       ??_C@_0O@DELO@TLOSS?5error?$AN?6?$AA@ 1002cf84     LIBC:crt0msg.obj
 0002:00000f94       ??_C@_0N@OMLL@SING?5error?$AN?6?$AA@ 1002cf94     LIBC:crt0msg.obj
 0002:00000fa4       ??_C@_0P@OJAK@DOMAIN?5error?$AN?6?$AA@ 1002cfa4     LIBC:crt0msg.obj
 0002:00000fb4       ??_C@_0CF@EANP@R6028?$AN?6?9?5unable?5to?5initialize?5he@ 1002cfb4     LIBC:crt0msg.obj
 0002:00000fdc       ??_C@_0DF@ECGN@R6027?$AN?6?9?5not?5enough?5space?5for?5lo@ 1002cfdc     LIBC:crt0msg.obj
 0002:00001014       ??_C@_0DF@FKAC@R6026?$AN?6?9?5not?5enough?5space?5for?5st@ 1002d014     LIBC:crt0msg.obj
 0002:0000104c       ??_C@_0CG@DPMN@R6025?$AN?6?9?5pure?5virtual?5function?5c@ 1002d04c     LIBC:crt0msg.obj
 0002:00001074       ??_C@_0DF@CKIP@R6024?$AN?6?9?5not?5enough?5space?5for?5_o@ 1002d074     LIBC:crt0msg.obj
 0002:000010ac       ??_C@_0CJ@GGOE@R6019?$AN?6?9?5unable?5to?5open?5console?5@ 1002d0ac     LIBC:crt0msg.obj
 0002:000010d8       ??_C@_0CB@LBOB@R6018?$AN?6?9?5unexpected?5heap?5error?$AN?6@ 1002d0d8     LIBC:crt0msg.obj
 0002:000010fc       ??_C@_0CN@FPEG@R6017?$AN?6?9?5unexpected?5multithread?5@ 1002d0fc     LIBC:crt0msg.obj
 0002:0000112c       ??_C@_0CM@OBIC@R6016?$AN?6?9?5not?5enough?5space?5for?5th@ 1002d12c     LIBC:crt0msg.obj
 0002:00001158       ??_C@_0CB@HPAL@?$AN?6abnormal?5program?5termination?$AN?6@ 1002d158     LIBC:crt0msg.obj
 0002:0000117c       ??_C@_0CM@JOOB@R6009?$AN?6?9?5not?5enough?5space?5for?5en@ 1002d17c     LIBC:crt0msg.obj
 0002:000011a8       ??_C@_0CK@OIBL@R6008?$AN?6?9?5not?5enough?5space?5for?5ar@ 1002d1a8     LIBC:crt0msg.obj
 0002:000011d4       ??_C@_0CF@LKPB@R6002?$AN?6?9?5floating?5point?5not?5load@ 1002d1d4     LIBC:crt0msg.obj
 0002:000011fc       ??_C@_0CF@JPDF@Microsoft?5Visual?5C?$CL?$CL?5Runtime?5Lib@ 1002d1fc     LIBC:crt0msg.obj
 0002:00001224       ??_C@_02JJJH@?6?6?$AA@     1002d224     LIBC:crt0msg.obj
 0002:00001228       ??_C@_0BK@DEOK@Runtime?5Error?$CB?6?6Program?3?5?$AA@ 1002d228     LIBC:crt0msg.obj
 0002:00001244       ??_C@_03NAME@?4?4?4?$AA@   1002d244     LIBC:crt0msg.obj
 0002:00001248       ??_C@_0BH@NNCD@?$DMprogram?5name?5unknown?$DO?$AA@ 1002d248     LIBC:crt0msg.obj
 0002:00001260       ??_C@_01A@?$AA?$AA@        1002d260     LIBC:a_str.obj
 0002:00001264       ??_C@_13A@?$AA?$AA?$AA?$AA@ 1002d264     LIBC:a_str.obj
 0002:00001274       ___dnames                  1002d274     LIBC:timeset.obj
 0002:0000128c       ___mnames                  1002d28c     LIBC:timeset.obj
 0002:000012b4       ??_C@_02JHIA@TZ?$AA@       1002d2b4     LIBC:tzset.obj
 0002:000012d0       ??_C@_0BD@NJFP@GetLastActivePopup?$AA@ 1002d2d0     LIBC:crtmbox.obj
 0002:000012e4       ??_C@_0BA@GILI@GetActiveWindow?$AA@ 1002d2e4     LIBC:crtmbox.obj
 0002:000012f4       ??_C@_0M@PKCK@MessageBoxA?$AA@ 1002d2f4     LIBC:crtmbox.obj
 0002:00001300       ??_C@_0L@HKL@user32?4dll?$AA@ 1002d300     LIBC:crtmbox.obj
 0002:000015c8       __IMPORT_DESCRIPTOR_dmcr   1002d5c8     dmcr:dmcr.exe
 0002:000015dc       __IMPORT_DESCRIPTOR_WSOCK32 1002d5dc     wsock32:WSOCK32.dll
 0002:000015f0       __IMPORT_DESCRIPTOR_WS2_32 1002d5f0     ws2_32:WS2_32.dll
 0002:00001604       __IMPORT_DESCRIPTOR_iChat  1002d604     ichat:iChat.dll
 0002:00001618       __IMPORT_DESCRIPTOR_KERNEL32 1002d618     kernel32:KERNEL32.dll
 0002:0000162c       __IMPORT_DESCRIPTOR_USER32 1002d62c     user32:USER32.dll
 0002:00001640       __IMPORT_DESCRIPTOR_SHELL32 1002d640     shell32:SHELL32.dll
 0002:00001654       __NULL_IMPORT_DESCRIPTOR   1002d654     dmcr:dmcr.exe
 0003:00000000       ___xc_a                    1002f000     LIBC:crt0init.obj
 0003:00000014       ___xc_z                    1002f014     LIBC:crt0init.obj
 0003:00000018       ___xi_a                    1002f018     LIBC:crt0init.obj
 0003:0000002c       ___xi_z                    1002f02c     LIBC:crt0init.obj
 0003:00000030       ___xp_a                    1002f030     LIBC:crt0init.obj
 0003:00000038       ___xp_z                    1002f038     LIBC:crt0init.obj
 0003:0000003c       ___xt_a                    1002f03c     LIBC:crt0init.obj
 0003:00000044       ___xt_z                    1002f044     LIBC:crt0init.obj
 0003:00000050       ?LAST_GID@@3HA             1002f050     DataXchange.obj
 0003:00000054       ?BORXC@@3PAHA              1002f054     FnDefine.obj
 0003:00000074       ?BORXR@@3PAHA              1002f074     FnDefine.obj
 0003:00000094       ?PXA@@3PAHA                1002f094     FnDefine.obj
 0003:000000b4       ?PXP@@3PAHA                1002f0b4     FnDefine.obj
 0003:000000d4       ?HXARR@@3PADA              1002f0d4     ParseRQ.obj
 0003:000000f0       __NLG_Destination          1002f0f0     LIBC:exsup.obj
 0003:00000100       __aexit_rtn                1002f100     LIBC:dllcrt0.obj
 0003:00000104       ___nullstring              1002f104     LIBC:output.obj
 0003:00000108       ___wnullstring             1002f108     LIBC:output.obj
 0003:00000110       ?__pUnexpected@@3P6AXXZA   1002f110     LIBC:hooks.obj
 0003:00000114       ?__pInconsistency@@3P6AXXZA 1002f114     LIBC:hooks.obj
 0003:00000118       __pctype                   1002f118     LIBC:ctype.obj
 0003:0000011c       __pwctype                  1002f11c     LIBC:ctype.obj
 0003:00000120       __ctype                    1002f120     LIBC:ctype.obj
 0003:00000324       ___mb_cur_max              1002f324     LIBC:nlsdata1.obj
 0003:00000328       ___decimal_point           1002f328     LIBC:nlsdata1.obj
 0003:0000032c       ___decimal_point_length    1002f32c     LIBC:nlsdata1.obj
 0003:000004a8       __amblksiz                 1002f4a8     LIBC:heapinit.obj
 0003:000004b0       ___badioinfo               1002f4b0     LIBC:ioinit.obj
 0003:00000548       ___old_small_block_heap    1002f548     LIBC:sbheap.obj
 0003:0000256c       ___old_sbh_threshold       1003156c     LIBC:sbheap.obj
 0003:00002570       __iob                      10031570     LIBC:_file.obj
 0003:000027f0       __cfltcvt_tab              100317f0     LIBC:cmiscdat.obj
 0003:00002810       __timezone                 10031810     LIBC:timeset.obj
 0003:00002814       __daylight                 10031814     LIBC:timeset.obj
 0003:00002818       __dstbias                  10031818     LIBC:timeset.obj
 0003:0000289c       __tzname                   1003189c     LIBC:timeset.obj
 0003:000029c0       __lpdays                   100319c0     LIBC:days.obj
 0003:000029f4       __days                     100319f4     LIBC:days.obj
 0003:00002a30       __XcptActTab               10031a30     LIBC:winxfltr.obj
 0003:00002aa8       __First_FPE_Indx           10031aa8     LIBC:winxfltr.obj
 0003:00002aac       __Num_FPE                  10031aac     LIBC:winxfltr.obj
 0003:00002ab0       __XcptActTabCount          10031ab0     LIBC:winxfltr.obj
 0003:00002ab4       __fpecode                  10031ab4     LIBC:winxfltr.obj
 0003:00002ab8       ?DATA@@3PAEA               10031ab8     Bmptool.obj
 0003:00002ac0       ?DEVSCOPE@@3VSXP_DevScope@@A 10031ac0     DataXchange.obj
 0003:00002ad8       ?LOGMODE@@3_NA             10031ad8     DataXchange.obj
 0003:00002ad9       ?InReparse@@3_NA           10031ad9     DataXchange.obj
 0003:00002ada       ?NOXCFILE@@3_NA            10031ada     DataXchange.obj
 0003:00002adc       ?DNPR@@3PAUOneDnProcess@@A 10031adc     DataXchange.obj
 0003:00002ae0       ?N_DNPR@@3HA               10031ae0     DataXchange.obj
 0003:00002ae4       ?Max_DNPR@@3HA             10031ae4     DataXchange.obj
 0003:00002ae8       ?CurrUplID@@3PADA          10031ae8     DataXchange.obj
 0003:00002b68       ?CurrUplPos@@3HA           10031b68     DataXchange.obj
 0003:00002b70       ?SCROLL2@@3HA              10031b70     Explore.obj
 0003:00002b74       ?SCROLL0@@3HA              10031b74     Explore.obj
 0003:00002b78       ?IBOR0@@3HA                10031b78     Explore.obj
 0003:00002b7c       ?IBOR2@@3HA                10031b7c     Explore.obj
 0003:00002b80       ?CBB_0@@3HA                10031b80     Explore.obj
 0003:00002b84       ?CBB_2@@3HA                10031b84     Explore.obj
 0003:00002b88       ?SXP@@3PAVsicExplorer@@A   10031b88     Explore.obj
 0003:000040b0       ?IFNS@@3PAVOneInterfaceFunction@@A 100330b0     FnDefine.obj
 0003:000040b4       ?REQSXP@@3PAVsicExplorer@@A 100330b4     FnDefine.obj
 0003:000040b8       ?GREQUEST@@3PADA           100330b8     FnDefine.obj
 0003:000040bc       ?LastBrowse@@3PAUFBrowse@@A 100330bc     FnDefine.obj
 0003:000040c0       ?N_IFNS@@3HA               100330c0     FnDefine.obj
 0003:000040c8       ?BIGMAP@@3VOneMap@@A       100330c8     GameOnMap.obj
 0003:0001553c       ?NPT@@3HA                  1004453c     GameOnMap.obj
 0003:00015540       ?NUP@@3HA                  10044540     GameOnMap.obj
 0003:00015544       ?PE@@3VPingEngine@@A       10044544     PingEngine.obj
 0003:00015558       ?seq_no@@3HA               10044558     PingEngine.obj
 0003:0001555c       ?pcallT@@3HA               1004455c     PingEngine.obj
 0003:00015564       __aenvptr                  10044564     LIBC:dllcrt0.obj
 0003:00015568       __wenvptr                  10044568     LIBC:dllcrt0.obj
 0003:0001556c       ___error_mode              1004456c     LIBC:dllcrt0.obj
 0003:00015570       ___app_type                10044570     LIBC:dllcrt0.obj
 0003:00015574       __stdbuf                   10044574     LIBC:_sftbuf.obj
 0003:0001557c       ?_pCurrentException@@3PAUEHExceptionRecord@@A 1004457c     LIBC:frame.obj
 0003:00015580       ?_pCurrentExContext@@3PAU_CONTEXT@@A 10044580     LIBC:frame.obj
 0003:00015584       ?__pSETranslator@@3P6AXIPAU_EXCEPTION_POINTERS@@@ZA 10044584     LIBC:hooks.obj
 0003:00015588       ?__pTerminate@@3P6AXXZA    10044588     LIBC:hooks.obj
 0003:0001558c       _errno                     1004458c     LIBC:crt0dat.obj
 0003:00015590       __doserrno                 10044590     LIBC:crt0dat.obj
 0003:00015594       __umaskval                 10044594     LIBC:crt0dat.obj
 0003:00015598       __osver                    10044598     LIBC:crt0dat.obj
 0003:0001559c       __winver                   1004459c     LIBC:crt0dat.obj
 0003:000155a0       __winmajor                 100445a0     LIBC:crt0dat.obj
 0003:000155a4       __winminor                 100445a4     LIBC:crt0dat.obj
 0003:000155a8       ___argc                    100445a8     LIBC:crt0dat.obj
 0003:000155ac       ___argv                    100445ac     LIBC:crt0dat.obj
 0003:000155b0       ___wargv                   100445b0     LIBC:crt0dat.obj
 0003:000155b4       __environ                  100445b4     LIBC:crt0dat.obj
 0003:000155b8       ___initenv                 100445b8     LIBC:crt0dat.obj
 0003:000155bc       __wenviron                 100445bc     LIBC:crt0dat.obj
 0003:000155c0       ___winitenv                100445c0     LIBC:crt0dat.obj
 0003:000155c4       __pgmptr                   100445c4     LIBC:crt0dat.obj
 0003:000155c8       __wpgmptr                  100445c8     LIBC:crt0dat.obj
 0003:000155cc       __exitflag                 100445cc     LIBC:crt0dat.obj
 0003:000155d0       __C_Termination_Done       100445d0     LIBC:crt0dat.obj
 0003:000155d4       __C_Exit_Done              100445d4     LIBC:crt0dat.obj
 0003:000156f8       __adbgmsg                  100446f8     LIBC:crt0msg.obj
 0003:00015700       __cflush                   10044700     LIBC:_file.obj
 0003:00015704       __commode                  10044704     LIBC:ncommode.obj
 0003:0001570c       ?_pnhHeap@@3P6AHI@ZA       1004470c     LIBC:handler.obj
 0003:00015710       __newmode                  10044710     LIBC:_newmode.obj
 0003:00015718       __fmode                    10044718     LIBC:txtmode.obj
 0003:00015818       ___lc_handle               10044818     LIBC:nlsdata2.obj
 0003:00015830       ___lc_codepage             10044830     LIBC:nlsdata2.obj
 0003:00015834       ___lc_collate_cp           10044834     LIBC:nlsdata2.obj
 0003:0001584c       __pxcptinfoptrs            1004484c     LIBC:winxfltr.obj
 0003:00015854       ___mbcodepage              10044854     <common>
 0003:00015860       ___mbulinfo                10044860     <common>
 0003:0001586c       ___ismbcodepage            1004486c     <common>
 0003:00015880       __mbcasemap                10044880     <common>
 0003:00015980       __mbctype                  10044980     <common>
 0003:00015a84       ___mblcid                  10044a84     <common>
 0003:00015a88       ___piob                    10044a88     <common>
 0003:00015aa0       __bufin                    10044aa0     <common>
 0003:00016aa0       __nstream                  10045aa0     <common>
 0003:00016aa4       ___sbh_sizeHeaderList      10045aa4     <common>
 0003:00016aa8       ___sbh_indGroupDefer       10045aa8     <common>
 0003:00016aac       ___sbh_pHeaderScan         10045aac     <common>
 0003:00016ab0       ___sbh_initialized         10045ab0     <common>
 0003:00016ab4       ___sbh_pHeaderDefer        10045ab4     <common>
 0003:00016ab8       ___sbh_cntHeaderList       10045ab8     <common>
 0003:00016abc       ___sbh_pHeaderList         10045abc     <common>
 0003:00016ac0       ___sbh_threshold           10045ac0     <common>
 0003:00016ae0       ___pioinfo                 10045ae0     <common>
 0003:00016be0       __nhandle                  10045be0     <common>
 0003:00016be4       __crtheap                  10045be4     <common>
 0003:00016be8       ___active_heap             10045be8     <common>
 0003:00016bec       ___env_initialized         10045bec     <common>
 0003:00016bf0       ___mbctype_initialized     10045bf0     <common>
 0003:00016bf4       ___onexitend               10045bf4     <common>
 0003:00016bf8       ___onexitbegin             10045bf8     <common>
 0003:00016bfc       __FPinit                   10045bfc     <common>
 0003:00016c00       __acmdln                   10045c00     <common>
 0003:00016c04       __pRawDllMain              10045c04     <common>

 entry point at        0001:0002215b

 Static symbols

 0001:00020270       _$E4                       10021270 f   PingEngine.obj
 0001:000202b0       _$E1                       100212b0 f   PingEngine.obj
 0001:000202f0       _$E3                       100212f0 f   PingEngine.obj
 0001:00020330       _$E2                       10021330 f   PingEngine.obj
 0001:0001e2c0       _$E4                       1001f2c0 f   GameOnMap.obj
 0001:0001e300       _$E1                       1001f300 f   GameOnMap.obj
 0001:0001e340       _$E3                       1001f340 f   GameOnMap.obj
 0001:0001e380       _$E2                       1001f380 f   GameOnMap.obj
 0001:0000e0d0       _$E4                       1000f0d0 f   Explore.obj
 0001:0000e110       _$E1                       1000f110 f   Explore.obj
 0001:0000e130       _$E3                       1000f130 f   Explore.obj
 0001:0000e170       _$E2                       1000f170 f   Explore.obj
 0001:000015f0       _$E4                       100025f0 f   DataXchange.obj
 0001:00001630       _$E1                       10002630 f   DataXchange.obj
 0001:00001670       _$E3                       10002670 f   DataXchange.obj
 0001:000016b0       _$E2                       100026b0 f   DataXchange.obj
 0001:0002aae5       _xtoa                      1002bae5 f   LIBC:xtoa.obj
 0001:0002abb7       _x64toa@20                 1002bbb7 f   LIBC:xtoa.obj
 0001:0002a73f       _findenv                   1002b73f f   LIBC:setenv.obj
 0001:0002a797       _copy_environ              1002b797 f   LIBC:setenv.obj
 0001:0002a58d       _strncnt                   1002b58d f   LIBC:a_cmp.obj
 0001:0002a220       _xcptlookup                1002b220 f   LIBC:winxfltr.obj
 0001:00029d6f       _ctrlevent_capture@4       1002ad6f f   LIBC:winsig.obj
 0001:00029ed4       _siglookup                 1002aed4 f   LIBC:winsig.obj
 0001:00029871       _strtoxl                   1002a871 f   LIBC:strtol.obj
 0001:00029545       _strncnt                   1002a545 f   LIBC:a_map.obj
 0001:000290ca       _getSystemCP               1002a0ca f   LIBC:mbctype.obj
 0001:00029114       _CPtoLCID                  1002a114 f   LIBC:mbctype.obj
 0001:00029147       _setSBCS                   1002a147 f   LIBC:mbctype.obj
 0001:00029170       _setSBUpLow                1002a170 f   LIBC:mbctype.obj
 0001:00028cf8       _cvtdate                   10029cf8 f   LIBC:tzset.obj
 0001:00025f28       _parse_cmdline             10026f28 f   LIBC:stdargv.obj
 0001:000248f9       __hextodec                 100258f9 f   LIBC:input.obj
 0001:00024930       __inc                      10025930 f   LIBC:input.obj
 0001:0002494a       __un_inc                   1002594a f   LIBC:input.obj
 0001:00024961       __whiteout                 10025961 f   LIBC:input.obj
 0001:00023c65       _doexit                    10024c65 f   LIBC:crt0dat.obj
 0001:00023cfe       __initterm                 10024cfe f   LIBC:crt0dat.obj
 0001:000230eb       ?FindHandler@@YAXPAUEHExceptionRecord@@PAUEHRegistrationNode@@PAU_CONTEXT@@PAXPBU_s_FuncInfo@@EH1@Z 100240eb f   LIBC:frame.obj
 0001:00023292       ?FindHandlerForForeignException@@YAXPAUEHExceptionRecord@@PAUEHRegistrationNode@@PAU_CONTEXT@@PAXPBU_s_FuncInfo@@HH1@Z 10024292 f   LIBC:frame.obj
 0001:0002333a       ?TypeMatch@@YAHPBU_s_HandlerType@@PBU_s_CatchableType@@PBU_s_ThrowInfo@@@Z 1002433a f   LIBC:frame.obj
 0001:00023435       ?FrameUnwindFilter@@YAHPAU_EXCEPTION_POINTERS@@@Z 10024435 f   LIBC:frame.obj
 0001:0002344b       ?CatchIt@@YAXPAUEHExceptionRecord@@PAUEHRegistrationNode@@PAU_CONTEXT@@PAXPBU_s_FuncInfo@@PBU_s_HandlerType@@PBU_s_CatchableType@@PBU_s_TryBlockMapEntry@@H1E@Z 1002444b f   LIBC:frame.obj
 0001:000234c6       ?CallCatchBlock@@YAPAXPAUEHExceptionRecord@@PAUEHRegistrationNode@@PAU_CONTEXT@@PBU_s_FuncInfo@@PAXHK@Z 100244c6 f   LIBC:frame.obj
 0001:000235d2       ?ExFilterRethrow@@YAHPAU_EXCEPTION_POINTERS@@@Z 100245d2 f   LIBC:frame.obj
 0001:000235fc       ?BuildCatchObject@@YAXPAUEHExceptionRecord@@PAUEHRegistrationNode@@PBU_s_HandlerType@@PBU_s_CatchableType@@@Z 100245fc f   LIBC:frame.obj
 0001:00023827       ?AdjustPointer@@YAPAXPAXABUPMD@@@Z 10024827 f   LIBC:frame.obj
 0001:00022c8a       _write_char                10023c8a f   LIBC:output.obj
 0001:00022cbf       _write_multi_char          10023cbf f   LIBC:output.obj
 0001:00022cf0       _write_string              10023cf0 f   LIBC:output.obj
 0001:00022d28       _get_int_arg               10023d28 f   LIBC:output.obj
 0001:00022d35       _get_int64_arg             10023d35 f   LIBC:output.obj
 0001:00022d45       _get_short_arg             10023d45 f   LIBC:output.obj
 0001:00022412       _flsall                    10023412 f   LIBC:fflush.obj
 0001:0002200e       _IsRootUNCName             1002300e f   LIBC:stat.obj
 0001:00021c82       ?ArrayUnwindFilter@@YAHPAU_EXCEPTION_POINTERS@@@Z 10022c82 f   LIBC:ehvecdtr.obj
 0001:00021530       LeadUp1                    10022530 f   LIBC:memmove.obj
 0001:0002155c       LeadUp2                    1002255c f   LIBC:memmove.obj
 0001:00021580       LeadUp3                    10022580 f   LIBC:memmove.obj
 0001:000215ff       UnwindUp0                  100225ff f   LIBC:memmove.obj
 0001:000215ec       UnwindUp1                  100225ec f   LIBC:memmove.obj
 0001:000215e4       UnwindUp2                  100225e4 f   LIBC:memmove.obj
 0001:000215dc       UnwindUp3                  100225dc f   LIBC:memmove.obj
 0001:000215d4       UnwindUp4                  100225d4 f   LIBC:memmove.obj
 0001:000215cc       UnwindUp5                  100225cc f   LIBC:memmove.obj
 0001:000215c4       UnwindUp6                  100225c4 f   LIBC:memmove.obj
 0001:000215bc       UnwindUp7                  100225bc f   LIBC:memmove.obj
 0001:00021618       TrailUp0                   10022618 f   LIBC:memmove.obj
 0001:00021620       TrailUp1                   10022620 f   LIBC:memmove.obj
 0001:0002162c       TrailUp2                   1002262c f   LIBC:memmove.obj
 0001:00021640       TrailUp3                   10022640 f   LIBC:memmove.obj
 0001:000216b8       LeadDown1                  100226b8 f   LIBC:memmove.obj
 0001:000216d8       LeadDown2                  100226d8 f   LIBC:memmove.obj
 0001:00021700       LeadDown3                  10022700 f   LIBC:memmove.obj
 0001:00021754       UnwindDown7                10022754 f   LIBC:memmove.obj
 0001:0002175c       UnwindDown6                1002275c f   LIBC:memmove.obj
 0001:00021764       UnwindDown5                10022764 f   LIBC:memmove.obj
 0001:0002176c       UnwindDown4                1002276c f   LIBC:memmove.obj
 0001:00021774       UnwindDown3                10022774 f   LIBC:memmove.obj
 0001:0002177c       UnwindDown2                1002277c f   LIBC:memmove.obj
 0001:00021784       UnwindDown1                10022784 f   LIBC:memmove.obj
 0001:00021797       UnwindDown0                10022797 f   LIBC:memmove.obj
 0001:000217b0       TrailDown0                 100227b0 f   LIBC:memmove.obj
 0001:000217b8       TrailDown1                 100227b8 f   LIBC:memmove.obj
 0001:000217c8       TrailDown2                 100227c8 f   LIBC:memmove.obj
 0001:000217dc       TrailDown3                 100227dc f   LIBC:memmove.obj
 0001:00020cb0       LeadUp1                    10021cb0 f   LIBC:memcpy.obj
 0001:00020cdc       LeadUp2                    10021cdc f   LIBC:memcpy.obj
 0001:00020d00       LeadUp3                    10021d00 f   LIBC:memcpy.obj
 0001:00020d7f       UnwindUp0                  10021d7f f   LIBC:memcpy.obj
 0001:00020d6c       UnwindUp1                  10021d6c f   LIBC:memcpy.obj
 0001:00020d64       UnwindUp2                  10021d64 f   LIBC:memcpy.obj
 0001:00020d5c       UnwindUp3                  10021d5c f   LIBC:memcpy.obj
 0001:00020d54       UnwindUp4                  10021d54 f   LIBC:memcpy.obj
 0001:00020d4c       UnwindUp5                  10021d4c f   LIBC:memcpy.obj
 0001:00020d44       UnwindUp6                  10021d44 f   LIBC:memcpy.obj
 0001:00020d3c       UnwindUp7                  10021d3c f   LIBC:memcpy.obj
 0001:00020d98       TrailUp0                   10021d98 f   LIBC:memcpy.obj
 0001:00020da0       TrailUp1                   10021da0 f   LIBC:memcpy.obj
 0001:00020dac       TrailUp2                   10021dac f   LIBC:memcpy.obj
 0001:00020dc0       TrailUp3                   10021dc0 f   LIBC:memcpy.obj
 0001:00020e38       LeadDown1                  10021e38 f   LIBC:memcpy.obj
 0001:00020e58       LeadDown2                  10021e58 f   LIBC:memcpy.obj
 0001:00020e80       LeadDown3                  10021e80 f   LIBC:memcpy.obj
 0001:00020ed4       UnwindDown7                10021ed4 f   LIBC:memcpy.obj
 0001:00020edc       UnwindDown6                10021edc f   LIBC:memcpy.obj
 0001:00020ee4       UnwindDown5                10021ee4 f   LIBC:memcpy.obj
 0001:00020eec       UnwindDown4                10021eec f   LIBC:memcpy.obj
 0001:00020ef4       UnwindDown3                10021ef4 f   LIBC:memcpy.obj
 0001:00020efc       UnwindDown2                10021efc f   LIBC:memcpy.obj
 0001:00020f04       UnwindDown1                10021f04 f   LIBC:memcpy.obj
 0001:00020f17       UnwindDown0                10021f17 f   LIBC:memcpy.obj
 0001:00020f30       TrailDown0                 10021f30 f   LIBC:memcpy.obj
 0001:00020f38       TrailDown1                 10021f38 f   LIBC:memcpy.obj
 0001:00020f48       TrailDown2                 10021f48 f   LIBC:memcpy.obj
 0001:00020f5c       TrailDown3                 10021f5c f   LIBC:memcpy.obj
 0001:00020ad8       _gu_return                 10021ad8 f   LIBC:exsup.obj
 0001:00020ae0       __unwind_handler           10021ae0 f   LIBC:exsup.obj
 0001:000208f4       ?CatchGuardHandler@@YA?AW4_EXCEPTION_DISPOSITION@@PAUEHExceptionRecord@@PAUCatchGuardRN@@PAX2@Z 100218f4 f   LIBC:trnsctrl.obj
 0001:000209cd       ?TranslatorGuardHandler@@YA?AW4_EXCEPTION_DISPOSITION@@PAUEHExceptionRecord@@PAUTranslatorGuardRN@@PAX2@Z 100219cd f   LIBC:trnsctrl.obj

Line numbers for \cossacks2_project\Cossacks II\_debug\PingEngine.obj(T:\ac_sources\AC_ADDON_V150VITAL_25.4.2003_7@36@55@218\intexplorer\pingengine.cpp) segment .text

    71 0001:0001f8d0    72 0001:0001f8ed    73 0001:0001f8fd    74 0001:0001f920
    78 0001:0001f93d    79 0001:0001f950    80 0001:0001f973    81 0001:0001f97a
    82 0001:0001f997    85 0001:0001f99e    86 0001:0001f9a8    87 0001:0001f9b2
    88 0001:0001f9bc    89 0001:0001f9c5    90 0001:0001f9e9    91 0001:0001fa09
    92 0001:0001fa16    93 0001:0001fa44    94 0001:0001fa4f    95 0001:0001fa59
    96 0001:0001fa87    97 0001:0001fa92    98 0001:0001fa9c    99 0001:0001fabd
   100 0001:0001fac4   103 0001:0001fae0   105 0001:0001fb03   106 0001:0001fb13
   107 0001:0001fb19   108 0001:0001fb1f   109 0001:0001fb26   111 0001:0001fb2f
   112 0001:0001fb45   113 0001:0001fb58   114 0001:0001fb61   115 0001:0001fb76
   116 0001:0001fb92   117 0001:0001fbac   118 0001:0001fbda   119 0001:0001fbe7
   120 0001:0001fbe9   123 0001:0001fc00   124 0001:0001fc23   125 0001:0001fc34
   126 0001:0001fc46   127 0001:0001fc57   128 0001:0001fc6a   131 0001:0001fc72
   132 0001:0001fc7c   133 0001:0001fcb3   135 0001:0001fcc0   136 0001:0001fd01
   137 0001:0001fd0d   138 0001:0001fd3a   139 0001:0001fd58   140 0001:0001fd87
   141 0001:0001fdbb   143 0001:0001fde8   146 0001:0001fded   147 0001:0001fe02
   148 0001:0001fe0c   149 0001:0001fe15   150 0001:0001fe42   151 0001:0001fe60
   152 0001:0001fe79   153 0001:0001fe8b   154 0001:0001fe95   155 0001:0001fea1
   157 0001:0001fea3   158 0001:0001feba   159 0001:0001fec6   162 0001:0001fed2
   163 0001:0001fed7   165 0001:0001fee0   166 0001:0001ff04   167 0001:0001ff0d
   168 0001:0001ff23   172 0001:0001ff33   173 0001:0001ff50   174 0001:0001ff6d
   175 0001:0001ff80   176 0001:0001ffb1   177 0001:0001ffd0   178 0001:0001ffe5
   179 0001:0001ffe7   180 0001:00020013   181 0001:0002002f   182 0001:00020046
   183 0001:0002005b   184 0001:0002007d   185 0001:0002008c   186 0001:0002008e
   187 0001:000200b0   189 0001:000200c8   191 0001:000200cf   192 0001:000200d5
   193 0001:000200ee   194 0001:000200f7   196 0001:000200f9   197 0001:000200ff
   200 0001:0002010e   201 0001:00020122   202 0001:00020130   203 0001:00020135
   204 0001:00020140   209 0001:00020158   211 0001:0002015e   212 0001:00020164
   213 0001:0002016b   214 0001:00020181   215 0001:0002018a   217 0001:00020193
   221 0001:0002019c   223 0001:000201b1   224 0001:000201d0   228 0001:000201e8
   229 0001:000201ee   230 0001:000201fd   231 0001:0002020b   232 0001:00020216
   234 0001:0002021a   235 0001:0002023d   237 0001:00020241   238 0001:0002025b
   239 0001:0002025d   240 0001:000202b0   241 0001:00020370   242 0001:00020388
   243 0001:0002039d   244 0001:000203a7   245 0001:000203b5

Line numbers for \cossacks2_project\Cossacks II\_debug\ParseRQ.obj(T:\ac_sources\AC_ADDON_V150VITAL_25.4.2003_7@36@55@218\intexplorer\parserq.cpp) segment .text

     5 0001:0001e710     6 0001:0001e72d     7 0001:0001e73d     8 0001:0001e760
     9 0001:0001e77d    10 0001:0001e785    11 0001:0001e7a0    13 0001:0001e7bd
    14 0001:0001e7cf    15 0001:0001e7d3    16 0001:0001e7ff    17 0001:0001e81b
    18 0001:0001e832    19 0001:0001e849    20 0001:0001e860    21 0001:0001e86f
    22 0001:0001e890    23 0001:0001e8ad    24 0001:0001e8ba    25 0001:0001e8d0
    26 0001:0001e8fd    27 0001:0001e925    28 0001:0001e945    29 0001:0001e95b
    30 0001:0001e988    31 0001:0001e99a    33 0001:0001e9a9    34 0001:0001e9c0
    35 0001:0001e9dd    36 0001:0001e9fe    37 0001:0001ea25    38 0001:0001ea4e
    39 0001:0001ea50    40 0001:0001ea86    41 0001:0001eabc    42 0001:0001eac1
    43 0001:0001eae3    44 0001:0001eaf3    45 0001:0001eb10    46 0001:0001eb28
    47 0001:0001eb3a    48 0001:0001eb43    49 0001:0001eb55    50 0001:0001eb5e
    51 0001:0001eb60    52 0001:0001eb70    53 0001:0001eb93    54 0001:0001eb9b
    56 0001:0001eba2    57 0001:0001ebd8    58 0001:0001ebe1    59 0001:0001ebe8
    60 0001:0001ebea    61 0001:0001ebfe    62 0001:0001ec07    64 0001:0001ec10
    66 0001:0001ec14    67 0001:0001ec1a    69 0001:0001ec4a    70 0001:0001ec76
    71 0001:0001ec8d    72 0001:0001ec95    73 0001:0001eca1    74 0001:0001ecaa
    75 0001:0001ecb0    76 0001:0001ecbd    77 0001:0001ecca    78 0001:0001ecd0
    79 0001:0001ed00    81 0001:0001ed1f    82 0001:0001ed28    83 0001:0001ed2f
    84 0001:0001ed49    85 0001:0001ed58    86 0001:0001ed61    87 0001:0001ed97
    88 0001:0001eda0    89 0001:0001edab    90 0001:0001edb8    91 0001:0001edc1
    92 0001:0001edc6    93 0001:0001edd6    94 0001:0001edec    95 0001:0001edf5
    97 0001:0001edfa    98 0001:0001ee06    99 0001:0001ee13   100 0001:0001ee30
   101 0001:0001ee4d   103 0001:0001ee54   104 0001:0001ee5b   105 0001:0001ee78
   106 0001:0001eeaa   107 0001:0001eeef   108 0001:0001eef4   110 0001:0001ef0a
   111 0001:0001ef1a   112 0001:0001ef23   113 0001:0001ef44   114 0001:0001ef5c
   115 0001:0001ef67   116 0001:0001ef70   117 0001:0001ef90   118 0001:0001ef99
   119 0001:0001efac   120 0001:0001efb9   121 0001:0001efc2   122 0001:0001efdc
   123 0001:0001eff5   124 0001:0001f000   125 0001:0001f009   126 0001:0001f033
   127 0001:0001f03c   128 0001:0001f03e   129 0001:0001f043   130 0001:0001f046
   131 0001:0001f060   132 0001:0001f099   133 0001:0001f0a0   134 0001:0001f0a8
   135 0001:0001f0af   136 0001:0001f0bb   137 0001:0001f0c4   138 0001:0001f0e2
   139 0001:0001f0ee   141 0001:0001f0f7   142 0001:0001f11b   143 0001:0001f132
   144 0001:0001f13a   145 0001:0001f143   146 0001:0001f14f   147 0001:0001f158
   148 0001:0001f164   149 0001:0001f17e   150 0001:0001f189   151 0001:0001f192
   152 0001:0001f1a5   153 0001:0001f1ae   154 0001:0001f1b0   155 0001:0001f1b7
   156 0001:0001f1c4   158 0001:0001f1f0   160 0001:0001f213   161 0001:0001f222
   162 0001:0001f243   163 0001:0001f262   164 0001:0001f275   165 0001:0001f293
   166 0001:0001f29c   167 0001:0001f2b5   168 0001:0001f2ce   169 0001:0001f2d7
   170 0001:0001f2f1   171 0001:0001f2fc   172 0001:0001f341   173 0001:0001f34c
   174 0001:0001f34e   175 0001:0001f353   176 0001:0001f358   177 0001:0001f371
   178 0001:0001f381   179 0001:0001f390   180 0001:0001f3b1   181 0001:0001f3c2
   182 0001:0001f3cb   183 0001:0001f3e4   184 0001:0001f401   185 0001:0001f414
   186 0001:0001f432   187 0001:0001f443   188 0001:0001f44c   189 0001:0001f465
   190 0001:0001f47e   191 0001:0001f48d   192 0001:0001f494   193 0001:0001f4b2
   194 0001:0001f4bd   195 0001:0001f4f9   196 0001:0001f509   197 0001:0001f52a
   198 0001:0001f54b   199 0001:0001f55f   200 0001:0001f568   201 0001:0001f571
   202 0001:0001f573   203 0001:0001f585   204 0001:0001f599   206 0001:0001f5a2
   207 0001:0001f5a7   208 0001:0001f5ac   209 0001:0001f5b1   210 0001:0001f5ba
   211 0001:0001f5bd   212 0001:0001f5e0   213 0001:0001f5fd   214 0001:0001f60c
   215 0001:0001f65e   216 0001:0001f694   217 0001:0001f6ca   218 0001:0001f70e
   220 0001:0001f71d   221 0001:0001f730   222 0001:0001f74d   223 0001:0001f75c
   224 0001:0001f76b   225 0001:0001f798   226 0001:0001f7c0   227 0001:0001f7e0
   228 0001:0001f7f6   229 0001:0001f823   230 0001:0001f835   232 0001:0001f844
   233 0001:0001f860   235 0001:0001f883   236 0001:0001f895   237 0001:0001f8b1

Line numbers for \cossacks2_project\Cossacks II\_debug\IntExplorer.obj(T:\ac_sources\AC_ADDON_V150VITAL_25.4.2003_7@36@55@218\intexplorer\intexplorer.cpp) segment .text

    12 0001:0001e690    13 0001:0001e6a8    14 0001:0001e6bd    15 0001:0001e6c3
    16 0001:0001e6ca    19 0001:0001e6d6    26 0001:0001e6e4    29 0001:0001e6e9
    30 0001:0001e6ee

Line numbers for \cossacks2_project\Cossacks II\_debug\GameOnMap.obj(T:\ac_sources\AC_ADDON_V150VITAL_25.4.2003_7@36@55@218\intexplorer\gameonmap.cpp) segment .text

     8 0001:0001c3c0     9 0001:0001c3dd    10 0001:0001c3f0    12 0001:0001c410
    13 0001:0001c428    15 0001:0001c436    16 0001:0001c444    17 0001:0001c452
    18 0001:0001c45f    19 0001:0001c46d    20 0001:0001c47b    26 0001:0001c489
    27 0001:0001c490    28 0001:0001c4a8    30 0001:0001c4b5    31 0001:0001c4c2
    32 0001:0001c4cf    33 0001:0001c4db    34 0001:0001c4e8    35 0001:0001c4f5
    40 0001:0001c502    41 0001:0001c510    43 0001:0001c528    44 0001:0001c53e
    45 0001:0001c554    46 0001:0001c56a    47 0001:0001c580    48 0001:0001c591
    49 0001:0001c59c    51 0001:0001c5a7    52 0001:0001c5b8    53 0001:0001c5c3
    55 0001:0001c5ce    56 0001:0001c5e7    80 0001:0001c600    85 0001:0001c610
    86 0001:0001c628    87 0001:0001c62e    89 0001:0001c635    90 0001:0001c63c
    91 0001:0001c648    92 0001:0001c657    93 0001:0001c669    94 0001:0001c674
    95 0001:0001c67d    97 0001:0001c686    98 0001:0001c688    99 0001:0001c691
   101 0001:0001c6b4   102 0001:0001c6d0   105 0001:0001c6f3   106 0001:0001c708
   107 0001:0001c71c   109 0001:0001c726   112 0001:0001c72d   113 0001:0001c74d
   114 0001:0001c757   115 0001:0001c774   116 0001:0001c783   117 0001:0001c796
   118 0001:0001c7a9   119 0001:0001c7bc   120 0001:0001c7e6   121 0001:0001c7ec
   122 0001:0001c80b   123 0001:0001c817   124 0001:0001c81c   125 0001:0001c82b
   126 0001:0001c835   128 0001:0001c854   129 0001:0001c876   130 0001:0001c8a3
   131 0001:0001c8b3   132 0001:0001c905   133 0001:0001c90a   134 0001:0001c929
   138 0001:0001c935   139 0001:0001c93e   140 0001:0001c951   141 0001:0001c95b
   142 0001:0001c965   143 0001:0001c96f   144 0001:0001c97b   147 0001:0001c9a7
   148 0001:0001c9c3   151 0001:0001c9dc   152 0001:0001ca03   153 0001:0001ca2f
   154 0001:0001ca47   155 0001:0001ca5b   156 0001:0001ca74   157 0001:0001ca8d
   158 0001:0001caa3   159 0001:0001cab7   160 0001:0001cace   161 0001:0001cae2
   163 0001:0001caf1   164 0001:0001caf6   165 0001:0001cb0b   166 0001:0001cb1f
   167 0001:0001cb29   168 0001:0001cb52   169 0001:0001cb7d   170 0001:0001cb86
   171 0001:0001cb9d   173 0001:0001cbcc   176 0001:0001cbd1   179 0001:0001cbea
   180 0001:0001cc02   181 0001:0001cc1a   183 0001:0001cc32   184 0001:0001cc59
   185 0001:0001cc65   186 0001:0001cc74   187 0001:0001cc83   191 0001:0001cc8d
   192 0001:0001cca3   193 0001:0001ccaa   194 0001:0001ccb4   195 0001:0001ccbe
   196 0001:0001ccc8   197 0001:0001ccfb   198 0001:0001cd2b   199 0001:0001cd3f
   200 0001:0001cd5d   201 0001:0001cd7e   202 0001:0001cda1   203 0001:0001cdc2
   204 0001:0001cde5   205 0001:0001ce08   206 0001:0001ce2b   207 0001:0001cebe
   208 0001:0001cee1   209 0001:0001cef0   210 0001:0001cefc   211 0001:0001cf01
   212 0001:0001cf10   213 0001:0001cf27   214 0001:0001cf3c   215 0001:0001cf59
   218 0001:0001cf71   219 0001:0001cf7d   220 0001:0001cf89   221 0001:0001cf95
   223 0001:0001cf9f   224 0001:0001cfae   225 0001:0001cfb3   226 0001:0001cfb8
   227 0001:0001cfe0   228 0001:0001cff7   229 0001:0001d00e   230 0001:0001d01f
   232 0001:0001d021   233 0001:0001d02e   234 0001:0001d047   235 0001:0001d05b
   236 0001:0001d061   237 0001:0001d07b   238 0001:0001d087   239 0001:0001d0a6
   241 0001:0001d0b6   242 0001:0001d0cf   243 0001:0001d0e3   244 0001:0001d0fb
   246 0001:0001d105   247 0001:0001d10f   248 0001:0001d130   249 0001:0001d165
   250 0001:0001d185   251 0001:0001d194   253 0001:0001d199   255 0001:0001d1b0
   256 0001:0001d1d3   257 0001:0001d1e1   258 0001:0001d1fa   259 0001:0001d209
   260 0001:0001d216   261 0001:0001d23c   262 0001:0001d252   263 0001:0001d268
   264 0001:0001d270   265 0001:0001d278   266 0001:0001d281   267 0001:0001d28a
   268 0001:0001d293   269 0001:0001d29c   270 0001:0001d2a5   271 0001:0001d2ae
   272 0001:0001d2b7   273 0001:0001d2c0   274 0001:0001d2c8   275 0001:0001d2d1
   276 0001:0001d2dd   277 0001:0001d2e9   278 0001:0001d2f0   279 0001:0001d2f7
   280 0001:0001d315   281 0001:0001d31c   282 0001:0001d325   283 0001:0001d33f
   284 0001:0001d348   285 0001:0001d357   330 0001:0001d362   331 0001:0001d36e
   332 0001:0001d37e   333 0001:0001d380   336 0001:0001d3a2   337 0001:0001d3ab
   338 0001:0001d3b4   339 0001:0001d3b9   340 0001:0001d3c2   343 0001:0001d3c7
   344 0001:0001d3e0   345 0001:0001d403   346 0001:0001d425   347 0001:0001d43a
   348 0001:0001d450   349 0001:0001d46b   350 0001:0001d479   351 0001:0001d481
   352 0001:0001d48d   353 0001:0001d499   354 0001:0001d4b2   355 0001:0001d4cb
   356 0001:0001d4d7   357 0001:0001d4e3   358 0001:0001d4fc   365 0001:0001d515
   366 0001:0001d521   367 0001:0001d533   369 0001:0001d53d   370 0001:0001d549
   371 0001:0001d55b   373 0001:0001d565   374 0001:0001d571   375 0001:0001d583
   377 0001:0001d58d   378 0001:0001d599   379 0001:0001d5ab   382 0001:0001d5b5
   384 0001:0001d5ca   385 0001:0001d5d3   386 0001:0001d5df   388 0001:0001d5f4
   389 0001:0001d5fe   390 0001:0001d614   391 0001:0001d62d   392 0001:0001d641
   393 0001:0001d64a   394 0001:0001d653   395 0001:0001d655   396 0001:0001d668
   397 0001:0001d681   399 0001:0001d69a   400 0001:0001d6a6   401 0001:0001d6f0
   402 0001:0001d714   403 0001:0001d729   404 0001:0001d753   405 0001:0001d77e
   406 0001:0001d785   407 0001:0001d78c   408 0001:0001d7b8   409 0001:0001d7d7
   410 0001:0001d7e2   411 0001:0001d7eb   413 0001:0001d7fb   414 0001:0001d7fd
   415 0001:0001d807   416 0001:0001d80d   417 0001:0001d846   418 0001:0001d850
   419 0001:0001d862   420 0001:0001d874   422 0001:0001d880   424 0001:0001d885
   425 0001:0001d8a1   426 0001:0001d8ae   427 0001:0001d8c8   428 0001:0001d90f
   429 0001:0001d93c   430 0001:0001d971   431 0001:0001d9a6   432 0001:0001d9f5
   434 0001:0001d9fa   435 0001:0001da06   436 0001:0001da20   437 0001:0001da3d
   438 0001:0001da49   439 0001:0001da55   440 0001:0001da5d   441 0001:0001da70
   442 0001:0001da8d   443 0001:0001da98   444 0001:0001daad   445 0001:0001dac3
   446 0001:0001dae6   447 0001:0001db09   448 0001:0001db11   449 0001:0001db30
   450 0001:0001db4d   451 0001:0001db58   452 0001:0001db6d   453 0001:0001db75
   454 0001:0001db90   455 0001:0001dbad   456 0001:0001dbbb   457 0001:0001dbde
   458 0001:0001dbf7   459 0001:0001dc0d   460 0001:0001dc22   461 0001:0001dc54
   462 0001:0001dc86   463 0001:0001dc92   464 0001:0001dc9f   466 0001:0001dcc4
   467 0001:0001dcd0   468 0001:0001dcdd   470 0001:0001dd02   471 0001:0001dd14
   472 0001:0001dd26   473 0001:0001dd40   474 0001:0001dd58   475 0001:0001dd64
   476 0001:0001dd71   478 0001:0001dd80   480 0001:0001ddb2   481 0001:0001ddcc
   482 0001:0001dde4   483 0001:0001ddf0   484 0001:0001ddfd   486 0001:0001de0c
   488 0001:0001de3e   489 0001:0001de50   490 0001:0001de6d   491 0001:0001de8a
   492 0001:0001de99   493 0001:0001deb9   494 0001:0001dedb   495 0001:0001dedd
   496 0001:0001deff   497 0001:0001df27   498 0001:0001df49   499 0001:0001df94
   500 0001:0001dfa9   501 0001:0001dfc0   502 0001:0001dfdd   503 0001:0001dfe5
   515 0001:0001e000   516 0001:0001e023   517 0001:0001e030   518 0001:0001e038
   519 0001:0001e041   520 0001:0001e049   523 0001:0001e052   525 0001:0001e064
   526 0001:0001e07c   527 0001:0001e096   528 0001:0001e0a3   529 0001:0001e0bb
   530 0001:0001e0ca   531 0001:0001e0d6   532 0001:0001e0e1   533 0001:0001e0ea
   534 0001:0001e117   535 0001:0001e125   536 0001:0001e12e   537 0001:0001e13c
   538 0001:0001e145   539 0001:0001e150   540 0001:0001e159   541 0001:0001e17b
   543 0001:0001e1a2   545 0001:0001e1af   546 0001:0001e1b4   547 0001:0001e1d3
   550 0001:0001e206   551 0001:0001e22f   552 0001:0001e26b   553 0001:0001e282
   554 0001:0001e296   556 0001:0001e29b   557 0001:0001e300   558 0001:0001e3c0
   559 0001:0001e3e3   560 0001:0001e3f7   561 0001:0001e40c   563 0001:0001e441
   564 0001:0001e45c   565 0001:0001e46f   566 0001:0001e477   567 0001:0001e480
   568 0001:0001e489   569 0001:0001e492   570 0001:0001e49e   572 0001:0001e4a5
   573 0001:0001e4bd   575 0001:0001e4cf   576 0001:0001e4f2   578 0001:0001e4ff
   579 0001:0001e51a   580 0001:0001e531   581 0001:0001e54d   582 0001:0001e56f
   583 0001:0001e578   584 0001:0001e594   585 0001:0001e5b5   586 0001:0001e5c5
   587 0001:0001e5d5   588 0001:0001e5de   591 0001:0001e5ea   593 0001:0001e615
   594 0001:0001e630   595 0001:0001e650   596 0001:0001e66d   597 0001:0001e67a

Line numbers for \cossacks2_project\Cossacks II\_debug\FnDefine.obj(T:\ac_sources\AC_ADDON_V150VITAL_25.4.2003_7@36@55@218\intexplorer\gameonmap.h) segment .text

    79 0001:00019390

Line numbers for \cossacks2_project\Cossacks II\_debug\FnDefine.obj(T:\ac_sources\AC_ADDON_V150VITAL_25.4.2003_7@36@55@218\intexplorer\fndefine.cpp) segment .text

    19 0001:00011fc0    20 0001:00011fd8    21 0001:00011fe1    22 0001:00012012
    23 0001:00012028    24 0001:00012030    25 0001:00012032    26 0001:00012050
    27 0001:00012083    28 0001:000120a8    29 0001:000120b8    30 0001:000120ca
    32 0001:000120d0    33 0001:000120e4    35 0001:000120ea    36 0001:00012111
    38 0001:0001212a    39 0001:0001213e    41 0001:00012144    42 0001:0001216b
    44 0001:00012184    45 0001:00012198    47 0001:000121a2    48 0001:000121b3
    49 0001:000121bd    50 0001:000121cc    51 0001:000121d9    52 0001:000121f3
    53 0001:000121fe    54 0001:00012205    55 0001:0001224a    56 0001:00012262
    57 0001:0001226d    58 0001:000122ca    59 0001:0001230b    60 0001:0001232a
    61 0001:0001233f    62 0001:00012349    63 0001:00012376    64 0001:0001238a
    65 0001:000123ba    66 0001:000123c9    67 0001:000123e9    68 0001:00012408
    69 0001:00012417    70 0001:00012419    71 0001:0001242d    73 0001:0001243c
    74 0001:00012441    76 0001:00012450    77 0001:00012468    78 0001:00012489
    79 0001:00012490    80 0001:00012496    81 0001:000124a8    82 0001:000124c1
    83 0001:000124c6    84 0001:000124db    85 0001:000124e0    86 0001:000124eb
    88 0001:000124f6    89 0001:00012500    90 0001:00012506    91 0001:00012518
    92 0001:00012527    93 0001:0001252e    94 0001:0001255b    95 0001:00012574
    96 0001:000125a1    97 0001:000125c3    98 0001:000125d0   100 0001:00012608
   101 0001:00012641   102 0001:00012665   103 0001:0001267a   104 0001:00012698
   105 0001:000126ad   106 0001:000126ba   107 0001:000126cf   108 0001:000126df
   109 0001:00012701   110 0001:00012753   111 0001:00012786   113 0001:0001278d
   118 0001:0001279c   119 0001:000127a1   120 0001:000127ad   121 0001:000127c2
   122 0001:000127e7   124 0001:000127fd   125 0001:00012802   126 0001:00012814
   127 0001:0001282a   130 0001:00012860   132 0001:00012882   133 0001:00012896
   134 0001:000128aa   135 0001:000128be   136 0001:000128c5   137 0001:000128e1
   138 0001:000128fd   139 0001:00012914   140 0001:0001291e   141 0001:00012926
   142 0001:0001292e   143 0001:0001293b   145 0001:00012943   146 0001:0001294a
   147 0001:00012951   148 0001:00012955   149 0001:0001295c   150 0001:00012963
   151 0001:0001296a   152 0001:0001296e   155 0001:00012972   156 0001:0001297c
   157 0001:00012986   158 0001:0001298d   159 0001:00012996   161 0001:0001299d
   162 0001:000129a7   165 0001:000129b0   166 0001:000129ba   167 0001:000129c4
   169 0001:000129ce   170 0001:000129d8   172 0001:000129e2   173 0001:000129ec
   174 0001:000129f6   175 0001:00012a00   176 0001:00012a0a   177 0001:00012a11
   178 0001:00012a18   180 0001:00012a1e   182 0001:00012a29   183 0001:00012a56
   185 0001:00012ab7   186 0001:00012abe   187 0001:00012ac3   188 0001:00012acb
   189 0001:00012ad2   190 0001:00012ad9   191 0001:00012ade   192 0001:00012af0
   193 0001:00012af7   194 0001:00012b1e   195 0001:00012b27   196 0001:00012b2c
   197 0001:00012b3e   198 0001:00012b42   199 0001:00012b4b   200 0001:00012b54
   201 0001:00012b59   202 0001:00012b6b   203 0001:00012b6f   204 0001:00012b78
   205 0001:00012b7d   207 0001:00012b97   209 0001:00012ba0   210 0001:00012ba9
   211 0001:00012be2   212 0001:00012c07   213 0001:00012c27   214 0001:00012c38
   215 0001:00012c52   216 0001:00012c5f   217 0001:00012c68   218 0001:00012c7d
   220 0001:00012c89   221 0001:00012cb0   222 0001:00012cc0   223 0001:00012ce7
   224 0001:00012cf7   225 0001:00012d1e   226 0001:00012d2e   227 0001:00012d55
   228 0001:00012d65   229 0001:00012d72   230 0001:00012d8e   231 0001:00012dbd
   232 0001:00012dec   236 0001:00012e06   237 0001:00012e0d   239 0001:00012e14
   241 0001:00012e19   242 0001:00012e30   243 0001:00012e54   244 0001:00012e68
   245 0001:00012e7a   246 0001:00012e86   247 0001:00012e98   250 0001:00012eb0
   251 0001:00012ec0   253 0001:00012f0a   263 0001:00012f17   265 0001:00012f54
   266 0001:00012f5c   267 0001:00012f69   268 0001:00012f75   269 0001:00012fa9
   271 0001:00012fc6   272 0001:00013005   273 0001:00013018   275 0001:00013027
   276 0001:0001305a   277 0001:00013066   278 0001:00013070   279 0001:00013077
   280 0001:00013080   281 0001:0001308a   282 0001:00013094   283 0001:0001309e
   284 0001:000130a8   285 0001:000130d1   286 0001:000130ff   287 0001:0001312d
   288 0001:0001312f   289 0001:00013141   290 0001:0001314b   291 0001:00013162
   292 0001:0001318b   293 0001:000131b1   294 0001:000131d7   296 0001:000131d9
   297 0001:000131e3   298 0001:000131f8   299 0001:00013221   300 0001:00013247
   301 0001:0001326d   305 0001:0001326f   306 0001:00013279   307 0001:0001327b
   308 0001:0001328d   309 0001:00013297   312 0001:0001329e   313 0001:000132ad
   314 0001:000132c7   315 0001:000132d1   316 0001:000132ed   318 0001:00013311
   320 0001:00013356   321 0001:00013373   322 0001:00013385   323 0001:0001338a
   324 0001:00013397   325 0001:000133e0   326 0001:000133f1   327 0001:000133fe
   328 0001:00013432   329 0001:0001344f   331 0001:0001345b   332 0001:0001346d
   333 0001:00013477   334 0001:0001347e   335 0001:00013491   338 0001:000134a0
   339 0001:000134b0   341 0001:000134b8   342 0001:000134ba   346 0001:000134d0
   347 0001:000134e8   348 0001:000134f5   349 0001:00013509   350 0001:0001351f
   351 0001:00013525   352 0001:00013536   354 0001:0001354e   355 0001:000135b2
   356 0001:000135b4   363 0001:000135d0   364 0001:000135e8   365 0001:000135ee
   366 0001:00013600   367 0001:00013606   369 0001:00013620   371 0001:00013640
   372 0001:00013658   373 0001:00013665   374 0001:00013679   375 0001:00013683
   376 0001:0001369d   377 0001:000136b1   378 0001:000136e9   385 0001:00013700
   386 0001:0001371e   387 0001:00013724   388 0001:00013733   390 0001:00013739
   391 0001:0001375d   392 0001:00013774   393 0001:00013795   396 0001:000137b5
   399 0001:000137d0   400 0001:000137e8   401 0001:00013803   402 0001:0001381b
   403 0001:0001382f   404 0001:00013843   405 0001:00013850   406 0001:0001385d
   407 0001:00013871   408 0001:00013887   409 0001:0001389e   410 0001:000138b0
   411 0001:0001391e   412 0001:00013937   413 0001:0001394d   414 0001:0001397e
   416 0001:00013988   417 0001:000139b9   418 0001:000139c6   419 0001:000139d3
   420 0001:000139f2   422 0001:00013a12   423 0001:00013a2f   424 0001:00013a51
   425 0001:00013a53   426 0001:00013a5a   427 0001:00013a64   428 0001:00013a7f
   429 0001:00013a81   430 0001:00013a99   433 0001:00013abb   434 0001:00013aee
   435 0001:00013af5   436 0001:00013afb   438 0001:00013b11   439 0001:00013b13
   447 0001:00013b30   448 0001:00013b48   449 0001:00013b4e   450 0001:00013b5d
   451 0001:00013b63   452 0001:00013b8f   453 0001:00013bb7   456 0001:00013bd7
   457 0001:00013bf0   458 0001:00013c08   459 0001:00013c0e   460 0001:00013c52
   461 0001:00013c7a   464 0001:00013c90   465 0001:00013ca8   466 0001:00013cc3
   467 0001:00013cdb   468 0001:00013cef   469 0001:00013d03   470 0001:00013d10
   471 0001:00013d1d   472 0001:00013d31   473 0001:00013d47   474 0001:00013d61
   475 0001:00013d73   476 0001:00013de1   477 0001:00013dfa   478 0001:00013e10
   480 0001:00013e1a   481 0001:00013e4b   482 0001:00013e58   483 0001:00013e65
   484 0001:00013e84   486 0001:00013ea4   487 0001:00013eaf   488 0001:00013ebc
   489 0001:00013ede   490 0001:00013efc   491 0001:00013f21   492 0001:00013f5c
   493 0001:00013f82   494 0001:00013f97   495 0001:00013f9c   496 0001:00013fa3
   497 0001:00013fad   498 0001:00013ff9   499 0001:00013ffd   500 0001:00014015
   503 0001:00014037   504 0001:0001403e   505 0001:00014044   507 0001:0001405a
   508 0001:0001405c   515 0001:00014070   516 0001:00014088   518 0001:00014095
   519 0001:000140b0   520 0001:000140c8   521 0001:000140dc   522 0001:000140e9
   523 0001:000140fd   524 0001:00014111   526 0001:00014125   527 0001:0001412f
   528 0001:00014175   529 0001:00014177   531 0001:000141bd   532 0001:000141e8
   533 0001:000141ee   534 0001:00014218   535 0001:0001422d   536 0001:00014237
   538 0001:00014240   540 0001:00014247   541 0001:0001425b   543 0001:00014268
   544 0001:0001427c   545 0001:00014290   546 0001:000142a4   548 0001:000142b8
   549 0001:000142c8   550 0001:000142d8   552 0001:000142e8   553 0001:0001430d
   559 0001:00014315   561 0001:0001431f   562 0001:0001435a   563 0001:0001436f
   565 0001:00014371   566 0001:000143ac   571 0001:000143c1   572 0001:000143c7
   573 0001:000143f1   574 0001:00014406   575 0001:00014410   577 0001:00014419
   579 0001:0001441b   583 0001:00014430   584 0001:00014448   586 0001:00014455
   587 0001:00014470   588 0001:00014488   589 0001:0001449c   591 0001:000144a9
   592 0001:000144bd   593 0001:000144d1   594 0001:000144e5   596 0001:000144f9
   597 0001:0001450d   598 0001:00014521   600 0001:00014535   601 0001:0001455a
   603 0001:00014562   604 0001:00014590   605 0001:000145bb   608 0001:00014612
   609 0001:00014618   610 0001:00014642   611 0001:00014657   612 0001:00014661
   614 0001:0001466a   615 0001:0001466c   625 0001:00014680   626 0001:00014698
   627 0001:0001469e   628 0001:000146ad   629 0001:000146b7   630 0001:000146bb
   631 0001:000146d4   632 0001:000146ed   633 0001:00014702   635 0001:00014722
   636 0001:00014724   637 0001:0001473d   638 0001:00014752   642 0001:00014772
   644 0001:00014790   645 0001:000147ae   647 0001:000147bb   648 0001:000147cf
   649 0001:000147e3   652 0001:000147f7   653 0001:0001480b   654 0001:00014820
   655 0001:0001482a   656 0001:0001486c   657 0001:0001486e   659 0001:000148b0
   660 0001:000148bc   661 0001:000148d7   662 0001:000148f0   663 0001:0001490a
   664 0001:0001491f   665 0001:0001492e   666 0001:0001494a   667 0001:00014966
   668 0001:00014970   669 0001:00014976   671 0001:0001498f   672 0001:0001499c
   673 0001:000149c3   674 0001:000149d7   675 0001:000149d9   676 0001:00014a02
   679 0001:00014a2e   680 0001:00014a30   684 0001:00014a50   685 0001:00014a6e
   687 0001:00014a7b   688 0001:00014a8f   689 0001:00014aa3   692 0001:00014ab7
   693 0001:00014acb   694 0001:00014ae0   695 0001:00014af5   696 0001:00014aff
   697 0001:00014b46   698 0001:00014b48   700 0001:00014b8f   701 0001:00014b9b
   702 0001:00014bb6   703 0001:00014bcf   704 0001:00014be9   705 0001:00014bfe
   706 0001:00014c0d   707 0001:00014c29   708 0001:00014c45   709 0001:00014c52
   710 0001:00014c7b   711 0001:00014ca7   712 0001:00014ca9   713 0001:00014cd0
   715 0001:00014ce4   716 0001:00014cee   717 0001:00014cf4   720 0001:00014d0d
   721 0001:00014d0f   725 0001:00014d30   726 0001:00014d48   727 0001:00014d69
   728 0001:00014d7a   729 0001:00014d92   730 0001:00014da5   731 0001:00014dc4
   732 0001:00014de3   734 0001:00014df0   735 0001:00014e12   736 0001:00014e70
   737 0001:00014e72   741 0001:00014e90   742 0001:00014ea8   743 0001:00014ec9
   744 0001:00014eda   745 0001:00014ef2   746 0001:00014f05   747 0001:00014f24
   748 0001:00014f43   750 0001:00014f50   751 0001:00014f72   752 0001:00014fd3
   753 0001:00014fdd   754 0001:00014ff1   755 0001:00015005   756 0001:00015019
   758 0001:0001507a   759 0001:00015080   760 0001:000150aa   761 0001:000150bf
   762 0001:000150c9   764 0001:000150d2   765 0001:000150d4   775 0001:000150f0
   776 0001:00015108   777 0001:0001510e   778 0001:0001511d   779 0001:00015123
   780 0001:00015152   781 0001:00015183   783 0001:00015198   785 0001:000151b0
   786 0001:000151ce   787 0001:000151db   788 0001:000151ef   789 0001:00015203
   792 0001:00015217   793 0001:0001522b   794 0001:00015240   795 0001:00015255
   796 0001:0001525f   797 0001:000152a6   798 0001:000152a8   800 0001:000152ef
   801 0001:000152fe   802 0001:00015309   803 0001:00015324   804 0001:0001533d
   805 0001:00015357   806 0001:0001536c   807 0001:0001537b   808 0001:00015394
   809 0001:000153b0   810 0001:000153cc   811 0001:000153f3   812 0001:0001541f
   814 0001:00015433   815 0001:00015435   819 0001:00015450   820 0001:00015468
   821 0001:00015475   822 0001:00015486   823 0001:00015498   824 0001:000154aa
   825 0001:000154cb   826 0001:000154d9   827 0001:000154e0   828 0001:0001551d
   829 0001:0001552f   830 0001:00015541   831 0001:0001555f   832 0001:00015577
   833 0001:0001558f   834 0001:000155b5   835 0001:000155c3   836 0001:000155d1
   837 0001:000155d7   838 0001:000155dd   839 0001:000155e2   840 0001:000155ef
   841 0001:000155fa   842 0001:000155fc   847 0001:00015610   850 0001:00015628
   851 0001:00015645   852 0001:0001564d   853 0001:0001565c   854 0001:00015666
   855 0001:00015670   856 0001:0001567a   858 0001:00015684   859 0001:0001568c
   861 0001:000156a0   862 0001:000156be   864 0001:000156cb   865 0001:000156e3
   866 0001:000156f5   867 0001:00015708   868 0001:00015727   869 0001:00015746
   871 0001:00015753   874 0001:00015775   875 0001:00015789   876 0001:0001579d
   877 0001:000157b1   880 0001:000157b8   881 0001:000157cc   882 0001:000157d6
   883 0001:000157ec   884 0001:000157fc   885 0001:00015825   886 0001:00015836
   887 0001:0001586a   888 0001:0001588f   889 0001:00015894   890 0001:000158a4
   891 0001:000158af   893 0001:000158b6   894 0001:000158c0   895 0001:000158e6
   896 0001:000158ef   897 0001:000158fe   898 0001:0001590e   899 0001:00015919
   900 0001:00015946   901 0001:00015952   902 0001:0001596f   903 0001:0001597b
   904 0001:00015991   905 0001:000159f3   906 0001:00015a02   907 0001:00015a14
   909 0001:00015a23   910 0001:00015a4f   911 0001:00015a51   912 0001:00015a6c
   914 0001:00015a73   915 0001:00015a7a   916 0001:00015a86   917 0001:00015a8d
   919 0001:00015aa2   921 0001:00015ab8   922 0001:00015ac2   924 0001:00015ad2
   926 0001:00015adc   928 0001:00015b17   929 0001:00015b24   930 0001:00015b44
   931 0001:00015b52   932 0001:00015b6c   933 0001:00015b79   934 0001:00015b82
   935 0001:00015b97   937 0001:00015ba6   938 0001:00015bcb   939 0001:00015be1
   940 0001:00015c0f   941 0001:00015c25   942 0001:00015c53   943 0001:00015c69
   944 0001:00015c97   945 0001:00015cad   946 0001:00015cba   947 0001:00015cd6
   948 0001:00015cff   949 0001:00015d28   950 0001:00015d9e   954 0001:00015daa
   958 0001:00015daf   959 0001:00015dbb   960 0001:00015dc4   961 0001:00015dcd
   962 0001:00015dcf   963 0001:00015dd8   965 0001:00015de1   966 0001:00015e08
   967 0001:00015e22   970 0001:00015e59   971 0001:00015eb7   974 0001:00015ebc
   975 0001:00015f2b   978 0001:00015f2d   982 0001:00015f99   983 0001:00015fa5
   984 0001:00015fad   985 0001:00015fba   986 0001:00015feb   987 0001:00015ff7
   988 0001:00016013   991 0001:0001601c   992 0001:00016025   993 0001:0001603e
   995 0001:00016043   996 0001:00016055   997 0001:00016065   998 0001:00016070
   999 0001:00016072  1044 0001:00016090  1046 0001:000160ae  1047 0001:000160ba
  1049 0001:000160d9  1051 0001:000160e0  1052 0001:000160eb  1053 0001:000160f8
  1054 0001:0001612c  1055 0001:00016135  1056 0001:0001613e  1057 0001:00016167
  1059 0001:00016176  1060 0001:00016197  1061 0001:000161a2  1063 0001:000161ab
  1064 0001:000161c3  1065 0001:000161d0  1066 0001:000161e8  1067 0001:000161f5
  1068 0001:0001620d  1069 0001:0001621a  1070 0001:00016232  1071 0001:0001623f
  1072 0001:00016248  1073 0001:0001625a  1074 0001:00016267  1075 0001:000162b7
  1078 0001:00016302  1079 0001:00016304  1080 0001:00016329  1081 0001:00016333
  1082 0001:00016362  1085 0001:00016372  1086 0001:0001637b  1087 0001:00016388
  1088 0001:00016394  1090 0001:000163b0  1091 0001:000163ce  1092 0001:000163d4
  1093 0001:00016406  1094 0001:0001641c  1095 0001:00016449  1096 0001:00016490
  1097 0001:000164d9  1098 0001:000164e1  1099 0001:000164f6  1100 0001:0001650c
  1101 0001:00016516  1102 0001:0001652c  1103 0001:00016553  1104 0001:00016569
  1105 0001:00016581  1106 0001:00016597  1107 0001:000165a1  1108 0001:000165b0
  1110 0001:000165ba  1111 0001:000165d3  1112 0001:000165dd  1113 0001:000165e3
  1114 0001:000165ec  1115 0001:00016624  1116 0001:00016626  1117 0001:00016649
  1118 0001:00016655  1119 0001:0001668d  1120 0001:000166a0  1121 0001:000166c9
  1123 0001:000166dd  1126 0001:0001676b  1127 0001:00016770  1128 0001:0001677a
  1129 0001:0001678c  1130 0001:000167a1  1132 0001:000167ae  1133 0001:000167c9
  1135 0001:00016857  1136 0001:00016866  1138 0001:000168f1  1139 0001:000168f6
  1140 0001:00016910  1141 0001:0001692e  1142 0001:00016934  1143 0001:00016966
  1144 0001:00016986  1145 0001:0001699d  1146 0001:000169b2  1147 0001:000169b4
  1151 0001:000169c4  1152 0001:000169c8  1153 0001:000169d7  1154 0001:000169e3
  1155 0001:000169eb  1156 0001:000169fd  1157 0001:00016a03  1158 0001:00016a0a
  1159 0001:00016a20  1160 0001:00016a41  1161 0001:00016a56  1163 0001:00016a6e
  1165 0001:00016a94  1166 0001:00016aa7  1168 0001:00016aa9  1169 0001:00016ada
  1171 0001:00016adc  1174 0001:00016afb  1175 0001:00016b1b  1176 0001:00016b35
  1177 0001:00016b4d  1178 0001:00016b7a  1179 0001:00016b95  1180 0001:00016b97
  1182 0001:00016b9b  1183 0001:00016ba4  1184 0001:00016bad  1185 0001:00016bb2
  1188 0001:00016bbf  1189 0001:00016bce  1190 0001:00016bd6  1191 0001:00016be6
  1192 0001:00016c04  1193 0001:00016c08  1194 0001:00016c33  1195 0001:00016c3a
  1196 0001:00016c6c  1197 0001:00016ca8  1198 0001:00016cbe  1200 0001:00016cd4
  1201 0001:00016d02  1202 0001:00016d06  1203 0001:00016d10  1204 0001:00016d25
  1205 0001:00016d32  1206 0001:00016d4b  1207 0001:00016d55  1208 0001:00016d5e
  1209 0001:00016d6d  1210 0001:00016da5  1211 0001:00016da7  1212 0001:00016dca
  1213 0001:00016dd6  1214 0001:00016e0e  1215 0001:00016e21  1216 0001:00016e4a
  1220 0001:00016e5e  1222 0001:00016e90  1223 0001:00016ebb  1225 0001:00016ec0
  1227 0001:00016eed  1228 0001:00016ef7  1229 0001:00016f1c  1230 0001:00016f2a
  1231 0001:00016f57  1232 0001:00016f5c  1233 0001:00016f6a  1234 0001:00016f97
  1235 0001:00016f99  1236 0001:00016fa7  1237 0001:00016fd4  1238 0001:00016fd6
  1241 0001:00017000  1243 0001:00017002  1244 0001:00017008  1245 0001:0001702d
  1250 0001:0001704b  1251 0001:00017050  1252 0001:00017059  1253 0001:00017077
  1255 0001:00017092  1256 0001:00017097  1257 0001:000170af  1258 0001:000170c1
  1259 0001:000170e6  1260 0001:00017110  1261 0001:00017135  1262 0001:0001713e
  1263 0001:00017159  1264 0001:0001718d  1266 0001:0001719a  1267 0001:0001719f
  1268 0001:000171a1  1269 0001:000171c7  1270 0001:000171ec  1271 0001:000171fe
  1273 0001:00017200  1274 0001:0001720c  1275 0001:0001722f  1276 0001:00017245
  1278 0001:0001725d  1279 0001:0001725f  1280 0001:00017275  1282 0001:0001728d
  1283 0001:000172c0  1284 0001:000172d8  1286 0001:000172e0  1287 0001:000172fe
  1289 0001:0001730b  1290 0001:00017323  1291 0001:00017337  1292 0001:0001734b
  1293 0001:0001735f  1294 0001:00017373  1296 0001:00017386  1297 0001:0001739a
  1298 0001:000173ae  1299 0001:000173c2  1300 0001:000173dc  1301 0001:000173e2
  1302 0001:000173f5  1303 0001:0001740f  1304 0001:00017419  1305 0001:00017426
  1306 0001:00017433  1307 0001:0001744a  1308 0001:00017454  1309 0001:00017476
  1310 0001:0001749a  1311 0001:000174be  1312 0001:000174c7  1313 0001:000174db
  1314 0001:000174ec  1315 0001:000174f9  1316 0001:00017511  1318 0001:00017518
  1319 0001:00017528  1320 0001:0001752f  1321 0001:00017536  1322 0001:00017556
  1323 0001:00017565  1324 0001:0001757a  1326 0001:000175a2  1327 0001:000175c4
  1328 0001:000175cd  1329 0001:000175e3  1330 0001:0001760c  1331 0001:00017620
  1332 0001:0001762d  1333 0001:00017634  1334 0001:0001765a  1336 0001:00017664
  1337 0001:00017678  1338 0001:00017680  1339 0001:000176ac  1340 0001:000176dd
  1341 0001:0001770e  1342 0001:00017728  1343 0001:0001773f  1344 0001:0001774d
  1345 0001:00017779  1347 0001:0001778d  1348 0001:000177a6  1349 0001:000177c2
  1350 0001:000177cb  1351 0001:000177d8  1352 0001:000177df  1353 0001:00017805
  1355 0001:0001780f  1356 0001:00017823  1357 0001:0001782b  1358 0001:00017857
  1359 0001:00017871  1360 0001:0001787f  1361 0001:000178ab  1362 0001:000178bf
  1364 0001:000178d6  1365 0001:000178f0  1366 0001:000178fe  1367 0001:0001792a
  1368 0001:0001793e  1370 0001:00017955  1371 0001:0001796f  1372 0001:0001797d
  1373 0001:000179a9  1374 0001:000179bd  1376 0001:000179d4  1378 0001:000179ed
  1379 0001:00017a20  1380 0001:00017a55  1381 0001:00017a8a  1382 0001:00017ab3
  1383 0001:00017ac7  1384 0001:00017ae8  1386 0001:00017af1  1388 0001:00017af6
  1389 0001:00017afe  1390 0001:00017b06  1391 0001:00017b18  1393 0001:00017b2a
  1394 0001:00017b3c  1396 0001:00017b4e  1398 0001:00017b64  1399 0001:00017bc8
  1400 0001:00017beb  1402 0001:00017bf5  1404 0001:00017c2f  1405 0001:00017c39
  1406 0001:00017c45  1407 0001:00017cc5  1408 0001:00017cdd  1409 0001:00017ce2
  1410 0001:00017d62  1411 0001:00017d7a  1414 0001:00017dae  1415 0001:00017dc3
  1417 0001:00017dd0  1418 0001:00017ddb  1419 0001:00017de6  1420 0001:00017e04
  1421 0001:00017e35  1422 0001:00017e4b  1423 0001:00017e9a  1426 0001:00017eb2
  1427 0001:00017f3d  1428 0001:00017f52  1430 0001:00017f73  1432 0001:00017f8c
  1433 0001:00017fa2  1434 0001:00017fbb  1435 0001:0001800c  1436 0001:00018024
  1437 0001:0001803e  1438 0001:000180da  1439 0001:000180f0  1440 0001:00018103
  1441 0001:0001812e  1443 0001:00018147  1445 0001:00018150  1448 0001:000181c8
  1449 0001:0001820f  1450 0001:00018214  1451 0001:0001821e  1452 0001:000182b2
  1453 0001:000182c2  1454 0001:000182d2  1455 0001:000182e1  1456 0001:000182f0
  1457 0001:00018315  1459 0001:0001833b  1460 0001:00018347  1461 0001:00018361
  1462 0001:0001836d  1463 0001:00018393  1464 0001:000183d9  1465 0001:000183ec
  1466 0001:000183f8  1467 0001:000183fa  1479 0001:00018410  1480 0001:00018428
  1481 0001:0001842e  1482 0001:0001843d  1483 0001:0001844b  1484 0001:0001847d
  1486 0001:000184a5  1487 0001:000184b2  1488 0001:000184e1  1490 0001:00018507
  1492 0001:00018510  1494 0001:00018528  1495 0001:00018539  1497 0001:00018546
  1498 0001:0001855a  1499 0001:0001856e  1500 0001:00018583  1501 0001:00018598
  1502 0001:000185ad  1503 0001:000185b7  1504 0001:000185cc  1506 0001:00018609
  1507 0001:00018640  1508 0001:0001866a  1509 0001:0001866c  1513 0001:00018680
  1515 0001:00018698  1516 0001:000186a5  1517 0001:000186b6  1519 0001:000186c3
  1520 0001:000186d7  1521 0001:000186eb  1523 0001:000186ff  1524 0001:00018711
  1525 0001:00018723  1527 0001:00018735  1528 0001:00018747  1530 0001:00018759
  1531 0001:00018787  1532 0001:000187bb  1533 0001:000187fb  1534 0001:00018801
  1535 0001:0001882b  1536 0001:00018840  1537 0001:0001884a  1539 0001:00018853
  1540 0001:00018855  1545 0001:00018870  1546 0001:00018888  1548 0001:00018895
  1549 0001:000188b0  1550 0001:000188c8  1551 0001:000188dc  1552 0001:000188e9
  1553 0001:00018910  1555 0001:00018937  1556 0001:0001894b  1557 0001:0001895f
  1559 0001:00018973  1560 0001:00018991  1561 0001:000189af  1562 0001:000189e5
  1563 0001:00018a21  1564 0001:00018a3d  1566 0001:00018a59  1567 0001:00018a5f
  1568 0001:00018a89  1569 0001:00018a9e  1570 0001:00018aa8  1572 0001:00018ab1
  1573 0001:00018ab3  1575 0001:00018ad0  1576 0001:00018ae8  1577 0001:00018af5
  1578 0001:00018b10  1579 0001:00018b28  1580 0001:00018b42  1581 0001:00018b4c
  1582 0001:00018b6b  1583 0001:00018b8a  1584 0001:00018ba9  1585 0001:00018bc8
  1586 0001:00018bca  1590 0001:00018be0  1591 0001:00018bf8  1592 0001:00018c05
  1593 0001:00018c20  1594 0001:00018c38  1595 0001:00018c40  1596 0001:00018c49
  1597 0001:00018c6d  1598 0001:00018c89  1599 0001:00018cdb  1600 0001:00018cf0
  1601 0001:00018cfa  1602 0001:00018d20  1603 0001:00018d46  1604 0001:00018d63
  1605 0001:00018d73  1606 0001:00018da5  1607 0001:00018dc2  1609 0001:00018de4
  1611 0001:00018de9  1612 0001:00018dee  1613 0001:00018df3  1614 0001:00018df5
  1618 0001:00018e10  1619 0001:00018e28  1620 0001:00018e35  1621 0001:00018e46
  1622 0001:00018e5e  1623 0001:00018e7e  1624 0001:00018e9a  1625 0001:00018eb4
  1626 0001:00018ec9  1627 0001:00018ecf  1628 0001:00018eda  1629 0001:00018ee5
  1631 0001:00018ef1  1632 0001:00018ef3  1633 0001:00018ef8  1634 0001:00018efa
  1637 0001:00018f10  1638 0001:00018f28  1639 0001:00018f35  1640 0001:00018f3f
  1641 0001:00018f51  1642 0001:00018f5d  1643 0001:00018f75  1644 0001:00018fa0
  1646 0001:00018fc0  1647 0001:00018fc2  1648 0001:00018fda  1649 0001:00019001
  1651 0001:00019017  1652 0001:00019019  1655 0001:00019030  1656 0001:00019048
  1657 0001:00019050  1658 0001:00019058  1659 0001:00019060  1660 0001:00019068
  1661 0001:00019072  1662 0001:00019090  1665 0001:000190ae  1666 0001:000190c1
  1667 0001:000190e2  1668 0001:000190f6  1669 0001:0001915c  1670 0001:00019174
  1672 0001:0001917b  1673 0001:00019180  1674 0001:00019193  1675 0001:000191b5
  1677 0001:000191d7  1678 0001:000191fa  1679 0001:00019210  1680 0001:00019212
  1683 0001:00019230  1684 0001:00019248  1685 0001:00019255  1686 0001:0001926c
  1687 0001:0001927c  1688 0001:0001928a  1689 0001:0001929a  1691 0001:000192da
  1692 0001:0001931c  1693 0001:00019326  1694 0001:00019351  1695 0001:00019367
  1696 0001:00019370  1697 0001:00019372  1700 0001:000193d0  1701 0001:000193e8
  1702 0001:000193f2  1703 0001:00019403  1704 0001:00019414  1706 0001:00019439
  1707 0001:0001943b  1710 0001:00019450  1711 0001:0001946e  1713 0001:0001947b
  1714 0001:0001948f  1715 0001:000194b5  1716 0001:000194d8  1717 0001:000194ef
  1719 0001:00019518  1720 0001:00019527  1721 0001:0001952c  1722 0001:0001952e
  1726 0001:00019550  1728 0001:0001956e  1730 0001:00019586  1731 0001:0001959c
  1732 0001:000195bb  1733 0001:000195ce  1735 0001:000195f0  1736 0001:00019608
  1737 0001:00019617  1738 0001:00019621  1739 0001:00019633  1740 0001:00019635
  1744 0001:00019650  1745 0001:0001966e  1746 0001:00019682  1748 0001:0001968f
  1749 0001:000196a9  1750 0001:000196be  1751 0001:000196cb  1752 0001:000196da
  1753 0001:0001971e  1754 0001:00019730  1755 0001:00019736  1756 0001:00019753
  1758 0001:00019764  1759 0001:0001977e  1760 0001:0001978c  1762 0001:00019790
  1763 0001:0001979a  1765 0001:0001979c  1780 0001:000197b0  1781 0001:000197c8
  1783 0001:000197cc  1784 0001:000197d0  1785 0001:000197ea  1786 0001:0001980b
  1787 0001:00019817  1788 0001:0001982a  1789 0001:00019837  1791 0001:0001983b
  1792 0001:0001983d  1793 0001:00019846  1797 0001:00019860  1798 0001:00019878
  1799 0001:00019891  1800 0001:000198ac  1801 0001:000198bb  1802 0001:000198ea
  1803 0001:000198fa  1804 0001:00019907  1805 0001:0001992c  1806 0001:00019931
  1807 0001:00019948  1808 0001:00019959  1809 0001:0001996c  1810 0001:00019979
  1811 0001:0001999e  1812 0001:000199a3  1813 0001:000199be  1814 0001:000199d7
  1815 0001:000199e7  1816 0001:000199f8  1817 0001:00019a0b  1818 0001:00019a1a
  1819 0001:00019a4b  1820 0001:00019a66  1822 0001:00019a79  1824 0001:00019a90
  1827 0001:00019aae  1829 0001:00019ac1  1830 0001:00019acb  1831 0001:00019ad5
  1833 0001:00019adf  1834 0001:00019ae9  1835 0001:00019af3  1837 0001:00019afd
  1838 0001:00019b0f  1839 0001:00019b43  1840 0001:00019b6d  1842 0001:00019b95
  1843 0001:00019bb8  1845 0001:00019bc5  1846 0001:00019bf7  1847 0001:00019c08
  1848 0001:00019c40  1849 0001:00019c4e  1850 0001:00019c5f  1852 0001:00019c88
  1853 0001:00019cbc  1854 0001:00019cdb  1856 0001:00019cea  1857 0001:00019cef
  1858 0001:00019cfd  1859 0001:00019d0e  1861 0001:00019d37  1862 0001:00019d6b
  1863 0001:00019d8a  1866 0001:00019d99  1868 0001:00019dbe  1870 0001:00019dc3
  1871 0001:00019dd9  1872 0001:00019def  1873 0001:00019e05  1874 0001:00019e1b
  1875 0001:00019e33  1876 0001:00019e4b  1877 0001:00019e55  1878 0001:00019e5f
  1879 0001:00019e69  1880 0001:00019e7d  1881 0001:00019e8e  1882 0001:00019efc
  1884 0001:00019f0b  1886 0001:00019f38  1888 0001:00019f5c  1889 0001:00019f80
  1890 0001:00019ff6  1891 0001:0001a005  1892 0001:0001a00a  1894 0001:0001a037
  1895 0001:0001a05b  1896 0001:0001a0e3  1897 0001:0001a0f2  1898 0001:0001a0f7
  1899 0001:0001a10f  1901 0001:0001a11e  1902 0001:0001a132  1903 0001:0001a163
  1904 0001:0001a179  1905 0001:0001a186  1906 0001:0001a1a0  1907 0001:0001a1b8
  1908 0001:0001a1db  1909 0001:0001a1ef  1910 0001:0001a222  1911 0001:0001a229
  1912 0001:0001a236  1914 0001:0001a25b  1917 0001:0001a270  1918 0001:0001a28e
  1919 0001:0001a2a1  1920 0001:0001a2bc  1922 0001:0001a2d4  1923 0001:0001a2db
  1924 0001:0001a2ff  1925 0001:0001a314  1926 0001:0001a356  1927 0001:0001a376
  1928 0001:0001a382  1929 0001:0001a38e  1930 0001:0001a390  1931 0001:0001a395
  1932 0001:0001a39f  1933 0001:0001a3b6  1934 0001:0001a3c2  1935 0001:0001a3ca
  1936 0001:0001a3d2  1937 0001:0001a3eb  1938 0001:0001a401  1940 0001:0001a416
  1942 0001:0001a428  1943 0001:0001a443  1945 0001:0001a44f  1946 0001:0001a468
  1947 0001:0001a482  1948 0001:0001a49c  1949 0001:0001a4b2  1950 0001:0001a4c8
  1951 0001:0001a4d6  1953 0001:0001a4fe  1954 0001:0001a50d  1955 0001:0001a528
  1956 0001:0001a541  1957 0001:0001a555  1960 0001:0001a56a  1961 0001:0001a596
  1962 0001:0001a5a7  1963 0001:0001a5b6  1964 0001:0001a5c3  1966 0001:0001a5de
  1967 0001:0001a5f3  1968 0001:0001a5fc  1970 0001:0001a636  1971 0001:0001a667
  1973 0001:0001a679  1977 0001:0001a690  1978 0001:0001a6a8  1979 0001:0001a6b5
  1980 0001:0001a6d0  1981 0001:0001a6e8  1982 0001:0001a6fa  1983 0001:0001a707
  1984 0001:0001a72d  1985 0001:0001a73d  1986 0001:0001a75b  1987 0001:0001a77b
  1988 0001:0001a7a1  1989 0001:0001a7d3  1990 0001:0001a7ea  1991 0001:0001a801
  1992 0001:0001a807  1993 0001:0001a829  1995 0001:0001a84b  1996 0001:0001a885
  1997 0001:0001a8a1  1998 0001:0001a8b3  1999 0001:0001a8b9  2000 0001:0001a8e3
  2001 0001:0001a8e9  2004 0001:0001a92f  2005 0001:0001a931  2007 0001:0001a959
  2008 0001:0001a968  2009 0001:0001a96a  2014 0001:0001a980  2015 0001:0001a998
  2016 0001:0001a99a  2018 0001:0001a9b0  2019 0001:0001a9c8  2020 0001:0001a9d2
  2021 0001:0001a9da  2022 0001:0001a9dc  2031 0001:0001a9f0  2032 0001:0001aa21
  2033 0001:0001aa27  2034 0001:0001aa36  2035 0001:0001aa40  2040 0001:0001aa47
  2042 0001:0001ab1c  2043 0001:0001ab2d  2045 0001:0001ab3a  2047 0001:0001ab60
  2048 0001:0001ab78  2049 0001:0001ab7f  2050 0001:0001abb2  2051 0001:0001abb4
  2052 0001:0001abc9  2053 0001:0001abdd  2054 0001:0001abf4  2055 0001:0001ac09
  2056 0001:0001ac19  2057 0001:0001ac26  2058 0001:0001ac40  2059 0001:0001ac68
  2060 0001:0001ac93  2061 0001:0001aca8  2062 0001:0001acaa  2063 0001:0001ad11
  2064 0001:0001ad2d  2065 0001:0001ad3a  2066 0001:0001ad40  2067 0001:0001ad6a
  2068 0001:0001ad7f  2069 0001:0001ad89  2071 0001:0001ad92  2072 0001:0001ad94
  2075 0001:0001adb0  2076 0001:0001adc8  2077 0001:0001add2  2078 0001:0001adef
  2079 0001:0001ae02  2080 0001:0001ae0e  2081 0001:0001ae22  2082 0001:0001ae36
  2083 0001:0001ae4a  2084 0001:0001ae5e  2086 0001:0001ae74  2087 0001:0001ae8a
  2088 0001:0001ae96  2089 0001:0001aeaa  2090 0001:0001aebe  2091 0001:0001aed2
  2092 0001:0001aee6  2094 0001:0001aefc  2095 0001:0001af12  2096 0001:0001af21
  2097 0001:0001af35  2098 0001:0001af49  2099 0001:0001af5d  2100 0001:0001af71
  2102 0001:0001af87  2103 0001:0001af9f  2104 0001:0001afae  2105 0001:0001afc8
  2106 0001:0001afe2  2107 0001:0001affc  2108 0001:0001b016  2110 0001:0001b02e
  2111 0001:0001b046  2112 0001:0001b055  2113 0001:0001b06f  2114 0001:0001b089
  2115 0001:0001b0a3  2116 0001:0001b0bd  2118 0001:0001b0d5  2119 0001:0001b0ed
  2120 0001:0001b0fc  2121 0001:0001b116  2122 0001:0001b130  2123 0001:0001b14a
  2124 0001:0001b164  2126 0001:0001b17c  2127 0001:0001b194  2128 0001:0001b1a3
  2129 0001:0001b1bd  2130 0001:0001b1d7  2131 0001:0001b1f1  2132 0001:0001b20b
  2134 0001:0001b223  2135 0001:0001b23b  2136 0001:0001b24a  2137 0001:0001b264
  2138 0001:0001b27e  2139 0001:0001b298  2140 0001:0001b2b2  2142 0001:0001b2ca
  2143 0001:0001b2e2  2144 0001:0001b2f1  2145 0001:0001b30b  2146 0001:0001b325
  2147 0001:0001b33f  2148 0001:0001b359  2150 0001:0001b371  2151 0001:0001b389
  2152 0001:0001b398  2153 0001:0001b3b2  2154 0001:0001b3cc  2155 0001:0001b3e6
  2156 0001:0001b400  2158 0001:0001b418  2159 0001:0001b430  2160 0001:0001b43f
  2161 0001:0001b459  2162 0001:0001b473  2163 0001:0001b48d  2164 0001:0001b4a7
  2166 0001:0001b4bf  2167 0001:0001b4d7  2168 0001:0001b4e6  2169 0001:0001b500
  2170 0001:0001b51a  2171 0001:0001b534  2172 0001:0001b54e  2174 0001:0001b566
  2175 0001:0001b57e  2176 0001:0001b58d  2177 0001:0001b5a7  2178 0001:0001b5c1
  2179 0001:0001b5db  2180 0001:0001b5f5  2182 0001:0001b60d  2183 0001:0001b625
  2184 0001:0001b634  2185 0001:0001b64e  2186 0001:0001b668  2187 0001:0001b682
  2189 0001:0001b69c  2190 0001:0001b6b4  2191 0001:0001b6c3  2192 0001:0001b6dd
  2193 0001:0001b6f7  2194 0001:0001b711  2195 0001:0001b72b  2197 0001:0001b743
  2198 0001:0001b75b  2199 0001:0001b76a  2200 0001:0001b784  2201 0001:0001b79e
  2202 0001:0001b7b8  2203 0001:0001b7d2  2205 0001:0001b7ea  2206 0001:0001b802
  2207 0001:0001b811  2208 0001:0001b82b  2209 0001:0001b845  2210 0001:0001b85f
  2211 0001:0001b879  2213 0001:0001b891  2214 0001:0001b8a9  2215 0001:0001b8b8
  2216 0001:0001b8d2  2217 0001:0001b8ec  2218 0001:0001b906  2219 0001:0001b920
  2221 0001:0001b938  2222 0001:0001b950  2223 0001:0001b95f  2224 0001:0001b979
  2225 0001:0001b993  2226 0001:0001b9ad  2227 0001:0001b9c7  2229 0001:0001b9df
  2230 0001:0001b9f7  2231 0001:0001ba06  2232 0001:0001ba20  2233 0001:0001ba3a
  2234 0001:0001ba54  2235 0001:0001ba6e  2237 0001:0001ba86  2238 0001:0001ba9e
  2239 0001:0001baad  2240 0001:0001bac7  2241 0001:0001bae1  2242 0001:0001bafb
  2243 0001:0001bb15  2245 0001:0001bb2d  2246 0001:0001bb45  2247 0001:0001bb54
  2248 0001:0001bb6e  2249 0001:0001bb88  2250 0001:0001bba2  2251 0001:0001bbbc
  2253 0001:0001bbd4  2254 0001:0001bbec  2255 0001:0001bbfb  2256 0001:0001bc15
  2257 0001:0001bc2f  2258 0001:0001bc49  2259 0001:0001bc63  2261 0001:0001bc7b
  2262 0001:0001bc93  2263 0001:0001bca2  2264 0001:0001bcbc  2265 0001:0001bcd6
  2266 0001:0001bcf0  2267 0001:0001bd0a  2269 0001:0001bd22  2270 0001:0001bd3a
  2271 0001:0001bd49  2272 0001:0001bd63  2273 0001:0001bd7d  2274 0001:0001bd97
  2275 0001:0001bdb1  2277 0001:0001bdc9  2278 0001:0001bde1  2279 0001:0001bdf0
  2280 0001:0001be0a  2281 0001:0001be24  2282 0001:0001be3e  2283 0001:0001be58
  2285 0001:0001be70  2286 0001:0001be88  2287 0001:0001be97  2288 0001:0001beb1
  2289 0001:0001becb  2290 0001:0001bee5  2291 0001:0001beff  2293 0001:0001bf17
  2294 0001:0001bf2f  2295 0001:0001bf3e  2296 0001:0001bf58  2297 0001:0001bf72
  2298 0001:0001bf8c  2299 0001:0001bfa6  2301 0001:0001bfbe  2302 0001:0001bfd6
  2303 0001:0001bfe5  2304 0001:0001bfff  2305 0001:0001c019  2306 0001:0001c033
  2307 0001:0001c04d  2309 0001:0001c065  2310 0001:0001c07d  2311 0001:0001c08c
  2312 0001:0001c0a6  2313 0001:0001c0c0  2314 0001:0001c0da  2315 0001:0001c0f4
  2317 0001:0001c10c  2318 0001:0001c124  2319 0001:0001c133  2320 0001:0001c14d
  2321 0001:0001c167  2322 0001:0001c181  2323 0001:0001c19b  2325 0001:0001c1b3
  2326 0001:0001c1cb  2327 0001:0001c1da  2328 0001:0001c1f4  2329 0001:0001c20e
  2330 0001:0001c228  2331 0001:0001c242  2333 0001:0001c25a  2334 0001:0001c272
  2335 0001:0001c281  2336 0001:0001c29b  2337 0001:0001c2b5  2338 0001:0001c2cf
  2339 0001:0001c2e9  2341 0001:0001c301  2342 0001:0001c319  2343 0001:0001c328
  2344 0001:0001c342  2345 0001:0001c35c  2346 0001:0001c376  2347 0001:0001c390
  2348 0001:0001c3a8

Line numbers for \cossacks2_project\Cossacks II\_debug\Explore.obj(T:\ac_sources\AC_ADDON_V150VITAL_25.4.2003_7@36@55@218\intexplorer\intexplorer.h) segment .text

   145 0001:0000d8e0   146 0001:0000d8fd   147 0001:0000d905

Line numbers for \cossacks2_project\Cossacks II\_debug\Explore.obj(T:\ac_sources\AC_ADDON_V150VITAL_25.4.2003_7@36@55@218\intexplorer\explore.cpp) segment .text

    55 0001:000081f0    57 0001:00008228    58 0001:00008243    59 0001:00008255
    60 0001:00008271    64 0001:00008297    65 0001:000082ef    66 0001:000082fd
    67 0001:0000831d    72 0001:00008322    73 0001:00008398    74 0001:000083a6
    75 0001:000083d3    76 0001:000083d8    78 0001:000083e6    79 0001:0000840b
    80 0001:0000841d    81 0001:00008431    82 0001:00008441    84 0001:00008466
    85 0001:0000847d    86 0001:00008495    88 0001:000084a7    89 0001:000084ac
    90 0001:000084f0    91 0001:00008546    92 0001:00008562    95 0001:0000856f
    96 0001:000085a2    97 0001:000085ae    98 0001:000085ba    99 0001:000085c4
   100 0001:000085ef   101 0001:00008605   102 0001:00008624   103 0001:00008626
   104 0001:0000862f   108 0001:0000863e   109 0001:00008647   110 0001:00008650
   111 0001:0000868a   112 0001:0000868c   116 0001:00008694   118 0001:00008699
   119 0001:000086b2   120 0001:000086c0   121 0001:000086c8   122 0001:000086e2
   123 0001:000086f5   124 0001:00008702   125 0001:00008717   126 0001:00008729
   127 0001:00008746   128 0001:00008750   129 0001:00008776   130 0001:0000879f
   131 0001:000087ae   132 0001:000087b0   133 0001:000087cd   138 0001:000087dc
   140 0001:000087eb   141 0001:00008810   142 0001:00008828   143 0001:00008839
   144 0001:00008840   145 0001:0000884f   146 0001:0000885e   148 0001:00008865
   149 0001:0000887a   150 0001:00008884   151 0001:00008890   152 0001:000088a5
   153 0001:000088bf   154 0001:000088e2   156 0001:000088f7   157 0001:0000890d
   158 0001:00008927   160 0001:00008935   162 0001:00008949   163 0001:00008952
   164 0001:00008965   165 0001:00008980   167 0001:000089a7   168 0001:000089b5
   169 0001:000089cb   170 0001:000089e2   171 0001:000089f0   172 0001:000089fa
   173 0001:00008a0e   174 0001:00008a23   177 0001:00008a2d   178 0001:00008a5a
   179 0001:00008a6f   180 0001:00008a7f   181 0001:00008a95   182 0001:00008a9f
   183 0001:00008ae3   184 0001:00008b09   185 0001:00008b17   186 0001:00008b2d
   187 0001:00008b34   188 0001:00008b4f   189 0001:00008b64   190 0001:00008b71
   191 0001:00008b86   192 0001:00008ba8   193 0001:00008bc5   194 0001:00008bd4
   195 0001:00008bf8   196 0001:00008c17   197 0001:00008c2c   198 0001:00008c45
   199 0001:00008c54   200 0001:00008c5b   201 0001:00008c60   202 0001:00008c7b
   203 0001:00008c92   204 0001:00008ca7   205 0001:00008cb4   206 0001:00008cca
   207 0001:00008ce1   208 0001:00008d05   209 0001:00008d24   210 0001:00008d39
   211 0001:00008d48   214 0001:00008d4f   215 0001:00008d5f   216 0001:00008d6e
   217 0001:00008d83   218 0001:00008d97   219 0001:00008dad   220 0001:00008dc1
   221 0001:00008dd7   224 0001:00008deb   225 0001:00008df0   226 0001:00008df9
   227 0001:00008e17   229 0001:00008e26   230 0001:00008e40   231 0001:00008e58
   233 0001:00008e5f   234 0001:00008e66   235 0001:00008e6a   237 0001:00008e71
   238 0001:00008e7c   239 0001:00008e8e   240 0001:00008e9f   241 0001:00008ea8
   242 0001:00008eb3   243 0001:00008ec5   244 0001:00008ec9   245 0001:00008ed2
   246 0001:00008ed4   247 0001:00008ee3   248 0001:00008eec   249 0001:00008ef3
   250 0001:00008ef9   251 0001:00008f06   252 0001:00008f0e   253 0001:00008f1b
   254 0001:00008f1e   255 0001:00008f30   256 0001:00008f48   257 0001:00008f4f
   258 0001:00008f56   259 0001:00008f5e   260 0001:00008f99   261 0001:00008faa
   262 0001:00008fc0   263 0001:00008fdb   264 0001:00008fef   265 0001:00009003
   266 0001:00009005   267 0001:0000900c   268 0001:00009026   269 0001:0000902c
   270 0001:00009041   272 0001:0000904c   274 0001:00009059   275 0001:00009062
   276 0001:00009067   277 0001:0000906f   278 0001:00009072   279 0001:00009090
   280 0001:000090a8   281 0001:000090af   282 0001:000090b6   283 0001:000090be
   284 0001:000090f9   285 0001:00009108   287 0001:0000910f   288 0001:00009172
   290 0001:0000917e   291 0001:00009192   292 0001:0000919a   293 0001:000091f0
   294 0001:000091f2   295 0001:000091ff   296 0001:00009204   297 0001:00009215
   298 0001:0000922b   299 0001:00009246   300 0001:0000925a   301 0001:0000926e
   302 0001:00009270   303 0001:00009277   304 0001:00009291   305 0001:00009297
   306 0001:000092ac   308 0001:000092b7   310 0001:000092c4   311 0001:000092cd
   312 0001:000092d2   313 0001:000092da   314 0001:000092dd   315 0001:000092f0
   318 0001:00009308   319 0001:0000930c   320 0001:00009310   321 0001:00009314
   322 0001:00009318   323 0001:0000931c   324 0001:00009320   325 0001:00009324
   327 0001:00009328   328 0001:00009332   329 0001:00009349   330 0001:00009356
   331 0001:00009371   332 0001:00009375   333 0001:0000937a   334 0001:0000939f
   335 0001:000093ac   336 0001:000093c7   337 0001:000093cb   338 0001:000093d0
   339 0001:000093f5   340 0001:00009402   341 0001:0000941d   342 0001:00009421
   343 0001:00009426   344 0001:0000943d   345 0001:0000944a   346 0001:00009469
   347 0001:0000946d   348 0001:00009472   349 0001:00009497   350 0001:000094a4
   351 0001:000094c3   352 0001:000094c7   353 0001:000094cc   354 0001:000094f1
   355 0001:000094fe   356 0001:0000951d   357 0001:00009521   358 0001:00009526
   359 0001:0000953d   360 0001:0000954a   361 0001:00009566   362 0001:0000956a
   363 0001:0000956c   364 0001:00009583   365 0001:00009590   366 0001:000095b0
   367 0001:000095b4   368 0001:000095c3   369 0001:000095e2   370 0001:000095ef
   371 0001:00009601   372 0001:00009609   374 0001:00009611   375 0001:00009623
   376 0001:0000962b   378 0001:00009636   379 0001:00009648   380 0001:00009657
   382 0001:00009664   383 0001:00009676   384 0001:0000967e   386 0001:0000968c
   387 0001:0000969e   388 0001:000096ac   390 0001:000096b4   391 0001:000096c6
   392 0001:000096ce   394 0001:000096d9   395 0001:000096eb   396 0001:000096f3
   398 0001:000096fb   399 0001:0000970d   400 0001:0000971c   402 0001:00009729
   403 0001:0000973b   404 0001:00009743   406 0001:00009751   407 0001:00009763
   408 0001:00009771   410 0001:00009779   411 0001:00009790   412 0001:000097ad
   413 0001:000097c1   414 0001:000097d9   415 0001:00009828   416 0001:0000982a
   417 0001:00009849   419 0001:00009868   420 0001:00009887   421 0001:000098a6
   422 0001:000098c5   424 0001:000098e4   425 0001:00009903   426 0001:00009922
   427 0001:00009941   429 0001:00009960   430 0001:0000997f   431 0001:0000999e
   432 0001:000099bd   434 0001:000099dc   435 0001:000099fb   436 0001:00009a1a
   437 0001:00009a39   439 0001:00009a55   440 0001:00009a71   441 0001:00009a8d
   442 0001:00009aa9   445 0001:00009ac5   447 0001:00009aca   448 0001:00009ae0
   449 0001:00009af8   450 0001:00009b13   451 0001:00009b2e   452 0001:00009b30
   455 0001:00009b40   456 0001:00009b78   457 0001:00009b8e   458 0001:00009ba4
   459 0001:00009bba   461 0001:00009bc1   462 0001:00009bd0   463 0001:00009bdd
   464 0001:00009be3   466 0001:00009c29   467 0001:00009c3c   468 0001:00009c5c
   469 0001:00009c6a   470 0001:00009c70   471 0001:00009c8f   472 0001:00009cae
   473 0001:00009ccd   474 0001:00009cf5   475 0001:00009d0f   476 0001:00009d18
   477 0001:00009d2e   478 0001:00009d37   479 0001:00009d63   480 0001:00009d79
   481 0001:00009d9c   482 0001:00009dad   483 0001:00009db9   484 0001:00009dcd
   485 0001:00009de2   487 0001:00009e17   488 0001:00009e29   489 0001:00009e3b
   490 0001:00009e4d   491 0001:00009e5f   492 0001:00009e6e   493 0001:00009e9b
   494 0001:00009ec3   495 0001:00009ee1   496 0001:00009ef3   497 0001:00009f18
   499 0001:00009f3f   500 0001:00009f51   501 0001:00009f63   502 0001:00009f75
   504 0001:00009f87   505 0001:00009f99   506 0001:00009fab   507 0001:00009fbd
   508 0001:00009fcf   509 0001:00009fdf   510 0001:0000a001   511 0001:0000a023
   512 0001:0000a047   513 0001:0000a06b   514 0001:0000a085   515 0001:0000a094
   516 0001:0000a0a1   517 0001:0000a121   518 0001:0000a183   519 0001:0000a1b3
   520 0001:0000a1d0   521 0001:0000a1ea   523 0001:0000a1f7   524 0001:0000a285
   525 0001:0000a2a3   526 0001:0000a2d5   527 0001:0000a306   528 0001:0000a319
   529 0001:0000a32c   531 0001:0000a347   532 0001:0000a349   533 0001:0000a358
   535 0001:0000a373   536 0001:0000a3bc   537 0001:0000a3da   538 0001:0000a3ef
   539 0001:0000a411   540 0001:0000a433   541 0001:0000a457   543 0001:0000a47b
   544 0001:0000a4fb   545 0001:0000a515   546 0001:0000a51e   548 0001:0000a580
   550 0001:0000a5c9   551 0001:0000a5d8   552 0001:0000a5e8   553 0001:0000a5ea
   554 0001:0000a5f9   556 0001:0000a609   557 0001:0000a638   558 0001:0000a64d
   559 0001:0000a657   560 0001:0000a65c   561 0001:0000a678   562 0001:0000a681
   563 0001:0000a68b   564 0001:0000a6ac   565 0001:0000a6bc   566 0001:0000a6c9
   567 0001:0000a6d2   568 0001:0000a70f   569 0001:0000a725   570 0001:0000a758
   571 0001:0000a77b   572 0001:0000a78a   574 0001:0000a793   575 0001:0000a7c4
   576 0001:0000a7d4   577 0001:0000a805   578 0001:0000a815   579 0001:0000a846
   580 0001:0000a856   581 0001:0000a887   582 0001:0000a897   583 0001:0000a8c8
   584 0001:0000a8d8   585 0001:0000a909   586 0001:0000a919   587 0001:0000a94a
   588 0001:0000a95a   589 0001:0000a98b   590 0001:0000a99b   591 0001:0000a9cc
   592 0001:0000a9dc   593 0001:0000aa0d   594 0001:0000aa1d   595 0001:0000aa22
   596 0001:0000aa3e   597 0001:0000aa47   598 0001:0000aa51   599 0001:0000aa5a
   600 0001:0000aa97   601 0001:0000aaad   602 0001:0000aad2   603 0001:0000aae6
   604 0001:0000aaf5   605 0001:0000aafe   606 0001:0000ab23   607 0001:0000ab33
   608 0001:0000ab58   609 0001:0000ab68   610 0001:0000ab8d   611 0001:0000ab9d
   612 0001:0000abc2   613 0001:0000abd2   614 0001:0000abf7   615 0001:0000ac07
   616 0001:0000ac2c   617 0001:0000ac3c   618 0001:0000ac41   619 0001:0000ac5d
   620 0001:0000ac66   621 0001:0000ac70   622 0001:0000ac79   623 0001:0000acb6
   624 0001:0000accc   625 0001:0000acf1   626 0001:0000ad05   627 0001:0000ad14
   628 0001:0000ad1d   629 0001:0000ad42   630 0001:0000ad52   631 0001:0000ad77
   632 0001:0000ad87   633 0001:0000adac   634 0001:0000adbc   635 0001:0000ade1
   636 0001:0000adf1   637 0001:0000ae16   638 0001:0000ae26   639 0001:0000ae4b
   640 0001:0000ae5b   641 0001:0000ae60   642 0001:0000ae78   643 0001:0000ae81
   644 0001:0000ae8b   645 0001:0000aeaf   646 0001:0000aebf   647 0001:0000aec4
   648 0001:0000aee0   649 0001:0000aefa   650 0001:0000af03   651 0001:0000af0c
   652 0001:0000af49   653 0001:0000af5f   654 0001:0000af84   655 0001:0000af98
   656 0001:0000afa7   657 0001:0000afb0   658 0001:0000afba   659 0001:0000afdf
   660 0001:0000afef   661 0001:0000b014   662 0001:0000b024   663 0001:0000b049
   664 0001:0000b059   665 0001:0000b07e   666 0001:0000b08e   667 0001:0000b0b3
   668 0001:0000b0c3   669 0001:0000b0e8   670 0001:0000b0f8   671 0001:0000b11d
   672 0001:0000b12d   673 0001:0000b152   675 0001:0000b162   676 0001:0000b187
   677 0001:0000b197   678 0001:0000b1bc   679 0001:0000b1cc   680 0001:0000b1f1
   681 0001:0000b201   682 0001:0000b226   684 0001:0000b236   685 0001:0000b23b
   686 0001:0000b257   687 0001:0000b271   688 0001:0000b27a   689 0001:0000b283
   690 0001:0000b2c0   691 0001:0000b2d6   692 0001:0000b2fb   693 0001:0000b30f
   694 0001:0000b31e   695 0001:0000b327   696 0001:0000b331   697 0001:0000b356
   698 0001:0000b366   699 0001:0000b38b   700 0001:0000b39b   701 0001:0000b3c0
   702 0001:0000b3d0   703 0001:0000b3f5   704 0001:0000b405   705 0001:0000b42a
   706 0001:0000b43a   707 0001:0000b45f   708 0001:0000b46f   709 0001:0000b494
   710 0001:0000b4a4   711 0001:0000b4c9   713 0001:0000b4d9   714 0001:0000b4fe
   715 0001:0000b50e   716 0001:0000b533   717 0001:0000b543   718 0001:0000b568
   719 0001:0000b578   720 0001:0000b59d   722 0001:0000b5ad   723 0001:0000b5d2
   724 0001:0000b5e2   725 0001:0000b607   726 0001:0000b617   727 0001:0000b63c
   728 0001:0000b64c   729 0001:0000b651   730 0001:0000b66d   731 0001:0000b687
   732 0001:0000b690   733 0001:0000b699   734 0001:0000b6d6   735 0001:0000b6ec
   736 0001:0000b711   737 0001:0000b725   738 0001:0000b734   739 0001:0000b73d
   740 0001:0000b747   741 0001:0000b76c   742 0001:0000b77c   743 0001:0000b7a1
   744 0001:0000b7b1   745 0001:0000b7b6   746 0001:0000b7d2   747 0001:0000b7ec
   748 0001:0000b7f5   749 0001:0000b7fe   750 0001:0000b83b   751 0001:0000b851
   752 0001:0000b876   753 0001:0000b88a   754 0001:0000b899   755 0001:0000b8a2
   756 0001:0000b8ac   757 0001:0000b8d1   758 0001:0000b8e1   759 0001:0000b906
   760 0001:0000b916   761 0001:0000b91b   762 0001:0000b937   763 0001:0000b951
   764 0001:0000b95a   765 0001:0000b964   766 0001:0000b989   767 0001:0000b999
   768 0001:0000b9be   769 0001:0000b9ce   770 0001:0000b9f3   771 0001:0000ba03
   772 0001:0000ba28   773 0001:0000ba38   774 0001:0000ba5d   775 0001:0000ba6d
   776 0001:0000ba92   777 0001:0000baa2   778 0001:0000bac7   779 0001:0000bad7
   780 0001:0000bafc   781 0001:0000bb0c   782 0001:0000bb31   783 0001:0000bb41
   784 0001:0000bb66   785 0001:0000bb76   786 0001:0000bb9b   787 0001:0000bbab
   788 0001:0000bbd0   789 0001:0000bbe0   790 0001:0000bc05   791 0001:0000bc15
   792 0001:0000bc3a   793 0001:0000bc4a   794 0001:0000bc4f   795 0001:0000bc6b
   796 0001:0000bc85   797 0001:0000bc8e   798 0001:0000bc97   799 0001:0000bcd4
   800 0001:0000bcea   801 0001:0000bd0f   802 0001:0000bd23   803 0001:0000bd32
   804 0001:0000bd3b   805 0001:0000bd40   806 0001:0000bd5c   808 0001:0000bd76
   809 0001:0000bd7f   810 0001:0000bd88   811 0001:0000bdc5   812 0001:0000bddd
   813 0001:0000be00   814 0001:0000be11   815 0001:0000be20   816 0001:0000be29
   817 0001:0000be3f   818 0001:0000be44   819 0001:0000be72   820 0001:0000be77
   821 0001:0000bea5   822 0001:0000beaa   823 0001:0000bed8   824 0001:0000bedd
   825 0001:0000bef9   828 0001:0000bf13   829 0001:0000bf1c   830 0001:0000bf25
   831 0001:0000bf62   832 0001:0000bf76   833 0001:0000bf8c   834 0001:0000bfaf
   835 0001:0000bfc0   836 0001:0000bfcf   837 0001:0000bfd8   838 0001:0000c015
   839 0001:0000c02b   840 0001:0000c04e   841 0001:0000c05f   842 0001:0000c06e
   845 0001:0000c077   846 0001:0000c092   847 0001:0000c0ad   848 0001:0000c0cc
   849 0001:0000c0d5   850 0001:0000c0ea   851 0001:0000c0f3   852 0001:0000c11c
   854 0001:0000c12b   856 0001:0000c14b   857 0001:0000c150   858 0001:0000c16c
   861 0001:0000c186   862 0001:0000c18f   863 0001:0000c198   864 0001:0000c1d5
   865 0001:0000c1e9   866 0001:0000c1ff   867 0001:0000c222   868 0001:0000c233
   869 0001:0000c242   870 0001:0000c24b   871 0001:0000c288   872 0001:0000c29e
   873 0001:0000c2c1   874 0001:0000c2d2   875 0001:0000c2e1   878 0001:0000c2ea
   879 0001:0000c305   880 0001:0000c320   881 0001:0000c33f   882 0001:0000c34c
   883 0001:0000c361   884 0001:0000c388   885 0001:0000c397   886 0001:0000c3a1
   889 0001:0000c3bd   890 0001:0000c3d1   891 0001:0000c3e0   894 0001:0000c41e
   895 0001:0000c432   896 0001:0000c441   897 0001:0000c47f   898 0001:0000c48d
   899 0001:0000c4c0   901 0001:0000c4cf   902 0001:0000c4d4   903 0001:0000c4e9
   904 0001:0000c4f2   905 0001:0000c50f   907 0001:0000c51e   908 0001:0000c537
   910 0001:0000c557   911 0001:0000c55c   912 0001:0000c578   915 0001:0000c592
   916 0001:0000c59b   917 0001:0000c5a4   918 0001:0000c5e1   919 0001:0000c5f5
   920 0001:0000c60b   921 0001:0000c62e   922 0001:0000c63f   923 0001:0000c64e
   924 0001:0000c657   925 0001:0000c694   926 0001:0000c6aa   927 0001:0000c6cd
   928 0001:0000c6de   929 0001:0000c6ed   932 0001:0000c6f6   934 0001:0000c711
   935 0001:0000c72c   936 0001:0000c748   937 0001:0000c755   938 0001:0000c774
   939 0001:0000c77d   940 0001:0000c792   941 0001:0000c79b   942 0001:0000c7cf
   946 0001:0000c7de   947 0001:0000c7e3   948 0001:0000c7ff   949 0001:0000c819
   950 0001:0000c822   951 0001:0000c82b   952 0001:0000c868   953 0001:0000c87c
   954 0001:0000c892   955 0001:0000c8bb   957 0001:0000c8d2   959 0001:0000c8e1
   960 0001:0000c8ea   961 0001:0000c927   962 0001:0000c93d   963 0001:0000c951
   964 0001:0000c97a   966 0001:0000c991   968 0001:0000c9a0   969 0001:0000c9a9
   970 0001:0000c9e6   971 0001:0000c9fc   972 0001:0000ca10   973 0001:0000ca39
   974 0001:0000ca50   975 0001:0000ca5c   976 0001:0000ca61   977 0001:0000ca7d
   978 0001:0000ca97   979 0001:0000caa0   980 0001:0000caa9   981 0001:0000cadd
   982 0001:0000cb05   983 0001:0000cb2b   984 0001:0000cb41   985 0001:0000cb4d
   987 0001:0000cb52   988 0001:0000cb64   989 0001:0000cb77   990 0001:0000cb81
   991 0001:0000cbae   992 0001:0000cbd7   993 0001:0000cc11   994 0001:0000cc4a
   995 0001:0000cc53   996 0001:0000cc5c   997 0001:0000cc90   998 0001:0000ccc7
   999 0001:0000ccea  1000 0001:0000ccfb  1002 0001:0000cd07  1003 0001:0000cd3f
  1004 0001:0000cd48  1005 0001:0000cd52  1006 0001:0000cd78  1007 0001:0000cdb0
  1009 0001:0000cdb9  1010 0001:0000cded  1011 0001:0000ce21  1012 0001:0000ce44
  1013 0001:0000ce55  1014 0001:0000ce5e  1015 0001:0000cec2  1016 0001:0000cedd
  1017 0001:0000cef8  1018 0001:0000cf1a  1019 0001:0000cf3c  1020 0001:0000cf5e
  1021 0001:0000cf80  1022 0001:0000cf92  1023 0001:0000cf97  1024 0001:0000cfce
  1025 0001:0000cfd7  1026 0001:0000cfe6  1027 0001:0000d018  1029 0001:0000d027
  1030 0001:0000d030  1031 0001:0000d0ae  1033 0001:0000d0b7  1036 0001:0000d0de
  1038 0001:0000d0e9  1039 0001:0000d139  1040 0001:0000d142  1041 0001:0000d14b
  1042 0001:0000d17f  1043 0001:0000d1ba  1044 0001:0000d1e7  1045 0001:0000d215
  1046 0001:0000d241  1047 0001:0000d25d  1048 0001:0000d269  1049 0001:0000d278
  1050 0001:0000d287  1053 0001:0000d29d  1057 0001:0000d2c4  1058 0001:0000d2cf
  1060 0001:0000d2d6  1061 0001:0000d2f1  1062 0001:0000d30a  1065 0001:0000d319
  1066 0001:0000d326  1067 0001:0000d32f  1068 0001:0000d338  1069 0001:0000d36c
  1070 0001:0000d378  1071 0001:0000d381  1072 0001:0000d38a  1073 0001:0000d3c2
  1074 0001:0000d3cb  1075 0001:0000d3cd  1076 0001:0000d3d6  1077 0001:0000d413
  1078 0001:0000d41f  1079 0001:0000d428  1081 0001:0000d431  1082 0001:0000d45e
  1083 0001:0000d4a4  1084 0001:0000d4cd  1085 0001:0000d4e3  1086 0001:0000d4f2
  1087 0001:0000d50d  1089 0001:0000d547  1091 0001:0000d557  1092 0001:0000d561
  1093 0001:0000d56a  1095 0001:0000d591  1096 0001:0000d609  1097 0001:0000d613
  1098 0001:0000d61c  1100 0001:0000d643  1101 0001:0000d650  1102 0001:0000d66a
  1103 0001:0000d685  1105 0001:0000d6c0  1106 0001:0000d6e1  1107 0001:0000d6fc
  1108 0001:0000d712  1109 0001:0000d721  1110 0001:0000d730  1111 0001:0000d73f
  1112 0001:0000d74e  1113 0001:0000d75d  1118 0001:0000d76c  1119 0001:0000d777
  1121 0001:0000d785  1122 0001:0000d7b9  1123 0001:0000d7be  1124 0001:0000d7d0
  1125 0001:0000d7d5  1126 0001:0000d7f9  1127 0001:0000d82d  1128 0001:0000d852
  1129 0001:0000d879  1130 0001:0000d896  1131 0001:0000d8a1  1132 0001:0000d8b6
  1133 0001:0000d8b9  1135 0001:0000d920  1136 0001:0000d93d  1137 0001:0000d950
  1138 0001:0000d970  1139 0001:0000d98d  1140 0001:0000d995  1141 0001:0000d9b7
  1142 0001:0000d9d0  1143 0001:0000d9ff  1144 0001:0000da12  1145 0001:0000da30
  1146 0001:0000da4d  1147 0001:0000da70  1148 0001:0000da8d  1149 0001:0000da95
  1150 0001:0000dab9  1151 0001:0000dada  1152 0001:0000db22  1153 0001:0000db3f
  1154 0001:0000db5c  1155 0001:0000db79  1157 0001:0000db7e  1158 0001:0000db9e
  1159 0001:0000dbda  1160 0001:0000dbdc  1161 0001:0000dc00  1162 0001:0000dc64
  1163 0001:0000dca0  1164 0001:0000dca5  1165 0001:0000dccd  1166 0001:0000dcf5
  1167 0001:0000dd02  1168 0001:0000dd0f  1169 0001:0000dd37  1170 0001:0000dd44
  1171 0001:0000dd66  1172 0001:0000dd88  1173 0001:0000dd94  1174 0001:0000ddb0
  1176 0001:0000ddbd  1177 0001:0000dddf  1178 0001:0000dde9  1179 0001:0000ddfc
  1180 0001:0000de04  1181 0001:0000de20  1182 0001:0000de3d  1183 0001:0000de5d
  1185 0001:0000de71  1186 0001:0000de84  1187 0001:0000de86  1188 0001:0000deae
  1189 0001:0000debb  1190 0001:0000dec8  1191 0001:0000ded5  1192 0001:0000def5
  1193 0001:0000df31  1194 0001:0000df33  1195 0001:0000df5b  1196 0001:0000df6b
  1197 0001:0000df8f  1198 0001:0000dfa1  1199 0001:0000dfb1  1200 0001:0000dfec
  1201 0001:0000e00e  1202 0001:0000e030  1203 0001:0000e035  1205 0001:0000e05d
  1206 0001:0000e070  1207 0001:0000e090  1208 0001:0000e0ad  1209 0001:0000e0b5
  1210 0001:0000e110  1220 0001:0000e1b0  1221 0001:0000e1cd  1222 0001:0000e1dc
  1223 0001:0000e1ea  1224 0001:0000e21f  1225 0001:0000e24e  1226 0001:0000e26a
  1227 0001:0000e286  1228 0001:0000e2a8  1229 0001:0000e2bd  1230 0001:0000e2ec
  1232 0001:0000e2f4  1233 0001:0000e310  1234 0001:0000e330  1235 0001:0000e34d
  1236 0001:0000e3a2  1237 0001:0000e3a6  1238 0001:0000e3c0  1239 0001:0000e3dd
  1240 0001:0000e412  1241 0001:0000e441  1242 0001:0000e45d  1243 0001:0000e479
  1244 0001:0000e49b  1245 0001:0000e4b0  1246 0001:0000e4cc  1247 0001:0000e4e0
  1248 0001:0000e4fd  1249 0001:0000e552  1250 0001:0000e556  1251 0001:0000e570
  1252 0001:0000e58d  1253 0001:0000e5bd  1254 0001:0000e5bf  1255 0001:0000e5e0
  1256 0001:0000e5fd  1257 0001:0000e629  1258 0001:0000e62b  1259 0001:0000e640
  1260 0001:0000e65d  1261 0001:0000e692  1262 0001:0000e6ad  1263 0001:0000e6c9
  1264 0001:0000e6f8  1265 0001:0000e714  1266 0001:0000e729  1267 0001:0000e745
  1268 0001:0000e760  1269 0001:0000e77d  1270 0001:0000e7b1  1271 0001:0000e7b3
  1272 0001:0000e7d0  1274 0001:0000e7e8  1276 0001:0000e7f0  1277 0001:0000e80d
  1278 0001:0000e819  1279 0001:0000e825  1280 0001:0000e831  1281 0001:0000e83d
  1283 0001:0000e850  1284 0001:0000e86d  1285 0001:0000e885  1286 0001:0000e8a9
  1287 0001:0000e8bb  1288 0001:0000e8c3  1289 0001:0000e8e7  1290 0001:0000e908
  1291 0001:0000e950  1292 0001:0000e96d  1293 0001:0000e98a  1294 0001:0000e9a7
  1298 0001:0000e9ac  1299 0001:0000e9d0  1300 0001:0000ea31  1301 0001:0000ea6d
  1302 0001:0000ea72  1304 0001:0000ea9a  1306 0001:0000eaa7  1308 0001:0000eab4
  1309 0001:0000eac1  1310 0001:0000eace  1311 0001:0000eaf6  1312 0001:0000eb03
  1313 0001:0000eb15  1315 0001:0000eb2e  1316 0001:0000eb38  1317 0001:0000eb42
  1318 0001:0000eb7c  1319 0001:0000eb88  1320 0001:0000eb94  1321 0001:0000eba1
  1322 0001:0000ebb1  1324 0001:0000ebcd  1325 0001:0000ebcf  1326 0001:0000ebd7
  1328 0001:0000ebdf  1329 0001:0000ebf0  1330 0001:0000ebf5  1331 0001:0000ec10
  1332 0001:0000ec42  1334 0001:0000ec59  1335 0001:0000ec97  1337 0001:0000ecac
  1338 0001:0000ecc0  1339 0001:0000ecd5  1341 0001:0000ed07  1342 0001:0000ed5d
  1343 0001:0000ed7f  1344 0001:0000edb9  1345 0001:0000edde  1346 0001:0000edf9
  1347 0001:0000ee13  1348 0001:0000ee28  1350 0001:0000ee50  1351 0001:0000ee6d
  1352 0001:0000ee8e  1353 0001:0000eea0  1354 0001:0000eebd  1355 0001:0000eee9
  1356 0001:0000eef0  1357 0001:0000ef13  1358 0001:0000ef2b  1359 0001:0000ef66
  1360 0001:0000efa0  1362 0001:0000efc5  1363 0001:0000efe7  1364 0001:0000f002
  1365 0001:0000f01c  1366 0001:0000f037  1367 0001:0000f059  1368 0001:0000f074
  1373 0001:0000f086  1375 0001:0000f0a0  1376 0001:0000f0b8  1377 0001:0000f0cc
  1379 0001:0000f0e0  1380 0001:0000f0f8  1381 0001:0000f10c  1383 0001:0000f120
  1384 0001:0000f138  1385 0001:0000f14c  1388 0001:0000f160  1389 0001:0000f178
  1390 0001:0000f17d  1391 0001:0000f19c  1392 0001:0000f1bb  1393 0001:0000f1da
  1395 0001:0000f1f9  1396 0001:0000f218  1398 0001:0000f237  1399 0001:0000f23c
  1400 0001:0000f241  1401 0001:0000f26d  1403 0001:0000f280  1404 0001:0000f298
  1406 0001:0000f2a3  1407 0001:0000f2b7  1408 0001:0000f2c9  1409 0001:0000f2ed
  1410 0001:0000f30b  1411 0001:0000f32b  1412 0001:0000f351  1414 0001:0000f377
  1416 0001:0000f390  1417 0001:0000f3a8  1418 0001:0000f3b3  1419 0001:0000f3d1
  1420 0001:0000f3f1  1421 0001:0000f417  1423 0001:0000f43d  1425 0001:0000f450
  1426 0001:0000f468  1427 0001:0000f470  1428 0001:0000f494  1430 0001:0000f4b0
  1431 0001:0000f4c8  1432 0001:0000f4d0  1433 0001:0000f4e4  1438 0001:0000f500
  1439 0001:0000f51e  1440 0001:0000f52d  1441 0001:0000f532  1442 0001:0000f53d
  1443 0001:0000f54e  1444 0001:0000f55a  1446 0001:0000f572  1447 0001:0000f595
  1448 0001:0000f5ad  1449 0001:0000f5d1  1450 0001:0000f5ed  1451 0001:0000f61e
  1452 0001:0000f629  1453 0001:0000f632  1454 0001:0000f65f  1455 0001:0000f68e
  1457 0001:0000f6a2  1458 0001:0000f6ab  1459 0001:0000f6ad  1460 0001:0000f6b2
  1463 0001:0000f6b7  1464 0001:0000f6c3  1465 0001:0000f6d6  1466 0001:0000f6ea
  1467 0001:0000f71a  1468 0001:0000f73b  1469 0001:0000f74b  1470 0001:0000f76c
  1471 0001:0000f795  1472 0001:0000f7bd  1473 0001:0000f7c4  1474 0001:0000f7ee
  1475 0001:0000f804  1476 0001:0000f812  1477 0001:0000f814  1478 0001:0000f822
  1479 0001:0000f83d  1480 0001:0000f86f  1481 0001:0000f888  1482 0001:0000f88a
  1483 0001:0000f8a3  1485 0001:0000f8b3  1486 0001:0000f8ce  1487 0001:0000f8e6
  1488 0001:0000f910  1489 0001:0000f933  1490 0001:0000f956  1491 0001:0000f958
  1493 0001:0000f96d  1494 0001:0000f980  1496 0001:0000f9a4  1498 0001:0000f9b6
  1499 0001:0000f9c1  1500 0001:0000f9d3  1501 0001:0000f9de  1502 0001:0000f9f0
  1503 0001:0000f9ff  1507 0001:0000fa0e  1509 0001:0000fa13  1511 0001:0000fa22
  1512 0001:0000fa26  1513 0001:0000fa2c  1514 0001:0000fa47  1515 0001:0000fa77
  1517 0001:0000fa79  1518 0001:0000fa91  1519 0001:0000fab1  1520 0001:0000fac9
  1521 0001:0000faed  1522 0001:0000fb02  1523 0001:0000fb08  1524 0001:0000fb23
  1525 0001:0000fb53  1527 0001:0000fb55  1528 0001:0000fb89  1529 0001:0000fbbd
  1530 0001:0000fbc2  1531 0001:0000fbcc  1532 0001:0000fbd1  1533 0001:0000fbe9
  1534 0001:0000fbf0  1535 0001:0000fc14  1536 0001:0000fc29  1537 0001:0000fc2f
  1538 0001:0000fc4a  1539 0001:0000fc76  1541 0001:0000fca3  1543 0001:0000fca5
  1544 0001:0000fcaa  1545 0001:0000fcb4  1546 0001:0000fce4  1547 0001:0000fcf9
  1548 0001:0000fcff  1549 0001:0000fd1a  1550 0001:0000fd4a  1552 0001:0000fd4c
  1553 0001:0000fd80  1554 0001:0000fdb4  1555 0001:0000fdb6  1556 0001:0000fdea
  1557 0001:0000fe1e  1558 0001:0000fe23  1559 0001:0000fe29  1560 0001:0000fe50
  1561 0001:0000fe89  1562 0001:0000fe8b  1567 0001:0000fe95  1568 0001:0000fe9e
  1569 0001:0000fea9  1570 0001:0000feb4  1571 0001:0000febe  1572 0001:0000fec8
  1573 0001:0000fede  1575 0001:0000fef7  1576 0001:0000ff10  1577 0001:0000ff28
  1578 0001:0000ff40  1579 0001:0000ff54  1580 0001:0000ff66  1581 0001:0000ff68
  1583 0001:0000ff80  1584 0001:0000ff98  1585 0001:0000ffa6  1587 0001:0000ffb0
  1588 0001:0000ffc8  1589 0001:0000ffe6  1590 0001:0000fff6  1592 0001:00010010
  1593 0001:00010028  1594 0001:00010039  1595 0001:00010079  1596 0001:0001009e
  1597 0001:000100a3  1598 0001:000100a5  1599 0001:000100c9  1600 0001:000100ed
  1601 0001:000100fc  1602 0001:00010102  1603 0001:00010117  1604 0001:00010121
  1605 0001:00010123  1606 0001:00010137  1607 0001:0001013d  1608 0001:00010152
  1612 0001:0001015c  1614 0001:00010170  1615 0001:00010188  1616 0001:00010199
  1617 0001:000101ee  1618 0001:00010210  1619 0001:00010234  1620 0001:00010242
  1621 0001:00010244  1622 0001:00010260  1623 0001:00010283  1624 0001:000102a7
  1625 0001:000102b9  1627 0001:000102f4  1628 0001:0001030c  1629 0001:00010321
  1630 0001:0001032a  1631 0001:00010361  1634 0001:00010370  1635 0001:00010375
  1636 0001:00010390  1637 0001:000103b3  1638 0001:000103d7  1639 0001:000103e9
  1641 0001:00010424  1642 0001:0001043c  1643 0001:00010451  1644 0001:0001045a
  1645 0001:00010491  1648 0001:000104a0  1649 0001:000104a5  1650 0001:000104c0
  1651 0001:000104dd  1652 0001:00010512  1653 0001:00010534  1654 0001:00010558
  1655 0001:00010572  1656 0001:00010587  1657 0001:000105a0  1658 0001:000105c0
  1659 0001:000105dd  1660 0001:0001062e  1661 0001:00010632  1673 0001:00010650
  1674 0001:00010668  1675 0001:00010677  1676 0001:0001067e  1677 0001:00010685
  1680 0001:0001068c  1682 0001:0001069c  1683 0001:000106a6  1684 0001:000106c4
  1685 0001:000106cd  1686 0001:000106d7  1687 0001:00010856  1688 0001:0001085f
  1689 0001:00010868  1690 0001:0001086d  1691 0001:00010873  1692 0001:0001088a
  1693 0001:00010893  1694 0001:000108a2  1695 0001:000108b1  1696 0001:000108c0
  1697 0001:000108c5  1698 0001:000108ce  1700 0001:000108e0  1702 0001:000108fe
  1703 0001:00010905  1704 0001:00010914  1705 0001:00010920  1706 0001:0001092a
  1707 0001:0001098e  1708 0001:000109a1  1709 0001:000109a3  1711 0001:000109c0
  1712 0001:000109f8  1713 0001:00010a0a  1714 0001:00010a52  1715 0001:00010a64
  1716 0001:00010a73  1717 0001:00010a85  1718 0001:00010a89  1719 0001:00010a96
  1721 0001:00010ab2  1722 0001:00010acd  1723 0001:00010aef  1724 0001:00010b15
  1725 0001:00010b62  1726 0001:00010b7b  1727 0001:00010b8d  1728 0001:00010baf
  1729 0001:00010bcb  1730 0001:00010be0  1731 0001:00010bf9  1732 0001:00010c12
  1733 0001:00010c26  1734 0001:00010c50  1736 0001:00010c88  1738 0001:00010ca3
  1739 0001:00010cb9  1740 0001:00010cfd  1741 0001:00010d0d  1742 0001:00010d22
  1743 0001:00010d2b  1745 0001:00010d3a  1746 0001:00010d50  1747 0001:00010d6a
  1748 0001:00010d7c  1751 0001:00010d9d  1752 0001:00010db8  1753 0001:00010dcd
  1754 0001:00010dd6  1756 0001:00010de5  1757 0001:00010dfb  1758 0001:00010e15
  1759 0001:00010e27  1761 0001:00010e48  1764 0001:00010e50  1765 0001:00010e6b
  1766 0001:00010e80  1767 0001:00010e8d  1768 0001:00010e9c  1769 0001:00010eb6
  1770 0001:00010ec8  1771 0001:00010f1d  1772 0001:00010f49  1773 0001:00010f4b
  1775 0001:00010f6c  1776 0001:00010f73  1777 0001:00010fd0  1778 0001:00010fd7
  1779 0001:00011008  1781 0001:00011071  1782 0001:00011076  1783 0001:00011086
  1784 0001:0001109a  1785 0001:000110af  1788 0001:000110e4  1789 0001:0001110c
  1790 0001:0001112c  1791 0001:0001115b  1793 0001:0001116d  1794 0001:00011179
  1795 0001:00011185  1796 0001:0001118c  1797 0001:0001119c  1798 0001:000111f3
  1800 0001:0001124a  1801 0001:00011261  1802 0001:00011295  1803 0001:000112aa
  1804 0001:000112bc  1805 0001:000112bf  1806 0001:000112e0  1807 0001:00011303
  1808 0001:0001130a  1809 0001:00011311  1810 0001:00011318  1811 0001:0001131f
  1812 0001:00011326  1813 0001:00011332  1814 0001:0001133a  1815 0001:00011347
  1816 0001:00011353  1817 0001:00011360  1818 0001:00011384  1819 0001:0001138c
  1820 0001:00011395  1821 0001:000113b5  1822 0001:000113d5  1824 0001:000113f5
  1825 0001:00011436  1826 0001:00011462  1827 0001:0001147e  1828 0001:000114a3
  1829 0001:000114c8  1830 0001:000114d7  1831 0001:000114e0  1832 0001:000114e5
  1833 0001:000114f1  1834 0001:0001150d  1836 0001:0001151a  1837 0001:00011523
  1840 0001:0001152c  1841 0001:0001153c  1842 0001:00011546  1843 0001:00011550
  1844 0001:0001155c  1845 0001:00011576  1846 0001:0001157e  1847 0001:0001158a
  1848 0001:00011596  1849 0001:000115b1  1850 0001:000115ba  1851 0001:000115c3
  1852 0001:000115cf  1853 0001:000115df  1854 0001:000115e7  1855 0001:000115ef
  1856 0001:000115fe  1858 0001:0001160d  1859 0001:0001162b  1860 0001:00011692
  1861 0001:000116b5  1862 0001:000116dd  1863 0001:0001171d  1864 0001:00011748
  1867 0001:00011773  1868 0001:00011778  1869 0001:00011794  1870 0001:00011799
  1871 0001:0001179f  1872 0001:000117b5  1873 0001:000117cb  1875 0001:000117e1
  1876 0001:00011800  1877 0001:0001181d  1878 0001:0001182b  1879 0001:00011841
  1880 0001:00011857  1881 0001:0001186d  1882 0001:00011883  1883 0001:00011899
  1884 0001:000118af  1885 0001:000118c5  1886 0001:000118db  1887 0001:000118ee
  1888 0001:00011904  1889 0001:0001191a  1890 0001:00011930  1891 0001:00011946
  1892 0001:0001195c  1893 0001:00011972  1894 0001:00011988  1895 0001:0001199e
  1896 0001:000119a3  1897 0001:000119b9  1898 0001:000119cf  1899 0001:000119e5
  1900 0001:000119fb  1901 0001:00011a11  1902 0001:00011a27  1903 0001:00011a3d
  1905 0001:00011a53  1906 0001:00011a5f  1907 0001:00011a6b  1908 0001:00011a77
  1909 0001:00011a83  1910 0001:00011a8f  1911 0001:00011a9b  1912 0001:00011aa7
  1914 0001:00011ab3  1915 0001:00011abf  1916 0001:00011acb  1917 0001:00011ad7
  1919 0001:00011ae3  1920 0001:00011aef  1921 0001:00011afb  1922 0001:00011b07
  1923 0001:00011b13  1924 0001:00011b1f  1925 0001:00011b2b  1926 0001:00011b37
  1928 0001:00011b43  1929 0001:00011b4f  1930 0001:00011b5b  1931 0001:00011b67
  1933 0001:00011b73  1934 0001:00011b7f  1935 0001:00011b8b  1937 0001:00011b97
  1938 0001:00011ba3  1939 0001:00011baf  1940 0001:00011bbb  1942 0001:00011bc7
  1943 0001:00011bd3  1944 0001:00011bdf  1946 0001:00011beb  1947 0001:00011bf7
  1948 0001:00011c03  1949 0001:00011c0f  1950 0001:00011c1b  1951 0001:00011c27
  1953 0001:00011c33  1954 0001:00011c3f  1955 0001:00011c4b  1956 0001:00011c57
  1957 0001:00011c63  1958 0001:00011c6f  1960 0001:00011c7b  1962 0001:00011c85
  1963 0001:00011c91  1964 0001:00011c9d  1965 0001:00011ca9  1966 0001:00011cb5
  1967 0001:00011cd0  1968 0001:00011ced  1969 0001:00011cfd  1970 0001:00011d20
  1971 0001:00011d3d  1972 0001:00011d88  1973 0001:00011dac  1974 0001:00011db6
  1975 0001:00011dc0  1976 0001:00011de0  1977 0001:00011dfd  1978 0001:00011e48
  1979 0001:00011e6c  1980 0001:00011e76  1981 0001:00011e80  1982 0001:00011ea0
  1983 0001:00011ebd  1984 0001:00011f08  1985 0001:00011f55  1986 0001:00011f79
  1987 0001:00011f9b  1988 0001:00011fab

Line numbers for \cossacks2_project\Cossacks II\_debug\DString.obj(T:\ac_sources\AC_ADDON_V150VITAL_25.4.2003_7@36@55@218\dipserver\dstring.cpp) segment .text

    36 0001:00007840    37 0001:0000786d    38 0001:00007880    39 0001:0000788c
    40 0001:00007898    41 0001:000078b0    43 0001:000078d0    44 0001:000078ed
    45 0001:000078f9    46 0001:000078fc    47 0001:00007910    48 0001:0000792d
    49 0001:00007939    50 0001:0000793c    51 0001:00007950    52 0001:0000796d
    53 0001:00007979    54 0001:0000797c    55 0001:00007990    56 0001:000079ad
    57 0001:000079b9    58 0001:000079bc    59 0001:000079d0    60 0001:000079ed
    61 0001:000079f9    62 0001:000079fc    63 0001:00007a10    64 0001:00007a2d
    65 0001:00007a4d    66 0001:00007a4f    67 0001:00007a60    68 0001:00007a7d
    69 0001:00007a8b    70 0001:00007aa4    71 0001:00007aa6    72 0001:00007ac0
    73 0001:00007add    74 0001:00007aed    75 0001:00007b08    76 0001:00007b0a
    78 0001:00007b20    79 0001:00007b3d    80 0001:00007b46    81 0001:00007b50
    82 0001:00007b5a    83 0001:00007b70    84 0001:00007b8d    85 0001:00007b96
    86 0001:00007ba0    87 0001:00007baa    88 0001:00007bb6    89 0001:00007bd0
    90 0001:00007bed    91 0001:00007c0d    92 0001:00007c16    93 0001:00007c20
    94 0001:00007c2a    95 0001:00007c40    96 0001:00007c5d    97 0001:00007c65
    98 0001:00007c74    99 0001:00007c7a   100 0001:00007c89   101 0001:00007c8f
   102 0001:00007c9e   103 0001:00007cb4   104 0001:00007cc0   106 0001:00007cd4
   108 0001:00007ce0   109 0001:00007d00   110 0001:00007d1d   111 0001:00007d2c
   112 0001:00007d32   113 0001:00007d53   115 0001:00007d5f   116 0001:00007d80
   117 0001:00007d9d   118 0001:00007da7   119 0001:00007dc0   120 0001:00007dd4
   121 0001:00007de8   122 0001:00007e00   123 0001:00007e1d   124 0001:00007e3c
   125 0001:00007e4e   126 0001:00007e62   127 0001:00007e80   128 0001:00007e9d
   129 0001:00007eaa   130 0001:00007eb2   131 0001:00007ec1   133 0001:00007ed0
   134 0001:00007ee3   135 0001:00007eed   136 0001:00007ef8   137 0001:00007f10
   138 0001:00007f40   139 0001:00007f59   140 0001:00007f6d   142 0001:00007f7b
   143 0001:00007f85   144 0001:00007fa0   145 0001:00007fbd   146 0001:00007fc7
   147 0001:00007fd9   148 0001:00007ff0   149 0001:0000800d   150 0001:00008017
   151 0001:00008027   152 0001:00008030   153 0001:0000804d   154 0001:00008055
   155 0001:00008067   156 0001:00008079   157 0001:0000808b   158 0001:000080a0
   159 0001:000080bd   160 0001:000080d3   161 0001:000080dd   162 0001:000080f0
   163 0001:0000810d   164 0001:0000812d   165 0001:00008136   166 0001:00008140
   167 0001:0000814a   168 0001:00008160   169 0001:0000817d   170 0001:00008188
   171 0001:0000819b   172 0001:000081bf   174 0001:000081ce

Line numbers for \cossacks2_project\Cossacks II\_debug\DataXchange.obj(T:\ac_sources\AC_ADDON_V150VITAL_25.4.2003_7@36@55@218\intexplorer\dataxchange.cpp) segment .text

    13 0001:00000b30    14 0001:00000b52    16 0001:00000b62    17 0001:00000b75
    18 0001:00000b8a    20 0001:00000b90    22 0001:00000bb9    23 0001:00000bc2
    24 0001:00000bdc    25 0001:00000be6    26 0001:00000bfe    28 0001:00000c0a
    71 0001:00000c20    72 0001:00000c3d    73 0001:00000c4d    74 0001:00000c57
    75 0001:00000c70    76 0001:00000c8d    77 0001:00000c95    79 0001:00000cb0
    80 0001:00000cec    81 0001:00000cfb    82 0001:00000d07    84 0001:00000d12
    85 0001:00000d44    86 0001:00000d58    89 0001:00000d6c    90 0001:00000d9f
    91 0001:00000dc0    92 0001:00000ddd    93 0001:00000df1    94 0001:00000e22
    95 0001:00000e2e    96 0001:00000e37    97 0001:00000e39    98 0001:00000e7b
    99 0001:00000e8a   100 0001:00000ea3   101 0001:00000eb3   102 0001:00000eca
   103 0001:00000ef1   104 0001:00000f07   105 0001:00000f15   106 0001:00000f24
   108 0001:00000f4b   109 0001:00000f5f   110 0001:00000f74   111 0001:00000f8c
   112 0001:00000fa3   113 0001:00000fb2   114 0001:00000fc1   115 0001:00000fcc
   116 0001:00000fe2   117 0001:00000fe7   118 0001:00000fe9   119 0001:00001000
   120 0001:0000101d   121 0001:00001025   122 0001:0000105e   125 0001:0000107c
   126 0001:000010be   127 0001:000010c7   128 0001:000010d7   129 0001:000010de
   131 0001:000010e3   132 0001:000010e8   133 0001:000010ed   134 0001:00001100
   135 0001:0000111d   136 0001:00001156   137 0001:00001174   139 0001:000011ab
   140 0001:000011b9   142 0001:000011ed   143 0001:000011fc   144 0001:00001201
   145 0001:00001220   146 0001:0000123d   147 0001:00001286   148 0001:000012a0
   149 0001:000012bd   150 0001:00001306   151 0001:00001320   152 0001:0000133d
   153 0001:0000135a   154 0001:0000137a   155 0001:0000137c   156 0001:0000139e
   157 0001:000013a7   158 0001:000013b7   159 0001:000013c0   160 0001:000013e0
   161 0001:00001403   162 0001:00001419   163 0001:00001423   165 0001:0000144f
   166 0001:00001464   167 0001:0000148e   168 0001:000014a3   169 0001:000014cd
   170 0001:000014e2   171 0001:0000150c   172 0001:00001521   173 0001:0000154b
   174 0001:00001560   175 0001:0000158a   176 0001:000015a0   177 0001:000015bc
   179 0001:000015cb   180 0001:00001630   181 0001:000016f0   182 0001:00001708
   183 0001:0000171c   184 0001:00001730   185 0001:00001744   186 0001:00001760
   187 0001:00001778   188 0001:00001790   190 0001:000017b0   191 0001:000017c8
   192 0001:000017d8   193 0001:000017de   194 0001:000017ed   195 0001:000017f3
   196 0001:0000180e   197 0001:00001824   198 0001:00001826   200 0001:0000182f
   201 0001:0000183b   203 0001:00001840   204 0001:00001842   205 0001:00001860
   206 0001:00001878   207 0001:00001881   208 0001:000018a2   209 0001:000018b1
   210 0001:000018b7   211 0001:000018da   212 0001:000018e6   215 0001:000018eb
   216 0001:000018ed   217 0001:00001900   218 0001:00001918   219 0001:00001921
   220 0001:00001930   221 0001:00001936   222 0001:00001959   223 0001:00001965
   226 0001:0000196a   227 0001:0000196c   228 0001:00001980   230 0001:0000199e
   231 0001:000019bf   234 0001:000019d1   235 0001:000019ec   236 0001:00001a02
   237 0001:00001a23   239 0001:00001a39   240 0001:00001a50   241 0001:00001a68
   242 0001:00001a73   243 0001:00001a80   244 0001:00001a88   245 0001:00001aa2
   246 0001:00001ab5   247 0001:00001ac1   248 0001:00001adb   249 0001:00001aed
   250 0001:00001b01   251 0001:00001b28   252 0001:00001b43   254 0001:00001b4d
   256 0001:00001b52   257 0001:00001b70   258 0001:00001b88   259 0001:00001b93
   260 0001:00001ba0   261 0001:00001ba8   262 0001:00001bc2   263 0001:00001bd5
   264 0001:00001be1   265 0001:00001bff   266 0001:00001c11   267 0001:00001c25
   268 0001:00001c36   269 0001:00001c48   270 0001:00001c5a   271 0001:00001c6c
   273 0001:00001c7a   275 0001:00001c7f   276 0001:00001c90   277 0001:00001ca8
   278 0001:00001cbc   279 0001:00001cc9   280 0001:00001cd1   281 0001:00001ceb
   282 0001:00001cfe   283 0001:00001d0a   284 0001:00001d28   285 0001:00001d3a
   286 0001:00001d4e   287 0001:00001d6e   288 0001:00001d83   289 0001:00001d89
   290 0001:00001da4   291 0001:00001dc8   293 0001:00001dca   295 0001:00001dcc
   297 0001:00001dd1   298 0001:00001df0   299 0001:00001e08   300 0001:00001e13
   301 0001:00001e20   302 0001:00001e28   303 0001:00001e42   304 0001:00001e55
   305 0001:00001e61   306 0001:00001e78   307 0001:00001e96   308 0001:00001ea8
   309 0001:00001ec0   310 0001:00001ee1   311 0001:00001eed   312 0001:00001f3b
   313 0001:00001f50   314 0001:00001f56   315 0001:00001f71   316 0001:00001f95
   318 0001:00001f97   319 0001:00001f9c   321 0001:00001fa1   323 0001:00001fa6
   324 0001:00001fc0   325 0001:00001fd8   326 0001:00001fe3   327 0001:00001ff0
   328 0001:00001ff8   329 0001:00002012   330 0001:00002025   331 0001:00002031
   332 0001:0000204f   333 0001:00002061   334 0001:00002079   335 0001:0000209a
   336 0001:000020a6   337 0001:000020ca   338 0001:000020df   339 0001:000020f4
   340 0001:000020fe   341 0001:00002142   342 0001:0000217b   343 0001:0000219f
   344 0001:000021a1   346 0001:000021a6   347 0001:000021ab   349 0001:000021b0
   351 0001:000021b5   352 0001:000021d0   353 0001:000021e8   354 0001:000021f3
   355 0001:00002200   356 0001:00002208   357 0001:00002222   358 0001:00002235
   359 0001:00002241   360 0001:00002258   361 0001:00002276   362 0001:00002288
   363 0001:000022a0   364 0001:000022c1   365 0001:000022cd   366 0001:0000231f
   367 0001:00002334   368 0001:0000233e   369 0001:00002359   370 0001:00002369
   371 0001:00002394   373 0001:000023bc   375 0001:000023be   376 0001:000023c3
   378 0001:000023c8   380 0001:000023cd   381 0001:000023e0   382 0001:000023f8
   383 0001:00002403   384 0001:00002410   385 0001:00002418   386 0001:00002432
   387 0001:00002445   388 0001:00002451   389 0001:00002468   390 0001:00002486
   391 0001:00002498   392 0001:000024b0   393 0001:000024d1   394 0001:000024dd
   395 0001:00002501   396 0001:00002516   397 0001:0000252b   398 0001:00002535
   399 0001:0000257d   400 0001:000025b6   401 0001:000025c6   402 0001:000025f1
   404 0001:00002619   405 0001:0000261e   407 0001:00002623   408 0001:00002628
   410 0001:0000262d   412 0001:00002632   413 0001:00002650   414 0001:00002668
   415 0001:00002673   416 0001:00002680   417 0001:00002688   418 0001:000026a2
   419 0001:000026b5   420 0001:000026c1   421 0001:000026d8   422 0001:000026f6
   423 0001:00002708   424 0001:00002720   425 0001:00002741   426 0001:0000274d
   427 0001:0000279b   428 0001:000027b0   429 0001:000027b6   430 0001:000027d1
   431 0001:000027e1   433 0001:00002809   435 0001:0000280b   436 0001:00002810
   438 0001:00002815   440 0001:0000281a   441 0001:00002830   442 0001:00002848
   443 0001:00002853   444 0001:00002860   445 0001:00002868   446 0001:00002882
   447 0001:00002895   448 0001:000028a1   449 0001:000028b8   450 0001:000028d6
   451 0001:000028e8   452 0001:00002900   453 0001:00002921   454 0001:0000292d
   455 0001:00002951   456 0001:00002966   457 0001:0000297b   458 0001:00002985
   459 0001:000029c9   460 0001:00002a02   461 0001:00002a12   463 0001:00002a3a
   464 0001:00002a3c   466 0001:00002a41   467 0001:00002a46   469 0001:00002a4b
   471 0001:00002a50   472 0001:00002a70   473 0001:00002a88   474 0001:00002a95
   475 0001:00002a9d   476 0001:00002aaf   477 0001:00002ac2   478 0001:00002ace
   479 0001:00002ae8   480 0001:00002afa   481 0001:00002b0e   483 0001:00002b1e
   485 0001:00002b20   488 0001:00002b40   489 0001:00002b5e   490 0001:00002b72
   491 0001:00002b7d   492 0001:00002b8a   493 0001:00002b92   494 0001:00002bac
   495 0001:00002bbf   496 0001:00002bcb   497 0001:00002be9   498 0001:00002bfb
   499 0001:00002c13   500 0001:00002c1c   501 0001:00002c25   502 0001:00002c2d
   503 0001:00002c38   504 0001:00002c4b   506 0001:00002c50   511 0001:00002c6c
   512 0001:00002c73   513 0001:00002c92   514 0001:00002ca9   515 0001:00002cb1
   516 0001:00002cc7   517 0001:00002cd6   518 0001:00002cdc   519 0001:00002ce2
   521 0001:00002cf2   522 0001:00002d08   523 0001:00002d12   524 0001:00002d1e
   525 0001:00002d34   526 0001:00002d3e   527 0001:00002d55   528 0001:00002d5b
   529 0001:00002d6d   530 0001:00002d87   531 0001:00002dbb   532 0001:00002de7
   536 0001:00002e01   537 0001:00002e09   538 0001:00002e1c   539 0001:00002e2d
   540 0001:00002e3b   543 0001:00002e4b   544 0001:00002e62   545 0001:00002e6a
   546 0001:00002e84   548 0001:00002e89   549 0001:00002ea2   550 0001:00002eac
   551 0001:00002eb4   552 0001:00002ebd   553 0001:00002ec7   554 0001:00002edc
   555 0001:00002f14   556 0001:00002f3a   557 0001:00002f5c   558 0001:00002f77
   559 0001:00002f87   560 0001:00002f90   561 0001:00002f9f   562 0001:00002fae
   563 0001:00002fd2   564 0001:00002fe3   565 0001:00002ff7   566 0001:00002ff9
   568 0001:0000300f   569 0001:0000302a   570 0001:0000303f   571 0001:00003061
   572 0001:0000307a   576 0001:0000308b   578 0001:00003090   580 0001:000030b0
   581 0001:000030ce   582 0001:000030e2   583 0001:000030ed   584 0001:000030fa
   585 0001:00003102   586 0001:0000311c   587 0001:0000312f   588 0001:0000313b
   589 0001:00003159   590 0001:0000316b   591 0001:00003183   592 0001:0000318c
   593 0001:0000319d   594 0001:000031a7   595 0001:000031b6   596 0001:000031d2
   597 0001:000031e6   598 0001:000031f2   599 0001:000031fb   600 0001:00003206
   601 0001:00003219   603 0001:0000321e   608 0001:0000323a   609 0001:00003241
   610 0001:00003260   611 0001:00003277   612 0001:0000327f   613 0001:00003295
   614 0001:000032a4   615 0001:000032aa   616 0001:000032b0   618 0001:000032c0
   619 0001:000032d6   620 0001:000032e0   621 0001:000032ec   622 0001:00003302
   623 0001:0000330c   624 0001:00003323   625 0001:00003329   626 0001:0000333b
   627 0001:00003355   628 0001:00003389   629 0001:000033b5   633 0001:000033cf
   634 0001:000033d7   635 0001:000033ea   636 0001:000033fb   637 0001:00003409
   640 0001:00003419   641 0001:00003430   642 0001:00003437   643 0001:0000343f
   644 0001:00003446   645 0001:00003460   647 0001:00003465   648 0001:0000347e
   649 0001:0000348a   650 0001:00003494   651 0001:0000349c   652 0001:000034a8
   653 0001:000034b2   654 0001:000034c7   655 0001:000034f4   656 0001:0000351a
   657 0001:0000353c   658 0001:00003559   659 0001:0000356c   660 0001:0000357c
   661 0001:00003585   662 0001:00003594   663 0001:000035a3   664 0001:000035c7
   665 0001:000035d8   666 0001:000035ec   667 0001:000035ee   669 0001:00003600
   670 0001:0000361b   671 0001:00003630   672 0001:00003652   674 0001:0000366b
   676 0001:00003685   679 0001:0000369b   681 0001:000036a0   682 0001:000036c0
   683 0001:000036d8   684 0001:000036ec   685 0001:000036f7   686 0001:00003704
   687 0001:0000370c   688 0001:00003726   689 0001:00003739   690 0001:00003745
   691 0001:00003763   692 0001:00003775   693 0001:0000378d   694 0001:00003796
   695 0001:000037a7   696 0001:000037b1   697 0001:000037c0   698 0001:000037dc
   699 0001:000037f0   700 0001:000037fc   701 0001:00003805   702 0001:0000380e
   703 0001:00003818   704 0001:00003820   705 0001:00003829   706 0001:00003848
   707 0001:0000385f   708 0001:0000386c   709 0001:0000387c   710 0001:00003885
   711 0001:00003894   712 0001:000038a3   713 0001:000038bb   714 0001:000038c9
   715 0001:000038da   716 0001:000038dc   717 0001:000038f2   720 0001:0000390c
   722 0001:00003911   723 0001:00003930   724 0001:0000394e   725 0001:00003959
   726 0001:00003966   727 0001:0000396e   728 0001:00003988   729 0001:0000399b
   730 0001:000039a7   731 0001:000039c5   732 0001:000039d7   733 0001:000039ef
   734 0001:000039f9   736 0001:00003a27   737 0001:00003a46   738 0001:00003a5b
   739 0001:00003a64   740 0001:00003a87   746 0001:00003a96   748 0001:00003a9b
   750 0001:00003aa0   751 0001:00003ac0   752 0001:00003ad8   754 0001:00003ae0
   755 0001:00003af8   756 0001:00003b02   757 0001:00003b09   759 0001:00003b18
   760 0001:00003b1c   761 0001:00003b22   762 0001:00003b3a   763 0001:00003b50
   764 0001:00003b6e   766 0001:00003b76   767 0001:00003b7d   768 0001:00003b98
   769 0001:00003ba5   770 0001:00003bc7   771 0001:00003be0   774 0001:00003bf8
   775 0001:00003c09   777 0001:00003c20   778 0001:00003c3e   779 0001:00003c49
   780 0001:00003c56   781 0001:00003c5e   782 0001:00003c78   785 0001:00003c8b
   786 0001:00003ca4   787 0001:00003cbe   788 0001:00003cc7   789 0001:00003ce0
   790 0001:00003cef   791 0001:00003d0e   794 0001:00003d22   795 0001:00003d40
   798 0001:00003d5e   801 0001:00003d68   802 0001:00003dad   803 0001:00003db8
   804 0001:00003dd2   805 0001:00003de0   806 0001:00003dfb   807 0001:00003e13
   809 0001:00003e22   810 0001:00003e31   811 0001:00003e49   812 0001:00003e58
   813 0001:00003e70   814 0001:00003e8e   815 0001:00003e99   816 0001:00003ea6
   817 0001:00003eae   818 0001:00003ec8   819 0001:00003edb   820 0001:00003ee7
   821 0001:00003f05   822 0001:00003f17   824 0001:00003f2f   825 0001:00003f47
   826 0001:00003f51   827 0001:00003f63   828 0001:00003f75   829 0001:00003f86
   830 0001:00003fa0   831 0001:00003fb9   832 0001:00003fd2   833 0001:00003feb
   834 0001:0000400d   836 0001:0000400f   838 0001:00004014   839 0001:00004030
   840 0001:00004048   841 0001:00004052   843 0001:00004070   844 0001:0000408e
   845 0001:00004099   846 0001:000040a6   847 0001:000040ae   848 0001:000040c8
   849 0001:000040db   850 0001:000040e7   851 0001:00004105   852 0001:00004117
   853 0001:0000412f   854 0001:00004139   855 0001:0000414a   856 0001:00004154
   857 0001:0000416e   859 0001:0000417a   860 0001:00004181   861 0001:00004199
   863 0001:000041b1   864 0001:000041cb   865 0001:000041de   866 0001:000041e5
   867 0001:000041f6   870 0001:000041fd   872 0001:00004202   873 0001:00004220
   874 0001:00004238   875 0001:00004243   876 0001:0000424c   877 0001:00004254
   878 0001:0000426e   879 0001:00004281   880 0001:0000428d   881 0001:000042a7
   882 0001:000042b9   883 0001:000042cd   884 0001:000042e7   886 0001:000042f1
   888 0001:000042f3   889 0001:00004310   890 0001:00004328   891 0001:00004333
   892 0001:00004340   893 0001:00004348   894 0001:00004362   895 0001:00004375
   896 0001:0000437d   897 0001:00004397   898 0001:000043a6   899 0001:000043b6
   900 0001:000043c5   901 0001:000043cb   903 0001:000043df   904 0001:000043e5
   905 0001:000043fa   907 0001:00004404   909 0001:00004406   911 0001:00004420
   912 0001:0000443e   914 0001:00004449   915 0001:00004463   916 0001:00004478
   917 0001:00004485   918 0001:000044b2   919 0001:000044d3   920 0001:000044e8
   921 0001:000044f5   922 0001:0000450a   923 0001:00004529   924 0001:00004546
   925 0001:00004563   926 0001:0000457c   927 0001:0000458b   929 0001:000045a1
   930 0001:000045a6   932 0001:000045b5   934 0001:000045d0   935 0001:000045e8
   936 0001:000045f9   937 0001:00004616   938 0001:00004630   939 0001:00004648
   940 0001:0000464e   941 0001:00004655   942 0001:0000465c   943 0001:00004695
   946 0001:000046a3   949 0001:000046c0   950 0001:000046d8   951 0001:000046e5
   952 0001:000046ed   953 0001:00004707   954 0001:0000471a   955 0001:0000472d
   956 0001:00004737   957 0001:00004740   958 0001:00004749   959 0001:00004755
   960 0001:00004776   961 0001:00004789   962 0001:000047b9   963 0001:000047c3
   964 0001:000047ef   965 0001:00004811   966 0001:00004824   967 0001:00004826
   968 0001:00004834   970 0001:00004870   971 0001:00004879   972 0001:00004888
   973 0001:0000488e   974 0001:00004893   975 0001:00004898   978 0001:000048b2
   980 0001:000048d0   981 0001:000048e8   982 0001:000048f5   983 0001:000048fd
   984 0001:00004917   985 0001:0000492a   986 0001:0000493b   987 0001:00004945
   988 0001:0000494e   989 0001:00004955   990 0001:00004967   991 0001:0000497b
   992 0001:000049ae   993 0001:000049da   994 0001:000049e7   995 0001:00004a05
   996 0001:00004a23   997 0001:00004a6e   998 0001:00004aa4   999 0001:00004aa9
  1000 0001:00004ac4  1001 0001:00004ac9  1002 0001:00004ad8  1005 0001:00004af2
  1010 0001:00004b10  1011 0001:00004b47  1012 0001:00004b4f  1013 0001:00004b6d
  1014 0001:00004b88  1017 0001:00004baa  1018 0001:00004bec  1019 0001:00004bf9
  1020 0001:00004c08  1021 0001:00004c18  1023 0001:00004c23  1024 0001:00004c55
  1025 0001:00004c69  1028 0001:00004c7d  1029 0001:00004ca7  1030 0001:00004cbb
  1031 0001:00004cfd  1032 0001:00004d02  1033 0001:00004d1a  1034 0001:00004d55
  1035 0001:00004d5a  1036 0001:00004d72  1037 0001:00004dad  1038 0001:00004db2
  1039 0001:00004dca  1040 0001:00004e05  1041 0001:00004e0a  1042 0001:00004e22
  1043 0001:00004e4c  1044 0001:00004e51  1045 0001:00004e69  1046 0001:00004ea4
  1047 0001:00004ea9  1048 0001:00004ec1  1049 0001:00004efc  1050 0001:00004f01
  1051 0001:00004f19  1052 0001:00004f54  1053 0001:00004f59  1054 0001:00004f71
  1055 0001:00004fac  1056 0001:00004fb1  1057 0001:00004fc9  1058 0001:00005004
  1059 0001:00005009  1060 0001:00005021  1061 0001:0000505c  1062 0001:00005061
  1063 0001:00005079  1064 0001:000050b4  1065 0001:000050b9  1066 0001:000050d1
  1067 0001:0000510c  1068 0001:00005111  1069 0001:00005129  1070 0001:00005164
  1071 0001:00005169  1072 0001:00005181  1073 0001:000051bc  1074 0001:000051c1
  1075 0001:000051d9  1076 0001:00005214  1077 0001:00005219  1078 0001:00005231
  1079 0001:0000526c  1080 0001:00005271  1081 0001:00005289  1082 0001:000052c4
  1083 0001:000052c9  1084 0001:000052e1  1085 0001:0000531c  1086 0001:00005321
  1087 0001:00005339  1088 0001:00005374  1089 0001:00005379  1090 0001:00005391
  1091 0001:000053cc  1092 0001:000053d1  1093 0001:000053e9  1094 0001:00005424
  1095 0001:00005429  1096 0001:00005441  1097 0001:0000546b  1098 0001:00005470
  1099 0001:00005488  1100 0001:000054c3  1101 0001:000054c8  1102 0001:000054e0
  1103 0001:0000551b  1104 0001:00005520  1105 0001:00005538  1106 0001:00005573
  1107 0001:00005578  1108 0001:00005590  1109 0001:000055cb  1110 0001:000055d0
  1111 0001:000055e8  1112 0001:00005623  1113 0001:00005628  1114 0001:00005640
  1115 0001:0000567b  1116 0001:00005680  1117 0001:00005698  1118 0001:000056d3
  1119 0001:000056d8  1120 0001:000056f0  1121 0001:0000572b  1122 0001:0000572d
  1123 0001:00005745  1126 0001:00005780  1127 0001:00005785  1128 0001:000057a0
  1129 0001:000057a9  1130 0001:000057b2  1133 0001:000057c1  1134 0001:000057c6
  1136 0001:000057f0  1137 0001:0000580e  1138 0001:0000581d  1139 0001:00005839
  1140 0001:00005849  1141 0001:00005863  1142 0001:00005877  1144 0001:00005899
  1145 0001:000058ba  1146 0001:000058c9  1147 0001:000058dc  1148 0001:0000590b
  1149 0001:0000590f  1151 0001:00005928  1152 0001:0000592c  1154 0001:00005941
  1155 0001:00005962  1156 0001:00005972  1157 0001:0000597f  1158 0001:0000598f
  1160 0001:000059a4  1161 0001:000059be  1162 0001:000059d2  1163 0001:000059ea
  1165 0001:00005a07  1167 0001:00005a31  1168 0001:00005a4b  1169 0001:00005a5f
  1170 0001:00005a77  1172 0001:00005a94  1174 0001:00005abe  1175 0001:00005ad8
  1176 0001:00005af0  1177 0001:00005b0d  1178 0001:00005b48  1179 0001:00005b62
  1180 0001:00005b7a  1181 0001:00005b97  1182 0001:00005bd2  1183 0001:00005bec
  1184 0001:00005c04  1185 0001:00005c21  1186 0001:00005c5c  1187 0001:00005c76
  1188 0001:00005c8e  1189 0001:00005cab  1190 0001:00005ce6  1191 0001:00005d00
  1192 0001:00005d18  1193 0001:00005d35  1194 0001:00005d70  1195 0001:00005d75
  1196 0001:00005d8a  1197 0001:00005da2  1198 0001:00005dbf  1199 0001:00005dfa
  1200 0001:00005dff  1201 0001:00005e14  1202 0001:00005e2c  1203 0001:00005e49
  1204 0001:00005e84  1205 0001:00005e89  1206 0001:00005e9e  1207 0001:00005eb6
  1208 0001:00005ed3  1209 0001:00005f0e  1210 0001:00005f13  1211 0001:00005f28
  1212 0001:00005f40  1213 0001:00005f5d  1214 0001:00005f98  1215 0001:00005f9d
  1216 0001:00005fb2  1217 0001:00005fca  1218 0001:00005fe7  1219 0001:00006022
  1220 0001:00006027  1221 0001:0000603c  1222 0001:00006054  1223 0001:00006071
  1224 0001:000060ac  1225 0001:000060b1  1226 0001:000060c6  1227 0001:000060de
  1228 0001:000060fb  1229 0001:00006136  1230 0001:0000613b  1231 0001:00006150
  1232 0001:00006168  1233 0001:00006185  1234 0001:000061c0  1235 0001:000061c5
  1236 0001:000061da  1237 0001:000061f2  1238 0001:0000620f  1239 0001:0000624a
  1240 0001:0000624f  1241 0001:00006264  1242 0001:0000627c  1243 0001:00006299
  1244 0001:000062d4  1245 0001:000062d9  1246 0001:000062ee  1247 0001:00006306
  1248 0001:00006323  1249 0001:0000635e  1250 0001:00006363  1251 0001:00006378
  1252 0001:00006393  1253 0001:000063b6  1254 0001:000063f1  1255 0001:000063f6
  1256 0001:0000640b  1257 0001:00006426  1258 0001:00006449  1259 0001:00006473
  1260 0001:00006478  1261 0001:0000648d  1262 0001:000064a8  1263 0001:000064cb
  1264 0001:00006506  1265 0001:0000650b  1266 0001:00006520  1267 0001:0000653b
  1268 0001:0000655e  1269 0001:00006599  1270 0001:0000659e  1271 0001:000065b3
  1272 0001:000065ce  1273 0001:000065f1  1274 0001:0000662c  1275 0001:00006631
  1276 0001:00006646  1277 0001:00006661  1278 0001:00006684  1279 0001:000066bf
  1280 0001:000066c4  1281 0001:000066d9  1282 0001:000066f4  1283 0001:00006717
  1284 0001:00006752  1285 0001:00006757  1286 0001:0000676c  1287 0001:00006787
  1288 0001:000067aa  1289 0001:000067e5  1290 0001:000067ea  1291 0001:000067ff
  1292 0001:0000681a  1293 0001:0000683d  1294 0001:00006878  1295 0001:0000687d
  1296 0001:00006892  1297 0001:000068ad  1298 0001:000068d0  1299 0001:0000690b
  1300 0001:00006910  1301 0001:00006925  1302 0001:00006940  1303 0001:00006963
  1306 0001:0000699e  1308 0001:000069b7  1309 0001:000069bc  1310 0001:000069ed
  1311 0001:00006a0d  1312 0001:00006a38  1313 0001:00006a3a  1314 0001:00006a56
  1329 0001:00006a70  1331 0001:00006aa3  1332 0001:00006ac0  1333 0001:00006aec
  1334 0001:00006aee  1335 0001:00006afb  1336 0001:00006b08  1341 0001:00006b32
  1342 0001:00006b4a  1343 0001:00006b5f  1344 0001:00006b68  1345 0001:00006b77
  1347 0001:00006b7c  1348 0001:00006b9f  1349 0001:00006bb7  1350 0001:00006bcc
  1351 0001:00006bd5  1352 0001:00006bfd  1354 0001:00006c0c  1355 0001:00006c2d
  1356 0001:00006c53  1357 0001:00006c79  1358 0001:00006c95  1359 0001:00006ca2
  1360 0001:00006cb4  1361 0001:00006cc7  1362 0001:00006cd7  1363 0001:00006cf6
  1364 0001:00006d15  1365 0001:00006d3c  1366 0001:00006d4c  1367 0001:00006d74
  1368 0001:00006d8b  1369 0001:00006da1  1372 0001:00006de0  1373 0001:00006e13
  1374 0001:00006e25  1375 0001:00006e46  1377 0001:00006e94  1378 0001:00006ea6
  1379 0001:00006ecc  1380 0001:00006edc  1381 0001:00006f16  1382 0001:00006f5b
  1383 0001:00006f7d  1384 0001:00006f8d  1385 0001:00006fa6  1386 0001:00006fbd
  1388 0001:00006fd3  1389 0001:00006fe5  1390 0001:00006fea  1394 0001:00007010
  1395 0001:0000703d  1396 0001:0000704c  1397 0001:00007072  1398 0001:00007081
  1399 0001:00007092  1400 0001:0000709f  1401 0001:000070bd  1402 0001:000070cb
  1403 0001:000070e7  1404 0001:000070f2  1405 0001:000070fb  1406 0001:00007112
  1407 0001:0000711f  1408 0001:00007132  1409 0001:00007141  1410 0001:00007157
  1411 0001:00007173  1412 0001:00007186  1413 0001:00007199  1414 0001:000071a2
  1415 0001:000071a9  1417 0001:000071b3  1418 0001:000071c9  1419 0001:000071d8
  1420 0001:00007200  1421 0001:0000721e  1422 0001:00007235  1423 0001:0000723e
  1424 0001:00007246  1426 0001:0000724f  1427 0001:00007269  1428 0001:0000727e
  1429 0001:00007288  1430 0001:00007291  1431 0001:000072a6  1432 0001:000072b5
  1433 0001:000072c5  1434 0001:000072d2  1435 0001:000072ec  1436 0001:000072f9
  1437 0001:00007315  1438 0001:00007371  1439 0001:00007393  1440 0001:000073bb
  1441 0001:000073f9  1442 0001:0000742e  1443 0001:00007433  1446 0001:00007442
  1447 0001:00007460  1448 0001:0000747e  1449 0001:00007495  1450 0001:0000749e
  1451 0001:000074a6  1453 0001:000074af  1454 0001:000074c9  1455 0001:000074de
  1456 0001:000074e8  1457 0001:000074f1  1458 0001:00007506  1459 0001:00007515
  1460 0001:00007525  1461 0001:00007532  1462 0001:0000754c  1463 0001:00007559
  1464 0001:00007575  1465 0001:000075cd  1466 0001:00007629  1467 0001:00007636
  1468 0001:00007645  1469 0001:0000764a  1471 0001:00007659  1472 0001:00007673
  1473 0001:00007682  1476 0001:00007698  1479 0001:000076b0  1480 0001:000076c8
  1481 0001:000076d3  1482 0001:000076dd  1483 0001:000076f5  1484 0001:000076fc
  1485 0001:00007713  1486 0001:0000771d  1487 0001:00007726  1488 0001:0000773d
  1489 0001:00007744  1490 0001:00007746  1491 0001:0000774f  1493 0001:00007756
  1496 0001:00007770  1497 0001:000077a7  1498 0001:000077ae  1499 0001:000077c2
  1501 0001:000077ca  1502 0001:000077e4  1503 0001:000077f3  1505 0001:00007809
  1506 0001:00007816

Line numbers for \cossacks2_project\Cossacks II\_debug\Bmptool.obj(T:\ac_sources\AC_ADDON_V150VITAL_25.4.2003_7@36@55@218\common.h) segment .text

    86 0001:00000ab0    87 0001:00000ac8    88 0001:00000ade    91 0001:00000af0
    92 0001:00000b08    93 0001:00000b1e

Line numbers for \cossacks2_project\Cossacks II\_debug\Bmptool.obj(T:\ac_sources\AC_ADDON_V150VITAL_25.4.2003_7@36@55@218\intexplorer\bmptool.cpp) segment .text

     7 0001:00000000     8 0001:0000001e    10 0001:0000002d    11 0001:00000033
    12 0001:0000003c    13 0001:00000051    14 0001:0000005e    15 0001:00000064
    16 0001:0000006a    17 0001:00000071    18 0001:00000078    19 0001:0000007e
    20 0001:00000084    21 0001:0000008a    22 0001:00000090    23 0001:00000097
    24 0001:0000009e    25 0001:000000a5    26 0001:000000ac    27 0001:000000b3
    28 0001:000000ba    29 0001:000000cc    30 0001:000000e6    31 0001:0000010e
    32 0001:00000110    33 0001:0000011c    34 0001:00000130    35 0001:00000148
    36 0001:00000157    37 0001:00000161    38 0001:00000173    39 0001:0000018a
    40 0001:0000019f    41 0001:000001c7    42 0001:000001d3    43 0001:000001d9
    44 0001:000001ee    45 0001:0000020b    46 0001:0000022b    47 0001:00000248
    48 0001:0000024a    49 0001:00000256    50 0001:0000025a    51 0001:0000025c
    52 0001:00000270    53 0001:00000288    54 0001:00000297    55 0001:000002a1
    56 0001:000002b3    57 0001:000002ca    58 0001:000002df    59 0001:00000304
    60 0001:0000030d    61 0001:00000313    62 0001:00000328    63 0001:00000345
    64 0001:00000368    65 0001:00000385    66 0001:00000387    67 0001:00000393
    68 0001:00000397    69 0001:00000399    70 0001:000003b0    72 0001:000003ce
    73 0001:000003dd    74 0001:000003e7    75 0001:000003f9    76 0001:0000040d
    77 0001:0000041f    78 0001:00000441    79 0001:00000447    80 0001:0000044d
    81 0001:00000462    82 0001:0000046e    83 0001:0000047b    84 0001:00000495
    85 0001:000004b4    86 0001:000004d5    87 0001:000004d7    88 0001:000004e3
    89 0001:000004e7    90 0001:000004e9    91 0001:00000500    94 0001:0000051e
    95 0001:0000053f    96 0001:00000545    97 0001:0000054b    98 0001:0000056a
    99 0001:00000584   100 0001:0000059e   101 0001:000005ad   102 0001:000005b6
   103 0001:000005e7   104 0001:000005f5   106 0001:000005fc   107 0001:00000612
   108 0001:0000061a   109 0001:00000622   111 0001:00000626   112 0001:00000628
   113 0001:00000640   114 0001:00000658   115 0001:00000666   116 0001:00000674
   117 0001:00000682   118 0001:00000690   119 0001:000006a1   120 0001:000006b2
   121 0001:000006bb   122 0001:000006c4   123 0001:000006d1   124 0001:000006de
   125 0001:000006eb   126 0001:000006f8   127 0001:00000709   128 0001:0000071a
   129 0001:0000072b   130 0001:0000073c   131 0001:00000753   132 0001:0000076a
   133 0001:00000781   134 0001:00000798   135 0001:00000803   137 0001:00000810
   138 0001:00000828   139 0001:00000837   140 0001:0000083d   142 0001:0000084c
   143 0001:00000863   144 0001:0000086f   145 0001:00000876   146 0001:000008a6
   147 0001:000008b1   148 0001:000008b6   149 0001:000008b8   150 0001:000008d0
   151 0001:000008ee   153 0001:000008fd   154 0001:00000903   155 0001:00000909
   156 0001:0000091e   157 0001:0000092d   158 0001:00000933   159 0001:00000939
   160 0001:00000940   161 0001:00000947   162 0001:0000094d   163 0001:00000953
   164 0001:00000959   165 0001:0000095f   166 0001:00000966   167 0001:0000096d
   168 0001:00000974   169 0001:0000097b   170 0001:00000982   172 0001:00000989
   173 0001:000009b0   174 0001:000009cc   175 0001:000009e9   176 0001:00000a06
   177 0001:00000a08   178 0001:00000a1a   179 0001:00000a32   180 0001:00000a58
   181 0001:00000a80   182 0001:00000a82   183 0001:00000a8e

 Exports

  ordinal    name

        1    ?GetAccessKey@@YAPADH@Z (char * __cdecl GetAccessKey(int))
        2    ?ProcessDownloadInternetFiles@@YAXXZ (void __cdecl ProcessDownloadInternetFiles(void))
        3    ?SendRecBuffer@@YAXPAEH_N@Z (void __cdecl SendRecBuffer(unsigned char *,int,bool))
        4    ?SetAccessKey@@YAXHPAD@Z (void __cdecl SetAccessKey(int,char *))
        5    ?StartDownloadInternetFile@@YAXPAD00@Z (void __cdecl StartDownloadInternetFile(char *,char *,char *))
        6    _CloseSXP
               exported name: CloseSXP
        7    _InitSXP
               exported name: InitSXP
        8    _OpenRef
               exported name: OpenRef
        9    _ProcessSXP
               exported name: ProcessSXP
       10    _ResizeSXP
               exported name: ResizeSXP
       11    _RunSXP
               exported name: RunSXP
       12    _SXP_GetVar
               exported name: SXP_GetVar
       13    _SXP_Refresh
               exported name: SXP_Refresh
       14    _SXP_SetVar
               exported name: SXP_SetVar
       15    _SXP_StepBack
               exported name: SXP_StepBack
       16    _SXP_StepForw
               exported name: SXP_StepForw
