 DipServer

 Timestamp is 65fe01a2 (Fri Mar 22 23:09:38 2024)

 Preferred load address is 10000000

 Start         Length     Name                   Class
 0001:00000000 00000130H .text$di                CODE
 0001:00000130 00078660H .text$mn                CODE
 0001:00078790 00001180H .text$x                 CODE
 0001:00079910 00000287H .text$yd                CODE
 0002:00000000 00000460H .idata$5                DATA
 0002:00000460 0000000cH .00cfg                  DATA
 0002:0000046c 00000004H .CRT$XCA                DATA
 0002:00000470 0000002cH .CRT$XCU                DATA
 0002:0000049c 00000004H .CRT$XCZ                DATA
 0002:000004a0 00000004H .CRT$XIA                DATA
 0002:000004a4 00000010H .CRT$XIC                DATA
 0002:000004b4 00000004H .CRT$XIZ                DATA
 0002:000004b8 00000004H .CRT$XPA                DATA
 0002:000004bc 00000008H .CRT$XPX                DATA
 0002:000004c4 00000004H .CRT$XPXA               DATA
 0002:000004c8 00000004H .CRT$XPZ                DATA
 0002:000004cc 00000004H .CRT$XTA                DATA
 0002:000004d0 00000010H .CRT$XTZ                DATA
 0002:000004d4 00000000H .gfids$y                DATA
 0002:000004e0 00009120H .rdata                  DATA
 0002:00009600 00000040H .rdata$CastGuardVftablesA DATA
 0002:00009640 00000040H .rdata$CastGuardVftablesC DATA
 0002:00009680 00000d0cH .rdata$r                DATA
 0002:0000a38c 00000144H .rdata$sxdata           DATA
 0002:0000a4d0 0000046cH .rdata$voltmd           DATA
 0002:0000a93c 000003acH .rdata$zzzdbg           DATA
 0002:0000ace8 00000004H .rtc$IAA                DATA
 0002:0000acec 00000004H .rtc$IZZ                DATA
 0002:0000acf0 00000004H .rtc$TAA                DATA
 0002:0000acf4 00000004H .rtc$TZZ                DATA
 0002:0000acf8 00001c98H .xdata$x                DATA
 0002:0000c990 00000438H .edata                  DATA
 0002:0000cdc8 00000050H .idata$2                DATA
 0002:0000ce18 00000014H .idata$3                DATA
 0002:0000ce2c 00000460H .idata$4                DATA
 0002:0000d28c 000016f0H .idata$6                DATA
 0003:00000000 00000940H .data                   DATA
 0003:00000940 0000018cH .data$r                 DATA
 0003:00000acc 0000034cH .data$rs                DATA
 0003:00000e18 0014848cH .bss                    DATA
 0004:00000000 00000060H .rsrc$01                DATA
 0004:00000060 00000180H .rsrc$02                DATA

  Address         Publics by Value              Rva+Base       Lib:Object

 0000:00000000       ___AbsoluteZero            00000000     <absolute>
 0000:00000000       ___arm64x_extra_rfe_table  00000000     <absolute>
 0000:00000000       ___arm64x_extra_rfe_table_size 00000000     <absolute>
 0000:00000000       ___arm64x_native_entrypoint 00000000     <absolute>
 0000:00000000       ___arm64x_redirection_metadata 00000000     <absolute>
 0000:00000000       ___arm64x_redirection_metadata_count 00000000     <absolute>
 0000:00000000       ___dynamic_value_reloc_table 00000000     <absolute>
 0000:00000000       ___enclave_config          00000000     <absolute>
 0000:00000000       ___guard_check_icall_a64n_fptr 00000000     <absolute>
 0000:00000000       ___guard_eh_cont_count     00000000     <absolute>
 0000:00000000       ___guard_eh_cont_table     00000000     <absolute>
 0000:00000000       ___guard_fids_count        00000000     <absolute>
 0000:00000000       ___guard_fids_table        00000000     <absolute>
 0000:00000000       ___guard_iat_count         00000000     <absolute>
 0000:00000000       ___guard_iat_table         00000000     <absolute>
 0000:00000000       ___guard_longjmp_count     00000000     <absolute>
 0000:00000000       ___guard_longjmp_table     00000000     <absolute>
 0000:00000000       ___hybrid_auxiliary_delayload_iat 00000000     <absolute>
 0000:00000000       ___hybrid_auxiliary_delayload_iat_copy 00000000     <absolute>
 0000:00000000       ___hybrid_auxiliary_iat    00000000     <absolute>
 0000:00000000       ___hybrid_auxiliary_iat_copy 00000000     <absolute>
 0000:00000000       ___hybrid_code_map         00000000     <absolute>
 0000:00000000       ___hybrid_code_map_count   00000000     <absolute>
 0000:00000000       ___hybrid_image_info_bitfield 00000000     <absolute>
 0000:00000000       ___x64_code_ranges_to_entry_points 00000000     <absolute>
 0000:00000000       ___x64_code_ranges_to_entry_points_count 00000000     <absolute>
 0000:00000000       __except_list              00000000     <absolute>
 0000:00000051       ___safe_se_handler_count   00000051     <absolute>
 0000:00000100       ___guard_flags             00000100     <absolute>
 0000:00000000       ___ImageBase               10000000     <linker-defined>
 0001:00000130       ??0ParsedRQ@@QAE@XZ        10001130 f   ParseRQ.obj
 0001:00000140       ??1ParsedRQ@@QAE@XZ        10001140 f   ParseRQ.obj
 0001:00000180       ??2@YAPAXI@Z               10001180 f i ParseRQ.obj
 0001:00000190       ??3@YAXPAX@Z               10001190 f i ParseRQ.obj
 0001:000001e0       ?AddComm@ParsedRQ@@QAEXPAD@Z 100011e0 f   ParseRQ.obj
 0001:00000280       ?AddIntParam@ParsedRQ@@QAEXH@Z 10001280 f   ParseRQ.obj
 0001:000002e0       ?AddParam@ParsedRQ@@QAEXPADH@Z 100012e0 f   ParseRQ.obj
 0001:00000370       ?AddParamToCom@ParsedRQ@@QAEXHPADH@Z 10001370 f   ParseRQ.obj
 0001:00000400       ?Clear@ParsedRQ@@QAEXXZ    10001400 f   ParseRQ.obj
 0001:000004b0       ?Compact@ParsedRQ@@QAEHPADH@Z 100014b0 f   ParseRQ.obj
 0001:000006c0       ?DelComm@ParsedRQ@@QAEXH@Z 100016c0 f   ParseRQ.obj
 0001:00000770       ?Extract@ParsedRQ@@QAEXPADH@Z 10001770 f   ParseRQ.obj
 0001:00000870       ?GetHVal@@YAHD@Z           10001870 f   ParseRQ.obj
 0001:000008a0       ?Parse@ParsedRQ@@QAEXPAD@Z 100018a0 f   ParseRQ.obj
 0001:00000aa0       ?UnParse@ParsedRQ@@QAEHPADH@Z 10001aa0 f   ParseRQ.obj
 0001:00000d30       ?Free@BasicDiploRelation@@UAEXXZ 10001d30 f   BasicDiploRelation.obj
 0001:00000d40       ?GetAmountOfPropositions@BasicDiploRelation@@UAEHXZ 10001d40 f   BasicDiploRelation.obj
 0001:00000d50       ?GetPossibility@BasicDiploRelation@@UAEKHPAD0@Z 10001d50 f   BasicDiploRelation.obj
 0001:00000d60       ?GetSaveData@BasicDiploRelation@@UAEHPAE_N@Z 10001d60 f   BasicDiploRelation.obj
 0001:00000d70       ?Init@BasicDiploRelation@@UAEXXZ 10001d70 f   BasicDiploRelation.obj
 0001:00000d90       ?InitThisTribe2@BasicDiploRelation@@UAEXPAD000@Z 10001d90 f   BasicDiploRelation.obj
 0001:00000da0       ?InitThisTribe@BasicDiploRelation@@UAEXPAD00@Z 10001da0 f   BasicDiploRelation.obj
 0001:00000db0       ?PerformCommand@BasicDiploRelation@@UAEXPADH@Z 10001db0 f   BasicDiploRelation.obj
 0001:00000dc0       ?PerformPossibility@BasicDiploRelation@@UAEXK@Z 10001dc0 f   BasicDiploRelation.obj
 0001:00000dd0       ?ProcessTribe@BasicDiploRelation@@UAEXXZ 10001dd0 f   BasicDiploRelation.obj
 0001:00000de0       ?SetSaveData@BasicDiploRelation@@UAEXPAEH@Z 10001de0 f   BasicDiploRelation.obj
 0001:00000df0       ??$_Allocate_manually_vector_aligned@U_Default_allocate_traits@std@@@std@@YAPAXI@Z 10001df0 f i BattleDialogs.obj
 0001:00000e30       ??$_Copy_memmove@PAEPAE@std@@YAPAEPAE00@Z 10001e30 f i BattleDialogs.obj
 0001:00000e60       ??$_Copy_memmove@PAFPAF@std@@YAPAFPAF00@Z 10001e60 f i BattleDialogs.obj
 0001:00000e90       ??$_Copy_memmove@PAGPAG@std@@YAPAGPAG00@Z 10001e90 f i BattleDialogs.obj
 0001:00000ec0       ??$_Destroy_range@V?$allocator@V?$vector@GV?$allocator@G@std@@@std@@@std@@@std@@YAXPAV?$vector@GV?$allocator@G@std@@@0@QAV10@AAV?$allocator@V?$vector@GV?$allocator@G@std@@@std@@@0@@Z 10001ec0 f i BattleDialogs.obj
 0001:00000f30       ??$_Destroy_range@V?$allocator@VCUpgCategory@@@std@@@std@@YAXPAVCUpgCategory@@QAV1@AAV?$allocator@VCUpgCategory@@@0@@Z 10001f30 f i BattleDialogs.obj
 0001:00000f60       ??$_Emplace_reallocate@ABG@?$vector@GV?$allocator@G@std@@@std@@AAEPAGQAGABG@Z 10001f60 f i BattleDialogs.obj
 0001:00001070       ??$_Emplace_reallocate@V?$vector@GV?$allocator@G@std@@@std@@@?$vector@V?$vector@GV?$allocator@G@std@@@std@@V?$allocator@V?$vector@GV?$allocator@G@std@@@std@@@2@@std@@AAEPAV?$vector@GV?$allocator@G@std@@@1@QAV21@$$QAV21@@Z 10002070 f i BattleDialogs.obj
 0001:00001230       ??$_Emplace_reallocate@VCUpgCategory@@@?$vector@VCUpgCategory@@V?$allocator@VCUpgCategory@@@std@@@std@@AAEPAVCUpgCategory@@QAV2@$$QAV2@@Z 10002230 f i BattleDialogs.obj
 0001:000014a0       ??$_Reallocate@$0A@@?$vector@EV?$allocator@E@std@@@std@@AAEXAAI@Z 100024a0 f i BattleDialogs.obj
 0001:00001540       ??$_Reallocate@$0A@@?$vector@FV?$allocator@F@std@@@std@@AAEXAAI@Z 10002540 f i BattleDialogs.obj
 0001:00001600       ??$_Reallocate@$0A@@?$vector@GV?$allocator@G@std@@@std@@AAEXAAI@Z 10002600 f i BattleDialogs.obj
 0001:000016c0       ??$_Uninitialized_move@PAV?$vector@GV?$allocator@G@std@@@std@@V?$allocator@V?$vector@GV?$allocator@G@std@@@std@@@2@@std@@YAPAV?$vector@GV?$allocator@G@std@@@0@QAV10@0PAV10@AAV?$allocator@V?$vector@GV?$allocator@G@std@@@std@@@0@@Z 100026c0 f i BattleDialogs.obj
 0001:00001730       ??$_Uninitialized_move@PAVCUpgCategory@@V?$allocator@VCUpgCategory@@@std@@@std@@YAPAVCUpgCategory@@QAV1@0PAV1@AAV?$allocator@VCUpgCategory@@@0@@Z 10002730 f i BattleDialogs.obj
 0001:000017b0       ??0?$vector@GV?$allocator@G@std@@@std@@QAE@ABV01@@Z 100027b0 f i BattleDialogs.obj
 0001:00001850       ??0CBattle@@QAE@XZ         10002850 f   BattleDialogs.obj
 0001:00001870       ??0CUpgCategory@@QAE@ABV0@@Z 10002870 f i BattleDialogs.obj
 0001:000019a0       ??0CUpgCategory@@QAE@GPADPAGH@Z 100029a0 f   BattleDialogs.obj
 0001:00001e60       ??0CWeapInfo@@QAE@XZ       10002e60 f   BattleDialogs.obj
 0001:00001e70       ??0bad_alloc@std@@QAE@ABV01@@Z 10002e70 f i BattleDialogs.obj
 0001:00001eb0       ??0bad_array_new_length@std@@QAE@ABV01@@Z 10002eb0 f i BattleDialogs.obj
 0001:00001ef0       ??0bad_array_new_length@std@@QAE@XZ 10002ef0 f i BattleDialogs.obj
 0001:00001f10       ??0exception@std@@QAE@ABV01@@Z 10002f10 f i BattleDialogs.obj
 0001:00001f40       ??1?$_Tidy_guard@V?$vector@V?$vector@GV?$allocator@G@std@@@std@@V?$allocator@V?$vector@GV?$allocator@G@std@@@std@@@2@@std@@@std@@QAE@XZ 10002f40 f i BattleDialogs.obj
 0001:00001f50       ??1?$_Uninitialized_backout_al@V?$allocator@V?$vector@GV?$allocator@G@std@@@std@@@std@@@std@@QAE@XZ 10002f50 f i BattleDialogs.obj
 0001:00001f70       ??1?$_Uninitialized_backout_al@V?$allocator@VCUpgCategory@@@std@@@std@@QAE@XZ 10002f70 f i BattleDialogs.obj
 0001:00001fa0       ??1?$vector@GV?$allocator@G@std@@@std@@QAE@XZ 10002fa0 f i BattleDialogs.obj
 0001:00002000       ??1?$vector@V?$vector@GV?$allocator@G@std@@@std@@V?$allocator@V?$vector@GV?$allocator@G@std@@@std@@@2@@std@@QAE@XZ 10003000 f i BattleDialogs.obj
 0001:00002010       ??1CBattle@@QAE@XZ         10003010 f   BattleDialogs.obj
 0001:00002050       ??1CUpgCategory@@QAE@XZ    10003050 f   BattleDialogs.obj
 0001:000020b0       ??1bad_array_new_length@std@@UAE@XZ 100030b0 f i BattleDialogs.obj
 0001:000020d0       ??1exception@std@@UAE@XZ   100030d0 f i BattleDialogs.obj
 0001:000020f0       ??_Ebad_alloc@std@@UAEPAXI@Z 100030f0 f i BattleDialogs.obj
 0001:000020f0       ??_Gbad_alloc@std@@UAEPAXI@Z 100030f0 f i BattleDialogs.obj
 0001:00002120       ??_Ebad_array_new_length@std@@UAEPAXI@Z 10003120 f i BattleDialogs.obj
 0001:00002120       ??_Gbad_array_new_length@std@@UAEPAXI@Z 10003120 f i BattleDialogs.obj
 0001:00002150       ??_Eexception@std@@UAEPAXI@Z 10003150 f i BattleDialogs.obj
 0001:00002150       ??_Gexception@std@@UAEPAXI@Z 10003150 f i BattleDialogs.obj
 0001:00002180       ?AddNewMon@CPlayerInfo@@QAEXEG@Z 10003180 f   BattleDialogs.obj
 0001:000022e0       ?AddUpgCategory@UnitType@@QAEXGPADPAGH@Z 100032e0 f   BattleDialogs.obj
 0001:00002360       ?AddUpgToCml@CBattle@@QAEXAAVDString@@PADGGHH@Z 10003360 f   BattleDialogs.obj
 0001:000025c0       ?CheckUpg@CPlayerInfo@@QAEXG_N@Z 100035c0 f   BattleDialogs.obj
 0001:00002860       ?CloseBattle@@YAXXZ        10003860 f   BattleDialogs.obj
 0001:00002870       ?DoAttPause@@YAXPAUUnitType@@FEEH@Z 10003870 f   BattleDialogs.obj
 0001:00002910       ?DoDamage@@YAXPAUUnitType@@FEEH@Z 10003910 f   BattleDialogs.obj
 0001:000029b0       ?DoProtect@@YAXPAUUnitType@@FEEH@Z 100039b0 f   BattleDialogs.obj
 0001:000029e0       ?DoShield@@YAXPAUUnitType@@FEEH@Z 100039e0 f   BattleDialogs.obj
 0001:00002a20       ?Free@CBattle@@QAEXXZ      10003a20 f   BattleDialogs.obj
 0001:00002ad0       ?GetCharacter@UnitType@@QAEXE@Z 10003ad0 f   BattleDialogs.obj
 0001:00002c50       ?HandleBattleCml@@YAXPADPAPADHPAVParsedRQ@@@Z 10003c50 f   BattleDialogs.obj
 0001:00002f60       ?Init@CBattle@@QAEXXZ      10003f60 f   BattleDialogs.obj
 0001:000031b0       ?MakeDialog@CBattle@@QAEX_N@Z 100041b0 f   BattleDialogs.obj
 0001:00004570       ?PerformBattleCommads@@YAXPADH@Z 10005570 f   BattleDialogs.obj
 0001:000047e0       ?Process@CBattle@@QAEXXZ   100057e0 f   BattleDialogs.obj
 0001:00004a50       ?RunProtectUpg@@YAXEH@Z    10005a50 f   BattleDialogs.obj
 0001:00004b60       ?RunProtectUpg@UnitType@@QAEXEH@Z 10005b60 f   BattleDialogs.obj
 0001:00004be0       ?RunStartTimer@@YAXXZ      10005be0 f   BattleDialogs.obj
 0001:00004c30       ?RunUpgrades@CBattle@@QAEXXZ 10005c30 f   BattleDialogs.obj
 0001:00004cd0       ?SetStartTimer@CBattle@@QAEXH@Z 10005cd0 f   BattleDialogs.obj
 0001:00004cf0       ?ShowTimer@CBattle@@QAEHXZ 10005cf0 f   BattleDialogs.obj
 0001:00004d80       ?StartBattle@@YAXXZ        10005d80 f   BattleDialogs.obj
 0001:00004d90       ?_Change_array@?$vector@GV?$allocator@G@std@@@std@@AAEXQAGII@Z 10005d90 f i BattleDialogs.obj
 0001:00004df0       ?_Throw_bad_array_new_length@std@@YAXXZ 10005df0 f i BattleDialogs.obj
 0001:00004e10       ?_Tidy@?$vector@GV?$allocator@G@std@@@std@@AAEXXZ 10005e10 f i BattleDialogs.obj
 0001:00004e70       ?_Tidy@?$vector@V?$vector@GV?$allocator@G@std@@@std@@V?$allocator@V?$vector@GV?$allocator@G@std@@@std@@@2@@std@@AAEXXZ 10005e70 f i BattleDialogs.obj
 0001:00004ef0       ?_Xlength@?$vector@EV?$allocator@E@std@@@std@@CAXXZ 10005ef0 f i BattleDialogs.obj
 0001:00004f00       ?_Xlength@?$vector@FV?$allocator@F@std@@@std@@CAXXZ 10005f00 f i BattleDialogs.obj
 0001:00004f10       ?_Xlength@?$vector@GV?$allocator@G@std@@@std@@CAXXZ 10005f10 f i BattleDialogs.obj
 0001:00004f20       ?_Xlength@?$vector@V?$vector@GV?$allocator@G@std@@@std@@V?$allocator@V?$vector@GV?$allocator@G@std@@@std@@@2@@std@@CAXXZ 10005f20 f i BattleDialogs.obj
 0001:00004f30       ?_Xlength@?$vector@VCUpgCategory@@V?$allocator@VCUpgCategory@@@std@@@std@@CAXXZ 10005f30 f i BattleDialogs.obj
 0001:00004f40       ?deallocate@?$allocator@VCUpgCategory@@@std@@QAEXQAVCUpgCategory@@I@Z 10005f40 f i BattleDialogs.obj
 0001:00004f80       ?what@exception@std@@UBEPBDXZ 10005f80 f i BattleDialogs.obj
 0001:00004f90       ___local_stdio_printf_options 10005f90 f i BattleDialogs.obj
 0001:00004fa0       _sprintf                   10005fa0 f i BattleDialogs.obj
 0001:00004fe0       ?ReadWinString@@YA_NPAVGFILE@@PADH@Z 10005fe0 f   DipInit.obj
 0001:00005040       ??0DiplomacySystem@@QAE@XZ 10006040 f   DiplomacySystem.obj
 0001:000050a0       ?AddAnimals@@YA_NPAUGAMEOBJ@@0@Z 100060a0 f   DiplomacySystem.obj
 0001:00005230       ?AddCannon@@YAXPAUGAMEOBJ@@E@Z 10006230 f   DiplomacySystem.obj
 0001:00005250       ?AddCannon@DiplomacySystem@@QAEXPAUGAMEOBJ@@E@Z 10006250 f   DiplomacySystem.obj
 0001:00005340       ?AddDipCenter@DiplomacySystem@@QAEGPAD000@Z 10006340 f   DiplomacySystem.obj
 0001:000053c0       ?AddFirers@@YAXPAUGAMEOBJ@@E@Z 100063c0 f   DiplomacySystem.obj
 0001:000053e0       ?AddFirers@DiplomacySystem@@QAEXPAUGAMEOBJ@@E@Z 100063e0 f   DiplomacySystem.obj
 0001:000054b0       ?AddKillers@DiplomacySystem@@QAEXPAUGAMEOBJ@@E_N@Z 100064b0 f   DiplomacySystem.obj
 0001:00005580       ?AddNewZooGroup@DiplomacySystem@@QAEXPAUZooGroup@@@Z 10006580 f   DiplomacySystem.obj
 0001:000055d0       ?AddPsKillers@@YAXPAUGAMEOBJ@@E_N@Z 100065d0 f   DiplomacySystem.obj
 0001:000055f0       ?AddStorm@@YAXPAUGAMEOBJ@@EH@Z 100065f0 f   DiplomacySystem.obj
 0001:00005610       ?AddStorm@DiplomacySystem@@QAEXPAUGAMEOBJ@@EH@Z 10006610 f   DiplomacySystem.obj
 0001:000056d0       ?AddTomahawks@@YAXPAUGAMEOBJ@@EGHH@Z 100066d0 f   DiplomacySystem.obj
 0001:000056f0       ?AddTomahawks@DiplomacySystem@@QAEXPAUGAMEOBJ@@EGHH@Z 100066f0 f   DiplomacySystem.obj
 0001:00005820       ?AddWalker@DiplomacySystem@@QAEXG@Z 10006820 f   DiplomacySystem.obj
 0001:000058c0       ?AddZooBirthZone@DiplomacySystem@@QAEXPAUZooBirthZone@@@Z 100068c0 f   DiplomacySystem.obj
 0001:00005920       ?CreateContactsList@DiplomacySystem@@QAE_N_N@Z 10006920 f   DiplomacySystem.obj
 0001:00005b70       ?Norma@@YAHHH@Z            10006b70 f   DiplomacySystem.obj
 0001:00005ba0       ?PerformCommand@DiplomacySystem@@QAEXPADH@Z 10006ba0 f   DiplomacySystem.obj
 0001:00005bd0       ?Process@DiplomacySystem@@QAEXXZ 10006bd0 f   DiplomacySystem.obj
 0001:00007e40       ?ProcessZoology@DiplomacySystem@@QAEXXZ 10008e40 f   DiplomacySystem.obj
 0001:000087f0       ?Replace@DString@@QAAXPAD0ZZ 100097f0 f i DiplomacySystem.obj
 0001:00008860       ?ResearchMap@DiplomacySystem@@QAEXXZ 10009860 f   DiplomacySystem.obj
 0001:00008cf0       ?SetAI@DiplomacySystem@@QAE_NEHH@Z 10009cf0 f   DiplomacySystem.obj
 0001:00008d30       ?SetAIForDiplo@@YA_NEHH@Z  10009d30 f   DiplomacySystem.obj
 0001:00008d50       ?SetZone@@YAXPAUGAMEOBJ@@HHH@Z 10009d50 f   DiplomacySystem.obj
 0001:00008d80       ?ClearAllDipData@@YAXXZ    10009d80 f   DipMain.obj
 0001:00008ea0       ?FreeSaveDipData@@YAXPAE@Z 10009ea0 f   DipMain.obj
 0001:00008ec0       ?HandleDipRequest@@YAXPADPAVParsedRQ@@1@Z 10009ec0 f   DipMain.obj
 0001:00008ed0       ?Handle_dipcomm@@YAXPADPAPADHPAVParsedRQ@@@Z 10009ed0 f   DipMain.obj
 0001:000094b0       ?InitDipForThisMap@@YAXXZ  1000a4b0 f   DipMain.obj
 0001:000094c0       ?LoadAllDipData@@YAXPAEH@Z 1000a4c0 f   DipMain.obj
 0001:00009800       ?PerformDipCommand@@YAXPADH@Z 1000a800 f   DipMain.obj
 0001:00009820       ?ProcessDipRelations@@YAXXZ 1000a820 f   DipMain.obj
 0001:00009850       ?SaveAllDipData@@YAXPAPAEPAH@Z 1000a850 f   DipMain.obj
 0001:00009d90       ??0DS_Requests@@QAE@XZ     1000ad90 f   DipServer.obj
 0001:00009dc0       ??0OneDS_Request@@QAE@XZ   1000adc0 f   DipServer.obj
 0001:00009e20       ??1DS_Requests@@QAE@XZ     1000ae20 f   DipServer.obj
 0001:00009e70       ??1OneDS_Request@@QAE@XZ   1000ae70 f   DipServer.obj
 0001:00009ee0       ?DS_CloseAll@@YAXXZ        1000aee0 f   DipServer.obj
 0001:00009ef0       ?DS_CloseAll@DS_Requests@@QAEXXZ 1000aef0 f   DipServer.obj
 0001:00009f20       ?DS_CloseRequest@@YAXK@Z   1000af20 f   DipServer.obj
 0001:00009f40       ?DS_CloseRequest@DS_Requests@@QAEXK@Z 1000af40 f   DipServer.obj
 0001:00009f90       ?DS_GetRequestResult@@YAKKPAPADPAH@Z 1000af90 f   DipServer.obj
 0001:00009fb0       ?DS_GetRequestResult@DS_Requests@@QAEKKPAPADPAH@Z 1000afb0 f   DipServer.obj
 0001:0000a060       ?DS_Process@@YAXXZ         1000b060 f   DipServer.obj
 0001:0000a070       ?DS_Process@DS_Requests@@QAEXXZ 1000b070 f   DipServer.obj
 0001:0000a400       ?DS_SendRequest@@YAKPADH@Z 1000b400 f   DipServer.obj
 0001:0000a420       ?DS_SendRequest@DS_Requests@@QAEKPADH@Z 1000b420 f   DipServer.obj
 0001:0000a530       _DllMain@12                1000b530 f   DipServer.obj
 0001:0000a540       ?CheckDipBuilding@@YAXEH@Z 1000b540 f   DIP_SimpleBuilding.obj
 0001:0000a5e0       ?CreateAbilityPage@DIP_SimpleBuilding@@QAEXXZ 1000b5e0 f   DIP_SimpleBuilding.obj
 0001:0000aa20       ?CreateRadialPosition@@YAXPAH0HHHHH@Z 1000ba20 f   DIP_SimpleBuilding.obj
 0001:0000aac0       ?Free@DIP_SimpleBuilding@@UAEXXZ 1000bac0 f   DIP_SimpleBuilding.obj
 0001:0000aae0       ?GetAmountOfPropositions@DIP_SimpleBuilding@@UAEHXZ 1000bae0 f   DIP_SimpleBuilding.obj
 0001:0000aaf0       ?GetPossibility@DIP_SimpleBuilding@@UAEKHPAD0@Z 1000baf0 f   DIP_SimpleBuilding.obj
 0001:0000ab60       ?GetSaveData@DIP_SimpleBuilding@@UAEHPAE_N@Z 1000bb60 f   DIP_SimpleBuilding.obj
 0001:0000ac00       ?Init@DIP_SimpleBuilding@@UAEXXZ 1000bc00 f   DIP_SimpleBuilding.obj
 0001:0000ac40       ?InitThisTribe2@DIP_SimpleBuilding@@UAEXPAD000@Z 1000bc40 f   DIP_SimpleBuilding.obj
 0001:0000acf0       ?InitThisTribe@DIP_SimpleBuilding@@UAEXPAD00@Z 1000bcf0 f   DIP_SimpleBuilding.obj
 0001:0000b770       ?PerformCommand@DIP_SimpleBuilding@@UAEXPADH@Z 1000c770 f   DIP_SimpleBuilding.obj
 0001:0000c520       ?PerformFiring@DIP_SimpleBuilding@@QAEXXZ 1000d520 f   DIP_SimpleBuilding.obj
 0001:0000c650       ?PerformKillers@DIP_SimpleBuilding@@QAEXXZ 1000d650 f   DIP_SimpleBuilding.obj
 0001:0000c780       ?PerformPossibility@DIP_SimpleBuilding@@UAEXK@Z 1000d780 f   DIP_SimpleBuilding.obj
 0001:0000c960       ?PerformProduceUnitsCommend@DIP_SimpleBuilding@@QAEXXZ 1000d960 f   DIP_SimpleBuilding.obj
 0001:0000ca90       ?PerformRazvedka@DIP_SimpleBuilding@@QAEXXZ 1000da90 f   DIP_SimpleBuilding.obj
 0001:0000cc10       ?PerformStorms@DIP_SimpleBuilding@@QAEXXZ 1000dc10 f   DIP_SimpleBuilding.obj
 0001:0000cd40       ?PerformTomahawks@DIP_SimpleBuilding@@QAEXXZ 1000dd40 f   DIP_SimpleBuilding.obj
 0001:0000ce70       ?ProcessDance@DIP_SimpleBuilding@@QAEXXZ 1000de70 f   DIP_SimpleBuilding.obj
 0001:0000d0a0       ?ProcessTribe@DIP_SimpleBuilding@@UAEXXZ 1000e0a0 f   DIP_SimpleBuilding.obj
 0001:0000db50       ?SetSaveData@DIP_SimpleBuilding@@UAEXPAEH@Z 1000eb50 f   DIP_SimpleBuilding.obj
 0001:0000dbd0       ?ShowNoMoney@DIP_SimpleBuilding@@QAEXXZ 1000ebd0 f   DIP_SimpleBuilding.obj
 0001:0000dd20       ___local_stdio_scanf_options 1000ed20 f i DIP_SimpleBuilding.obj
 0001:0000dd30       _sscanf                    1000ed30 f i DIP_SimpleBuilding.obj
 0001:0000dd60       ??0DString@@QAE@PAD@Z      1000ed60 f   DString.obj
 0001:0000dd90       ??0DString@@QAE@XZ         1000ed90 f   DString.obj
 0001:0000ddb0       ??1DString@@QAE@XZ         1000edb0 f   DString.obj
 0001:0000de10       ??4DString@@QAEAAV0@PAD@Z  1000ee10 f   DString.obj
 0001:0000de30       ??8DString@@QAE_NAAV0@@Z   1000ee30 f   DString.obj
 0001:0000de80       ??8DString@@QAE_NPAD@Z     1000ee80 f   DString.obj
 0001:0000ded0       ??ADString@@QAEDH@Z        1000eed0 f   DString.obj
 0001:0000def0       ??H@YAAAVDString@@PADAAV0@@Z 1000eef0 f   DString.obj
 0001:0000df60       ??HDString@@QAEAAV0@AAV0@@Z 1000ef60 f   DString.obj
 0001:0000df80       ??HDString@@QAEAAV0@PAD@Z  1000ef80 f   DString.obj
 0001:0000dfa0       ??YDString@@QAEAAV0@AAV0@@Z 1000efa0 f   DString.obj
 0001:0000dfc0       ??YDString@@QAEAAV0@PAD@Z  1000efc0 f   DString.obj
 0001:0000dfe0       ?Add@DString@@QAEXAAV1@@Z  1000efe0 f   DString.obj
 0001:0000e050       ?Add@DString@@QAEXPAD@Z    1000f050 f   DString.obj
 0001:0000e0d0       ?Allocate@DString@@QAEXH@Z 1000f0d0 f   DString.obj
 0001:0000e110       ?Assign@DString@@QAEXAAV1@@Z 1000f110 f   DString.obj
 0001:0000e130       ?Assign@DString@@QAEXPAD@Z 1000f130 f   DString.obj
 0001:0000e180       ?Clear@DString@@QAEXXZ     1000f180 f   DString.obj
 0001:0000e1a0       ?Free@DString@@QAEXXZ      1000f1a0 f   DString.obj
 0001:0000e1d0       ?ReadFromFile@DString@@QAEXPAD@Z 1000f1d0 f   DString.obj
 0001:0000e240       ?Replace0@DString@@QAEXPAD0@Z 1000f240 f   DString.obj
 0001:0000e310       ?Replace@DString@@QAEXPADAAV1@@Z 1000f310 f   DString.obj
 0001:0000e330       ?WriteToFile@DString@@QAEXPAD@Z 1000f330 f   DString.obj
 0001:0000e370       ??$_Copy_memmove@PAHPAH@std@@YAPAHPAH00@Z 1000f370 f i Economic.obj
 0001:0000e3a0       ??$_Copy_memmove@PAPAVBearer@@PAPAV1@@std@@YAPAPAVBearer@@PAPAV1@00@Z 1000f3a0 f i Economic.obj
 0001:0000e3d0       ??$_Copy_memmove@PAUCan_produse@@PAU1@@std@@YAPAUCan_produse@@PAU1@00@Z 1000f3d0 f i Economic.obj
 0001:0000e400       ??$_Copy_memmove@PAUResource@@PAU1@@std@@YAPAUResource@@PAU1@00@Z 1000f400 f i Economic.obj
 0001:0000e430       ??$_Destroy_range@V?$allocator@UNamedResourceList@@@std@@@std@@YAXPAUNamedResourceList@@QAU1@AAV?$allocator@UNamedResourceList@@@0@@Z 1000f430 f i Economic.obj
 0001:0000e460       ??$_Destroy_range@V?$allocator@VFormation@@@std@@@std@@YAXPAVFormation@@QAV1@AAV?$allocator@VFormation@@@0@@Z 1000f460 f i Economic.obj
 0001:0000e490       ??$_Destroy_range@V?$allocator@VThing@@@std@@@std@@YAXPAVThing@@QAV1@AAV?$allocator@VThing@@@0@@Z 1000f490 f i Economic.obj
 0001:0000e4c0       ??$_Destroy_range@V?$allocator@VUnitDescription@@@std@@@std@@YAXPAVUnitDescription@@QAV1@AAV?$allocator@VUnitDescription@@@0@@Z 1000f4c0 f i Economic.obj
 0001:0000e4f0       ??$_Emplace_reallocate@ABH@?$vector@HV?$allocator@H@std@@@std@@AAEPAHQAHABH@Z 1000f4f0 f i Economic.obj
 0001:0000e600       ??$_Emplace_reallocate@ABQAVBearer@@@?$vector@PAVBearer@@V?$allocator@PAVBearer@@@std@@@std@@AAEPAPAVBearer@@QAPAV2@ABQAV2@@Z 1000f600 f i Economic.obj
 0001:0000e750       ??$_Emplace_reallocate@ABUCan_produse@@@?$vector@UCan_produse@@V?$allocator@UCan_produse@@@std@@@std@@AAEPAUCan_produse@@QAU2@ABU2@@Z 1000f750 f i Economic.obj
 0001:0000e8f0       ??$_Emplace_reallocate@ABUNamedResourceList@@@?$vector@UNamedResourceList@@V?$allocator@UNamedResourceList@@@std@@@std@@AAEPAUNamedResourceList@@QAU2@ABU2@@Z 1000f8f0 f i Economic.obj
 0001:0000eb70       ??$_Emplace_reallocate@ABUResource@@@?$vector@UResource@@V?$allocator@UResource@@@std@@@std@@AAEPAUResource@@QAU2@ABU2@@Z 1000fb70 f i Economic.obj
 0001:0000ed30       ??$_Emplace_reallocate@ABVFormation@@@?$vector@VFormation@@V?$allocator@VFormation@@@std@@@std@@AAEPAVFormation@@QAV2@ABV2@@Z 1000fd30 f i Economic.obj
 0001:0000ef90       ??$_Emplace_reallocate@ABVThing@@@?$vector@VThing@@V?$allocator@VThing@@@std@@@std@@AAEPAVThing@@QAV2@ABV2@@Z 1000ff90 f i Economic.obj
 0001:0000f1e0       ??$_Emplace_reallocate@ABVUnitDescription@@@?$vector@VUnitDescription@@V?$allocator@VUnitDescription@@@std@@@std@@AAEPAVUnitDescription@@QAV2@ABV2@@Z 100101e0 f i Economic.obj
 0001:0000f440       ??$_Emplace_reallocate@H@?$vector@HV?$allocator@H@std@@@std@@AAEPAHQAH$$QAH@Z 10010440 f i Economic.obj
 0001:0000f550       ??$_Reallocate@$0A@@?$vector@HV?$allocator@H@std@@@std@@AAEXAAI@Z 10010550 f i Economic.obj
 0001:0000f610       ??$_Uninitialized_copy@PAUNamedResourceList@@PAU1@V?$allocator@UNamedResourceList@@@std@@@std@@YAPAUNamedResourceList@@PAU1@00AAV?$allocator@UNamedResourceList@@@0@@Z 10010610 f i Economic.obj
 0001:0000f6d0       ??$_Uninitialized_move@PAUNamedResourceList@@V?$allocator@UNamedResourceList@@@std@@@std@@YAPAUNamedResourceList@@QAU1@0PAU1@AAV?$allocator@UNamedResourceList@@@0@@Z 100106d0 f i Economic.obj
 0001:0000f790       ??$_Uninitialized_move@PAVFormation@@V?$allocator@VFormation@@@std@@@std@@YAPAVFormation@@QAV1@0PAV1@AAV?$allocator@VFormation@@@0@@Z 10010790 f i Economic.obj
 0001:0000f810       ??$_Uninitialized_move@PAVThing@@V?$allocator@VThing@@@std@@@std@@YAPAVThing@@QAV1@0PAV1@AAV?$allocator@VThing@@@0@@Z 10010810 f i Economic.obj
 0001:0000f8e0       ??$_Uninitialized_move@PAVUnitDescription@@V?$allocator@VUnitDescription@@@std@@@std@@YAPAVUnitDescription@@QAV1@0PAV1@AAV?$allocator@VUnitDescription@@@0@@Z 100108e0 f i Economic.obj
 0001:0000f960       ??0?$vector@HV?$allocator@H@std@@@std@@QAE@ABV01@@Z 10010960 f i Economic.obj
 0001:0000fa00       ??0AutoFormation@@QAE@XZ   10010a00 f   Economic.obj
 0001:0000fa70       ??0Barrack@@QAE@XZ         10010a70 f   Economic.obj
 0001:0000fbf0       ??0Bearer@@QAE@XZ          10010bf0 f   Economic.obj
 0001:0000fc70       ??0Business@@QAE@XZ        10010c70 f   Economic.obj
 0001:0000fcc0       ??0Carrier@@QAE@XZ         10010cc0 f   Economic.obj
 0001:0000fd10       ??0Economic@@QAE@XZ        10010d10 f   Economic.obj
 0001:0000fee0       ??0FormMovement@@QAE@XZ    10010ee0 f   Economic.obj
 0001:0000ff40       ??0Formation@@QAE@ABV0@@Z  10010f40 f i Economic.obj
 0001:00010000       ??0Formation@@QAE@XZ       10011000 f   Economic.obj
 0001:00010020       ??0FormationList@@QAE@XZ   10011020 f   Economic.obj
 0001:00010030       ??0InterfaceOBJ@@QAE@XZ    10011030 f   Economic.obj
 0001:00010040       ??0Manufacture@@QAE@XZ     10011040 f   Economic.obj
 0001:000100f0       ??0Market@@QAE@XZ          100110f0 f   Economic.obj
 0001:00010120       ??0MobileUnit@@QAE@XZ      10011120 f   Economic.obj
 0001:00010150       ??0NationParams@@QAE@XZ    10011150 f   Economic.obj
 0001:00010170       ??0Peasant@@QAE@XZ         10011170 f   Economic.obj
 0001:00010190       ??0ProduceList@@QAE@XZ     10011190 f   Economic.obj
 0001:000101a0       ??0ResourceList@@QAE@XZ    100111a0 f   Economic.obj
 0001:00010290       ??0TaxCollector@@QAE@XZ    10011290 f   Economic.obj
 0001:000102c0       ??0Thing@@QAE@ABV0@@Z      100112c0 f i Economic.obj
 0001:00010330       ??0Thing@@QAE@XZ           10011330 f   Economic.obj
 0001:00010360       ??0Transport@@QAE@XZ       10011360 f   Economic.obj
 0001:000103d0       ??0Troop@@QAE@H@Z          100113d0 f   Economic.obj
 0001:00010410       ??0Troop@@QAE@XZ           10011410 f   Economic.obj
 0001:00010430       ??0UnitDescription@@QAE@ABV0@@Z 10011430 f i Economic.obj
 0001:00010610       ??0UnitDescription@@QAE@XZ 10011610 f   Economic.obj
 0001:00010670       ??0UnitInfo@@QAE@XZ        10011670 f   Economic.obj
 0001:00010680       ??0Village@@QAE@XZ         10011680 f   Economic.obj
 0001:000106e0       ??0Warehouse@@QAE@XZ       100116e0 f   Economic.obj
 0001:00010850       ??1?$_Alloc_construct_ptr@V?$allocator@U?$_List_node@HPAX@std@@@std@@@std@@QAE@XZ 10011850 f i Economic.obj
 0001:00010870       ??1?$_Alloc_construct_ptr@V?$allocator@U?$_List_node@PAVBarrack@@PAX@std@@@std@@@std@@QAE@XZ 10011870 f i Economic.obj
 0001:00010890       ??1?$_Alloc_construct_ptr@V?$allocator@U?$_List_node@PAVCarrier@@PAX@std@@@std@@@std@@QAE@XZ 10011890 f i Economic.obj
 0001:000108b0       ??1?$_Alloc_construct_ptr@V?$allocator@U?$_List_node@PAVManufacture@@PAX@std@@@std@@@std@@QAE@XZ 100118b0 f i Economic.obj
 0001:000108d0       ??1?$_Alloc_construct_ptr@V?$allocator@U?$_List_node@PAVMarket@@PAX@std@@@std@@@std@@QAE@XZ 100118d0 f i Economic.obj
 0001:000108f0       ??1?$_Alloc_construct_ptr@V?$allocator@U?$_List_node@PAVTaxCollector@@PAX@std@@@std@@@std@@QAE@XZ 100118f0 f i Economic.obj
 0001:00010910       ??1?$_Alloc_construct_ptr@V?$allocator@U?$_List_node@PAVTransport@@PAX@std@@@std@@@std@@QAE@XZ 10011910 f i Economic.obj
 0001:00010930       ??1?$_Alloc_construct_ptr@V?$allocator@U?$_List_node@PAVVillage@@PAX@std@@@std@@@std@@QAE@XZ 10011930 f i Economic.obj
 0001:00010950       ??1?$_Alloc_construct_ptr@V?$allocator@U?$_List_node@PAVWarehouse@@PAX@std@@@std@@@std@@QAE@XZ 10011950 f i Economic.obj
 0001:00010970       ??1?$_Alloc_construct_ptr@V?$allocator@U?$_List_node@VPeasant@@PAX@std@@@std@@@std@@QAE@XZ 10011970 f i Economic.obj
 0001:00010990       ??1?$_Tidy_guard@V?$vector@UNamedResourceList@@V?$allocator@UNamedResourceList@@@std@@@std@@@std@@QAE@XZ 10011990 f i Economic.obj
 0001:000109a0       ??1?$_Uninitialized_backout_al@V?$allocator@UNamedResourceList@@@std@@@std@@QAE@XZ 100119a0 f i Economic.obj
 0001:000109d0       ??1?$_Uninitialized_backout_al@V?$allocator@VFormation@@@std@@@std@@QAE@XZ 100119d0 f i Economic.obj
 0001:00010a00       ??1?$_Uninitialized_backout_al@V?$allocator@VThing@@@std@@@std@@QAE@XZ 10011a00 f i Economic.obj
 0001:00010a30       ??1?$_Uninitialized_backout_al@V?$allocator@VUnitDescription@@@std@@@std@@QAE@XZ 10011a30 f i Economic.obj
 0001:00010a60       ??1?$list@HV?$allocator@H@std@@@std@@QAE@XZ 10011a60 f i Economic.obj
 0001:00010aa0       ??1?$list@PAVBarrack@@V?$allocator@PAVBarrack@@@std@@@std@@QAE@XZ 10011aa0 f i Economic.obj
 0001:00010ae0       ??1?$list@PAVCarrier@@V?$allocator@PAVCarrier@@@std@@@std@@QAE@XZ 10011ae0 f i Economic.obj
 0001:00010b20       ??1?$list@PAVManufacture@@V?$allocator@PAVManufacture@@@std@@@std@@QAE@XZ 10011b20 f i Economic.obj
 0001:00010b60       ??1?$list@PAVMarket@@V?$allocator@PAVMarket@@@std@@@std@@QAE@XZ 10011b60 f i Economic.obj
 0001:00010ba0       ??1?$list@PAVTaxCollector@@V?$allocator@PAVTaxCollector@@@std@@@std@@QAE@XZ 10011ba0 f i Economic.obj
 0001:00010be0       ??1?$list@PAVTransport@@V?$allocator@PAVTransport@@@std@@@std@@QAE@XZ 10011be0 f i Economic.obj
 0001:00010c20       ??1?$list@PAVVillage@@V?$allocator@PAVVillage@@@std@@@std@@QAE@XZ 10011c20 f i Economic.obj
 0001:00010c60       ??1?$list@PAVWarehouse@@V?$allocator@PAVWarehouse@@@std@@@std@@QAE@XZ 10011c60 f i Economic.obj
 0001:00010ca0       ??1?$list@VPeasant@@V?$allocator@VPeasant@@@std@@@std@@QAE@XZ 10011ca0 f i Economic.obj
 0001:00010cf0       ??1?$vector@HV?$allocator@H@std@@@std@@QAE@XZ 10011cf0 f i Economic.obj
 0001:00010d50       ??1?$vector@UNamedResourceList@@V?$allocator@UNamedResourceList@@@std@@@std@@QAE@XZ 10011d50 f i Economic.obj
 0001:00010d60       ??1?$vector@VUnitDescription@@V?$allocator@VUnitDescription@@@std@@@std@@QAE@XZ 10011d60 f i Economic.obj
 0001:00010de0       ??1AutoFormation@@UAE@XZ   10011de0 f   Economic.obj
 0001:00010df0       ??1Barrack@@UAE@XZ         10011df0 f   Economic.obj
 0001:00010f40       ??1Bearer@@UAE@XZ          10011f40 f   Economic.obj
 0001:00010f60       ??1Business@@UAE@XZ        10011f60 f   Economic.obj
 0001:00010f80       ??1Carrier@@UAE@XZ         10011f80 f   Economic.obj
 0001:00010fe0       ??1Economic@@UAE@XZ        10011fe0 f   Economic.obj
 0001:000112d0       ??1FormMovement@@UAE@XZ    100122d0 f   Economic.obj
 0001:00011370       ??1Formation@@UAE@XZ       10012370 f   Economic.obj
 0001:00011380       ??1FormationList@@UAE@XZ   10012380 f   Economic.obj
 0001:00011390       ??1InterfaceOBJ@@UAE@XZ    10012390 f   Economic.obj
 0001:000113a0       ??1Manufacture@@UAE@XZ     100123a0 f   Economic.obj
 0001:00011460       ??1Market@@UAE@XZ          10012460 f   Economic.obj
 0001:00011470       ??1MobileUnit@@UAE@XZ      10012470 f   Economic.obj
 0001:00011480       ??1NamedResourceList@@QAE@XZ 10012480 f i Economic.obj
 0001:00011490       ??1NationParams@@QAE@XZ    10012490 f   Economic.obj
 0001:000114a0       ??1Peasant@@UAE@XZ         100124a0 f i Economic.obj
 0001:000114b0       ??1ProduceList@@UAE@XZ     100124b0 f   Economic.obj
 0001:000114c0       ??1ResourceList@@UAE@XZ    100124c0 f   Economic.obj
 0001:00011520       ??1TaxCollector@@UAE@XZ    10012520 f   Economic.obj
 0001:00011530       ??1Thing@@QAE@XZ           10012530 f i Economic.obj
 0001:00011540       ??1Transport@@UAE@XZ       10012540 f   Economic.obj
 0001:00011570       ??1Troop@@UAE@XZ           10012570 f   Economic.obj
 0001:00011580       ??1UnitDescription@@UAE@XZ 10012580 f   Economic.obj
 0001:000115a0       ??1UnitInfo@@UAE@XZ        100125a0 f   Economic.obj
 0001:000115b0       ??1Village@@UAE@XZ         100125b0 f   Economic.obj
 0001:000115d0       ??1Warehouse@@UAE@XZ       100125d0 f   Economic.obj
 0001:00011660       ??_EAutoFormation@@UAEPAXI@Z 10012660 f i Economic.obj
 0001:00011660       ??_GAutoFormation@@UAEPAXI@Z 10012660 f i Economic.obj
 0001:00011690       ??_EBarrack@@UAEPAXI@Z     10012690 f i Economic.obj
 0001:00011690       ??_GBarrack@@UAEPAXI@Z     10012690 f i Economic.obj
 0001:000116c0       ??_EBearer@@UAEPAXI@Z      100126c0 f i Economic.obj
 0001:000116c0       ??_GBearer@@UAEPAXI@Z      100126c0 f i Economic.obj
 0001:000116f0       ??_EBusiness@@UAEPAXI@Z    100126f0 f i Economic.obj
 0001:000116f0       ??_GBusiness@@UAEPAXI@Z    100126f0 f i Economic.obj
 0001:00011720       ??_ECarrier@@UAEPAXI@Z     10012720 f i Economic.obj
 0001:00011720       ??_GCarrier@@UAEPAXI@Z     10012720 f i Economic.obj
 0001:00011750       ??_EEconomic@@UAEPAXI@Z    10012750 f i Economic.obj
 0001:00011750       ??_GEconomic@@UAEPAXI@Z    10012750 f i Economic.obj
 0001:00011780       ??_EFormMovement@@UAEPAXI@Z 10012780 f i Economic.obj
 0001:00011780       ??_GFormMovement@@UAEPAXI@Z 10012780 f i Economic.obj
 0001:000117b0       ??_EFormation@@UAEPAXI@Z   100127b0 f i Economic.obj
 0001:000117b0       ??_GFormation@@UAEPAXI@Z   100127b0 f i Economic.obj
 0001:000117e0       ??_EFormationList@@UAEPAXI@Z 100127e0 f i Economic.obj
 0001:000117e0       ??_GFormationList@@UAEPAXI@Z 100127e0 f i Economic.obj
 0001:00011810       ??_EInterfaceOBJ@@UAEPAXI@Z 10012810 f i Economic.obj
 0001:00011810       ??_GInterfaceOBJ@@UAEPAXI@Z 10012810 f i Economic.obj
 0001:00011840       ??_EManufacture@@UAEPAXI@Z 10012840 f i Economic.obj
 0001:00011840       ??_GManufacture@@UAEPAXI@Z 10012840 f i Economic.obj
 0001:00011870       ??_EMarket@@UAEPAXI@Z      10012870 f i Economic.obj
 0001:00011870       ??_GMarket@@UAEPAXI@Z      10012870 f i Economic.obj
 0001:000118a0       ??_EMobileUnit@@UAEPAXI@Z  100128a0 f i Economic.obj
 0001:000118a0       ??_GMobileUnit@@UAEPAXI@Z  100128a0 f i Economic.obj
 0001:000118d0       ??_EPeasant@@UAEPAXI@Z     100128d0 f i Economic.obj
 0001:000118d0       ??_GPeasant@@UAEPAXI@Z     100128d0 f i Economic.obj
 0001:00011900       ??_EProduceList@@UAEPAXI@Z 10012900 f i Economic.obj
 0001:00011900       ??_GProduceList@@UAEPAXI@Z 10012900 f i Economic.obj
 0001:00011930       ??_EResourceList@@UAEPAXI@Z 10012930 f i Economic.obj
 0001:00011930       ??_GResourceList@@UAEPAXI@Z 10012930 f i Economic.obj
 0001:00011960       ??_ETaxCollector@@UAEPAXI@Z 10012960 f i Economic.obj
 0001:00011960       ??_GTaxCollector@@UAEPAXI@Z 10012960 f i Economic.obj
 0001:00011990       ??_ETransport@@UAEPAXI@Z   10012990 f i Economic.obj
 0001:00011990       ??_GTransport@@UAEPAXI@Z   10012990 f i Economic.obj
 0001:000119c0       ??_ETroop@@UAEPAXI@Z       100129c0 f i Economic.obj
 0001:000119c0       ??_GTroop@@UAEPAXI@Z       100129c0 f i Economic.obj
 0001:000119f0       ??_EUnitDescription@@UAEPAXI@Z 100129f0 f i Economic.obj
 0001:000119f0       ??_GUnitDescription@@UAEPAXI@Z 100129f0 f i Economic.obj
 0001:00011a20       ??_EUnitInfo@@UAEPAXI@Z    10012a20 f i Economic.obj
 0001:00011a20       ??_GUnitInfo@@UAEPAXI@Z    10012a20 f i Economic.obj
 0001:00011a50       ??_EVillage@@UAEPAXI@Z     10012a50 f i Economic.obj
 0001:00011a50       ??_GVillage@@UAEPAXI@Z     10012a50 f i Economic.obj
 0001:00011a80       ??_EWarehouse@@UAEPAXI@Z   10012a80 f i Economic.obj
 0001:00011a80       ??_GWarehouse@@UAEPAXI@Z   10012a80 f i Economic.obj
 0001:00011ab0       ?AddAmo@ResourceList@@QAEXH@Z 10012ab0 f   Economic.obj
 0001:00011ad0       ?AddAmo@ResourceList@@QAEXHH@Z 10012ad0 f   Economic.obj
 0001:00011b00       ?AddEnerPoint@FormMovement@@QAEXAAY1EA@EA@HHHH@Z 10012b00 f   Economic.obj
 0001:00011ba0       ?AddInPeasantList@Economic@@QAEXXZ 10012ba0 f   Economic.obj
 0001:00011bb0       ?AddNewIndex@InterfaceOBJ@@SAXHPAV1@@Z 10012bb0 f   Economic.obj
 0001:00011c20       ?AddResource@ResourceList@@QAEXPADHH@Z 10012c20 f   Economic.obj
 0001:00011d00       ?AddResource@Warehouse@@QAEXHH@Z 10012d00 f   Economic.obj
 0001:00011d40       ?AddThing@ProduceList@@QAEXVThing@@@Z 10012d40 f   Economic.obj
 0001:00011db0       ?AddValueVector@ResourceList@@QAEXV?$vector@HV?$allocator@H@std@@@std@@@Z 10012db0 f   Economic.obj
 0001:00011e30       ?Bay@Business@@QAE_NPAV1@H@Z 10012e30 f   Economic.obj
 0001:00011e70       ?CMLInProduceStack@Barrack@@QAEXPAD@Z 10012e70 f   Economic.obj
 0001:00011f90       ?CMLInProduceStack@Manufacture@@QAEXPAD@Z 10012f90 f   Economic.obj
 0001:00012120       ?CMLOrderList@Barrack@@QAEXPAD@Z 10013120 f   Economic.obj
 0001:000122a0       ?CMLobjectInfo@Barrack@@QAEXPAD@Z 100132a0 f   Economic.obj
 0001:000123b0       ?CMLobjectInfo@Manufacture@@QAEXPAD@Z 100133b0 f   Economic.obj
 0001:00012490       ?CMLunitsList@Barrack@@QAEXPAD@Z 10013490 f   Economic.obj
 0001:00012520       ?CMLunitsList@Manufacture@@QAEXPAD@Z 10013520 f   Economic.obj
 0001:00012620       ?Clear@AutoFormation@@QAEXXZ 10013620 f   Economic.obj
 0001:00012650       ?ClearAmo@ResourceList@@QAEXXZ 10013650 f   Economic.obj
 0001:00012680       ?Compare@Barrack@@SAHPBX0@Z 10013680 f   Economic.obj
 0001:000127a0       ?CorrectPrice@Warehouse@@QAEXPAPAV1@H@Z 100137a0 f   Economic.obj
 0001:000129e0       ?Create@Bearer@@QAEXHHE@Z  100139e0 f   Economic.obj
 0001:00012a80       ?CreateForm@AutoFormation@@QAEXXZ 10013a80 f   Economic.obj
 0001:00012af0       ?EconomicDipComm@Economic@@QAEXPADPAPADHPAVParsedRQ@@@Z 10013af0 f   Economic.obj
 0001:00012fc0       ?Erase@Bearer@@QAEXXZ      10013fc0 f   Economic.obj
 0001:00012fe0       ?ErrM@@YAXPAD@Z            10013fe0 f   Economic.obj
 0001:00013000       ?FillFromFile@FormationList@@QAEXPAD@Z 10014000 f   Economic.obj
 0001:00013370       ?FillImportantPoint@FormMovement@@QAEXXZ 10014370 f   Economic.obj
 0001:00013510       ?FillParams@Barrack@@QAEXPAVUnitDescription@@H@Z 10014510 f   Economic.obj
 0001:00013550       ?FillParams@Business@@QAEXPAVUnitDescription@@H@Z 10014550 f   Economic.obj
 0001:00013580       ?FillParams@Manufacture@@QAEXPAVUnitDescription@@H@Z 10014580 f   Economic.obj
 0001:00013640       ?FillParams@Market@@QAEXPAVUnitDescription@@H@Z 10014640 f   Economic.obj
 0001:00013680       ?FillParams@TaxCollector@@QAEXPAVUnitDescription@@H@Z 10014680 f   Economic.obj
 0001:000136a0       ?FillParams@Transport@@QAEXPAVUnitDescription@@H@Z 100146a0 f   Economic.obj
 0001:000136e0       ?FillParams@Village@@QAEXPAVUnitDescription@@H@Z 100146e0 f   Economic.obj
 0001:00013720       ?FillParams@Warehouse@@QAEXPAVUnitDescription@@H@Z 10014720 f   Economic.obj
 0001:000137f0       ?FillTradePoints@Barrack@@QAEXPAPAVWarehouse@@H@Z 100147f0 f   Economic.obj
 0001:00013950       ?FillTradePoints@Economic@@AAEXXZ 10014950 f   Economic.obj
 0001:00013b50       ?First@ResourceList@@QAEXXZ 10014b50 f   Economic.obj
 0001:00013b60       ?GetAmo@ResourceList@@QAEHH@Z 10014b60 f   Economic.obj
 0001:00013b80       ?GetAmo@ResourceList@@QAEHXZ 10014b80 f   Economic.obj
 0001:00013b90       ?GetBusiness@Business@@QAEPAV1@XZ 10014b90 f   Economic.obj
 0001:00013ba0       ?GetDangFor@FormMovement@@AAEHPAVTroop@@HH@Z 10014ba0 f   Economic.obj
 0001:00013c40       ?GetDangerCoord@FormMovement@@QAEXPAVTroop@@AAH1@Z 10014c40 f   Economic.obj
 0001:00013d10       ?GetDist@FormMovement@@QAEHPAVTroop@@0@Z 10014d10 f   Economic.obj
 0001:00013d70       ?GetDist@FormMovement@@QAEHPAVTroop@@PAUImportantPoint@@@Z 10014d70 f   Economic.obj
 0001:00013dc0       ?GetDist@UnitInfo@@QAEHHH@Z 10014dc0 f   Economic.obj
 0001:00013de0       ?GetEffect@Transport@@QAEHPAVWarehouse@@0PAV?$list@PAVTransport@@V?$allocator@PAVTransport@@@std@@@std@@@Z 10014de0 f   Economic.obj
 0001:00014000       ?GetFormationsPrice@Barrack@@QAEHHAAH@Z 10015000 f   Economic.obj
 0001:00014180       ?GetFormationsPriceAndReservRes@Barrack@@QAEHH@Z 10015180 f   Economic.obj
 0001:000142e0       ?GetFreePeasant@Economic@@QAEHE@Z 100152e0 f   Economic.obj
 0001:00014340       ?GetIndex@ResourceList@@QAEHPAD@Z 10015340 f   Economic.obj
 0001:000143b0       ?GetIndex@UnitInfo@@QAEHXZ 100153b0 f   Economic.obj
 0001:000143c0       ?GetMinPrice@Warehouse@@QAEHPAPAV1@HH@Z 100153c0 f   Economic.obj
 0001:00014460       ?GetName@ResourceList@@QAEPADH@Z 10015460 f   Economic.obj
 0001:00014490       ?GetObjectA@Warehouse@@QAEPAV1@XZ 10015490 f   Economic.obj
 0001:000144a0       ?GetPrice@Manufacture@@UAEHH@Z 100154a0 f   Economic.obj
 0001:00014500       ?GetPrice@Market@@UAEHH@Z  10015500 f   Economic.obj
 0001:00014520       ?GetPrice@Warehouse@@UAEHH@Z 10015520 f   Economic.obj
 0001:000145a0       ?GetProduceIndex@ProduceList@@QAEHH@Z 100155a0 f   Economic.obj
 0001:000145f0       ?GetProduceIndexByUnitName@ProduceList@@QAEHPAD@Z 100155f0 f   Economic.obj
 0001:00014660       ?GetProductPrice@Manufacture@@QAEHH@Z 10015660 f   Economic.obj
 0001:000146e0       ?GetRLByName@UnitDescription@@QAE?AV?$vector@HV?$allocator@H@std@@@std@@PAD@Z 100156e0 f   Economic.obj
 0001:000147e0       ?GetTarget@Transport@@QAEPAVWarehouse@@PAPAV2@HPAV?$list@PAVTransport@@V?$allocator@PAVTransport@@@std@@@std@@@Z 100157e0 f   Economic.obj
 0001:000148a0       ?GetThing@ProduceList@@QAEPAVThing@@H@Z 100158a0 f   Economic.obj
 0001:000148f0       ?GetUnitI@UnitInfo@@QAEPAV1@XZ 100158f0 f   Economic.obj
 0001:00014900       ?Init@Economic@@QAEXXZ     10015900 f   Economic.obj
 0001:00014af0       ?Init@NationParams@@QAEXH@Z 10015af0 f   Economic.obj
 0001:00014b30       ?IsFormationReady@AutoFormation@@QAE_NXZ 10015b30 f   Economic.obj
 0001:00014bc0       ?Load@Bearer@@QAEXPAVBarrack@@@Z 10015bc0 f   Economic.obj
 0001:00014c60       ?Load@Transport@@QAEXPAVWarehouse@@@Z 10015c60 f   Economic.obj
 0001:00014da0       ?Load@UnitDescription@@QAE_NPAD@Z 10015da0 f   Economic.obj
 0001:00015010       ?LoadNation@Economic@@AAEXPAD@Z 10016010 f   Economic.obj
 0001:000151d0       ?LoadValue@ResourceList@@QAEXV?$vector@HV?$allocator@H@std@@@std@@@Z 100161d0 f   Economic.obj
 0001:00015250       ?MakeGovernmentOrder@Warehouse@@QAEXHH@Z 10016250 f   Economic.obj
 0001:000152a0       ?MobilizateUnit@Warehouse@@QAEXPAUGAMEOBJ@@@Z 100162a0 f   Economic.obj
 0001:00015300       ?Mobilization@Economic@@QAEXXZ 10016300 f   Economic.obj
 0001:00015370       ?MoneyAdd@NationParams@@QAEXH@Z 10016370 f   Economic.obj
 0001:00015390       ?Move@Troop@@QAEXHH@Z      10016390 f   Economic.obj
 0001:000153c0       ?MoveTo@AutoFormation@@QAEXHH@Z 100163c0 f   Economic.obj
 0001:00015420       ?MoveTo@MobileUnit@@QAEXHH@Z 10016420 f   Economic.obj
 0001:00015450       ?NIndex@UnitInfo@@QAEGXZ   10016450 f   Economic.obj
 0001:00015460       ?NMask@UnitInfo@@QAEEXZ    10016460 f   Economic.obj
 0001:00015470       ?NeedAmo@Warehouse@@QAEHH@Z 10016470 f   Economic.obj
 0001:000154b0       ?Next@ResourceList@@QAE_NXZ 100164b0 f   Economic.obj
 0001:000154d0       ?PayTax@Business@@QAEHH@Z  100164d0 f   Economic.obj
 0001:00015500       ?PerformCommand@Economic@@QAEXPADH@Z 10016500 f   Economic.obj
 0001:000157b0       ?Process@Barrack@@QAEXXZ   100167b0 f   Economic.obj
 0001:000157c0       ?Process@Carrier@@QAEXXZ   100167c0 f   Economic.obj
 0001:00015b20       ?Process@Economic@@QAEXXZ  10016b20 f   Economic.obj
 0001:00016060       ?Process@FormMovement@@QAEXXZ 10017060 f   Economic.obj
 0001:00016180       ?Process@Manufacture@@QAEXPAPAVWarehouse@@H@Z 10017180 f   Economic.obj
 0001:00016790       ?Process@TaxCollector@@QAEXPAPAVBusiness@@HPAV?$list@PAVTaxCollector@@V?$allocator@PAVTaxCollector@@@std@@@std@@@Z 10017790 f   Economic.obj
 0001:00016930       ?Process@Transport@@QAEXPAPAVWarehouse@@HPAV?$list@PAVTransport@@V?$allocator@PAVTransport@@@std@@@std@@@Z 10017930 f   Economic.obj
 0001:00016a40       ?Process@Village@@QAEXXZ   10017a40 f   Economic.obj
 0001:00016b70       ?Produce@Barrack@@QAEXXZ   10017b70 f   Economic.obj
 0001:00016be0       ?ProduceFast@Barrack@@QAE_NPAVThing@@PAUGAMEOBJ@@@Z 10017be0 f   Economic.obj
 0001:00016ce0       ?ProofPrice@Warehouse@@QAEXXZ 10017ce0 f   Economic.obj
 0001:00016dd0       ?ReadCP@UnitDescription@@QAE_NPAVGFILE@@@Z 10017dd0 f   Economic.obj
 0001:00016eb0       ?ReadCreate@ProduceList@@QAE_NPAVGFILE@@@Z 10017eb0 f   Economic.obj
 0001:00017130       ?ReadFromFile@ResourceList@@QAE_NPAVGFILE@@@Z 10018130 f   Economic.obj
 0001:000171e0       ?ReadPL@ProduceList@@QAE_NPAVGFILE@@@Z 100181e0 f   Economic.obj
 0001:00017270       ?ReadRL@UnitDescription@@QAE_NPAVGFILE@@PAD@Z 10018270 f   Economic.obj
 0001:00017440       ?ResearchMap@Economic@@QAEXXZ 10018440 f   Economic.obj
 0001:00017b30       ?ResearchMap@FormMovement@@QAEXXZ 10018b30 f   Economic.obj
 0001:00017c20       ?Sel@Business@@QAE_NPAV1@H@Z 10018c20 f   Economic.obj
 0001:00017c70       ?SetAmo@ResourceList@@QAEXH@Z 10018c70 f   Economic.obj
 0001:00017c80       ?SetAmo@ResourceList@@QAEXHH@Z 10018c80 f   Economic.obj
 0001:00017ca0       ?SetIndex@UnitInfo@@QAEXH@Z 10018ca0 f   Economic.obj
 0001:00017cc0       ?Show@Business@@UAEXXZ     10018cc0 f   Economic.obj
 0001:00017d20       ?Show@InterfaceOBJ@@SA_NG@Z 10018d20 f   Economic.obj
 0001:00017d50       ?Show@InterfaceOBJ@@UAEXXZ 10018d50 f   Economic.obj
 0001:00017d60       ?ShowParams@Manufacture@@QAEXXZ 10018d60 f   Economic.obj
 0001:00017e50       ?ShowParams@Transport@@QAEXXZ 10018e50 f   Economic.obj
 0001:00017fb0       ?ShowParams@Village@@QAEXXZ 10018fb0 f   Economic.obj
 0001:00018010       ?ShowParams@Warehouse@@QAEXXZ 10019010 f   Economic.obj
 0001:000181b0       ?StartProduce@Barrack@@QAE_NXZ 100191b0 f   Economic.obj
 0001:000182b0       ?This@Barrack@@QAEPAV1@XZ  100192b0 f   Economic.obj
 0001:000182c0       ?UnLoad@Bearer@@QAEXPAVBarrack@@@Z 100192c0 f   Economic.obj
 0001:00018360       ?UnLoad@Transport@@QAEXXZ  10019360 f   Economic.obj
 0001:00018420       ?UpdateCoord@MobileUnit@@QAEXXZ 10019420 f   Economic.obj
 0001:00018430       ?UpdateCoord@UnitInfo@@QAEXXZ 10019430 f   Economic.obj
 0001:00018440       ?_Change_array@?$vector@HV?$allocator@H@std@@@std@@AAEXQAHII@Z 10019440 f i Economic.obj
 0001:000184a0       ?_Tidy@?$vector@UCan_produse@@V?$allocator@UCan_produse@@@std@@@std@@AAEXXZ 100194a0 f i Economic.obj
 0001:00018510       ?_Tidy@?$vector@UNamedResourceList@@V?$allocator@UNamedResourceList@@@std@@@std@@AAEXXZ 10019510 f i Economic.obj
 0001:00018590       ?_Xlength@?$vector@HV?$allocator@H@std@@@std@@CAXXZ 10019590 f i Economic.obj
 0001:000185a0       ?_Xlength@?$vector@PAVBearer@@V?$allocator@PAVBearer@@@std@@@std@@CAXXZ 100195a0 f i Economic.obj
 0001:000185b0       ?_Xlength@?$vector@UCan_produse@@V?$allocator@UCan_produse@@@std@@@std@@CAXXZ 100195b0 f i Economic.obj
 0001:000185c0       ?_Xlength@?$vector@UNamedResourceList@@V?$allocator@UNamedResourceList@@@std@@@std@@CAXXZ 100195c0 f i Economic.obj
 0001:000185d0       ?_Xlength@?$vector@UResource@@V?$allocator@UResource@@@std@@@std@@CAXXZ 100195d0 f i Economic.obj
 0001:000185e0       ?_Xlength@?$vector@VFormation@@V?$allocator@VFormation@@@std@@@std@@CAXXZ 100195e0 f i Economic.obj
 0001:000185f0       ?_Xlength@?$vector@VThing@@V?$allocator@VThing@@@std@@@std@@CAXXZ 100195f0 f i Economic.obj
 0001:00018600       ?_Xlength@?$vector@VUnitDescription@@V?$allocator@VUnitDescription@@@std@@@std@@CAXXZ 10019600 f i Economic.obj
 0001:00018610       ?deallocate@?$allocator@UNamedResourceList@@@std@@QAEXQAUNamedResourceList@@I@Z 10019610 f i Economic.obj
 0001:00018650       ?deallocate@?$allocator@VFormation@@@std@@QAEXQAVFormation@@I@Z 10019650 f i Economic.obj
 0001:00018690       ?deallocate@?$allocator@VThing@@@std@@QAEXQAVThing@@I@Z 10019690 f i Economic.obj
 0001:000186d0       ?deallocate@?$allocator@VUnitDescription@@@std@@QAEXQAVUnitDescription@@I@Z 100196d0 f i Economic.obj
 0001:00018710       ?push_back@?$list@HV?$allocator@H@std@@@std@@QAEX$$QAH@Z 10019710 f i Economic.obj
 0001:000187a0       ?push_back@?$list@HV?$allocator@H@std@@@std@@QAEXABH@Z 100197a0 f i Economic.obj
 0001:00018830       _fprintf                   10019830 f i Economic.obj
 0001:00018860       ??$_Copy_memmove@PAPAUActiveArmy@@PAPAU1@@std@@YAPAPAUActiveArmy@@PAPAU1@00@Z 10019860 f i Mind.obj
 0001:00018890       ??$_Copy_memmove@PAPAVSquad@@PAPAV1@@std@@YAPAPAVSquad@@PAPAV1@00@Z 10019890 f i Mind.obj
 0001:000188c0       ??$_Emplace_reallocate@ABQAUActiveArmy@@@?$vector@PAUActiveArmy@@V?$allocator@PAUActiveArmy@@@std@@@std@@AAEPAPAUActiveArmy@@QAPAU2@ABQAU2@@Z 100198c0 f i Mind.obj
 0001:00018a10       ??$_Emplace_reallocate@ABQAVSquad@@@?$vector@PAVSquad@@V?$allocator@PAVSquad@@@std@@@std@@AAEPAPAVSquad@@QAPAV2@ABQAV2@@Z 10019a10 f i Mind.obj
 0001:00018b60       ??$_Push_heap_by_index@PAPAUActiveArmy@@PAU1@VGreatAA@@@std@@YAXPAPAUActiveArmy@@HH$$QAPAU1@VGreatAA@@@Z 10019b60 f i Mind.obj
 0001:00018bc0       ??$_Push_heap_by_index@PAPAVSquad@@PAV1@VGreatSQD@@@std@@YAXPAPAVSquad@@HH$$QAPAV1@VGreatSQD@@@Z 10019bc0 f i Mind.obj
 0001:00018c10       ??0Branch@@QAE@G@Z         10019c10 f   Mind.obj
 0001:00018c20       ??0Mind@@QAE@XZ            10019c20 f   Mind.obj
 0001:00018c30       ??0Weapon@@QAE@G@Z         10019c30 f   Mind.obj
 0001:00018c40       ??1?$priority_queue@PAUActiveArmy@@V?$vector@PAUActiveArmy@@V?$allocator@PAUActiveArmy@@@std@@@std@@VGreatAA@@@std@@QAE@XZ 10019c40 f i Mind.obj
 0001:00018ca0       ??1?$priority_queue@PAVSquad@@V?$vector@PAVSquad@@V?$allocator@PAVSquad@@@std@@@std@@VGreatSQD@@@std@@QAE@XZ 10019ca0 f i Mind.obj
 0001:00018d00       ??1Mind@@QAE@XZ            10019d00 f   Mind.obj
 0001:00018d40       ?ActivateArmy@Mind@@QAEXPAUActiveArmy@@H@Z 10019d40 f   Mind.obj
 0001:00019220       ?ActivateMind@@YAXEH@Z     1001a220 f   Mind.obj
 0001:00019250       ?AddSquad@Mind@@QAEGGG@Z   1001a250 f   Mind.obj
 0001:000192e0       ?Clear@ActiveArmy@@QAEXH@Z 1001a2e0 f   Mind.obj
 0001:00019340       ?Clear@Mind@@QAEXXZ        1001a340 f   Mind.obj
 0001:00019380       ?ClearMindData@@YAXXZ      1001a380 f   Mind.obj
 0001:000193a0       ?CloseMind@@YAXXZ          1001a3a0 f   Mind.obj
 0001:000193b0       ?DeactivateMind@@YAXE@Z    1001a3b0 f   Mind.obj
 0001:000193e0       ?FindStepToObject@@YAHHPAFPAG1@Z 1001a3e0 f   Mind.obj
 0001:00019410       ?FindTargetZone@Squad@@QAE_NPAFPAGAAG22@Z 1001a410 f   Mind.obj
 0001:000194c0       ?Free@Mind@@QAEXXZ         1001a4c0 f   Mind.obj
 0001:000194e0       ?GetArmyActorPower@Mind@@QAEHPAUActiveArmy@@@Z 1001a4e0 f   Mind.obj
 0001:00019570       ?GetArmyMap@@YAXPAH0PAUActiveArmy@@AAH@Z 1001a570 f   Mind.obj
 0001:00019850       ?GetArmyMap@@YAXPAUEnemy@@PAGPAF@Z 1001a850 f   Mind.obj
 0001:00019b50       ?GlobalAttack@Mind@@QAEXXZ 1001ab50 f   Mind.obj
 0001:00019ba0       ?Init@Mind@@QAEXEH@Z       1001aba0 f   Mind.obj
 0001:0001a1a0       ?LoadMindData@@YAXPAEH@Z   1001b1a0 f   Mind.obj
 0001:0001a1b0       ?MarkArmy@Mind@@QAEXXZ     1001b1b0 f   Mind.obj
 0001:0001a230       ?MindCheats@@YAXEPAD@Z     1001b230 f   Mind.obj
 0001:0001a5d0       ?MoveToTop@Squad@@QAEXPAF@Z 1001b5d0 f   Mind.obj
 0001:0001a9c0       ?Process0@Mind@@QAEXXZ     1001b9c0 f   Mind.obj
 0001:0001aa20       ?Process1@Mind@@QAEXXZ     1001ba20 f   Mind.obj
 0001:0001b400       ?Process2@Mind@@QAEXXZ     1001c400 f   Mind.obj
 0001:0001b7d0       ?Process3@Mind@@QAEXXZ     1001c7d0 f   Mind.obj
 0001:0001b850       ?Process@Mind@@QAEXXZ      1001c850 f   Mind.obj
 0001:0001b970       ?ProcessCannons@Mind@@QAEXH@Z 1001c970 f   Mind.obj
 0001:0001c740       ?RefreshSquadInfo@Mind@@QAEXXZ 1001d740 f   Mind.obj
 0001:0001c850       ?SaveMindData@@YAXPAPAEPAH@Z 1001d850 f   Mind.obj
 0001:0001c860       ?SetGameGoals@Mind@@QAEHXZ 1001d860 f   Mind.obj
 0001:0001c980       ?SetLink0@Mind@@QAEXXZ     1001d980 f   Mind.obj
 0001:0001cf50       ?ShowWay@@YAXPADPAGH@Z     1001df50 f   Mind.obj
 0001:0001cff0       ?_Xlength@?$vector@PAUActiveArmy@@V?$allocator@PAUActiveArmy@@@std@@@std@@CAXXZ 1001dff0 f i Mind.obj
 0001:0001d000       ?_Xlength@?$vector@PAVSquad@@V?$allocator@PAVSquad@@@std@@@std@@CAXXZ 1001e000 f i Mind.obj
 0001:0001d010       ??0CPlayerScript@@QAE@XZ   1001e010 f i Script.obj
 0001:0001d030       ??1CPlayerScript@@QAE@XZ   1001e030 f i Script.obj
 0001:0001d090       ?AddProtect@CPlayerScript@@QAE_NG@Z 1001e090 f   Script.obj
 0001:0001d0d0       ?LoadScript@@YAXXZ         1001e0d0 f   Script.obj
 0001:0001d531       ?_ExMalloc@@YAPAXH@Z       1001e531 f   dmcr:dmcr.exe
 0001:0001d537       ?_ExFree@@YAXPAX@Z         1001e537 f   dmcr:dmcr.exe
 0001:0001d53d       ?_ExRealloc@@YAPAXPAXH@Z   1001e53d f   dmcr:dmcr.exe
 0001:0001d543       ?GetTextByID@@YAPADPAD@Z   1001e543 f   dmcr:dmcr.exe
 0001:0001d549       _ShowVictory               1001e549 f   dmcr:dmcr.exe
 0001:0001d54f       _LooseGame                 1001e54f f   dmcr:dmcr.exe
 0001:0001d555       _GetResource               1001e555 f   dmcr:dmcr.exe
 0001:0001d55b       _AddResource               1001e55b f   dmcr:dmcr.exe
 0001:0001d561       _GetMyNation               1001e561 f   dmcr:dmcr.exe
 0001:0001d567       _GetUnitIcon               1001e567 f   dmcr:dmcr.exe
 0001:0001d56d       ?GetMaxObject@@YAHXZ       1001e56d f   dmcr:dmcr.exe
 0001:0001d573       _GetOBJ                    1001e573 f   dmcr:dmcr.exe
 0001:0001d579       ?SetObservMode@@YAXXZ      1001e579 f   dmcr:dmcr.exe
 0001:0001d57f       ?SetNormalMode@@YAXXZ      1001e57f f   dmcr:dmcr.exe
 0001:0001d585       ?ShowFogOfWar@@YAXXZ       1001e585 f   dmcr:dmcr.exe
 0001:0001d58b       ?GetNMon@@YAHE@Z           1001e58b f   dmcr:dmcr.exe
 0001:0001d591       ?GetPressentMonsters@@YAXEPAH@Z 1001e591 f   dmcr:dmcr.exe
 0001:0001d597       ?GetListOfUpgradesForMon_Old@@YAXEGPAGHAAH@Z 1001e597 f   dmcr:dmcr.exe
 0001:0001d59d       ?GetNUpgrades@@YAHE@Z      1001e59d f   dmcr:dmcr.exe
 0001:0001d5a3       ?GetUnitMessage@@YAPADG@Z  1001e5a3 f   dmcr:dmcr.exe
 0001:0001d5a9       ?GetUnitGPName@@YAPADGAAH0@Z 1001e5a9 f   dmcr:dmcr.exe
 0001:0001d5af       ?GetAttackNFrame@@YAHGG@Z  1001e5af f   dmcr:dmcr.exe
 0001:0001d5b5       ?GetUpgradeIcon@@YAHG@Z    1001e5b5 f   dmcr:dmcr.exe
 0001:0001d5bb       ?GetUpgHint@@YA_NEGPAD@Z   1001e5bb f   dmcr:dmcr.exe
 0001:0001d5c1       _InitialUpgradeNew         1001e5c1 f   dmcr:dmcr.exe
 0001:0001d5c7       ?GetUpgCost@@YAXEGAAPAG@Z  1001e5c7 f   dmcr:dmcr.exe
 0001:0001d5cd       ?CloseDipDialog@@YAXXZ     1001e5cd f   dmcr:dmcr.exe
 0001:0001d5d3       ?GetUpgLevel@@YAHG@Z       1001e5d3 f   dmcr:dmcr.exe
 0001:0001d5d9       ?GetPlayerName@@YAPADE@Z   1001e5d9 f   dmcr:dmcr.exe
 0001:0001d5df       ?GetPlayerColor@@YAEG@Z    1001e5df f   dmcr:dmcr.exe
 0001:0001d5e5       ?GetMyPlayerColor@@YAEXZ   1001e5e5 f   dmcr:dmcr.exe
 0001:0001d5eb       ?GetMyPlayerID@@YAEXZ      1001e5eb f   dmcr:dmcr.exe
 0001:0001d5f1       ?GetMainChar@@YAHEGPAUSMainChar@@@Z 1001e5f1 f   dmcr:dmcr.exe
 0001:0001d5f7       ?GetWeaponIcon@@YAGG@Z     1001e5f7 f   dmcr:dmcr.exe
 0001:0001d5fd       ?GetProtectIcon@@YAGG@Z    1001e5fd f   dmcr:dmcr.exe
 0001:0001d603       ?DetCannon@@YA_NG@Z        1001e603 f   dmcr:dmcr.exe
 0001:0001d609       ?DetSheep@@YA_NG@Z         1001e609 f   dmcr:dmcr.exe
 0001:0001d60f       ?GetNewUpg@@YAPAVNewUpgrade@@EG@Z 1001e60f f   dmcr:dmcr.exe
 0001:0001d615       ?SetDipDlgDX@@YAXH@Z       1001e615 f   dmcr:dmcr.exe
 0001:0001d61b       ?ActivateDipDialog@@YAXPAD@Z 1001e61b f   dmcr:dmcr.exe
 0001:0001d621       ?SendDipCommand@@YAXPADH@Z 1001e621 f   dmcr:dmcr.exe
 0001:0001d627       ?SetInfoStyle@@YAXEH@Z     1001e627 f   dmcr:dmcr.exe
 0001:0001d62d       ?Ggetch@@YAHPAVGFILE@@@Z   1001e62d f   dmcr:dmcr.exe
 0001:0001d633       _GetMaxAttRadius           1001e633 f   dmcr:dmcr.exe
 0001:0001d639       _RegisterUnits             1001e639 f   dmcr:dmcr.exe
 0001:0001d63f       _RegisterZone              1001e63f f   dmcr:dmcr.exe
 0001:0001d645       _RegisterFormation         1001e645 f   dmcr:dmcr.exe
 0001:0001d64b       _GetTotalAmount0           1001e64b f   dmcr:dmcr.exe
 0001:0001d651       _GetTotalAmount1           1001e651 f   dmcr:dmcr.exe
 0001:0001d657       _CreateObject0             1001e657 f   dmcr:dmcr.exe
 0001:0001d65d       _SetResource               1001e65d f   dmcr:dmcr.exe
 0001:0001d663       _GetGlobalTime             1001e663 f   dmcr:dmcr.exe
 0001:0001d669       _RegisterDynGroupEx        1001e669 f   dmcr:dmcr.exe
 0001:0001d66f       _GetNUnits                 1001e66f f   dmcr:dmcr.exe
 0001:0001d675       _GetUnitInfo               1001e675 f   dmcr:dmcr.exe
 0001:0001d67b       _RemoveGroup               1001e67b f   dmcr:dmcr.exe
 0001:0001d681       _GetDiff                   1001e681 f   dmcr:dmcr.exe
 0001:0001d687       _OBJ_SendTo                1001e687 f   dmcr:dmcr.exe
 0001:0001d68d       _OBJ_SmartSendTo           1001e68d f   dmcr:dmcr.exe
 0001:0001d693       _GetRND                    1001e693 f   dmcr:dmcr.exe
 0001:0001d699       _CheckIfBuildingIsFired    1001e699 f   dmcr:dmcr.exe
 0001:0001d69f       _GetGroupCharge            1001e69f f   dmcr:dmcr.exe
 0001:0001d6a5       _FilterUnitsByCategory     1001e6a5 f   dmcr:dmcr.exe
 0001:0001d6ab       _CreateNonFiredEnemyBuildingsTopList 1001e6ab f   dmcr:dmcr.exe
 0001:0001d6b1       _CreateTopListForStorm     1001e6b1 f   dmcr:dmcr.exe
 0001:0001d6b7       _CreateTopListForStormHard 1001e6b7 f   dmcr:dmcr.exe
 0001:0001d6bd       _FindNextZoneOnTheSafeWayToObject 1001e6bd f   dmcr:dmcr.exe
 0001:0001d6c3       _FindNextZoneOnTheSafeWay  1001e6c3 f   dmcr:dmcr.exe
 0001:0001d6c9       _FindNextZoneOnTheSafeWayToLimitedObject 1001e6c9 f   dmcr:dmcr.exe
 0001:0001d6cf       _CheckIfNotBusy            1001e6cf f   dmcr:dmcr.exe
 0001:0001d6d5       _GetGrpCenter              1001e6d5 f   dmcr:dmcr.exe
 0001:0001d6db       _CreateDangerMap           1001e6db f   dmcr:dmcr.exe
 0001:0001d6e1       _CreateDangerMapForStorm   1001e6e1 f   dmcr:dmcr.exe
 0001:0001d6e7       _CreateDangerMapForStormHard 1001e6e7 f   dmcr:dmcr.exe
 0001:0001d6ed       _CreateDangerMapForFire    1001e6ed f   dmcr:dmcr.exe
 0001:0001d6f3       _GetNZones                 1001e6f3 f   dmcr:dmcr.exe
 0001:0001d6f9       _GetTopDist                1001e6f9 f   dmcr:dmcr.exe
 0001:0001d6ff       _SGP_MakeOneStepTo         1001e6ff f   dmcr:dmcr.exe
 0001:0001d705       _SGP_MoveToPoint           1001e705 f   dmcr:dmcr.exe
 0001:0001d70b       _SGP_ComeIntoBuilding      1001e70b f   dmcr:dmcr.exe
 0001:0001d711       _CopyUnits                 1001e711 f   dmcr:dmcr.exe
 0001:0001d717       _RemoveAttackingUnits      1001e717 f   dmcr:dmcr.exe
 0001:0001d71d       _GetTargetObject           1001e71d f   dmcr:dmcr.exe
 0001:0001d723       _GetTopZone                1001e723 f   dmcr:dmcr.exe
 0001:0001d729       _GrpAttackObject           1001e729 f   dmcr:dmcr.exe
 0001:0001d72f       _GetTopZRealCoor           1001e72f f   dmcr:dmcr.exe
 0001:0001d735       _GetListOfNearZones        1001e735 f   dmcr:dmcr.exe
 0001:0001d73b       _GetZonesDist              1001e73b f   dmcr:dmcr.exe
 0001:0001d741       _CreateDangerMapWithoutPeasants 1001e741 f   dmcr:dmcr.exe
 0001:0001d747       _CreateDangerMapForTom     1001e747 f   dmcr:dmcr.exe
 0001:0001d74d       _AttackEnemyPeasantsInZone 1001e74d f   dmcr:dmcr.exe
 0001:0001d753       _CreatePeasantsTopList     1001e753 f   dmcr:dmcr.exe
 0001:0001d759       _CreateTopListEnArmy       1001e759 f   dmcr:dmcr.exe
 0001:0001d75f       _SetUnitsState             1001e75f f   dmcr:dmcr.exe
 0001:0001d765       _GetZoneCoor               1001e765 f   dmcr:dmcr.exe
 0001:0001d76b       _InviteUnitIntoBuilding    1001e76b f   dmcr:dmcr.exe
 0001:0001d771       _GetAmountOfGroups         1001e771 f   dmcr:dmcr.exe
 0001:0001d777       _GetGroupName              1001e777 f   dmcr:dmcr.exe
 0001:0001d77d       _GetUnitGlobalInfo         1001e77d f   dmcr:dmcr.exe
 0001:0001d783       _DeleteUnitFromGroup       1001e783 f   dmcr:dmcr.exe
 0001:0001d789       _CleanGroup                1001e789 f   dmcr:dmcr.exe
 0001:0001d78f       _DeleteHiddenUnits         1001e78f f   dmcr:dmcr.exe
 0001:0001d795       _GetEnemyForce             1001e795 f   dmcr:dmcr.exe
 0001:0001d79b       _GetAlliesForce            1001e79b f   dmcr:dmcr.exe
 0001:0001d7a1       _CreateFriendBuildingsTopList 1001e7a1 f   dmcr:dmcr.exe
 0001:0001d7a7       _GetGroupForce             1001e7a7 f   dmcr:dmcr.exe
 0001:0001d7ad       _AttackByTomahawks         1001e7ad f   dmcr:dmcr.exe
 0001:0001d7b3       _AttackEnemyInZone2        1001e7b3 f   dmcr:dmcr.exe
 0001:0001d7b9       _MakeOneShotToBuild        1001e7b9 f   dmcr:dmcr.exe
 0001:0001d7bf       _ArtAttackGroud            1001e7bf f   dmcr:dmcr.exe
 0001:0001d7c5       _ArtAttackObject           1001e7c5 f   dmcr:dmcr.exe
 0001:0001d7cb       _GetLastFullWay            1001e7cb f   dmcr:dmcr.exe
 0001:0001d7d1       _SetDangerMap              1001e7d1 f   dmcr:dmcr.exe
 0001:0001d7d7       _DieUnit                   1001e7d7 f   dmcr:dmcr.exe
 0001:0001d7dd       _SetToInternalResourcesZero 1001e7dd f   dmcr:dmcr.exe
 0001:0001d7e3       _RemoveNearestUnit         1001e7e3 f   dmcr:dmcr.exe
 0001:0001d7e9       _GetBuildingEntryPoint     1001e7e9 f   dmcr:dmcr.exe
 0001:0001d7ef       _GetBuildingOposit         1001e7ef f   dmcr:dmcr.exe
 0001:0001d7f5       _isUnitAbsorber            1001e7f5 f   dmcr:dmcr.exe
 0001:0001d7fb       _CheckLandLocking          1001e7fb f   dmcr:dmcr.exe
 0001:0001d801       ?DetArcher@@YA_NG@Z        1001e801 f   dmcr:dmcr.exe
 0001:0001d807       _SetStartPoint             1001e807 f   dmcr:dmcr.exe
 0001:0001d80d       _UnitsCenter               1001e80d f   dmcr:dmcr.exe
 0001:0001d813       ?RReset@@YAPAXPBD@Z        1001e813 f   dmcr:dmcr.exe
 0001:0001d819       ?RFileSize@@YAKPAX@Z       1001e819 f   dmcr:dmcr.exe
 0001:0001d81f       ?RBlockRead@@YAKPAX0K@Z    1001e81f f   dmcr:dmcr.exe
 0001:0001d825       ?RClose@@YAXPAX@Z          1001e825 f   dmcr:dmcr.exe
 0001:0001d82b       ?Gopen@@YAPAVGFILE@@PAD0@Z 1001e82b f   dmcr:dmcr.exe
 0001:0001d831       ?Gclose@@YAXPAVGFILE@@@Z   1001e831 f   dmcr:dmcr.exe
 0001:0001d837       _RegisterUnitType          1001e837 f   dmcr:dmcr.exe
 0001:0001d83d       _SelectUnits               1001e83d f   dmcr:dmcr.exe
 0001:0001d843       _SelChangeNation           1001e843 f   dmcr:dmcr.exe
 0001:0001d849       _ProduceUnitFast           1001e849 f   dmcr:dmcr.exe
 0001:0001d84f       _SetUnitInfo               1001e84f f   dmcr:dmcr.exe
 0001:0001d855       _MissErrorMessage          1001e855 f   dmcr:dmcr.exe
 0001:0001d85b       _SetGroupNMASK             1001e85b f   dmcr:dmcr.exe
 0001:0001d861       _EraseGroup                1001e861 f   dmcr:dmcr.exe
 0001:0001d867       _GetNatNMASK               1001e867 f   dmcr:dmcr.exe
 0001:0001d86d       _SetGroupStartNMASK        1001e86d f   dmcr:dmcr.exe
 0001:0001d873       _GetTSin                   1001e873 f   dmcr:dmcr.exe
 0001:0001d879       _GetTCos                   1001e879 f   dmcr:dmcr.exe
 0001:0001d87f       _GetZoneR                  1001e87f f   dmcr:dmcr.exe
 0001:0001d885       _GetMoneyString            1001e885 f   dmcr:dmcr.exe
 0001:0001d88b       _AddUnitsInZoneToGroup     1001e88b f   dmcr:dmcr.exe
 0001:0001d891       _SGP_RepairBuilding        1001e891 f   dmcr:dmcr.exe
 0001:0001d897       _GetInsideList             1001e897 f   dmcr:dmcr.exe
 0001:0001d89d       _ChangeUnitColor           1001e89d f   dmcr:dmcr.exe
 0001:0001d8a3       _SetAI_Guard               1001e8a3 f   dmcr:dmcr.exe
 0001:0001d8a9       ?AssignHint@@YAXPADH@Z     1001e8a9 f   dmcr:dmcr.exe
 0001:0001d8af       ?RRewrite@@YAPAXPBD@Z      1001e8af f   dmcr:dmcr.exe
 0001:0001d8b5       ?RBlockWrite@@YAKPAX0K@Z   1001e8b5 f   dmcr:dmcr.exe
 0001:0001d8bb       ?Close@GFILE@@QAEXXZ       1001e8bb f   dmcr:dmcr.exe
 0001:0001d8c1       _GetUnitsByNation          1001e8c1 f   dmcr:dmcr.exe
 0001:0001d8c7       _SaveSelectedUnits         1001e8c7 f   dmcr:dmcr.exe
 0001:0001d8cd       _InsertUnitToGroup         1001e8cd f   dmcr:dmcr.exe
 0001:0001d8d3       _ClearGroup                1001e8d3 f   dmcr:dmcr.exe
 0001:0001d8d9       ?AssignHint1@@YAXPADH@Z    1001e8d9 f   dmcr:dmcr.exe
 0001:0001d8df       _CreateFormation           1001e8df f   dmcr:dmcr.exe
 0001:0001d8e5       _SetInterfaceCallback      1001e8e5 f   dmcr:dmcr.exe
 0001:0001d8eb       ?ActivateCMLInterface@@YAXHPAD@Z 1001e8eb f   dmcr:dmcr.exe
 0001:0001d8f1       ?DrawCMLInterface@@YAXH@Z  1001e8f1 f   dmcr:dmcr.exe
 0001:0001d8f7       _ClearSelection            1001e8f7 f   dmcr:dmcr.exe
 0001:0001d8fd       _SetPlayerName             1001e8fd f   dmcr:dmcr.exe
 0001:0001d903       _OBJ_AttackObj             1001e903 f   dmcr:dmcr.exe
 0001:0001d909       _GetNextZone               1001e909 f   dmcr:dmcr.exe
 0001:0001d90f       _SetUnitsCollector         1001e90f f   dmcr:dmcr.exe
 0001:0001d915       ?GetEnemyTopInfo@@YAXEPAH00@Z 1001e915 f   dmcr:dmcr.exe
 0001:0001d91b       ?CreateAGroup@@YAXEPAD@Z   1001e91b f   dmcr:dmcr.exe
 0001:0001d921       ?CreateAZone@@YAXPADHHH@Z  1001e921 f   dmcr:dmcr.exe
 0001:0001d927       ?ClearAZones@@YAXXZ        1001e927 f   dmcr:dmcr.exe
 0001:0001d92d       ?CreateArmyInfo@@YAXEPAH0H@Z 1001e92d f   dmcr:dmcr.exe
 0001:0001d933       ?GetGroupPower@@YAJPAUGAMEOBJ@@@Z 1001e933 f   dmcr:dmcr.exe
 0001:0001d939       ?SetMapOfShooters@@YAXEPAH0@Z 1001e939 f   dmcr:dmcr.exe
 0001:0001d93f       ?DetPeasant@@YA_NG@Z       1001e93f f   dmcr:dmcr.exe
 0001:0001d945       ?DetAbsorbeAbility@@YA_NGG@Z 1001e945 f   dmcr:dmcr.exe
 0001:0001d94b       ?EraseBrig@@YAXEG@Z        1001e94b f   dmcr:dmcr.exe
 0001:0001d951       ?GetUnitsGroup@@YAPAVUnitsGroup@@PAUGAMEOBJ@@@Z 1001e951 f   dmcr:dmcr.exe
 0001:0001d957       ?AddEnemyCaptBuildTopList@@YA_NPAGE@Z 1001e957 f   dmcr:dmcr.exe
 0001:0001d95d       ?AddEnemyCenterTopList@@YA_NPAGE@Z 1001e95d f   dmcr:dmcr.exe
 0001:0001d963       ?CreateDangerMapBattle@@YAXEPAHH0H@Z 1001e963 f   dmcr:dmcr.exe
 0001:0001d969       _CreateTopListEnArmyBtl    1001e969 f   dmcr:dmcr.exe
 0001:0001d96f       ?getDir@@YAGHH@Z           1001e96f f   dmcr:dmcr.exe
 0001:0001d975       _OBJ_GoToMine              1001e975 f   dmcr:dmcr.exe
 0001:0001d97b       _SetBuildingsCollector     1001e97b f   dmcr:dmcr.exe
 0001:0001d981       _AddOneUnitToGroup         1001e981 f   dmcr:dmcr.exe
 0001:0001d987       ?DetectAbsorber@@YA_NG@Z   1001e987 f   dmcr:dmcr.exe
 0001:0001d98d       ?DetShoot@@YA_NG@Z         1001e98d f   dmcr:dmcr.exe
 0001:0001d993       _RegisterUpgrade           1001e993 f   dmcr:dmcr.exe
 0001:0001d999       ?GetCurMissionMapName@@YAPADXZ 1001e999 f   dmcr:dmcr.exe
 0001:0001d99f       ?GetBattleArmyValue@@YAPAEXZ 1001e99f f   dmcr:dmcr.exe
 0001:0001d9a5       _SXP_SetVar                1001e9a5 f   intExplorer:IntExplorer.dll
 0001:0001d9ab       _SXP_GetVar                1001e9ab f   intExplorer:IntExplorer.dll
 0001:0001d9b1       _GetTickCount@0            1001e9b1 f   kernel32:KERNEL32.dll
 0001:0001d9b7       _MessageBoxA@16            1001e9b7 f   user32:USER32.dll
 0001:0001d9bd       ___raise_securityfailure   1001e9bd f   LIBCMT:gs_report.obj
 0001:0001d9e5       ___report_gsfailure        1001e9e5 f   LIBCMT:gs_report.obj
 0001:0001dadf       ___report_rangecheckfailure 1001eadf f   LIBCMT:gs_report.obj
 0001:0001daeb       ___report_securityfailure  1001eaeb f   LIBCMT:gs_report.obj
 0001:0001dbba       ___report_securityfailureEx 1001ebba f   LIBCMT:gs_report.obj
 0001:0001dccf       @__security_check_cookie@4 1001eccf f   LIBCMT:secchk.obj
 0001:0001dcdd       ??3@YAXPAXI@Z              1001ecdd f   LIBCMT:delete_scalar_size.obj
 0001:0001dceb       ?configure_argv@__scrt_narrow_argv_policy@@SAHXZ 1001eceb f i LIBCMT:utility.obj
 0001:0001dd3c       ?initialize_environment@__scrt_narrow_environment_policy@@SAHXZ 1001ed3c f i LIBCMT:utility.obj
 0001:0001dd74       _NtCurrentTeb              1001ed74 f i LIBCMT:utility.obj
 0001:0001dd7b       ___scrt_acquire_startup_lock 1001ed7b f   LIBCMT:utility.obj
 0001:0001ddad       ___scrt_dllmain_after_initialize_c 1001edad f   LIBCMT:utility.obj
 0001:0001ddd8       ___scrt_dllmain_before_initialize_c 1001edd8 f   LIBCMT:utility.obj
 0001:0001dde6       ___scrt_dllmain_crt_thread_attach 1001ede6 f   LIBCMT:utility.obj
 0001:0001de05       ___scrt_dllmain_crt_thread_detach 1001ee05 f   LIBCMT:utility.obj
 0001:0001de12       ___scrt_dllmain_exception_filter 1001ee12 f   LIBCMT:utility.obj
 0001:0001de46       ___scrt_dllmain_uninitialize_c 1001ee46 f   LIBCMT:utility.obj
 0001:0001de69       ___scrt_dllmain_uninitialize_critical 1001ee69 f   LIBCMT:utility.obj
 0001:0001de76       ___scrt_initialize_crt     1001ee76 f   LIBCMT:utility.obj
 0001:0001deaf       ___scrt_initialize_onexit_tables 1001eeaf f   LIBCMT:utility.obj
 0001:0001df36       ___scrt_is_nonwritable_in_current_image 1001ef36 f   LIBCMT:utility.obj
 0001:0001dfca       ___scrt_release_startup_lock 1001efca f   LIBCMT:utility.obj
 0001:0001dfe7       ___scrt_uninitialize_crt   1001efe7 f   LIBCMT:utility.obj
 0001:0001e00f       __onexit                   1001f00f f   LIBCMT:utility.obj
 0001:0001e03c       _at_quick_exit             1001f03c f   LIBCMT:utility.obj
 0001:0001e05f       _atexit                    1001f05f f   LIBCMT:utility.obj
 0001:0001e074       ??1type_info@@UAE@XZ       1001f074 f   LIBCMT:std_type_info_static.obj
 0001:0001e07b       ??_Etype_info@@UAEPAXI@Z   1001f07b f i LIBCMT:std_type_info_static.obj
 0001:0001e07b       ??_Gtype_info@@UAEPAXI@Z   1001f07b f i LIBCMT:std_type_info_static.obj
 0001:0001e0a0       __alloca_probe             1001f0a0 f   LIBCMT:chkstk.obj
 0001:0001e0a0       __chkstk                   1001f0a0 f   LIBCMT:chkstk.obj
 0001:0001e0cb       ??_L@YGXPAXIHP6EX0@Z1@Z    1001f0cb f   LIBCMT:ehvecctr.obj
 0001:0001e0d0       ??_L@YGXPAXIIP6EX0@Z1@Z    1001f0d0 f   LIBCMT:ehvecctr.obj
 0001:0001e144       ??_M@YGXPAXIHP6EX0@Z@Z     1001f144 f   LIBCMT:ehvecdtr.obj
 0001:0001e149       ??_M@YGXPAXIIP6EX0@Z@Z     1001f149 f   LIBCMT:ehvecdtr.obj
 0001:0001e1fd       ?__ArrayUnwind@@YGXPAXIIP6EX0@Z@Z 1001f1fd f   LIBCMT:ehvecdtr.obj
 0001:0001e5cd       __CRT_INIT@12              1001f5cd f   LIBCMT:dll_dllmain.obj
 0001:0001e5d6       __DllMainCRTStartup@12     1001f5d6 f   LIBCMT:dll_dllmain.obj
 0001:0001e5f9       ___isa_available_init      1001f5f9 f   LIBCMT:cpu_disp.obj
 0001:0001e7cd       __get_startup_argv_mode    1001f7cd f   LIBCMT:argv_mode.obj
 0001:0001e7d1       ___scrt_is_ucrt_dll_in_use 1001f7d1 f   LIBCMT:ucrt_detection.obj
 0001:0001e7dd       ___scrt_fastfail           1001f7dd f   LIBCMT:utility_desktop.obj
 0001:0001e8f2       ___scrt_get_show_window_mode 1001f8f2 f   LIBCMT:utility_desktop.obj
 0001:0001e923       ___scrt_initialize_mta     1001f923 f   LIBCMT:utility_desktop.obj
 0001:0001e928       ___scrt_initialize_winrt   1001f928 f   LIBCMT:utility_desktop.obj
 0001:0001e92b       ___scrt_is_managed_app     1001f92b f   LIBCMT:utility_desktop.obj
 0001:0001e96d       ___scrt_set_unhandled_exception_filter 1001f96d f   LIBCMT:utility_desktop.obj
 0001:0001e979       ___scrt_exe_initialize_mta 1001f979 f   LIBCMT:utility_desktop.obj
 0001:0001e979       ___scrt_stub_for_initialize_mta 1001f979 f   LIBCMT:utility_desktop.obj
 0001:0001e97c       ___scrt_unhandled_exception_filter@4 1001f97c f   LIBCMT:utility_desktop.obj
 0001:0001e9d2       __crt_debugger_hook        1001f9d2 f   LIBCMT:utility_desktop.obj
 0001:0001e9e0       __SEH_prolog4              1001f9e0 f   LIBCMT:sehprolg4.obj
 0001:0001ea30       __SEH_epilog4              1001fa30 f   LIBCMT:sehprolg4.obj
 0001:0001ea44       @_guard_check_icall_nop@4  1001fa44 f i LIBCMT:guard_support.obj
 0001:0001ea47       _ReadNoFence               1001fa47 f i LIBCMT:guard_support.obj
 0001:0001ea51       _ReadPointerNoFence        1001fa51 f i LIBCMT:guard_support.obj
 0001:0001ea5b       __InlineInterlockedExchangePointer 1001fa5b f i LIBCMT:guard_support.obj
 0001:0001ea68       ___castguard_check_failure_debugbreak 1001fa68 f i LIBCMT:guard_support.obj
 0001:0001ea83       ___castguard_check_failure_fastfail 1001fa83 f i LIBCMT:guard_support.obj
 0001:0001eaa2       ___castguard_check_failure_nop 1001faa2 f i LIBCMT:guard_support.obj
 0001:0001eaa5       ___castguard_check_failure_os_handled 1001faa5 f i LIBCMT:guard_support.obj
 0001:0001eadc       ___castguard_check_failure_user_handled 1001fadc f i LIBCMT:guard_support.obj
 0001:0001eb4a       ___castguard_set_user_handler 1001fb4a f i LIBCMT:guard_support.obj
 0001:0001eb59       ___castguard_slow_path_check_debugbreak 1001fb59 f i LIBCMT:guard_support.obj
 0001:0001eb86       ___castguard_slow_path_check_fastfail 1001fb86 f i LIBCMT:guard_support.obj
 0001:0001ebb7       ___castguard_slow_path_check_nop 1001fbb7 f i LIBCMT:guard_support.obj
 0001:0001ebba       ___castguard_slow_path_check_os_handled 1001fbba f i LIBCMT:guard_support.obj
 0001:0001ebf6       ___castguard_slow_path_check_user_handled 1001fbf6 f i LIBCMT:guard_support.obj
 0001:0001ec57       __guard_icall_checks_enforced 1001fc57 f i LIBCMT:guard_support.obj
 0001:0001ecb6       ___security_init_cookie    1001fcb6 f   LIBCMT:gs_support.obj
 0001:0001ed01       ?__scrt_initialize_type_info@@YAXXZ 1001fd01 f   LIBCMT:tncleanup.obj
 0001:0001ed0d       ?__scrt_uninitialize_type_info@@YAXXZ 1001fd0d f   LIBCMT:tncleanup.obj
 0001:0001ed19       ___scrt_initialize_default_local_stdio_options 1001fd19 f   LIBCMT:default_local_stdio_options.obj
 0001:0001ed36       ___scrt_get_dyn_tls_init_callback 1001fd36 f   LIBCMT:dyn_tls_init.obj
 0001:0001ed3c       __RTC_Initialize           1001fd3c f   LIBCMT:initsect.obj
 0001:0001ed68       __RTC_Terminate            1001fd68 f   LIBCMT:initsect.obj
 0001:0001ed94       ??0bad_alloc@std@@QAE@XZ   1001fd94 f i libcpmt:xthrow.obj
 0001:0001edac       ??0bad_function_call@std@@QAE@ABV01@@Z 1001fdac f i libcpmt:xthrow.obj
 0001:0001edc7       ??0bad_function_call@std@@QAE@XZ 1001fdc7 f i libcpmt:xthrow.obj
 0001:0001edd8       ??0exception@std@@QAE@QBD@Z 1001fdd8 f i libcpmt:xthrow.obj
 0001:0001ee0d       ??0exception@std@@QAE@QBDH@Z 1001fe0d f i libcpmt:xthrow.obj
 0001:0001ee2a       ??0exception@std@@QAE@XZ   1001fe2a f i libcpmt:xthrow.obj
 0001:0001ee3b       ??0invalid_argument@std@@QAE@ABV01@@Z 1001fe3b f i libcpmt:xthrow.obj
 0001:0001ee56       ??0invalid_argument@std@@QAE@PBD@Z 1001fe56 f i libcpmt:xthrow.obj
 0001:0001ee75       ??0length_error@std@@QAE@ABV01@@Z 1001fe75 f i libcpmt:xthrow.obj
 0001:0001ee90       ??0length_error@std@@QAE@PBD@Z 1001fe90 f i libcpmt:xthrow.obj
 0001:0001eeaf       ??0logic_error@std@@QAE@ABV01@@Z 1001feaf f i libcpmt:xthrow.obj
 0001:0001eeca       ??0logic_error@std@@QAE@PBD@Z 1001feca f i libcpmt:xthrow.obj
 0001:0001eee9       ??0out_of_range@std@@QAE@ABV01@@Z 1001fee9 f i libcpmt:xthrow.obj
 0001:0001ef04       ??0out_of_range@std@@QAE@PBD@Z 1001ff04 f i libcpmt:xthrow.obj
 0001:0001ef23       ??0overflow_error@std@@QAE@ABV01@@Z 1001ff23 f i libcpmt:xthrow.obj
 0001:0001ef3e       ??0overflow_error@std@@QAE@PBD@Z 1001ff3e f i libcpmt:xthrow.obj
 0001:0001ef5d       ??0regex_error@std@@QAE@ABV01@@Z 1001ff5d f i libcpmt:xthrow.obj
 0001:0001ef81       ??0regex_error@std@@QAE@W4error_type@regex_constants@1@@Z 1001ff81 f i libcpmt:xthrow.obj
 0001:0001efaf       ??0runtime_error@std@@QAE@ABV01@@Z 1001ffaf f i libcpmt:xthrow.obj
 0001:0001efca       ??0runtime_error@std@@QAE@PBD@Z 1001ffca f i libcpmt:xthrow.obj
 0001:0001efe9       ??1bad_alloc@std@@UAE@XZ   1001ffe9 f i libcpmt:xthrow.obj
 0001:0001effa       ??1bad_function_call@std@@UAE@XZ 1001fffa f i libcpmt:xthrow.obj
 0001:0001f00b       ??1invalid_argument@std@@UAE@XZ 1002000b f i libcpmt:xthrow.obj
 0001:0001f01c       ??1length_error@std@@UAE@XZ 1002001c f i libcpmt:xthrow.obj
 0001:0001f02d       ??1logic_error@std@@UAE@XZ 1002002d f i libcpmt:xthrow.obj
 0001:0001f03e       ??1out_of_range@std@@UAE@XZ 1002003e f i libcpmt:xthrow.obj
 0001:0001f04f       ??1overflow_error@std@@UAE@XZ 1002004f f i libcpmt:xthrow.obj
 0001:0001f060       ??1regex_error@std@@UAE@XZ 10020060 f i libcpmt:xthrow.obj
 0001:0001f071       ??1runtime_error@std@@UAE@XZ 10020071 f i libcpmt:xthrow.obj
 0001:0001f082       ??_Ebad_function_call@std@@UAEPAXI@Z 10020082 f i libcpmt:xthrow.obj
 0001:0001f082       ??_Gbad_function_call@std@@UAEPAXI@Z 10020082 f i libcpmt:xthrow.obj
 0001:0001f0af       ??_Einvalid_argument@std@@UAEPAXI@Z 100200af f i libcpmt:xthrow.obj
 0001:0001f0af       ??_Ginvalid_argument@std@@UAEPAXI@Z 100200af f i libcpmt:xthrow.obj
 0001:0001f0dc       ??_Elength_error@std@@UAEPAXI@Z 100200dc f i libcpmt:xthrow.obj
 0001:0001f0dc       ??_Glength_error@std@@UAEPAXI@Z 100200dc f i libcpmt:xthrow.obj
 0001:0001f109       ??_Elogic_error@std@@UAEPAXI@Z 10020109 f i libcpmt:xthrow.obj
 0001:0001f109       ??_Glogic_error@std@@UAEPAXI@Z 10020109 f i libcpmt:xthrow.obj
 0001:0001f136       ??_Eout_of_range@std@@UAEPAXI@Z 10020136 f i libcpmt:xthrow.obj
 0001:0001f136       ??_Gout_of_range@std@@UAEPAXI@Z 10020136 f i libcpmt:xthrow.obj
 0001:0001f163       ??_Eoverflow_error@std@@UAEPAXI@Z 10020163 f i libcpmt:xthrow.obj
 0001:0001f163       ??_Goverflow_error@std@@UAEPAXI@Z 10020163 f i libcpmt:xthrow.obj
 0001:0001f190       ??_Eregex_error@std@@UAEPAXI@Z 10020190 f i libcpmt:xthrow.obj
 0001:0001f190       ??_Gregex_error@std@@UAEPAXI@Z 10020190 f i libcpmt:xthrow.obj
 0001:0001f1bd       ??_Eruntime_error@std@@UAEPAXI@Z 100201bd f i libcpmt:xthrow.obj
 0001:0001f1bd       ??_Gruntime_error@std@@UAEPAXI@Z 100201bd f i libcpmt:xthrow.obj
 0001:0001f1ea       ?_Stringify@regex_error@std@@CAPBDW4error_type@regex_constants@2@@Z 100201ea f i libcpmt:xthrow.obj
 0001:0001f2aa       ?_Xbad_alloc@std@@YAXXZ    100202aa f   libcpmt:xthrow.obj
 0001:0001f2c7       ?_Xbad_function_call@std@@YAXXZ 100202c7 f   libcpmt:xthrow.obj
 0001:0001f2e4       ?_Xinvalid_argument@std@@YAXPBD@Z 100202e4 f   libcpmt:xthrow.obj
 0001:0001f304       ?_Xlength_error@std@@YAXPBD@Z 10020304 f   libcpmt:xthrow.obj
 0001:0001f324       ?_Xout_of_range@std@@YAXPBD@Z 10020324 f   libcpmt:xthrow.obj
 0001:0001f344       ?_Xoverflow_error@std@@YAXPBD@Z 10020344 f   libcpmt:xthrow.obj
 0001:0001f364       ?_Xregex_error@std@@YAXW4error_type@regex_constants@1@@Z 10020364 f   libcpmt:xthrow.obj
 0001:0001f384       ?_Xruntime_error@std@@YAXPBD@Z 10020384 f   libcpmt:xthrow.obj
 0001:0001f3a4       ?what@bad_function_call@std@@UBEPBDXZ 100203a4 f i libcpmt:xthrow.obj
 0001:0001f3aa       ??$?0AAViterator@TryBlockMap@__FrameHandler3@@AAV012@$0A@@?$pair@Viterator@TryBlockMap@__FrameHandler3@@V123@@std@@QAE@AAViterator@TryBlockMap@__FrameHandler3@@0@Z 100203aa f i libvcruntime:trnsctrl.obj
 0001:0001f3ce       ??$forward@AAViterator@TryBlockMap@__FrameHandler3@@@std@@YAAAViterator@TryBlockMap@__FrameHandler3@@AAV123@@Z 100203ce f i libvcruntime:trnsctrl.obj
 0001:0001f3d6       ??0iterator@TryBlockMap@__FrameHandler3@@QAE@AAV12@I@Z 100203d6 f i libvcruntime:trnsctrl.obj
 0001:0001f3ea       ?GetRangeOfTrysToCheck@__FrameHandler3@@SA?AU?$pair@Viterator@TryBlockMap@__FrameHandler3@@V123@@std@@AAVTryBlockMap@1@HPAXPBU_s_FuncInfo@@H@Z 100203ea f   libvcruntime:trnsctrl.obj
 0001:0001f459       ?_CallCatchBlock2@@YAPAXPAUEHRegistrationNode@@PBU_s_FuncInfo@@PAXHK@Z 10020459 f   libvcruntime:trnsctrl.obj
 0001:0001f4b6       ?_CallSETranslator@@YAHPAUEHExceptionRecord@@PAUEHRegistrationNode@@PAX2PBU_s_FuncInfo@@H1@Z 100204b6 f   libvcruntime:trnsctrl.obj
 0001:0001f5a6       ?_JumpToContinuation@@YGXPAXPAUEHRegistrationNode@@@Z 100205a6 f   libvcruntime:trnsctrl.obj
 0001:0001f5d6       ?_UnwindNestedFrames@@YGXPAUEHRegistrationNode@@PAUEHExceptionRecord@@@Z 100205d6 f   libvcruntime:trnsctrl.obj
 0001:0001f629       __CatchGuardHandler        10020629 f   libvcruntime:trnsctrl.obj
 0001:0001f65a       __CreateFrameInfo          1002065a f   libvcruntime:trnsctrl.obj
 0001:0001f67e       __FindAndUnlinkFrame       1002067e f   libvcruntime:trnsctrl.obj
 0001:0001f6c6       __TranslatorGuardHandler   100206c6 f   libvcruntime:trnsctrl.obj
 0001:0001f763       ___CxxFrameHandler         10020763 f   libvcruntime:trnsctrl.obj
 0001:0001f799       ___CxxFrameHandler2        10020799 f   libvcruntime:trnsctrl.obj
 0001:0001f7cf       ___CxxFrameHandler3        100207cf f   libvcruntime:trnsctrl.obj
 0001:0001f805       ___CxxLongjmpUnwind@4      10020805 f   libvcruntime:trnsctrl.obj
 0001:0001f830       _memcpy                    10020830 f   libvcruntime:memcpy.obj
 0001:0001fdb0       _memmove                   10020db0 f   libvcruntime:memmove.obj
 0001:00020330       _memset                    10021330 f   libvcruntime:memset.obj
 0001:0002048a       ??$?RD@__crt_public_free_policy@@QBEXQBD@Z 1002148a f i libvcruntime:std_exception.obj
 0001:0002049a       ??0?$__crt_unique_heap_ptr@DU__crt_public_free_policy@@@@QAE@QAD@Z 1002149a f i libvcruntime:std_exception.obj
 0001:000204a8       ??1?$__crt_unique_heap_ptr@DU__crt_public_free_policy@@@@QAE@XZ 100214a8 f i libvcruntime:std_exception.obj
 0001:000204b8       ??B?$__crt_unique_heap_ptr@DU__crt_public_free_policy@@@@QBE_NXZ 100214b8 f i libvcruntime:std_exception.obj
 0001:000204bf       ?detach@?$__crt_unique_heap_ptr@DU__crt_public_free_policy@@@@QAEPADXZ 100214bf f i libvcruntime:std_exception.obj
 0001:000204c5       ?get@?$__crt_unique_heap_ptr@DU__crt_public_free_policy@@@@QBEPADXZ 100214c5 f i libvcruntime:std_exception.obj
 0001:000204c8       ?is_valid@?$__crt_unique_heap_ptr@DU__crt_public_free_policy@@@@QBE_NXZ 100214c8 f i libvcruntime:std_exception.obj
 0001:000204cf       ?release@?$__crt_unique_heap_ptr@DU__crt_public_free_policy@@@@QAEXXZ 100214cf f i libvcruntime:std_exception.obj
 0001:000204df       ___std_exception_copy      100214df f   libvcruntime:std_exception.obj
 0001:00020542       ___std_exception_destroy   10021542 f   libvcruntime:std_exception.obj
 0001:00020561       __CxxThrowException@8      10021561 f   libvcruntime:throw.obj
 0001:000205d0       _strstr                    100215d0 f   libvcruntime:strstr.obj
 0001:0002083b       ___vcrt_initialize         1002183b f   libvcruntime:initialization.obj
 0001:0002085a       ___vcrt_thread_attach      1002185a f   libvcruntime:initialization.obj
 0001:00020865       ___vcrt_thread_detach      10021865 f   libvcruntime:initialization.obj
 0001:0002086d       ___vcrt_uninitialize       1002186d f   libvcruntime:initialization.obj
 0001:00020884       ___vcrt_uninitialize_critical 10021884 f   libvcruntime:initialization.obj
 0001:000208d0       __except_handler4          100218d0 f   libvcruntime:chandler4.obj
 0001:00020a2e       ___DestructExceptionObject 10021a2e f   libvcruntime:ehhelpers.obj
 0001:00020acf       ?_CallMemberFunction0@@YGXQAX0@Z 10021acf f i libvcruntime:ehhelpers.obj
 0001:00020b34       ?raw_name@type_info@@QBEPBDXZ 10021b34 f i libvcruntime:ehhelpers.obj
 0001:00020b38       __IsExceptionObjectToBeDestroyed 10021b38 f   libvcruntime:ehhelpers.obj
 0001:00020b5e       __SetWinRTOutOfMemoryExceptionCallback 10021b5e f   libvcruntime:ehhelpers.obj
 0001:00020b6b       ___AdjustPointer           10021b6b f   libvcruntime:ehhelpers.obj
 0001:00020b90       ___FrameUnwindFilter       10021b90 f   libvcruntime:ehhelpers.obj
 0001:00020be6       ___GetPlatformExceptionInfo 10021be6 f   libvcruntime:ehhelpers.obj
 0001:00020c32       ___current_exception       10021c32 f   libvcruntime:ehhelpers.obj
 0001:00020c3b       ___current_exception_context 10021c3b f   libvcruntime:ehhelpers.obj
 0001:00020c44       ___processing_throw        10021c44 f   libvcruntime:ehhelpers.obj
 0001:00020c4d       ___std_terminate           10021c4d f   libvcruntime:ehhelpers.obj
 0001:00020c52       __is_exception_typeof      10021c52 f   libvcruntime:ehhelpers.obj
 0001:00020d04       ??$?RD@__crt_internal_free_policy@@QBEXQBD@Z 10021d04 f i libvcruntime:std_type_info.obj
 0001:00020d14       ??$?RX@__crt_internal_free_policy@@QBEXQBX@Z 10021d14 f i libvcruntime:std_type_info.obj
 0001:00020d24       ??$__crt_interlocked_compare_exchange_pointer@$$CBDPAD$$T@@YAPBDPDSBDQAD$$T@Z 10021d24 f i libvcruntime:std_type_info.obj
 0001:00020d36       ??$__crt_interlocked_read_pointer@$$CBD@@YAPBDPDSBD@Z 10021d36 f i libvcruntime:std_type_info.obj
 0001:00020d41       ??0?$__crt_unique_heap_ptr@DU__crt_internal_free_policy@@@@QAE@QAD@Z 10021d41 f i libvcruntime:std_type_info.obj
 0001:00020d4f       ??0?$__crt_unique_heap_ptr@XU__crt_internal_free_policy@@@@QAE@QAX@Z 10021d4f f i libvcruntime:std_type_info.obj
 0001:00020d5d       ??1?$__crt_unique_heap_ptr@DU__crt_internal_free_policy@@@@QAE@XZ 10021d5d f i libvcruntime:std_type_info.obj
 0001:00020d6d       ??1?$__crt_unique_heap_ptr@XU__crt_internal_free_policy@@@@QAE@XZ 10021d6d f i libvcruntime:std_type_info.obj
 0001:00020d7d       ??B?$__crt_unique_heap_ptr@DU__crt_internal_free_policy@@@@QBE_NXZ 10021d7d f i libvcruntime:std_type_info.obj
 0001:00020d84       ??B?$__crt_unique_heap_ptr@XU__crt_internal_free_policy@@@@QBE_NXZ 10021d84 f i libvcruntime:std_type_info.obj
 0001:00020dab       ?__crt_interlocked_read_32@@YAHPDH@Z 10021dab f i libvcruntime:std_type_info.obj
 0001:00020db6       ?detach@?$__crt_unique_heap_ptr@XU__crt_internal_free_policy@@@@QAEPAXXZ 10021db6 f i libvcruntime:std_type_info.obj
 0001:00020dbc       ?get@?$__crt_unique_heap_ptr@DU__crt_internal_free_policy@@@@QBEPADXZ 10021dbc f i libvcruntime:std_type_info.obj
 0001:00020dbf       ?get@?$__crt_unique_heap_ptr@XU__crt_internal_free_policy@@@@QBEPAXXZ 10021dbf f i libvcruntime:std_type_info.obj
 0001:00020dc2       ?is_valid@?$__crt_unique_heap_ptr@DU__crt_internal_free_policy@@@@QBE_NXZ 10021dc2 f i libvcruntime:std_type_info.obj
 0001:00020dc9       ?is_valid@?$__crt_unique_heap_ptr@XU__crt_internal_free_policy@@@@QBE_NXZ 10021dc9 f i libvcruntime:std_type_info.obj
 0001:00020dd0       ?release@?$__crt_unique_heap_ptr@DU__crt_internal_free_policy@@@@QAEXXZ 10021dd0 f i libvcruntime:std_type_info.obj
 0001:00020de0       ?release@?$__crt_unique_heap_ptr@XU__crt_internal_free_policy@@@@QAEXXZ 10021de0 f i libvcruntime:std_type_info.obj
 0001:00020df0       ___std_type_info_compare   10021df0 f   libvcruntime:std_type_info.obj
 0001:00020e2c       ___std_type_info_destroy_list 10021e2c f   libvcruntime:std_type_info.obj
 0001:00020e4f       ___std_type_info_hash      10021e4f f   libvcruntime:std_type_info.obj
 0001:00020e75       ___std_type_info_name      10021e75 f   libvcruntime:std_type_info.obj
 0001:00020f3b       ??$?RU__vcrt_ptd@@@__crt_internal_free_policy@@QBEXQBU__vcrt_ptd@@@Z 10021f3b f i libvcruntime:per_thread_data.obj
 0001:00020f4b       ??0?$__crt_unique_heap_ptr@U__vcrt_ptd@@U__crt_internal_free_policy@@@@QAE@QAU__vcrt_ptd@@@Z 10021f4b f i libvcruntime:per_thread_data.obj
 0001:00020f68       ??1?$__crt_unique_heap_ptr@U__vcrt_ptd@@U__crt_internal_free_policy@@@@QAE@XZ 10021f68 f i libvcruntime:per_thread_data.obj
 0001:00020f81       ??B?$__crt_unique_heap_ptr@U__vcrt_ptd@@U__crt_internal_free_policy@@@@QBE_NXZ 10021f81 f i libvcruntime:per_thread_data.obj
 0001:00020f88       ?detach@?$__crt_unique_heap_ptr@U__vcrt_ptd@@U__crt_internal_free_policy@@@@QAEPAU__vcrt_ptd@@XZ 10021f88 f i libvcruntime:per_thread_data.obj
 0001:00020f8e       ?get@?$__crt_unique_heap_ptr@U__vcrt_ptd@@U__crt_internal_free_policy@@@@QBEPAU__vcrt_ptd@@XZ 10021f8e f i libvcruntime:per_thread_data.obj
 0001:00020f91       ?is_valid@?$__crt_unique_heap_ptr@U__vcrt_ptd@@U__crt_internal_free_policy@@@@QBE_NXZ 10021f91 f i libvcruntime:per_thread_data.obj
 0001:00020f98       ?release@?$__crt_unique_heap_ptr@U__vcrt_ptd@@U__crt_internal_free_policy@@@@QAEXXZ 10021f98 f i libvcruntime:per_thread_data.obj
 0001:00020fc2       ___vcrt_freefls@4          10021fc2 f   libvcruntime:per_thread_data.obj
 0001:00020fde       ___vcrt_freeptd_for_this_thread 10021fde f   libvcruntime:per_thread_data.obj
 0001:00021009       ___vcrt_getptd             10022009 f   libvcruntime:per_thread_data.obj
 0001:00021017       ___vcrt_getptd_noexit      10022017 f   libvcruntime:per_thread_data.obj
 0001:000210a9       ___vcrt_getptd_noinit      100220a9 f   libvcruntime:per_thread_data.obj
 0001:000210e0       ___vcrt_initialize_ptd     100220e0 f   libvcruntime:per_thread_data.obj
 0001:00021113       ___vcrt_uninitialize_ptd   10022113 f   libvcruntime:per_thread_data.obj
 0001:00021860       ??$TypeMatchHelper@V__FrameHandler3@@@@YAHPBU_s_HandlerType@@PBU_s_CatchableType@@PBU_s_ThrowInfo@@@Z 10022860 f i libvcruntime:frame.obj
 0001:000218ee       ??$__InternalCxxFrameHandler@V__FrameHandler3@@@@YA?AW4_EXCEPTION_DISPOSITION@@PAUEHExceptionRecord@@PAUEHRegistrationNode@@PAU_CONTEXT@@PAXPBU_s_FuncInfo@@H1E@Z 100228ee f i libvcruntime:frame.obj
 0001:000219f0       ??$__InternalCxxFrameHandlerWrapper@V__FrameHandler3@@@@YA?AW4_EXCEPTION_DISPOSITION@@PAUEHExceptionRecord@@PAUEHRegistrationNode@@PAU_CONTEXT@@PAXPBU_s_FuncInfo@@H1E@Z 100229f0 f i libvcruntime:frame.obj
 0001:000219f9       ??0HandlerMap@__FrameHandler3@@QAE@PBU_s_TryBlockMapEntry@@II@Z 100229f9 f i libvcruntime:frame.obj
 0001:00021a10       ??0TryBlockMap@__FrameHandler3@@QAE@PBU_s_FuncInfo@@I@Z 10022a10 f i libvcruntime:frame.obj
 0001:00021a24       ??0bad_exception@std@@QAE@ABV01@@Z 10022a24 f i libvcruntime:frame.obj
 0001:00021a3f       ??0bad_exception@std@@QAE@XZ 10022a3f f i libvcruntime:frame.obj
 0001:00021a57       ??0iterator@HandlerMap@__FrameHandler3@@QAE@AAV12@I@Z 10022a57 f i libvcruntime:frame.obj
 0001:00021a6b       ??1bad_exception@std@@UAE@XZ 10022a6b f i libvcruntime:frame.obj
 0001:00021a7c       ??8iterator@HandlerMap@__FrameHandler3@@QBE_NABV012@@Z 10022a7c f i libvcruntime:frame.obj
 0001:00021a8f       ??8type_info@@QBE_NABV0@@Z 10022a8f f i libvcruntime:frame.obj
 0001:00021aae       ??9iterator@HandlerMap@__FrameHandler3@@QBE_NABV012@@Z 10022aae f i libvcruntime:frame.obj
 0001:00021ac1       ??Diterator@HandlerMap@__FrameHandler3@@QAE?BU_s_HandlerType@@XZ 10022ac1 f i libvcruntime:frame.obj
 0001:00021ae0       ??Diterator@TryBlockMap@__FrameHandler3@@QAE?BU_s_TryBlockMapEntry@@XZ 10022ae0 f i libvcruntime:frame.obj
 0001:00021b02       ??Eiterator@HandlerMap@__FrameHandler3@@QAEAAV012@XZ 10022b02 f i libvcruntime:frame.obj
 0001:00021b08       ??Eiterator@TryBlockMap@__FrameHandler3@@QAEAAV012@XZ 10022b08 f i libvcruntime:frame.obj
 0001:00021b0e       ??Miterator@TryBlockMap@__FrameHandler3@@QBE_NABV012@@Z 10022b0e f i libvcruntime:frame.obj
 0001:00021b21       ??_Ebad_exception@std@@UAEPAXI@Z 10022b21 f i libvcruntime:frame.obj
 0001:00021b21       ??_Gbad_exception@std@@UAEPAXI@Z 10022b21 f i libvcruntime:frame.obj
 0001:00021b4e       ?BuildCatchObject@__FrameHandler3@@SAXPAUEHExceptionRecord@@PAXPBU_s_HandlerType@@PBU_s_CatchableType@@@Z 10022b4e f   libvcruntime:frame.obj
 0001:00021b53       ?BuildCatchObjectHelper@__FrameHandler3@@SAHPAUEHExceptionRecord@@PAXPBU_s_HandlerType@@PBU_s_CatchableType@@@Z 10022b53 f   libvcruntime:frame.obj
 0001:00021db4       ?FrameUnwindToEmptyState@__FrameHandler3@@SAXPAUEHRegistrationNode@@PAXPBU_s_FuncInfo@@@Z 10022db4 f   libvcruntime:frame.obj
 0001:00021dcc       ?FrameUnwindToState@__FrameHandler3@@SAXPAUEHRegistrationNode@@PAXPBU_s_FuncInfo@@H@Z 10022dcc f   libvcruntime:frame.obj
 0001:00021eb4       ?GetMaxState@__FrameHandler3@@SAHPAXPBU_s_FuncInfo@@@Z 10022eb4 f i libvcruntime:frame.obj
 0001:00021f92       ?TypeMatch@__FrameHandler3@@SAHPBU_s_HandlerType@@PBU_s_CatchableType@@PBU_s_ThrowInfo@@@Z 10022f92 f   libvcruntime:frame.obj
 0001:00021f9b       ?_CallMemberFunction1@@YGXQAX00@Z 10022f9b f i libvcruntime:frame.obj
 0001:00021fab       ?_CallMemberFunction2@@YGXQAX00H@Z 10022fab f i libvcruntime:frame.obj
 0001:00021fbe       ?begin@HandlerMap@__FrameHandler3@@QAE?AViterator@12@XZ 10022fbe f i libvcruntime:frame.obj
 0001:00021fce       ?end@HandlerMap@__FrameHandler3@@QAE?AViterator@12@XZ 10022fce f i libvcruntime:frame.obj
 0001:00021fdf       ?getESTypes@__FrameHandler3@@SAPBU_s_ESTypeList@@PBU_s_FuncInfo@@@Z 10022fdf f i libvcruntime:frame.obj
 0001:00021fea       ?getLastEntry@HandlerMap@__FrameHandler3@@QAEPBU_s_HandlerType@@XZ 10022fea f i libvcruntime:frame.obj
 0001:00021ff8       ?getMagicNum@__FrameHandler3@@SAIPBU_s_FuncInfo@@@Z 10022ff8 f i libvcruntime:frame.obj
 0001:00022007       ?getNumTryBlocks@TryBlockMap@__FrameHandler3@@QAEIXZ 10023007 f i libvcruntime:frame.obj
 0001:0002200d       ?isEHs@__FrameHandler3@@SA_NPBU_s_FuncInfo@@@Z 1002300d f i libvcruntime:frame.obj
 0001:0002201a       ?isNoExcept@__FrameHandler3@@SA_NPBU_s_FuncInfo@@@Z 1002301a f i libvcruntime:frame.obj
 0001:0002202a       ___BuildCatchObject        1002302a f   libvcruntime:frame.obj
 0001:0002202f       ___BuildCatchObjectHelper  1002302f f   libvcruntime:frame.obj
 0001:00022038       ___TypeMatch               10023038 f   libvcruntime:frame.obj
 0001:00022041       ___vcrt_EncodePointer      10023041 f i libvcruntime:frame.obj
 0001:00022050       __CallSettingFrame@12      10023050 f   libvcruntime:lowhelpr.obj
 0001:00022077       __NLG_Return               10023077     libvcruntime:lowhelpr.obj
 0001:000220a7       ___except_validate_context_record 100230a7 f   libvcruntime:jbcxrval.obj
 0001:000220d7       ___except_validate_jump_buffer 100230d7 f   libvcruntime:jbcxrval.obj
 0001:00022104       ___except_validate_jump_buffer_common 10023104 f i libvcruntime:jbcxrval.obj
 0001:00022140       _strchr                    10023140 f   libvcruntime:strchr.obj
 0001:000221ae       ___from_strstr_to_strchr   100231ae     libvcruntime:strchr.obj
 0001:0002226b       ___vcrt_initialize_locks   1002326b f   libvcruntime:locks.obj
 0001:000222a7       ___vcrt_lock               100232a7 f   libvcruntime:locks.obj
 0001:000222bc       ___vcrt_uninitialize_locks 100232bc f   libvcruntime:locks.obj
 0001:000222eb       ___vcrt_unlock             100232eb f   libvcruntime:locks.obj
 0001:00022300       __local_unwind4            10023300 f   libvcruntime:exsup4.obj
 0001:000223f0       __seh_longjmp_unwind4@4    100233f0 f   libvcruntime:exsup4.obj
 0001:00022420       @_EH4_CallFilterFunc@8     10023420 f   libvcruntime:exsup4.obj
 0001:00022440       @_EH4_TransferToHandler@8  10023440 f   libvcruntime:exsup4.obj
 0001:00022460       @_EH4_GlobalUnwind2@8      10023460 f   libvcruntime:exsup4.obj
 0001:00022480       @_EH4_LocalUnwind@16       10023480 f   libvcruntime:exsup4.obj
 0001:00022497       ??$?0$00@DName@@QAE@PBDU?$StringLifeSelector@$00@@@Z 10023497 f i libvcruntime:undname.obj
 0001:000224ca       ??$?0$00@pcharNode@@QAE@PBDHU?$StringLifeSelector@$00@@@Z 100234ca f i libvcruntime:undname.obj
 0001:000224e5       ??$?0$01@DName@@QAE@PBDU?$StringLifeSelector@$01@@@Z 100234e5 f i libvcruntime:undname.obj
 0001:00022518       ??$?0$01@pcharNode@@QAE@PBDHU?$StringLifeSelector@$01@@@Z 10023518 f i libvcruntime:undname.obj
 0001:00022558       ??$?0$0A@@DName@@QAE@PBDU?$StringLifeSelector@$0A@@@@Z 10023558 f i libvcruntime:undname.obj
 0001:0002258b       ??$?0$0A@@pcharNode@@QAE@PBDHU?$StringLifeSelector@$0A@@@@Z 1002358b f i libvcruntime:undname.obj
 0001:000225cb       ??$?0_K$0A@@?$optional@_K@std@@QAE@$$QA_K@Z 100235cb f i libvcruntime:undname.obj
 0001:000225e5       ??$?0_K@?$_Optional_construct_base@_K@std@@QAE@Uin_place_t@1@$$QA_K@Z 100235e5 f i libvcruntime:undname.obj
 0001:000225ff       ??$?0_K@?$_Optional_destruct_base@_K$00@std@@QAE@Uin_place_t@1@$$QA_K@Z 100235ff f i libvcruntime:undname.obj
 0001:00022619       ??$append@VDNameNode@@@DName@@AAEXPBVDNameNode@@@Z 10023619 f i libvcruntime:undname.obj
 0001:0002265a       ??$append@VDNameStatusNode@@@DName@@AAEXPBVDNameStatusNode@@@Z 1002365a f i libvcruntime:undname.obj
 0001:0002269b       ??$append@VcharNode@@@DName@@AAEXPBVcharNode@@@Z 1002369b f i libvcruntime:undname.obj
 0001:000226dc       ??$append@VpDNameNode@@@DName@@AAEXPBVpDNameNode@@@Z 100236dc f i libvcruntime:undname.obj
 0001:0002271d       ??$append@VpcharNode@@@DName@@AAEXPBVpcharNode@@@Z 1002371d f i libvcruntime:undname.obj
 0001:0002275e       ??$doPchar@$00@DName@@AAEXPBDH@Z 1002375e f i libvcruntime:undname.obj
 0001:000227ca       ??$doPchar@$01@DName@@AAEXPBDH@Z 100237ca f i libvcruntime:undname.obj
 0001:0002283b       ??$doPchar@$0A@@DName@@AAEXPBDH@Z 1002383b f i libvcruntime:undname.obj
 0001:000228ac       ??$forward@_K@std@@YA$$QA_KAA_K@Z 100238ac f i libvcruntime:undname.obj
 0001:00022970       ??$size@D$04@std@@YAIAAY04$$CBD@Z 10023970 f i libvcruntime:undname.obj
 0001:00022974       ??0?$_Optional_construct_base@_K@std@@QAE@XZ 10023974 f i libvcruntime:undname.obj
 0001:0002297b       ??0?$_Optional_destruct_base@_K$00@std@@QAE@XZ 1002397b f i libvcruntime:undname.obj
 0001:00022982       ??0?$optional@_K@std@@QAE@XZ 10023982 f i libvcruntime:undname.obj
 0001:00022989       ??0Block@_HeapManager@@QAE@XZ 10023989 f i libvcruntime:undname.obj
 0001:0002298f       ??0DName@@QAE@AAPBDD@Z     1002398f f   libvcruntime:undname.obj
 0001:00022a18       ??0DName@@QAE@ABUStringLiteral@@@Z 10023a18 f   libvcruntime:undname.obj
 0001:00022a3f       ??0DName@@QAE@ABV0@@Z      10023a3f f i libvcruntime:undname.obj
 0001:00022a55       ??0DName@@QAE@D@Z          10023a55 f   libvcruntime:undname.obj
 0001:00022a71       ??0DName@@QAE@PAV0@@Z      10023a71 f   libvcruntime:undname.obj
 0001:00022ab8       ??0DName@@QAE@W4DNameStatus@@@Z 10023ab8 f   libvcruntime:undname.obj
 0001:00022af8       ??0DName@@QAE@XZ           10023af8 f i libvcruntime:undname.obj
 0001:00022b02       ??0DName@@QAE@_J@Z         10023b02 f   libvcruntime:undname.obj
 0001:00022b8c       ??0DName@@QAE@_K@Z         10023b8c f   libvcruntime:undname.obj
 0001:00022bf0       ??0DNameNode@@IAE@XZ       10023bf0 f i libvcruntime:undname.obj
 0001:00022bf9       ??0Replicator@@QAE@XZ      10023bf9 f i libvcruntime:undname.obj
 0001:00022c16       ??0UnDecorator@@QAE@PBDP6APADJ@ZK@Z 10023c16 f i libvcruntime:undname.obj
 0001:00022c7a       ??0_Nontrivial_dummy_type@std@@QAE@XZ 10023c7a f i libvcruntime:undname.obj
 0001:00022c7d       ??0charNode@@QAE@D@Z       10023c7d f i libvcruntime:undname.obj
 0001:00022c92       ??0pDNameNode@@QAE@PAVDName@@@Z 10023c92 f   libvcruntime:undname.obj
 0001:00022cba       ??0pairNode@@QAE@PBVDNameNode@@0@Z 10023cba f i libvcruntime:undname.obj
 0001:00022ce0       ??2@YAPAXIAAV_HeapManager@@H@Z 10023ce0 f   libvcruntime:undname.obj
 0001:00022cff       ??4DName@@QAEAAV0@ABUStringLiteral@@@Z 10023cff f   libvcruntime:undname.obj
 0001:00022d20       ??4DName@@QAEAAV0@ABV0@@Z  10023d20 f   libvcruntime:undname.obj
 0001:00022d36       ??4DName@@QAEAAV0@D@Z      10023d36 f i libvcruntime:undname.obj
 0001:00022d52       ??4DName@@QAEAAV0@PAV0@@Z  10023d52 f   libvcruntime:undname.obj
 0001:00022d95       ??4DName@@QAEAAV0@W4DNameStatus@@@Z 10023d95 f   libvcruntime:undname.obj
 0001:00022dc7       ??AReplicator@@QBE?AVDName@@H@Z 10023dc7 f   libvcruntime:undname.obj
 0001:00022e03       ??B?$optional@_K@std@@QBE_NXZ 10023e03 f i libvcruntime:undname.obj
 0001:00022e07       ??D?$_Optional_construct_base@_K@std@@QGAEAA_KXZ 10023e07 f i libvcruntime:undname.obj
 0001:00022e0a       ??H@YA?AVDName@@ABUStringLiteral@@ABV0@@Z 10023e0a f i libvcruntime:undname.obj
 0001:00022e2c       ??H@YA?AVDName@@DABV0@@Z   10023e2c f i libvcruntime:undname.obj
 0001:00022e57       ??H@YA?AVDName@@W4DNameStatus@@ABV0@@Z 10023e57 f i libvcruntime:undname.obj
 0001:00022e79       ??HDName@@QBE?AV0@ABUStringLiteral@@@Z 10023e79 f   libvcruntime:undname.obj
 0001:00022e9b       ??HDName@@QBE?AV0@ABV0@@Z  10023e9b f   libvcruntime:undname.obj
 0001:00022ebd       ??HDName@@QBE?AV0@D@Z      10023ebd f   libvcruntime:undname.obj
 0001:00022edf       ??HDName@@QBE?AV0@PAV0@@Z  10023edf f   libvcruntime:undname.obj
 0001:00022f01       ??HDName@@QBE?AV0@W4DNameStatus@@@Z 10023f01 f   libvcruntime:undname.obj
 0001:00022f23       ??HStringLiteral@@QBE?AU0@H@Z 10023f23 f i libvcruntime:undname.obj
 0001:00022f3d       ??YDName@@QAEAAV0@ABUStringLiteral@@@Z 10023f3d f   libvcruntime:undname.obj
 0001:00022f95       ??YDName@@QAEAAV0@ABV0@@Z  10023f95 f   libvcruntime:undname.obj
 0001:00022fec       ??YDName@@QAEAAV0@D@Z      10023fec f   libvcruntime:undname.obj
 0001:00023041       ??YDName@@QAEAAV0@PAV0@@Z  10024041 f   libvcruntime:undname.obj
 0001:000230a5       ??YDName@@QAEAAV0@W4DNameStatus@@@Z 100240a5 f   libvcruntime:undname.obj
 0001:000230e5       ??YReplicator@@QAEAAV0@ABVDName@@@Z 100240e5 f   libvcruntime:undname.obj
 0001:00023125       ??_5DName@@QAEAAV0@ABV0@@Z 10024125 f   libvcruntime:undname.obj
 0001:00023144       ??__K_l@@YA?AUStringLiteral@@PBDI@Z 10024144 f i libvcruntime:undname.obj
 0001:0002314f       ?Constructor@_HeapManager@@QAEXP6APAXI@ZP6AXPAX@Z@Z 1002414f f i libvcruntime:undname.obj
 0001:0002316c       ?Destructor@_HeapManager@@QAEXXZ 1002416c f i libvcruntime:undname.obj
 0001:000231b0       ?UScore@UnDecorator@@SA?AUStringLiteral@@W4Tokens@@@Z 100241b0 f   libvcruntime:undname.obj
 0001:000231d7       ?composeDeclaration@UnDecorator@@CA?AVDName@@ABV2@@Z 100241d7 f i libvcruntime:undname.obj
 0001:00023f68       ?doAccessSpecifiers@UnDecorator@@SAHXZ 10024f68 f i libvcruntime:undname.obj
 0001:00023f76       ?doAllocationLanguage@UnDecorator@@SAHXZ 10024f76 f i libvcruntime:undname.obj
 0001:00023f84       ?doAllocationModel@UnDecorator@@SAHXZ 10024f84 f i libvcruntime:undname.obj
 0001:00023f92       ?doEcsu@UnDecorator@@SAHXZ 10024f92 f i libvcruntime:undname.obj
 0001:00023fa0       ?doEllipsis@UnDecorator@@SAHXZ 10024fa0 f i libvcruntime:undname.obj
 0001:00023fae       ?doFunctionReturns@UnDecorator@@SAHXZ 10024fae f i libvcruntime:undname.obj
 0001:00023fbc       ?doMSKeywords@UnDecorator@@SAHXZ 10024fbc f i libvcruntime:undname.obj
 0001:00023fc9       ?doMemberTypes@UnDecorator@@SAHXZ 10024fc9 f i libvcruntime:undname.obj
 0001:00023fd7       ?doNameOnly@UnDecorator@@SAHXZ 10024fd7 f i libvcruntime:undname.obj
 0001:00023fe2       ?doNoIdentCharCheck@UnDecorator@@SAHXZ 10024fe2 f i libvcruntime:undname.obj
 0001:00023fed       ?doPchar@DName@@AAEXD@Z    10024fed f   libvcruntime:undname.obj
 0001:00024025       ?doPtr64@UnDecorator@@SAHXZ 10025025 f i libvcruntime:undname.obj
 0001:00024033       ?doRestrictionSpec@UnDecorator@@SAHXZ 10025033 f i libvcruntime:undname.obj
 0001:00024041       ?doThisTypes@UnDecorator@@SAHXZ 10025041 f i libvcruntime:undname.obj
 0001:00024053       ?doThrowTypes@UnDecorator@@SAHXZ 10025053 f i libvcruntime:undname.obj
 0001:00024061       ?doTypeOnly@UnDecorator@@SAHXZ 10025061 f i libvcruntime:undname.obj
 0001:0002406c       ?doUnderScore@UnDecorator@@SAHXZ 1002506c f i libvcruntime:undname.obj
 0001:00024077       ?getAddressOf@UnDecorator@@CA?AVDName@@XZ 10025077 f   libvcruntime:undname.obj
 0001:000240df       ?getArgumentList@UnDecorator@@CA?AVDName@@XZ 100250df f   libvcruntime:undname.obj
 0001:000241ec       ?getArgumentTypes@UnDecorator@@CA?AVDName@@XZ 100251ec f   libvcruntime:undname.obj
 0001:000242f4       ?getArrayAccess@UnDecorator@@CA?AVDName@@XZ 100252f4 f   libvcruntime:undname.obj
 0001:00024368       ?getArrayObject@UnDecorator@@CA?AVDName@@XZ 10025368 f   libvcruntime:undname.obj
 0001:00024406       ?getArrayType@UnDecorator@@CA?AVDName@@ABV2@@Z 10025406 f i libvcruntime:undname.obj
 0001:000245a3       ?getBasedType@UnDecorator@@CA?AVDName@@XZ 100255a3 f   libvcruntime:undname.obj
 0001:00024652       ?getBasicDataType@UnDecorator@@CA?AVDName@@ABV2@@Z 10025652 f   libvcruntime:undname.obj
 0001:00024bae       ?getCHPEName@UnDecorator@@QAEPADPADH@Z 10025bae f i libvcruntime:undname.obj
 0001:00024c8b       ?getCallIndex@UnDecorator@@CA?AVDName@@XZ 10025c8b f i libvcruntime:undname.obj
 0001:00024c9f       ?getCallingConvention@UnDecorator@@CA?AVDName@@XZ 10025c9f f   libvcruntime:undname.obj
 0001:00024d69       ?getDataIndirectType@UnDecorator@@CA?AVDName@@ABV2@W4IndirectionKind@@0H@Z 10025d69 f   libvcruntime:undname.obj
 0001:000254ef       ?getDataIndirectType@UnDecorator@@CA?AVDName@@XZ 100264ef f i libvcruntime:undname.obj
 0001:0002551d       ?getDataType@UnDecorator@@CA?AVDName@@PAV2@@Z 1002651d f   libvcruntime:undname.obj
 0001:000255f4       ?getDecoratedName@UnDecorator@@CA?AVDName@@XZ 100265f4 f   libvcruntime:undname.obj
 0001:00025848       ?getDimension@UnDecorator@@CA?AVDName@@_N@Z 10026848 f   libvcruntime:undname.obj
 0001:0002595f       ?getDispatchTarget@UnDecorator@@CA?AVDName@@XZ 1002695f f   libvcruntime:undname.obj
 0001:000259b0       ?getDisplacement@UnDecorator@@CA?AVDName@@XZ 100269b0 f i libvcruntime:undname.obj
 0001:000259c4       ?getECSUDataType@UnDecorator@@CA?AVDName@@XZ 100269c4 f   libvcruntime:undname.obj
 0001:00025b6e       ?getECSUName@UnDecorator@@CA?AVDName@@XZ 10026b6e f i libvcruntime:undname.obj
 0001:00025b7f       ?getEnumType@UnDecorator@@CA?AVDName@@XZ 10026b7f f i libvcruntime:undname.obj
 0001:00025c93       ?getExtendedDataIndirectType@UnDecorator@@CA?AVDName@@AAW4IndirectionKind@@AA_NH@Z 10026c93 f   libvcruntime:undname.obj
 0001:00025e96       ?getExternalDataType@UnDecorator@@CA?AVDName@@ABV2@@Z 10026e96 f i libvcruntime:undname.obj
 0001:00025efb       ?getFloatingPoint@UnDecorator@@CA?AVDName@@H@Z 10026efb f   libvcruntime:undname.obj
 0001:00025fbe       ?getFunctionIndirectType@UnDecorator@@CA?AVDName@@ABV2@@Z 10026fbe f   libvcruntime:undname.obj
 0001:00026368       ?getGuardNumber@UnDecorator@@CA?AVDName@@XZ 10027368 f i libvcruntime:undname.obj
 0001:0002637c       ?getLastChar@DName@@QBEDXZ 1002737c f i libvcruntime:undname.obj
 0001:0002639c       ?getLastChar@DNameStatusNode@@UBEDXZ 1002739c f i libvcruntime:undname.obj
 0001:000263a8       ?getLastChar@charNode@@UBEDXZ 100273a8 f i libvcruntime:undname.obj
 0001:000263ac       ?getLastChar@pDNameNode@@UBEDXZ 100273ac f i libvcruntime:undname.obj
 0001:000263ba       ?getLastChar@pairNode@@UBEDXZ 100273ba f i libvcruntime:undname.obj
 0001:000263ef       ?getLastChar@pcharNode@@UBEDXZ 100273ef f i libvcruntime:undname.obj
 0001:00026401       ?getLexicalFrame@UnDecorator@@CA?AVDName@@XZ 10027401 f i libvcruntime:undname.obj
 0001:00026432       ?getMemberAccess@UnDecorator@@CA?AVDName@@XZ 10027432 f   libvcruntime:undname.obj
 0001:000264a2       ?getMemoryWithBuffer@_HeapManager@@QAEPAXI@Z 100274a2 f   libvcruntime:undname.obj
 0001:0002650c       ?getMemoryWithoutBuffer@_HeapManager@@QAEPAXI@Z 1002750c f   libvcruntime:undname.obj
 0001:0002652c       ?getNoexcept@UnDecorator@@CA?AVDName@@XZ 1002752c f   libvcruntime:undname.obj
 0001:00026574       ?getNumberOfDimensions@UnDecorator@@CAHXZ 10027574 f   libvcruntime:undname.obj
 0001:000265ce       ?getOperatorName@UnDecorator@@CA?AVDName@@_NPA_N@Z 100275ce f i libvcruntime:undname.obj
 0001:00026e94       ?getPointerToMember@UnDecorator@@CA?AVDName@@XZ 10027e94 f   libvcruntime:undname.obj
 0001:00026f50       ?getPointerType@UnDecorator@@CA?AVDName@@ABV2@0@Z 10027f50 f i libvcruntime:undname.obj
 0001:00026f6b       ?getPointerTypeArray@UnDecorator@@CA?AVDName@@ABV2@0@Z 10027f6b f i libvcruntime:undname.obj
 0001:00026f86       ?getPrimaryDataType@UnDecorator@@CA?AVDName@@ABV2@@Z 10027f86 f   libvcruntime:undname.obj
 0001:000271d4       ?getPtrRefDataType@UnDecorator@@CA?AVDName@@ABV2@H@Z 100281d4 f   libvcruntime:undname.obj
 0001:00027341       ?getPtrRefType@UnDecorator@@CA?AVDName@@ABV2@0W4IndirectionKind@@@Z 10028341 f   libvcruntime:undname.obj
 0001:00027452       ?getReferenceType@UnDecorator@@CA?AVDName@@ABV2@0W4IndirectionKind@@@Z 10028452 f i libvcruntime:undname.obj
 0001:0002746e       ?getRestrictionSpec@UnDecorator@@CA?AVDName@@XZ 1002846e f   libvcruntime:undname.obj
 0001:00027587       ?getReturnType@UnDecorator@@CA?AVDName@@PAV2@@Z 10028587 f   libvcruntime:undname.obj
 0001:000275b6       ?getScope@UnDecorator@@CA?AVDName@@XZ 100285b6 f   libvcruntime:undname.obj
 0001:00027974       ?getScopedName@UnDecorator@@CA?AVDName@@XZ 10028974 f   libvcruntime:undname.obj
 0001:00027a69       ?getSignedDimension@UnDecorator@@CA?AVDName@@XZ 10028a69 f   libvcruntime:undname.obj
 0001:00027aba       ?getStorageConvention@UnDecorator@@CA?AVDName@@XZ 10028aba f i libvcruntime:undname.obj
 0001:00027acb       ?getString@DName@@QBEPADPAD0@Z 10028acb f i libvcruntime:undname.obj
 0001:00027af8       ?getString@DName@@QBEPADPADH@Z 10028af8 f i libvcruntime:undname.obj
 0001:00027b4d       ?getString@DNameStatusNode@@UBEPADPAD0@Z 10028b4d f i libvcruntime:undname.obj
 0001:00027b94       ?getString@charNode@@UBEPADPAD0@Z 10028b94 f i libvcruntime:undname.obj
 0001:00027ba9       ?getString@pDNameNode@@UBEPADPAD0@Z 10028ba9 f i libvcruntime:undname.obj
 0001:00027bc0       ?getString@pairNode@@UBEPADPAD0@Z 10028bc0 f i libvcruntime:undname.obj
 0001:00027c06       ?getString@pcharNode@@UBEPADPAD0@Z 10028c06 f i libvcruntime:undname.obj
 0001:00027c21       ?getStringEncoding@UnDecorator@@CA?AVDName@@W4PrefixKind@@H@Z 10028c21 f   libvcruntime:undname.obj
 0001:00027cb4       ?getStringHelper@@YAPADPADPBD1H@Z 10028cb4 f i libvcruntime:undname.obj
 0001:00027cde       ?getStringObject@UnDecorator@@CA?AVDName@@XZ 10028cde f   libvcruntime:undname.obj
 0001:00027d4a       ?getSymbolName@UnDecorator@@CA?AVDName@@XZ 10028d4a f i libvcruntime:undname.obj
 0001:00027d92       ?getTemplateArgumentList@UnDecorator@@CA?AVDName@@XZ 10028d92 f   libvcruntime:undname.obj
 0001:00027f42       ?getTemplateName@UnDecorator@@CA?AVDName@@_N@Z 10028f42 f   libvcruntime:undname.obj
 0001:000280bd       ?getTemplateNonTypeArgument@UnDecorator@@CA?AVDName@@XZ 100290bd f   libvcruntime:undname.obj
 0001:00028485       ?getTemplateTypeArgument@UnDecorator@@CA?AVDName@@XZ 10029485 f   libvcruntime:undname.obj
 0001:00028596       ?getThisType@UnDecorator@@CA?AVDName@@XZ 10029596 f i libvcruntime:undname.obj
 0001:000285c5       ?getThrowTypes@UnDecorator@@CA?AVDName@@XZ 100295c5 f   libvcruntime:undname.obj
 0001:000285e4       ?getTypeEncoding@UnDecorator@@CAHXZ 100295e4 f i libvcruntime:undname.obj
 0001:00028920       ?getUndecoratedName@UnDecorator@@QAEPADPADH@Z 10029920 f i libvcruntime:undname.obj
 0001:00028a3f       ?getUnionObject@UnDecorator@@CA?AVDName@@XZ 10029a3f f   libvcruntime:undname.obj
 0001:00028ae6       ?getVCallThunkType@UnDecorator@@CA?AVDName@@XZ 10029ae6 f i libvcruntime:undname.obj
 0001:00028b30       ?getValue@UnDecorator@@CA?AV?$optional@_K@std@@XZ 10029b30 f   libvcruntime:undname.obj
 0001:00028b80       ?getValueObject@UnDecorator@@CA?AVDName@@XZ 10029b80 f   libvcruntime:undname.obj
 0001:00028cac       ?getVbTableType@UnDecorator@@CA?AVDName@@ABV2@@Z 10029cac f i libvcruntime:undname.obj
 0001:00028cc1       ?getVdispMapType@UnDecorator@@CA?AVDName@@ABV2@@Z 10029cc1 f i libvcruntime:undname.obj
 0001:00028d22       ?getVfTableType@UnDecorator@@CA?AVDName@@ABV2@@Z 10029d22 f i libvcruntime:undname.obj
 0001:00028e76       ?getZName@UnDecorator@@CA?AVDName@@_N0@Z 10029e76 f   libvcruntime:undname.obj
 0001:0002908f       ?get_current_character_and_increment_buffer@UnDecorator@@CADXZ 1002a08f f i libvcruntime:undname.obj
 0001:000290a3       ?haveTemplateParameters@UnDecorator@@SAHXZ 1002a0a3 f i libvcruntime:undname.obj
 0001:000290ae       ?increment_buffer@UnDecorator@@CA_NI@Z 1002a0ae f i libvcruntime:undname.obj
 0001:000290d6       ?increment_buffer_no_check@UnDecorator@@CAXI@Z 1002a0d6 f i libvcruntime:undname.obj
 0001:000290e4       ?increment_buffer_no_check@UnDecorator@@CAXXZ 1002a0e4 f i libvcruntime:undname.obj
 0001:000290eb       ?isArray@DName@@QBEHXZ     1002a0eb f i libvcruntime:undname.obj
 0001:000290f5       ?isComArray@DName@@QBEHXZ  1002a0f5 f i libvcruntime:undname.obj
 0001:000290ff       ?isEmpty@DName@@QBEHXZ     1002a0ff f i libvcruntime:undname.obj
 0001:00029107       ?isFull@Replicator@@QBEHXZ 1002a107 f i libvcruntime:undname.obj
 0001:00029110       ?isNoTE@DName@@QBEHXZ      1002a110 f i libvcruntime:undname.obj
 0001:0002911a       ?isPinPtr@DName@@QBEHXZ    1002a11a f i libvcruntime:undname.obj
 0001:00029124       ?isPtrRef@DName@@QBEHXZ    1002a124 f i libvcruntime:undname.obj
 0001:0002912e       ?isUDC@DName@@QBEHXZ       1002a12e f i libvcruntime:undname.obj
 0001:0002913f       ?isUDTThunk@DName@@QBEHXZ  1002a13f f i libvcruntime:undname.obj
 0001:00029150       ?isVCallThunk@DName@@QBEHXZ 1002a150 f i libvcruntime:undname.obj
 0001:0002915a       ?isValid@DName@@QBEHXZ     1002a15a f i libvcruntime:undname.obj
 0001:00029164       ?length@DName@@QBEHXZ      1002a164 f i libvcruntime:undname.obj
 0001:00029183       ?length@DNameStatusNode@@UBEHXZ 1002a183 f i libvcruntime:undname.obj
 0001:00029187       ?length@charNode@@UBEHXZ   1002a187 f i libvcruntime:undname.obj
 0001:0002918b       ?length@pDNameNode@@UBEHXZ 1002a18b f i libvcruntime:undname.obj
 0001:00029199       ?length@pairNode@@UBEHXZ   1002a199 f i libvcruntime:undname.obj
 0001:000291e2       ?length@pcharNode@@UBEHXZ  1002a1e2 f i libvcruntime:undname.obj
 0001:000291e6       ?make@DNameStatusNode@@SAPBV1@W4DNameStatus@@@Z 1002a1e6 f i libvcruntime:undname.obj
 0001:00029202       ?parseDecoratedName@UnDecorator@@CA?AVDName@@XZ 1002a202 f   libvcruntime:undname.obj
 0001:000292fd       ?raw_length@DNameStatusNode@@UBEHXZ 1002a2fd f i libvcruntime:undname.obj
 0001:00029301       ?raw_length@charNode@@UBEHXZ 1002a301 f i libvcruntime:undname.obj
 0001:00029305       ?raw_length@pDNameNode@@UBEHXZ 1002a305 f i libvcruntime:undname.obj
 0001:00029309       ?raw_length@pairNode@@UBEHXZ 1002a309 f i libvcruntime:undname.obj
 0001:0002930d       ?raw_length@pcharNode@@UBEHXZ 1002a30d f i libvcruntime:undname.obj
 0001:00029311       ?setIsArray@DName@@QAEXXZ  1002a311 f i libvcruntime:undname.obj
 0001:00029319       ?setIsComArray@DName@@QAEXXZ 1002a319 f i libvcruntime:undname.obj
 0001:00029321       ?setIsNoTE@DName@@QAEXXZ   1002a321 f i libvcruntime:undname.obj
 0001:00029329       ?setIsPinPtr@DName@@QAEXXZ 1002a329 f i libvcruntime:undname.obj
 0001:00029331       ?setIsUDC@DName@@QAEXXZ    1002a331 f i libvcruntime:undname.obj
 0001:0002933e       ?setIsVCallThunk@DName@@QAEXXZ 1002a33e f i libvcruntime:undname.obj
 0001:00029346       ?setPtrRef@DName@@QAEAAV1@XZ 1002a346 f i libvcruntime:undname.obj
 0001:00029350       ?status@DName@@QBE?AW4DNameStatus@@XZ 1002a350 f i libvcruntime:undname.obj
 0001:000293bc       ___unDName                 1002a3bc f   libvcruntime:undname.obj
 0001:000293df       ___unDNameEx               1002a3df f   libvcruntime:undname.obj
 0001:0002947e       __vsprintf_s_l             1002a47e f i libvcruntime:undname.obj
 0001:000294ab       _snprintf                  1002a4ab f i libvcruntime:undname.obj
 0001:000294c5       _sprintf_s                 1002a4c5 f i libvcruntime:undname.obj
 0001:000294e1       _unDNameGenerateCHPE       1002a4e1 f   libvcruntime:undname.obj
 0001:0002957e       _vsnprintf                 1002a57e f i libvcruntime:undname.obj
 0001:000295ae       ??$__crt_interlocked_exchange_pointer@UHINSTANCE__@@PAU1@@@YAPAUHINSTANCE__@@PDSAU0@QAU0@@Z 1002a5ae f i libvcruntime:winapi_downlevel.obj
 0001:000295bb       ??$__crt_interlocked_exchange_pointer@UHINSTANCE__@@PAX@@YAPAUHINSTANCE__@@PDSAU0@QAX@Z 1002a5bb f i libvcruntime:winapi_downlevel.obj
 0001:000295c8       ??$__crt_interlocked_exchange_pointer@XPAX@@YAPAXPDSAXQAX@Z 1002a5c8 f i libvcruntime:winapi_downlevel.obj
 0001:000295d5       ??$__crt_interlocked_read_pointer@UHINSTANCE__@@@@YAPAUHINSTANCE__@@PDSAU0@@Z 1002a5d5 f i libvcruntime:winapi_downlevel.obj
 0001:000295e0       ??$__crt_interlocked_read_pointer@X@@YAPAXPDSAX@Z 1002a5e0 f i libvcruntime:winapi_downlevel.obj
 0001:0002986c       ___vcrt_FlsAlloc           1002a86c f   libvcruntime:winapi_downlevel.obj
 0001:000298a7       ___vcrt_FlsFree            1002a8a7 f   libvcruntime:winapi_downlevel.obj
 0001:000298e2       ___vcrt_FlsGetValue        1002a8e2 f   libvcruntime:winapi_downlevel.obj
 0001:0002991d       ___vcrt_FlsSetValue        1002a91d f   libvcruntime:winapi_downlevel.obj
 0001:0002995b       ___vcrt_InitializeCriticalSectionEx 1002a95b f   libvcruntime:winapi_downlevel.obj
 0001:000299b6       __get_unexpected           1002a9b6 f   libvcruntime:unexpected.obj
 0001:000299c8       _set_unexpected            1002a9c8 f   libvcruntime:unexpected.obj
 0001:000299e6       _unexpected                1002a9e6 f   libvcruntime:unexpected.obj
 0001:00029a03       ?GetCurrentState@__FrameHandler3@@SAHPAUEHRegistrationNode@@PAXPBU_s_FuncInfo@@@Z 1002aa03 f   libvcruntime:ehstate.obj
 0001:00029a20       ?SetState@__FrameHandler3@@SAXPAUEHRegistrationNode@@PBU_s_FuncInfo@@H@Z 1002aa20 f   libvcruntime:ehstate.obj
 0001:00029a30       __global_unwind2           1002aa30 f   libvcruntime:exsup.obj
 0001:00029ab0       __local_unwind2            1002aab0 f   libvcruntime:exsup.obj
 0001:00029b50       __abnormal_termination     1002ab50 f   libvcruntime:exsup.obj
 0001:00029b80       __NLG_Notify1              1002ab80 f   libvcruntime:exsup.obj
 0001:00029b90       __NLG_Notify               1002ab90 f   libvcruntime:exsup.obj
 0001:00029ba7       __NLG_Dispatch             1002aba7     libvcruntime:exsup.obj
 0001:00029ba7       __NLG_Dispatch2            1002aba7     libvcruntime:exsup.obj
 0001:00029bb0       __NLG_Call                 1002abb0 f   libvcruntime:exsup.obj
 0001:00029bb2       __NLG_Return2              1002abb2     libvcruntime:exsup.obj
 0001:00029bb3       ??$__crt_interlocked_exchange_pointer@$$A6AXXZP6AXXZ@@YAP6AXXZPDS6AXXZQ6AXXZ@Z 1002abb3 f i libvcruntime:purevirt.obj
 0001:00029bc0       ??$__crt_interlocked_read_pointer@$$A6AXXZ@@YAP6AXXZPDS6AXXZ@Z 1002abc0 f i libvcruntime:purevirt.obj
 0001:00029bcb       __get_purecall_handler     1002abcb f   libvcruntime:purevirt.obj
 0001:00029bd2       __purecall                 1002abd2 f   libvcruntime:purevirt.obj
 0001:00029bee       __set_purecall_handler     1002abee f   libvcruntime:purevirt.obj
 0001:00029c57       _strcpy_s                  1002ac57 f   libucrt:strcpy_s.obj
 0001:00029d14       _strcat_s                  1002ad14 f   libucrt:strcat_s.obj
 0001:00029e2e       _strncpy_s                 1002ae2e f   libucrt:strncpy_s.obj
 0001:0002a33b       __i64toa                   1002b33b f   libucrt:xtoa.obj
 0001:0002a37c       __i64toa_s                 1002b37c f   libucrt:xtoa.obj
 0001:0002a3bb       __i64tow                   1002b3bb f   libucrt:xtoa.obj
 0001:0002a3fc       __i64tow_s                 1002b3fc f   libucrt:xtoa.obj
 0001:0002a43b       __itoa                     1002b43b f   libucrt:xtoa.obj
 0001:0002a43b       _itoa                      1002b43b f   libucrt:xtoa.obj
 0001:0002a470       __itoa_s                   1002b470 f   libucrt:xtoa.obj
 0001:0002a4a3       __itow                     1002b4a3 f   libucrt:xtoa.obj
 0001:0002a4d8       __itow_s                   1002b4d8 f   libucrt:xtoa.obj
 0001:0002a50b       __ltoa                     1002b50b f   libucrt:xtoa.obj
 0001:0002a540       __ltoa_s                   1002b540 f   libucrt:xtoa.obj
 0001:0002a573       __ltow                     1002b573 f   libucrt:xtoa.obj
 0001:0002a5a8       __ltow_s                   1002b5a8 f   libucrt:xtoa.obj
 0001:0002a5db       __ui64toa                  1002b5db f   libucrt:xtoa.obj
 0001:0002a5fd       __ui64toa_s                1002b5fd f   libucrt:xtoa.obj
 0001:0002a61d       __ui64tow                  1002b61d f   libucrt:xtoa.obj
 0001:0002a63f       __ui64tow_s                1002b63f f   libucrt:xtoa.obj
 0001:0002a65f       __ultoa                    1002b65f f   libucrt:xtoa.obj
 0001:0002a67e       __ultoa_s                  1002b67e f   libucrt:xtoa.obj
 0001:0002a69b       __ultow                    1002b69b f   libucrt:xtoa.obj
 0001:0002a6ba       __ultow_s                  1002b6ba f   libucrt:xtoa.obj
 0001:0002a6d7       ??$__crt_fast_decode_pointer@P6AXPB_W00II@Z@@YAP6AXPB_W00II@ZQ6AX000II@Z@Z 1002b6d7 f i libucrt:invalid_parameter.obj
 0001:0002a6f2       ??$__crt_fast_encode_pointer@P6AXPB_W00II@Z@@YAP6AXPB_W00II@ZQ6AX000II@Z@Z 1002b6f2 f i libucrt:invalid_parameter.obj
 0001:0002a711       ??$initialize_from_array@$$BY00Q6AXPB_W00II@Z@?$dual_state_global@P6AXPB_W00II@Z@__crt_state_management@@QAAXAAY00Q6AXPB_W00II@Z@Z 1002b711 f i libucrt:invalid_parameter.obj
 0001:0002a722       ??0?$cached@H@__crt_cached_ptd_host@@QAE@XZ 1002b722 f i libucrt:invalid_parameter.obj
 0001:0002a729       ??0?$cached@K@__crt_cached_ptd_host@@QAE@XZ 1002b729 f i libucrt:invalid_parameter.obj
 0001:0002a730       ??0__crt_cached_ptd_host@@QAE@QAU__crt_locale_pointers@@@Z 1002b730 f i libucrt:invalid_parameter.obj
 0001:0002a778       ??0__crt_scoped_get_last_error_reset@@QAE@XZ 1002b778 f i libucrt:invalid_parameter.obj
 0001:0002a789       ??1__crt_cached_ptd_host@@QAE@XZ 1002b789 f i libucrt:invalid_parameter.obj
 0001:0002a7c5       ??1__crt_scoped_get_last_error_reset@@QAE@XZ 1002b7c5 f i libucrt:invalid_parameter.obj
 0001:0002a7ce       ?__crt_rotate_pointer_value@@YAIIH@Z 1002b7ce f i libucrt:invalid_parameter.obj
 0001:0002a7dd       ?check_synchronize_global_state_index@__crt_cached_ptd_host@@AAEIABV__crt_scoped_get_last_error_reset@@@Z 1002b7dd f i libucrt:invalid_parameter.obj
 0001:0002a7f5       ?check_synchronize_global_state_index@__crt_cached_ptd_host@@AAEIXZ 1002b7f5 f i libucrt:invalid_parameter.obj
 0001:0002a81e       ?check_synchronize_per_thread_data@__crt_cached_ptd_host@@AAEPAU__acrt_ptd@@XZ 1002b81e f i libucrt:invalid_parameter.obj
 0001:0002a83b       ?dangerous_get_state_array@?$dual_state_global@P6AXPB_W00II@Z@__crt_state_management@@QAEPAP6AXPB_W00II@ZXZ 1002b83b f i libucrt:invalid_parameter.obj
 0001:0002a83e       ?force_synchronize_global_state_index@__crt_cached_ptd_host@@AAEIABV__crt_scoped_get_last_error_reset@@@Z 1002b83e f i libucrt:invalid_parameter.obj
 0001:0002a84b       ?force_synchronize_per_thread_data@__crt_cached_ptd_host@@AAEPAU__acrt_ptd@@XZ 1002b84b f i libucrt:invalid_parameter.obj
 0001:0002a891       ?get_current_global_state_index@__crt_cached_ptd_host@@QAEIXZ 1002b891 f i libucrt:invalid_parameter.obj
 0001:0002a896       ?get_current_state_index@__crt_state_management@@YAIABV__crt_scoped_get_last_error_reset@@@Z 1002b896 f i libucrt:invalid_parameter.obj
 0001:0002a899       ?get_current_state_index@__crt_state_management@@YAIXZ 1002b899 f i libucrt:invalid_parameter.obj
 0001:0002a89c       ?get_raw_ptd@__crt_cached_ptd_host@@QAEPAU__acrt_ptd@@XZ 1002b89c f i libucrt:invalid_parameter.obj
 0001:0002a8b9       ?get_raw_ptd_noexit@__crt_cached_ptd_host@@QAEPAU__acrt_ptd@@XZ 1002b8b9 f i libucrt:invalid_parameter.obj
 0001:0002a8c4       ?try_synchronize_per_thread_data@__crt_cached_ptd_host@@AAEPAU__acrt_ptd@@XZ 1002b8c4 f i libucrt:invalid_parameter.obj
 0001:0002a8cf       ?unsafe_value@?$cached@H@__crt_cached_ptd_host@@QAEHXZ 1002b8cf f i libucrt:invalid_parameter.obj
 0001:0002a8d2       ?unsafe_value@?$cached@K@__crt_cached_ptd_host@@QAEKXZ 1002b8d2 f i libucrt:invalid_parameter.obj
 0001:0002a8d5       ?valid@?$cached@H@__crt_cached_ptd_host@@QBE_NXZ 1002b8d5 f i libucrt:invalid_parameter.obj
 0001:0002a8d9       ?valid@?$cached@K@__crt_cached_ptd_host@@QBE_NXZ 1002b8d9 f i libucrt:invalid_parameter.obj
 0001:0002a8dd       ?value@?$dual_state_global@P6AXPB_W00II@Z@__crt_state_management@@QAEAAP6AXPB_W00II@ZAAV__crt_cached_ptd_host@@@Z 1002b8dd f i libucrt:invalid_parameter.obj
 0001:0002a8f5       ?value@?$dual_state_global@P6AXPB_W00II@Z@__crt_state_management@@QAEAAP6AXPB_W00II@ZXZ 1002b8f5 f i libucrt:invalid_parameter.obj
 0001:0002a8f8       ___acrt_call_reportfault   1002b8f8 f   libucrt:invalid_parameter.obj
 0001:0002aa31       ___acrt_enable_global_locale_sync 1002ba31 f i libucrt:invalid_parameter.obj
 0001:0002aa46       ___acrt_initialize_invalid_parameter_handler 1002ba46 f   libucrt:invalid_parameter.obj
 0001:0002aa55       ___acrt_locale_changed     1002ba55 f i libucrt:invalid_parameter.obj
 0001:0002aa60       __get_invalid_parameter_handler 1002ba60 f   libucrt:invalid_parameter.obj
 0001:0002aa77       __get_thread_local_invalid_parameter_handler 1002ba77 f   libucrt:invalid_parameter.obj
 0001:0002aa88       __invalid_parameter        1002ba88 f   libucrt:invalid_parameter.obj
 0001:0002aabf       __invalid_parameter_internal 1002babf f   libucrt:invalid_parameter.obj
 0001:0002ab3c       __invalid_parameter_noinfo 1002bb3c f   libucrt:invalid_parameter.obj
 0001:0002ab4c       __invalid_parameter_noinfo_noreturn 1002bb4c f   libucrt:invalid_parameter.obj
 0001:0002ab69       __invoke_watson            1002bb69 f   libucrt:invalid_parameter.obj
 0001:0002ab9d       __set_invalid_parameter_handler 1002bb9d f   libucrt:invalid_parameter.obj
 0001:0002abcd       __set_thread_local_invalid_parameter_handler 1002bbcd f   libucrt:invalid_parameter.obj
 0001:0002abea       ??$is_overflow_condition@K@__crt_strtox@@YA_NIK@Z 1002bbea f i libucrt:atox.obj
 0001:0002ac1e       ??$is_overflow_condition@_K@__crt_strtox@@YA_NI_K@Z 1002bc1e f i libucrt:atox.obj
 0001:0002ac5f       ??$make_c_string_character_source@D$$T@__crt_strtox@@YA?AV?$c_string_character_source@D@0@QBD$$T@Z 1002bc5f f i libucrt:atox.obj
 0001:0002ac7a       ??$make_c_string_character_source@_W$$T@__crt_strtox@@YA?AV?$c_string_character_source@_W@0@QB_W$$T@Z 1002bc7a f i libucrt:atox.obj
 0001:0002ac95       ??$parse_integer@KV?$c_string_character_source@D@__crt_strtox@@$00@__crt_strtox@@YAKAAV__crt_cached_ptd_host@@V?$c_string_character_source@D@0@H_N@Z 1002bc95 f i libucrt:atox.obj
 0001:0002aedc       ??$parse_integer@KV?$c_string_character_source@_W@__crt_strtox@@$00@__crt_strtox@@YAKAAV__crt_cached_ptd_host@@V?$c_string_character_source@_W@0@H_N@Z 1002bedc f i libucrt:atox.obj
 0001:0002b4ea       ??$parse_integer@_KV?$c_string_character_source@D@__crt_strtox@@$00@__crt_strtox@@YA_KAAV__crt_cached_ptd_host@@V?$c_string_character_source@D@0@H_N@Z 1002c4ea f i libucrt:atox.obj
 0001:0002b7b2       ??$parse_integer@_KV?$c_string_character_source@_W@__crt_strtox@@$00@__crt_strtox@@YA_KAAV__crt_cached_ptd_host@@V?$c_string_character_source@_W@0@H_N@Z 1002c7b2 f i libucrt:atox.obj
 0001:0002be38       ??$parse_integer_from_string@JD$$T@__crt_strtox@@YAJQBD$$THQAU__crt_locale_pointers@@@Z 1002ce38 f i libucrt:atox.obj
 0001:0002be7f       ??$parse_integer_from_string@J_W$$T@__crt_strtox@@YAJQB_W$$THQAU__crt_locale_pointers@@@Z 1002ce7f f i libucrt:atox.obj
 0001:0002bec6       ??$parse_integer_from_string@_JD$$T@__crt_strtox@@YA_JQBD$$THQAU__crt_locale_pointers@@@Z 1002cec6 f i libucrt:atox.obj
 0001:0002bf13       ??$parse_integer_from_string@_J_W$$T@__crt_strtox@@YA_JQB_W$$THQAU__crt_locale_pointers@@@Z 1002cf13 f i libucrt:atox.obj
 0001:0002bf60       ??0?$c_string_character_source@D@__crt_strtox@@QAE@QBDQAPBD@Z 1002cf60 f i libucrt:atox.obj
 0001:0002bf7c       ??0?$c_string_character_source@_W@__crt_strtox@@QAE@QB_WQAPB_W@Z 1002cf7c f i libucrt:atox.obj
 0001:0002bf98       ??1?$c_string_character_source@D@__crt_strtox@@QAE@XZ 1002cf98 f i libucrt:atox.obj
 0001:0002bfa4       ??1?$c_string_character_source@_W@__crt_strtox@@QAE@XZ 1002cfa4 f i libucrt:atox.obj
 0001:0002bfb0       ?get@?$c_string_character_source@D@__crt_strtox@@QAEDXZ 1002cfb0 f i libucrt:atox.obj
 0001:0002bfb8       ?get@?$c_string_character_source@_W@__crt_strtox@@QAE_WXZ 1002cfb8 f i libucrt:atox.obj
 0001:0002bfd0       ?get_errno@__crt_cached_ptd_host@@QAE@XZ 1002cfd0 f i libucrt:atox.obj
 0001:0002bfe0       ?get_locale@__crt_cached_ptd_host@@QAEPAU__crt_locale_pointers@@XZ 1002cfe0 f i libucrt:atox.obj
 0001:0002bff5       ?is_space@__crt_strtox@@YA_NDQAU__crt_locale_pointers@@@Z 1002cff5 f i libucrt:atox.obj
 0001:0002c013       ?is_space@__crt_strtox@@YA_N_WPAU__crt_locale_pointers@@@Z 1002d013 f i libucrt:atox.obj
 0001:0002c02b       ?maximum_signed_value@__crt_strtox@@YAJK@Z 1002d02b f i libucrt:atox.obj
 0001:0002c031       ?maximum_signed_value@__crt_strtox@@YA_J_K@Z 1002d031 f i libucrt:atox.obj
 0001:0002c03a       ?minimum_signed_value@__crt_strtox@@YAJK@Z 1002d03a f i libucrt:atox.obj
 0001:0002c040       ?minimum_signed_value@__crt_strtox@@YA_J_K@Z 1002d040 f i libucrt:atox.obj
 0001:0002c048       ?parse_digit@__crt_strtox@@YAID@Z 1002d048 f i libucrt:atox.obj
 0001:0002c082       ?parse_digit@__crt_strtox@@YAI_W@Z 1002d082 f i libucrt:atox.obj
 0001:0002c24a       ?restore_state@?$c_string_character_source@D@__crt_strtox@@QAE_NQBD@Z 1002d24a f i libucrt:atox.obj
 0001:0002c25a       ?restore_state@?$c_string_character_source@_W@__crt_strtox@@QAE_NQB_W@Z 1002d25a f i libucrt:atox.obj
 0001:0002c26a       ?save_state@?$c_string_character_source@D@__crt_strtox@@QBEPBDXZ 1002d26a f i libucrt:atox.obj
 0001:0002c26d       ?save_state@?$c_string_character_source@_W@__crt_strtox@@QBEPB_WXZ 1002d26d f i libucrt:atox.obj
 0001:0002c270       ?set@?$cached@H@__crt_cached_ptd_host@@QAEHH@Z 1002d270 f i libucrt:atox.obj
 0001:0002c282       ?unget@?$c_string_character_source@D@__crt_strtox@@QAEXD@Z 1002d282 f i libucrt:atox.obj
 0001:0002c2ab       ?unget@?$c_string_character_source@_W@__crt_strtox@@QAEX_W@Z 1002d2ab f i libucrt:atox.obj
 0001:0002c2e0       ?update_locale@__crt_cached_ptd_host@@AAEXXZ 1002d2e0 f i libucrt:atox.obj
 0001:0002c2f0       ?update_locale_slow@__crt_cached_ptd_host@@AAEXXZ 1002d2f0 f i libucrt:atox.obj
 0001:0002c34b       ?validate@?$c_string_character_source@D@__crt_strtox@@QBE_NXZ 1002d34b f i libucrt:atox.obj
 0001:0002c366       ?validate@?$c_string_character_source@_W@__crt_strtox@@QBE_NXZ 1002d366 f i libucrt:atox.obj
 0001:0002c381       ?wide_character_to_digit@__crt_strtox@@YAH_W@Z 1002d381 f i libucrt:atox.obj
 0001:0002c522       ___acrt_disable_global_locale_sync 1002d522 f i libucrt:atox.obj
 0001:0002c535       ___acrt_get_locale_data_prefix 1002d535 f i libucrt:atox.obj
 0001:0002c541       ___acrt_locale_get_ctype_array_value 1002d541 f i libucrt:atox.obj
 0001:0002c563       ___ascii_iswalpha          1002d563 f i libucrt:atox.obj
 0001:0002c586       ___ascii_toupper           1002d586 f i libucrt:atox.obj
 0001:0002c59d       ___ascii_towupper          1002d59d f i libucrt:atox.obj
 0001:0002c5b4       __atoi64                   1002d5b4 f   libucrt:atox.obj
 0001:0002c5f9       __atoi64_l                 1002d5f9 f   libucrt:atox.obj
 0001:0002c63f       __atoi_l                   1002d63f f   libucrt:atox.obj
 0001:0002c67f       __atol_l                   1002d67f f   libucrt:atox.obj
 0001:0002c6bf       __atoll_l                  1002d6bf f   libucrt:atox.obj
 0001:0002c705       __chvalidchk_l             1002d705 f i libucrt:atox.obj
 0001:0002c72d       __ischartype_l             1002d72d f i libucrt:atox.obj
 0001:0002c784       __wtoi                     1002d784 f   libucrt:atox.obj
 0001:0002c7c3       __wtoi64                   1002d7c3 f   libucrt:atox.obj
 0001:0002c808       __wtoi64_l                 1002d808 f   libucrt:atox.obj
 0001:0002c84e       __wtoi_l                   1002d84e f   libucrt:atox.obj
 0001:0002c88e       __wtol                     1002d88e f   libucrt:atox.obj
 0001:0002c8cd       __wtol_l                   1002d8cd f   libucrt:atox.obj
 0001:0002c90d       __wtoll                    1002d90d f   libucrt:atox.obj
 0001:0002c952       __wtoll_l                  1002d952 f   libucrt:atox.obj
 0001:0002c998       _atoi                      1002d998 f   libucrt:atox.obj
 0001:0002c9d7       _atol                      1002d9d7 f   libucrt:atox.obj
 0001:0002ca16       _atoll                     1002da16 f   libucrt:atox.obj
 0001:0002ca5b       ??$?0ABV?$stream_output_adapter@D@__crt_stdio_output@@AB_KABQBDAAV__crt_cached_ptd_host@@ABQAD@?$format_validation_base@DV?$stream_output_adapter@D@__crt_stdio_output@@@__crt_stdio_output@@IAE@ABV?$stream_output_adapter@D@1@AB_KABQBDAAV__crt_cached_ptd_host@@ABQAD@Z 1002da5b f i libucrt:output.obj
 0001:0002ca7e       ??$?0ABV?$stream_output_adapter@D@__crt_stdio_output@@AB_KABQBDAAV__crt_cached_ptd_host@@ABQAD@?$positional_parameter_base@DV?$stream_output_adapter@D@__crt_stdio_output@@@__crt_stdio_output@@IAE@ABV?$stream_output_adapter@D@1@AB_KABQBDAAV__crt_cached_ptd_host@@ABQAD@Z 1002da7e f i libucrt:output.obj
 0001:0002cac6       ??$?0ABV?$stream_output_adapter@D@__crt_stdio_output@@AB_KABQBDAAV__crt_cached_ptd_host@@ABQAD@?$standard_base@DV?$stream_output_adapter@D@__crt_stdio_output@@@__crt_stdio_output@@IAE@ABV?$stream_output_adapter@D@1@AB_KABQBDAAV__crt_cached_ptd_host@@ABQAD@Z 1002dac6 f i libucrt:output.obj
 0001:0002caf9       ??$?0ABV?$stream_output_adapter@_W@__crt_stdio_output@@AB_KABQB_WAAV__crt_cached_ptd_host@@ABQAD@?$format_validation_base@_WV?$stream_output_adapter@_W@__crt_stdio_output@@@__crt_stdio_output@@IAE@ABV?$stream_output_adapter@_W@1@AB_KABQB_WAAV__crt_cached_ptd_host@@ABQAD@Z 1002daf9 f i libucrt:output.obj
 0001:0002cb1c       ??$?0ABV?$stream_output_adapter@_W@__crt_stdio_output@@AB_KABQB_WAAV__crt_cached_ptd_host@@ABQAD@?$positional_parameter_base@_WV?$stream_output_adapter@_W@__crt_stdio_output@@@__crt_stdio_output@@IAE@ABV?$stream_output_adapter@_W@1@AB_KABQB_WAAV__crt_cached_ptd_host@@ABQAD@Z 1002db1c f i libucrt:output.obj
 0001:0002cb64       ??$?0ABV?$stream_output_adapter@_W@__crt_stdio_output@@AB_KABQB_WAAV__crt_cached_ptd_host@@ABQAD@?$standard_base@_WV?$stream_output_adapter@_W@__crt_stdio_output@@@__crt_stdio_output@@IAE@ABV?$stream_output_adapter@_W@1@AB_KABQB_WAAV__crt_cached_ptd_host@@ABQAD@Z 1002db64 f i libucrt:output.obj
 0001:0002cb97       ??$?0ABV?$string_output_adapter@D@__crt_stdio_output@@AB_KABQBDAAV__crt_cached_ptd_host@@ABQAD@?$format_validation_base@DV?$string_output_adapter@D@__crt_stdio_output@@@__crt_stdio_output@@IAE@ABV?$string_output_adapter@D@1@AB_KABQBDAAV__crt_cached_ptd_host@@ABQAD@Z 1002db97 f i libucrt:output.obj
 0001:0002cbba       ??$?0ABV?$string_output_adapter@D@__crt_stdio_output@@AB_KABQBDAAV__crt_cached_ptd_host@@ABQAD@?$positional_parameter_base@DV?$string_output_adapter@D@__crt_stdio_output@@@__crt_stdio_output@@IAE@ABV?$string_output_adapter@D@1@AB_KABQBDAAV__crt_cached_ptd_host@@ABQAD@Z 1002dbba f i libucrt:output.obj
 0001:0002cc02       ??$?0ABV?$string_output_adapter@D@__crt_stdio_output@@AB_KABQBDAAV__crt_cached_ptd_host@@ABQAD@?$standard_base@DV?$string_output_adapter@D@__crt_stdio_output@@@__crt_stdio_output@@IAE@ABV?$string_output_adapter@D@1@AB_KABQBDAAV__crt_cached_ptd_host@@ABQAD@Z 1002dc02 f i libucrt:output.obj
 0001:0002cc35       ??$?0ABV?$string_output_adapter@_W@__crt_stdio_output@@AB_KABQB_WAAV__crt_cached_ptd_host@@ABQAD@?$format_validation_base@_WV?$string_output_adapter@_W@__crt_stdio_output@@@__crt_stdio_output@@IAE@ABV?$string_output_adapter@_W@1@AB_KABQB_WAAV__crt_cached_ptd_host@@ABQAD@Z 1002dc35 f i libucrt:output.obj
 0001:0002cc58       ??$?0ABV?$string_output_adapter@_W@__crt_stdio_output@@AB_KABQB_WAAV__crt_cached_ptd_host@@ABQAD@?$positional_parameter_base@_WV?$string_output_adapter@_W@__crt_stdio_output@@@__crt_stdio_output@@IAE@ABV?$string_output_adapter@_W@1@AB_KABQB_WAAV__crt_cached_ptd_host@@ABQAD@Z 1002dc58 f i libucrt:output.obj
 0001:0002cca0       ??$?0ABV?$string_output_adapter@_W@__crt_stdio_output@@AB_KABQB_WAAV__crt_cached_ptd_host@@ABQAD@?$standard_base@_WV?$string_output_adapter@_W@__crt_stdio_output@@@__crt_stdio_output@@IAE@ABV?$string_output_adapter@_W@1@AB_KABQB_WAAV__crt_cached_ptd_host@@ABQAD@Z 1002dca0 f i libucrt:output.obj
 0001:0002cfd9       ??$__crt_interlocked_read@J@@YAJPDJ@Z 1002dfd9 f i libucrt:output.obj
 0001:0002cfe6       ??$_tcstol_internal@DPAPAD$0A@@@YAJAAV__crt_cached_ptd_host@@QBDQAPADH@Z 1002dfe6 f i libucrt:output.obj
 0001:0002d011       ??$_tcstol_internal@_WPAPA_W$0A@@@YAJAAV__crt_cached_ptd_host@@QB_WQAPA_WH@Z 1002e011 f i libucrt:output.obj
 0001:0002df6b       ??$count@D@formatting_buffer@__crt_stdio_output@@QBEIXZ 1002ef6b f i libucrt:output.obj
 0001:0002df83       ??$count@_W@formatting_buffer@__crt_stdio_output@@QBEIXZ 1002ef83 f i libucrt:output.obj
 0001:0002df9c       ??$data@D@formatting_buffer@__crt_stdio_output@@QAEPADXZ 1002ef9c f i libucrt:output.obj
 0001:0002dfa9       ??$data@_W@formatting_buffer@__crt_stdio_output@@QAEPA_WXZ 1002efa9 f i libucrt:output.obj
 0001:0002dfb6       ??$ensure_buffer_is_big_enough@D@formatting_buffer@__crt_stdio_output@@QAE_NIAAV__crt_cached_ptd_host@@@Z 1002efb6 f i libucrt:output.obj
 0001:0002e037       ??$ensure_buffer_is_big_enough@_W@formatting_buffer@__crt_stdio_output@@QAE_NIAAV__crt_cached_ptd_host@@@Z 1002f037 f i libucrt:output.obj
 0001:0002e0b9       ??$extract_argument_from_va_list@C_J@?$positional_parameter_base@DV?$stream_output_adapter@D@__crt_stdio_output@@@__crt_stdio_output@@IAE_NAA_J@Z 1002f0b9 f i libucrt:output.obj
 0001:0002e148       ??$extract_argument_from_va_list@C_J@?$positional_parameter_base@DV?$string_output_adapter@D@__crt_stdio_output@@@__crt_stdio_output@@IAE_NAA_J@Z 1002f148 f i libucrt:output.obj
 0001:0002e1d7       ??$extract_argument_from_va_list@C_J@?$positional_parameter_base@_WV?$stream_output_adapter@_W@__crt_stdio_output@@@__crt_stdio_output@@IAE_NAA_J@Z 1002f1d7 f i libucrt:output.obj
 0001:0002e267       ??$extract_argument_from_va_list@C_J@?$positional_parameter_base@_WV?$string_output_adapter@_W@__crt_stdio_output@@@__crt_stdio_output@@IAE_NAA_J@Z 1002f267 f i libucrt:output.obj
 0001:0002e2f7       ??$extract_argument_from_va_list@C_J@?$standard_base@DV?$stream_output_adapter@D@__crt_stdio_output@@@__crt_stdio_output@@IAE_NAA_J@Z 1002f2f7 f i libucrt:output.obj
 0001:0002e317       ??$extract_argument_from_va_list@C_J@?$standard_base@DV?$string_output_adapter@D@__crt_stdio_output@@@__crt_stdio_output@@IAE_NAA_J@Z 1002f317 f i libucrt:output.obj
 0001:0002e337       ??$extract_argument_from_va_list@C_J@?$standard_base@_WV?$stream_output_adapter@_W@__crt_stdio_output@@@__crt_stdio_output@@IAE_NAA_J@Z 1002f337 f i libucrt:output.obj
 0001:0002e357       ??$extract_argument_from_va_list@C_J@?$standard_base@_WV?$string_output_adapter@_W@__crt_stdio_output@@@__crt_stdio_output@@IAE_NAA_J@Z 1002f357 f i libucrt:output.obj
 0001:0002e377       ??$extract_argument_from_va_list@E_J@?$positional_parameter_base@DV?$stream_output_adapter@D@__crt_stdio_output@@@__crt_stdio_output@@IAE_NAA_J@Z 1002f377 f i libucrt:output.obj
 0001:0002e406       ??$extract_argument_from_va_list@E_J@?$positional_parameter_base@DV?$string_output_adapter@D@__crt_stdio_output@@@__crt_stdio_output@@IAE_NAA_J@Z 1002f406 f i libucrt:output.obj
 0001:0002e495       ??$extract_argument_from_va_list@E_J@?$positional_parameter_base@_WV?$stream_output_adapter@_W@__crt_stdio_output@@@__crt_stdio_output@@IAE_NAA_J@Z 1002f495 f i libucrt:output.obj
 0001:0002e525       ??$extract_argument_from_va_list@E_J@?$positional_parameter_base@_WV?$string_output_adapter@_W@__crt_stdio_output@@@__crt_stdio_output@@IAE_NAA_J@Z 1002f525 f i libucrt:output.obj
 0001:0002e5b5       ??$extract_argument_from_va_list@E_J@?$standard_base@DV?$stream_output_adapter@D@__crt_stdio_output@@@__crt_stdio_output@@IAE_NAA_J@Z 1002f5b5 f i libucrt:output.obj
 0001:0002e5d5       ??$extract_argument_from_va_list@E_J@?$standard_base@DV?$string_output_adapter@D@__crt_stdio_output@@@__crt_stdio_output@@IAE_NAA_J@Z 1002f5d5 f i libucrt:output.obj
 0001:0002e5f5       ??$extract_argument_from_va_list@E_J@?$standard_base@_WV?$stream_output_adapter@_W@__crt_stdio_output@@@__crt_stdio_output@@IAE_NAA_J@Z 1002f5f5 f i libucrt:output.obj
 0001:0002e615       ??$extract_argument_from_va_list@E_J@?$standard_base@_WV?$string_output_adapter@_W@__crt_stdio_output@@@__crt_stdio_output@@IAE_NAA_J@Z 1002f615 f i libucrt:output.obj
 0001:0002e635       ??$extract_argument_from_va_list@F_J@?$positional_parameter_base@DV?$stream_output_adapter@D@__crt_stdio_output@@@__crt_stdio_output@@IAE_NAA_J@Z 1002f635 f i libucrt:output.obj
 0001:0002e6c4       ??$extract_argument_from_va_list@F_J@?$positional_parameter_base@DV?$string_output_adapter@D@__crt_stdio_output@@@__crt_stdio_output@@IAE_NAA_J@Z 1002f6c4 f i libucrt:output.obj
 0001:0002e753       ??$extract_argument_from_va_list@F_J@?$positional_parameter_base@_WV?$stream_output_adapter@_W@__crt_stdio_output@@@__crt_stdio_output@@IAE_NAA_J@Z 1002f753 f i libucrt:output.obj
 0001:0002e7e3       ??$extract_argument_from_va_list@F_J@?$positional_parameter_base@_WV?$string_output_adapter@_W@__crt_stdio_output@@@__crt_stdio_output@@IAE_NAA_J@Z 1002f7e3 f i libucrt:output.obj
 0001:0002e873       ??$extract_argument_from_va_list@F_J@?$standard_base@DV?$stream_output_adapter@D@__crt_stdio_output@@@__crt_stdio_output@@IAE_NAA_J@Z 1002f873 f i libucrt:output.obj
 0001:0002e893       ??$extract_argument_from_va_list@F_J@?$standard_base@DV?$string_output_adapter@D@__crt_stdio_output@@@__crt_stdio_output@@IAE_NAA_J@Z 1002f893 f i libucrt:output.obj
 0001:0002e8b3       ??$extract_argument_from_va_list@F_J@?$standard_base@_WV?$stream_output_adapter@_W@__crt_stdio_output@@@__crt_stdio_output@@IAE_NAA_J@Z 1002f8b3 f i libucrt:output.obj
 0001:0002e8d3       ??$extract_argument_from_va_list@F_J@?$standard_base@_WV?$string_output_adapter@_W@__crt_stdio_output@@@__crt_stdio_output@@IAE_NAA_J@Z 1002f8d3 f i libucrt:output.obj
 0001:0002e8f3       ??$extract_argument_from_va_list@GD@?$positional_parameter_base@DV?$stream_output_adapter@D@__crt_stdio_output@@@__crt_stdio_output@@IAE_NAAD@Z 1002f8f3 f i libucrt:output.obj
 0001:0002e981       ??$extract_argument_from_va_list@GD@?$positional_parameter_base@DV?$string_output_adapter@D@__crt_stdio_output@@@__crt_stdio_output@@IAE_NAAD@Z 1002f981 f i libucrt:output.obj
 0001:0002ea0f       ??$extract_argument_from_va_list@GD@?$standard_base@DV?$stream_output_adapter@D@__crt_stdio_output@@@__crt_stdio_output@@IAE_NAAD@Z 1002fa0f f i libucrt:output.obj
 0001:0002ea2a       ??$extract_argument_from_va_list@GD@?$standard_base@DV?$string_output_adapter@D@__crt_stdio_output@@@__crt_stdio_output@@IAE_NAAD@Z 1002fa2a f i libucrt:output.obj
 0001:0002ea45       ??$extract_argument_from_va_list@G_J@?$positional_parameter_base@DV?$stream_output_adapter@D@__crt_stdio_output@@@__crt_stdio_output@@IAE_NAA_J@Z 1002fa45 f i libucrt:output.obj
 0001:0002ead4       ??$extract_argument_from_va_list@G_J@?$positional_parameter_base@DV?$string_output_adapter@D@__crt_stdio_output@@@__crt_stdio_output@@IAE_NAA_J@Z 1002fad4 f i libucrt:output.obj
 0001:0002eb63       ??$extract_argument_from_va_list@G_J@?$positional_parameter_base@_WV?$stream_output_adapter@_W@__crt_stdio_output@@@__crt_stdio_output@@IAE_NAA_J@Z 1002fb63 f i libucrt:output.obj
 0001:0002ebf3       ??$extract_argument_from_va_list@G_J@?$positional_parameter_base@_WV?$string_output_adapter@_W@__crt_stdio_output@@@__crt_stdio_output@@IAE_NAA_J@Z 1002fbf3 f i libucrt:output.obj
 0001:0002ec83       ??$extract_argument_from_va_list@G_J@?$standard_base@DV?$stream_output_adapter@D@__crt_stdio_output@@@__crt_stdio_output@@IAE_NAA_J@Z 1002fc83 f i libucrt:output.obj
 0001:0002eca3       ??$extract_argument_from_va_list@G_J@?$standard_base@DV?$string_output_adapter@D@__crt_stdio_output@@@__crt_stdio_output@@IAE_NAA_J@Z 1002fca3 f i libucrt:output.obj
 0001:0002ecc3       ??$extract_argument_from_va_list@G_J@?$standard_base@_WV?$stream_output_adapter@_W@__crt_stdio_output@@@__crt_stdio_output@@IAE_NAA_J@Z 1002fcc3 f i libucrt:output.obj
 0001:0002ece3       ??$extract_argument_from_va_list@G_J@?$standard_base@_WV?$string_output_adapter@_W@__crt_stdio_output@@@__crt_stdio_output@@IAE_NAA_J@Z 1002fce3 f i libucrt:output.obj
 0001:0002ed03       ??$extract_argument_from_va_list@H_J@?$positional_parameter_base@DV?$stream_output_adapter@D@__crt_stdio_output@@@__crt_stdio_output@@IAE_NAA_J@Z 1002fd03 f i libucrt:output.obj
 0001:0002ed8c       ??$extract_argument_from_va_list@H_J@?$positional_parameter_base@DV?$string_output_adapter@D@__crt_stdio_output@@@__crt_stdio_output@@IAE_NAA_J@Z 1002fd8c f i libucrt:output.obj
 0001:0002ee15       ??$extract_argument_from_va_list@H_J@?$positional_parameter_base@_WV?$stream_output_adapter@_W@__crt_stdio_output@@@__crt_stdio_output@@IAE_NAA_J@Z 1002fe15 f i libucrt:output.obj
 0001:0002ee9f       ??$extract_argument_from_va_list@H_J@?$positional_parameter_base@_WV?$string_output_adapter@_W@__crt_stdio_output@@@__crt_stdio_output@@IAE_NAA_J@Z 1002fe9f f i libucrt:output.obj
 0001:0002ef29       ??$extract_argument_from_va_list@H_J@?$standard_base@DV?$stream_output_adapter@D@__crt_stdio_output@@@__crt_stdio_output@@IAE_NAA_J@Z 1002ff29 f i libucrt:output.obj
 0001:0002ef48       ??$extract_argument_from_va_list@H_J@?$standard_base@DV?$string_output_adapter@D@__crt_stdio_output@@@__crt_stdio_output@@IAE_NAA_J@Z 1002ff48 f i libucrt:output.obj
 0001:0002ef67       ??$extract_argument_from_va_list@H_J@?$standard_base@_WV?$stream_output_adapter@_W@__crt_stdio_output@@@__crt_stdio_output@@IAE_NAA_J@Z 1002ff67 f i libucrt:output.obj
 0001:0002ef86       ??$extract_argument_from_va_list@H_J@?$standard_base@_WV?$string_output_adapter@_W@__crt_stdio_output@@@__crt_stdio_output@@IAE_NAA_J@Z 1002ff86 f i libucrt:output.obj
 0001:0002efa5       ??$extract_argument_from_va_list@I_J@?$positional_parameter_base@DV?$stream_output_adapter@D@__crt_stdio_output@@@__crt_stdio_output@@IAE_NAA_J@Z 1002ffa5 f i libucrt:output.obj
 0001:0002f03b       ??$extract_argument_from_va_list@I_J@?$positional_parameter_base@DV?$string_output_adapter@D@__crt_stdio_output@@@__crt_stdio_output@@IAE_NAA_J@Z 1003003b f i libucrt:output.obj
 0001:0002f0d1       ??$extract_argument_from_va_list@I_J@?$positional_parameter_base@_WV?$stream_output_adapter@_W@__crt_stdio_output@@@__crt_stdio_output@@IAE_NAA_J@Z 100300d1 f i libucrt:output.obj
 0001:0002f168       ??$extract_argument_from_va_list@I_J@?$positional_parameter_base@_WV?$string_output_adapter@_W@__crt_stdio_output@@@__crt_stdio_output@@IAE_NAA_J@Z 10030168 f i libucrt:output.obj
 0001:0002f1ff       ??$extract_argument_from_va_list@I_J@?$standard_base@DV?$stream_output_adapter@D@__crt_stdio_output@@@__crt_stdio_output@@IAE_NAA_J@Z 100301ff f i libucrt:output.obj
 0001:0002f21e       ??$extract_argument_from_va_list@I_J@?$standard_base@DV?$string_output_adapter@D@__crt_stdio_output@@@__crt_stdio_output@@IAE_NAA_J@Z 1003021e f i libucrt:output.obj
 0001:0002f23d       ??$extract_argument_from_va_list@I_J@?$standard_base@_WV?$stream_output_adapter@_W@__crt_stdio_output@@@__crt_stdio_output@@IAE_NAA_J@Z 1003023d f i libucrt:output.obj
 0001:0002f25c       ??$extract_argument_from_va_list@I_J@?$standard_base@_WV?$string_output_adapter@_W@__crt_stdio_output@@@__crt_stdio_output@@IAE_NAA_J@Z 1003025c f i libucrt:output.obj
 0001:0002f27b       ??$extract_argument_from_va_list@PADPAD@?$positional_parameter_base@DV?$stream_output_adapter@D@__crt_stdio_output@@@__crt_stdio_output@@IAE_NAAPAD@Z 1003027b f i libucrt:output.obj
 0001:0002f309       ??$extract_argument_from_va_list@PADPAD@?$positional_parameter_base@DV?$string_output_adapter@D@__crt_stdio_output@@@__crt_stdio_output@@IAE_NAAPAD@Z 10030309 f i libucrt:output.obj
 0001:0002f397       ??$extract_argument_from_va_list@PADPAD@?$positional_parameter_base@_WV?$stream_output_adapter@_W@__crt_stdio_output@@@__crt_stdio_output@@IAE_NAAPAD@Z 10030397 f i libucrt:output.obj
 0001:0002f426       ??$extract_argument_from_va_list@PADPAD@?$positional_parameter_base@_WV?$string_output_adapter@_W@__crt_stdio_output@@@__crt_stdio_output@@IAE_NAAPAD@Z 10030426 f i libucrt:output.obj
 0001:0002f4b5       ??$extract_argument_from_va_list@PADPAD@?$standard_base@DV?$stream_output_adapter@D@__crt_stdio_output@@@__crt_stdio_output@@IAE_NAAPAD@Z 100304b5 f i libucrt:output.obj
 0001:0002f4d2       ??$extract_argument_from_va_list@PADPAD@?$standard_base@DV?$string_output_adapter@D@__crt_stdio_output@@@__crt_stdio_output@@IAE_NAAPAD@Z 100304d2 f i libucrt:output.obj
 0001:0002f4ef       ??$extract_argument_from_va_list@PADPAD@?$standard_base@_WV?$stream_output_adapter@_W@__crt_stdio_output@@@__crt_stdio_output@@IAE_NAAPAD@Z 100304ef f i libucrt:output.obj
 0001:0002f50c       ??$extract_argument_from_va_list@PADPAD@?$standard_base@_WV?$string_output_adapter@_W@__crt_stdio_output@@@__crt_stdio_output@@IAE_NAAPAD@Z 1003050c f i libucrt:output.obj
 0001:0002f529       ??$extract_argument_from_va_list@PAUansi_string@?1??type_case_Z@?$output_processor@DV?$stream_output_adapter@D@__crt_stdio_output@@V?$format_validation_base@DV?$stream_output_adapter@D@__crt_stdio_output@@@2@@__crt_stdio_output@@AAE_NXZ@PAU1?1??234@AAE_NXZ@@?$standard_base@DV?$stream_output_adapter@D@__crt_stdio_output@@@__crt_stdio_output@@IAE_NAAPAUansi_string@?1??type_case_Z@?$output_processor@DV?$stream_output_adapter@D@__crt_stdio_output@@V?$format_validation_base@DV?$stream_output_adapter@D@__crt_stdio_output@@@2@@1@AAE_NXZ@@Z 10030529 f i libucrt:output.obj
 0001:0002f546       ??$extract_argument_from_va_list@PAUansi_string@?1??type_case_Z@?$output_processor@DV?$stream_output_adapter@D@__crt_stdio_output@@V?$positional_parameter_base@DV?$stream_output_adapter@D@__crt_stdio_output@@@2@@__crt_stdio_output@@AAE_NXZ@PAU1?1??234@AAE_NXZ@@?$positional_parameter_base@DV?$stream_output_adapter@D@__crt_stdio_output@@@__crt_stdio_output@@IAE_NAAPAUansi_string@?1??type_case_Z@?$output_processor@DV?$stream_output_adapter@D@__crt_stdio_output@@V?$positional_parameter_base@DV?$stream_output_adapter@D@__crt_stdio_output@@@2@@1@AAE_NXZ@@Z 10030546 f i libucrt:output.obj
 0001:0002f5d4       ??$extract_argument_from_va_list@PAUansi_string@?1??type_case_Z@?$output_processor@DV?$stream_output_adapter@D@__crt_stdio_output@@V?$positional_parameter_base@DV?$stream_output_adapter@D@__crt_stdio_output@@@2@@__crt_stdio_output@@AAE_NXZ@PAU1?1??234@AAE_NXZ@@?$standard_base@DV?$stream_output_adapter@D@__crt_stdio_output@@@__crt_stdio_output@@IAE_NAAPAUansi_string@?1??type_case_Z@?$output_processor@DV?$stream_output_adapter@D@__crt_stdio_output@@V?$positional_parameter_base@DV?$stream_output_adapter@D@__crt_stdio_output@@@2@@1@AAE_NXZ@@Z 100305d4 f i libucrt:output.obj
 0001:0002f5f1       ??$extract_argument_from_va_list@PAUansi_string@?1??type_case_Z@?$output_processor@DV?$stream_output_adapter@D@__crt_stdio_output@@V?$standard_base@DV?$stream_output_adapter@D@__crt_stdio_output@@@2@@__crt_stdio_output@@AAE_NXZ@PAU1?1??234@AAE_NXZ@@?$standard_base@DV?$stream_output_adapter@D@__crt_stdio_output@@@__crt_stdio_output@@IAE_NAAPAUansi_string@?1??type_case_Z@?$output_processor@DV?$stream_output_adapter@D@__crt_stdio_output@@V?$standard_base@DV?$stream_output_adapter@D@__crt_stdio_output@@@2@@1@AAE_NXZ@@Z 100305f1 f i libucrt:output.obj
 0001:0002f60e       ??$extract_argument_from_va_list@PAUansi_string@?1??type_case_Z@?$output_processor@DV?$string_output_adapter@D@__crt_stdio_output@@V?$format_validation_base@DV?$string_output_adapter@D@__crt_stdio_output@@@2@@__crt_stdio_output@@AAE_NXZ@PAU1?1??234@AAE_NXZ@@?$standard_base@DV?$string_output_adapter@D@__crt_stdio_output@@@__crt_stdio_output@@IAE_NAAPAUansi_string@?1??type_case_Z@?$output_processor@DV?$string_output_adapter@D@__crt_stdio_output@@V?$format_validation_base@DV?$string_output_adapter@D@__crt_stdio_output@@@2@@1@AAE_NXZ@@Z 1003060e f i libucrt:output.obj
 0001:0002f62b       ??$extract_argument_from_va_list@PAUansi_string@?1??type_case_Z@?$output_processor@DV?$string_output_adapter@D@__crt_stdio_output@@V?$positional_parameter_base@DV?$string_output_adapter@D@__crt_stdio_output@@@2@@__crt_stdio_output@@AAE_NXZ@PAU1?1??234@AAE_NXZ@@?$positional_parameter_base@DV?$string_output_adapter@D@__crt_stdio_output@@@__crt_stdio_output@@IAE_NAAPAUansi_string@?1??type_case_Z@?$output_processor@DV?$string_output_adapter@D@__crt_stdio_output@@V?$positional_parameter_base@DV?$string_output_adapter@D@__crt_stdio_output@@@2@@1@AAE_NXZ@@Z 1003062b f i libucrt:output.obj
 0001:0002f6b9       ??$extract_argument_from_va_list@PAUansi_string@?1??type_case_Z@?$output_processor@DV?$string_output_adapter@D@__crt_stdio_output@@V?$positional_parameter_base@DV?$string_output_adapter@D@__crt_stdio_output@@@2@@__crt_stdio_output@@AAE_NXZ@PAU1?1??234@AAE_NXZ@@?$standard_base@DV?$string_output_adapter@D@__crt_stdio_output@@@__crt_stdio_output@@IAE_NAAPAUansi_string@?1??type_case_Z@?$output_processor@DV?$string_output_adapter@D@__crt_stdio_output@@V?$positional_parameter_base@DV?$string_output_adapter@D@__crt_stdio_output@@@2@@1@AAE_NXZ@@Z 100306b9 f i libucrt:output.obj
 0001:0002f6d6       ??$extract_argument_from_va_list@PAUansi_string@?1??type_case_Z@?$output_processor@DV?$string_output_adapter@D@__crt_stdio_output@@V?$standard_base@DV?$string_output_adapter@D@__crt_stdio_output@@@2@@__crt_stdio_output@@AAE_NXZ@PAU1?1??234@AAE_NXZ@@?$standard_base@DV?$string_output_adapter@D@__crt_stdio_output@@@__crt_stdio_output@@IAE_NAAPAUansi_string@?1??type_case_Z@?$output_processor@DV?$string_output_adapter@D@__crt_stdio_output@@V?$standard_base@DV?$string_output_adapter@D@__crt_stdio_output@@@2@@1@AAE_NXZ@@Z 100306d6 f i libucrt:output.obj
 0001:0002f6f3       ??$extract_argument_from_va_list@PAUansi_string@?1??type_case_Z@?$output_processor@_WV?$stream_output_adapter@_W@__crt_stdio_output@@V?$format_validation_base@_WV?$stream_output_adapter@_W@__crt_stdio_output@@@2@@__crt_stdio_output@@AAE_NXZ@PAU1?1??234@AAE_NXZ@@?$standard_base@_WV?$stream_output_adapter@_W@__crt_stdio_output@@@__crt_stdio_output@@IAE_NAAPAUansi_string@?1??type_case_Z@?$output_processor@_WV?$stream_output_adapter@_W@__crt_stdio_output@@V?$format_validation_base@_WV?$stream_output_adapter@_W@__crt_stdio_output@@@2@@1@AAE_NXZ@@Z 100306f3 f i libucrt:output.obj
 0001:0002f710       ??$extract_argument_from_va_list@PAUansi_string@?1??type_case_Z@?$output_processor@_WV?$stream_output_adapter@_W@__crt_stdio_output@@V?$positional_parameter_base@_WV?$stream_output_adapter@_W@__crt_stdio_output@@@2@@__crt_stdio_output@@AAE_NXZ@PAU1?1??234@AAE_NXZ@@?$positional_parameter_base@_WV?$stream_output_adapter@_W@__crt_stdio_output@@@__crt_stdio_output@@IAE_NAAPAUansi_string@?1??type_case_Z@?$output_processor@_WV?$stream_output_adapter@_W@__crt_stdio_output@@V?$positional_parameter_base@_WV?$stream_output_adapter@_W@__crt_stdio_output@@@2@@1@AAE_NXZ@@Z 10030710 f i libucrt:output.obj
 0001:0002f79f       ??$extract_argument_from_va_list@PAUansi_string@?1??type_case_Z@?$output_processor@_WV?$stream_output_adapter@_W@__crt_stdio_output@@V?$positional_parameter_base@_WV?$stream_output_adapter@_W@__crt_stdio_output@@@2@@__crt_stdio_output@@AAE_NXZ@PAU1?1??234@AAE_NXZ@@?$standard_base@_WV?$stream_output_adapter@_W@__crt_stdio_output@@@__crt_stdio_output@@IAE_NAAPAUansi_string@?1??type_case_Z@?$output_processor@_WV?$stream_output_adapter@_W@__crt_stdio_output@@V?$positional_parameter_base@_WV?$stream_output_adapter@_W@__crt_stdio_output@@@2@@1@AAE_NXZ@@Z 1003079f f i libucrt:output.obj
 0001:0002f7bc       ??$extract_argument_from_va_list@PAUansi_string@?1??type_case_Z@?$output_processor@_WV?$stream_output_adapter@_W@__crt_stdio_output@@V?$standard_base@_WV?$stream_output_adapter@_W@__crt_stdio_output@@@2@@__crt_stdio_output@@AAE_NXZ@PAU1?1??234@AAE_NXZ@@?$standard_base@_WV?$stream_output_adapter@_W@__crt_stdio_output@@@__crt_stdio_output@@IAE_NAAPAUansi_string@?1??type_case_Z@?$output_processor@_WV?$stream_output_adapter@_W@__crt_stdio_output@@V?$standard_base@_WV?$stream_output_adapter@_W@__crt_stdio_output@@@2@@1@AAE_NXZ@@Z 100307bc f i libucrt:output.obj
 0001:0002f7d9       ??$extract_argument_from_va_list@PAUansi_string@?1??type_case_Z@?$output_processor@_WV?$string_output_adapter@_W@__crt_stdio_output@@V?$format_validation_base@_WV?$string_output_adapter@_W@__crt_stdio_output@@@2@@__crt_stdio_output@@AAE_NXZ@PAU1?1??234@AAE_NXZ@@?$standard_base@_WV?$string_output_adapter@_W@__crt_stdio_output@@@__crt_stdio_output@@IAE_NAAPAUansi_string@?1??type_case_Z@?$output_processor@_WV?$string_output_adapter@_W@__crt_stdio_output@@V?$format_validation_base@_WV?$string_output_adapter@_W@__crt_stdio_output@@@2@@1@AAE_NXZ@@Z 100307d9 f i libucrt:output.obj
 0001:0002f7f6       ??$extract_argument_from_va_list@PAUansi_string@?1??type_case_Z@?$output_processor@_WV?$string_output_adapter@_W@__crt_stdio_output@@V?$positional_parameter_base@_WV?$string_output_adapter@_W@__crt_stdio_output@@@2@@__crt_stdio_output@@AAE_NXZ@PAU1?1??234@AAE_NXZ@@?$positional_parameter_base@_WV?$string_output_adapter@_W@__crt_stdio_output@@@__crt_stdio_output@@IAE_NAAPAUansi_string@?1??type_case_Z@?$output_processor@_WV?$string_output_adapter@_W@__crt_stdio_output@@V?$positional_parameter_base@_WV?$string_output_adapter@_W@__crt_stdio_output@@@2@@1@AAE_NXZ@@Z 100307f6 f i libucrt:output.obj
 0001:0002f885       ??$extract_argument_from_va_list@PAUansi_string@?1??type_case_Z@?$output_processor@_WV?$string_output_adapter@_W@__crt_stdio_output@@V?$positional_parameter_base@_WV?$string_output_adapter@_W@__crt_stdio_output@@@2@@__crt_stdio_output@@AAE_NXZ@PAU1?1??234@AAE_NXZ@@?$standard_base@_WV?$string_output_adapter@_W@__crt_stdio_output@@@__crt_stdio_output@@IAE_NAAPAUansi_string@?1??type_case_Z@?$output_processor@_WV?$string_output_adapter@_W@__crt_stdio_output@@V?$positional_parameter_base@_WV?$string_output_adapter@_W@__crt_stdio_output@@@2@@1@AAE_NXZ@@Z 10030885 f i libucrt:output.obj
 0001:0002f8a2       ??$extract_argument_from_va_list@PAUansi_string@?1??type_case_Z@?$output_processor@_WV?$string_output_adapter@_W@__crt_stdio_output@@V?$standard_base@_WV?$string_output_adapter@_W@__crt_stdio_output@@@2@@__crt_stdio_output@@AAE_NXZ@PAU1?1??234@AAE_NXZ@@?$standard_base@_WV?$string_output_adapter@_W@__crt_stdio_output@@@__crt_stdio_output@@IAE_NAAPAUansi_string@?1??type_case_Z@?$output_processor@_WV?$string_output_adapter@_W@__crt_stdio_output@@V?$standard_base@_WV?$string_output_adapter@_W@__crt_stdio_output@@@2@@1@AAE_NXZ@@Z 100308a2 f i libucrt:output.obj
 0001:0002f8bf       ??$extract_argument_from_va_list@PAXPAX@?$positional_parameter_base@DV?$stream_output_adapter@D@__crt_stdio_output@@@__crt_stdio_output@@IAE_NAAPAX@Z 100308bf f i libucrt:output.obj
 0001:0002f94d       ??$extract_argument_from_va_list@PAXPAX@?$positional_parameter_base@DV?$string_output_adapter@D@__crt_stdio_output@@@__crt_stdio_output@@IAE_NAAPAX@Z 1003094d f i libucrt:output.obj
 0001:0002f9db       ??$extract_argument_from_va_list@PAXPAX@?$positional_parameter_base@_WV?$stream_output_adapter@_W@__crt_stdio_output@@@__crt_stdio_output@@IAE_NAAPAX@Z 100309db f i libucrt:output.obj
 0001:0002fa6a       ??$extract_argument_from_va_list@PAXPAX@?$positional_parameter_base@_WV?$string_output_adapter@_W@__crt_stdio_output@@@__crt_stdio_output@@IAE_NAAPAX@Z 10030a6a f i libucrt:output.obj
 0001:0002faf9       ??$extract_argument_from_va_list@PAXPAX@?$standard_base@DV?$stream_output_adapter@D@__crt_stdio_output@@@__crt_stdio_output@@IAE_NAAPAX@Z 10030af9 f i libucrt:output.obj
 0001:0002fb16       ??$extract_argument_from_va_list@PAXPAX@?$standard_base@DV?$string_output_adapter@D@__crt_stdio_output@@@__crt_stdio_output@@IAE_NAAPAX@Z 10030b16 f i libucrt:output.obj
 0001:0002fb33       ??$extract_argument_from_va_list@PAXPAX@?$standard_base@_WV?$stream_output_adapter@_W@__crt_stdio_output@@@__crt_stdio_output@@IAE_NAAPAX@Z 10030b33 f i libucrt:output.obj
 0001:0002fb50       ??$extract_argument_from_va_list@PAXPAX@?$standard_base@_WV?$string_output_adapter@_W@__crt_stdio_output@@@__crt_stdio_output@@IAE_NAAPAX@Z 10030b50 f i libucrt:output.obj
 0001:0002fb6d       ??$extract_argument_from_va_list@U_CRT_DOUBLE@@U1@@?$positional_parameter_base@DV?$stream_output_adapter@D@__crt_stdio_output@@@__crt_stdio_output@@IAE_NAAU_CRT_DOUBLE@@@Z 10030b6d f i libucrt:output.obj
 0001:0002fc03       ??$extract_argument_from_va_list@U_CRT_DOUBLE@@U1@@?$positional_parameter_base@DV?$string_output_adapter@D@__crt_stdio_output@@@__crt_stdio_output@@IAE_NAAU_CRT_DOUBLE@@@Z 10030c03 f i libucrt:output.obj
 0001:0002fc99       ??$extract_argument_from_va_list@U_CRT_DOUBLE@@U1@@?$positional_parameter_base@_WV?$stream_output_adapter@_W@__crt_stdio_output@@@__crt_stdio_output@@IAE_NAAU_CRT_DOUBLE@@@Z 10030c99 f i libucrt:output.obj
 0001:0002fd30       ??$extract_argument_from_va_list@U_CRT_DOUBLE@@U1@@?$positional_parameter_base@_WV?$string_output_adapter@_W@__crt_stdio_output@@@__crt_stdio_output@@IAE_NAAU_CRT_DOUBLE@@@Z 10030d30 f i libucrt:output.obj
 0001:0002fdc7       ??$extract_argument_from_va_list@U_CRT_DOUBLE@@U1@@?$standard_base@DV?$stream_output_adapter@D@__crt_stdio_output@@@__crt_stdio_output@@IAE_NAAU_CRT_DOUBLE@@@Z 10030dc7 f i libucrt:output.obj
 0001:0002fde8       ??$extract_argument_from_va_list@U_CRT_DOUBLE@@U1@@?$standard_base@DV?$string_output_adapter@D@__crt_stdio_output@@@__crt_stdio_output@@IAE_NAAU_CRT_DOUBLE@@@Z 10030de8 f i libucrt:output.obj
 0001:0002fe09       ??$extract_argument_from_va_list@U_CRT_DOUBLE@@U1@@?$standard_base@_WV?$stream_output_adapter@_W@__crt_stdio_output@@@__crt_stdio_output@@IAE_NAAU_CRT_DOUBLE@@@Z 10030e09 f i libucrt:output.obj
 0001:0002fe2a       ??$extract_argument_from_va_list@U_CRT_DOUBLE@@U1@@?$standard_base@_WV?$string_output_adapter@_W@__crt_stdio_output@@@__crt_stdio_output@@IAE_NAAU_CRT_DOUBLE@@@Z 10030e2a f i libucrt:output.obj
 0001:0002fe4b       ??$extract_argument_from_va_list@_J_J@?$positional_parameter_base@DV?$stream_output_adapter@D@__crt_stdio_output@@@__crt_stdio_output@@IAE_NAA_J@Z 10030e4b f i libucrt:output.obj
 0001:0002fee5       ??$extract_argument_from_va_list@_J_J@?$positional_parameter_base@DV?$string_output_adapter@D@__crt_stdio_output@@@__crt_stdio_output@@IAE_NAA_J@Z 10030ee5 f i libucrt:output.obj
 0001:0002ff7f       ??$extract_argument_from_va_list@_J_J@?$positional_parameter_base@_WV?$stream_output_adapter@_W@__crt_stdio_output@@@__crt_stdio_output@@IAE_NAA_J@Z 10030f7f f i libucrt:output.obj
 0001:0003001a       ??$extract_argument_from_va_list@_J_J@?$positional_parameter_base@_WV?$string_output_adapter@_W@__crt_stdio_output@@@__crt_stdio_output@@IAE_NAA_J@Z 1003101a f i libucrt:output.obj
 0001:000300b5       ??$extract_argument_from_va_list@_J_J@?$standard_base@DV?$stream_output_adapter@D@__crt_stdio_output@@@__crt_stdio_output@@IAE_NAA_J@Z 100310b5 f i libucrt:output.obj
 0001:000300d6       ??$extract_argument_from_va_list@_J_J@?$standard_base@DV?$string_output_adapter@D@__crt_stdio_output@@@__crt_stdio_output@@IAE_NAA_J@Z 100310d6 f i libucrt:output.obj
 0001:000300f7       ??$extract_argument_from_va_list@_J_J@?$standard_base@_WV?$stream_output_adapter@_W@__crt_stdio_output@@@__crt_stdio_output@@IAE_NAA_J@Z 100310f7 f i libucrt:output.obj
 0001:00030118       ??$extract_argument_from_va_list@_J_J@?$standard_base@_WV?$string_output_adapter@_W@__crt_stdio_output@@@__crt_stdio_output@@IAE_NAA_J@Z 10031118 f i libucrt:output.obj
 0001:00030139       ??$extract_argument_from_va_list@_K_J@?$positional_parameter_base@DV?$stream_output_adapter@D@__crt_stdio_output@@@__crt_stdio_output@@IAE_NAA_J@Z 10031139 f i libucrt:output.obj
 0001:000301d3       ??$extract_argument_from_va_list@_K_J@?$positional_parameter_base@DV?$string_output_adapter@D@__crt_stdio_output@@@__crt_stdio_output@@IAE_NAA_J@Z 100311d3 f i libucrt:output.obj
 0001:0003026d       ??$extract_argument_from_va_list@_K_J@?$positional_parameter_base@_WV?$stream_output_adapter@_W@__crt_stdio_output@@@__crt_stdio_output@@IAE_NAA_J@Z 1003126d f i libucrt:output.obj
 0001:00030308       ??$extract_argument_from_va_list@_K_J@?$positional_parameter_base@_WV?$string_output_adapter@_W@__crt_stdio_output@@@__crt_stdio_output@@IAE_NAA_J@Z 10031308 f i libucrt:output.obj
 0001:000303a3       ??$extract_argument_from_va_list@_K_J@?$standard_base@DV?$stream_output_adapter@D@__crt_stdio_output@@@__crt_stdio_output@@IAE_NAA_J@Z 100313a3 f i libucrt:output.obj
 0001:000303c4       ??$extract_argument_from_va_list@_K_J@?$standard_base@DV?$string_output_adapter@D@__crt_stdio_output@@@__crt_stdio_output@@IAE_NAA_J@Z 100313c4 f i libucrt:output.obj
 0001:000303e5       ??$extract_argument_from_va_list@_K_J@?$standard_base@_WV?$stream_output_adapter@_W@__crt_stdio_output@@@__crt_stdio_output@@IAE_NAA_J@Z 100313e5 f i libucrt:output.obj
 0001:00030406       ??$extract_argument_from_va_list@_K_J@?$standard_base@_WV?$string_output_adapter@_W@__crt_stdio_output@@@__crt_stdio_output@@IAE_NAA_J@Z 10031406 f i libucrt:output.obj
 0001:00030427       ??$extract_argument_from_va_list@_W_W@?$positional_parameter_base@DV?$stream_output_adapter@D@__crt_stdio_output@@@__crt_stdio_output@@IAE_NAA_W@Z 10031427 f i libucrt:output.obj
 0001:000304b9       ??$extract_argument_from_va_list@_W_W@?$positional_parameter_base@DV?$string_output_adapter@D@__crt_stdio_output@@@__crt_stdio_output@@IAE_NAA_W@Z 100314b9 f i libucrt:output.obj
 0001:0003054b       ??$extract_argument_from_va_list@_W_W@?$positional_parameter_base@_WV?$stream_output_adapter@_W@__crt_stdio_output@@@__crt_stdio_output@@IAE_NAA_W@Z 1003154b f i libucrt:output.obj
 0001:000305de       ??$extract_argument_from_va_list@_W_W@?$positional_parameter_base@_WV?$string_output_adapter@_W@__crt_stdio_output@@@__crt_stdio_output@@IAE_NAA_W@Z 100315de f i libucrt:output.obj
 0001:00030671       ??$extract_argument_from_va_list@_W_W@?$standard_base@DV?$stream_output_adapter@D@__crt_stdio_output@@@__crt_stdio_output@@IAE_NAA_W@Z 10031671 f i libucrt:output.obj
 0001:0003068e       ??$extract_argument_from_va_list@_W_W@?$standard_base@DV?$string_output_adapter@D@__crt_stdio_output@@@__crt_stdio_output@@IAE_NAA_W@Z 1003168e f i libucrt:output.obj
 0001:000306ab       ??$extract_argument_from_va_list@_W_W@?$standard_base@_WV?$stream_output_adapter@_W@__crt_stdio_output@@@__crt_stdio_output@@IAE_NAA_W@Z 100316ab f i libucrt:output.obj
 0001:000306c8       ??$extract_argument_from_va_list@_W_W@?$standard_base@_WV?$string_output_adapter@_W@__crt_stdio_output@@@__crt_stdio_output@@IAE_NAA_W@Z 100316c8 f i libucrt:output.obj
 0001:000306e5       ??$get_parameter_type@D@?$positional_parameter_base@DV?$stream_output_adapter@D@__crt_stdio_output@@@__crt_stdio_output@@CA?AW4parameter_type@01@PAD@Z 100316e5 f i libucrt:output.obj
 0001:000306e9       ??$get_parameter_type@D@?$positional_parameter_base@DV?$string_output_adapter@D@__crt_stdio_output@@@__crt_stdio_output@@CA?AW4parameter_type@01@PAD@Z 100316e9 f i libucrt:output.obj
 0001:000306ed       ??$get_parameter_type@D@?$positional_parameter_base@_WV?$stream_output_adapter@_W@__crt_stdio_output@@@__crt_stdio_output@@CA?AW4parameter_type@01@PAD@Z 100316ed f i libucrt:output.obj
 0001:000306f1       ??$get_parameter_type@D@?$positional_parameter_base@_WV?$string_output_adapter@_W@__crt_stdio_output@@@__crt_stdio_output@@CA?AW4parameter_type@01@PAD@Z 100316f1 f i libucrt:output.obj
 0001:000306f5       ??$get_parameter_type@Uansi_string@?1??type_case_Z@?$output_processor@DV?$stream_output_adapter@D@__crt_stdio_output@@V?$positional_parameter_base@DV?$stream_output_adapter@D@__crt_stdio_output@@@2@@__crt_stdio_output@@AAE_NXZ@@?$positional_parameter_base@DV?$stream_output_adapter@D@__crt_stdio_output@@@__crt_stdio_output@@CA?AW4parameter_type@01@PAUansi_string@?1??type_case_Z@?$output_processor@DV?$stream_output_adapter@D@__crt_stdio_output@@V?$positional_parameter_base@DV?$stream_output_adapter@D@__crt_stdio_output@@@2@@1@AAE_NXZ@@Z 100316f5 f i libucrt:output.obj
 0001:000306f9       ??$get_parameter_type@Uansi_string@?1??type_case_Z@?$output_processor@DV?$string_output_adapter@D@__crt_stdio_output@@V?$positional_parameter_base@DV?$string_output_adapter@D@__crt_stdio_output@@@2@@__crt_stdio_output@@AAE_NXZ@@?$positional_parameter_base@DV?$string_output_adapter@D@__crt_stdio_output@@@__crt_stdio_output@@CA?AW4parameter_type@01@PAUansi_string@?1??type_case_Z@?$output_processor@DV?$string_output_adapter@D@__crt_stdio_output@@V?$positional_parameter_base@DV?$string_output_adapter@D@__crt_stdio_output@@@2@@1@AAE_NXZ@@Z 100316f9 f i libucrt:output.obj
 0001:000306fd       ??$get_parameter_type@Uansi_string@?1??type_case_Z@?$output_processor@_WV?$stream_output_adapter@_W@__crt_stdio_output@@V?$positional_parameter_base@_WV?$stream_output_adapter@_W@__crt_stdio_output@@@2@@__crt_stdio_output@@AAE_NXZ@@?$positional_parameter_base@_WV?$stream_output_adapter@_W@__crt_stdio_output@@@__crt_stdio_output@@CA?AW4parameter_type@01@PAUansi_string@?1??type_case_Z@?$output_processor@_WV?$stream_output_adapter@_W@__crt_stdio_output@@V?$positional_parameter_base@_WV?$stream_output_adapter@_W@__crt_stdio_output@@@2@@1@AAE_NXZ@@Z 100316fd f i libucrt:output.obj
 0001:00030701       ??$get_parameter_type@Uansi_string@?1??type_case_Z@?$output_processor@_WV?$string_output_adapter@_W@__crt_stdio_output@@V?$positional_parameter_base@_WV?$string_output_adapter@_W@__crt_stdio_output@@@2@@__crt_stdio_output@@AAE_NXZ@@?$positional_parameter_base@_WV?$string_output_adapter@_W@__crt_stdio_output@@@__crt_stdio_output@@CA?AW4parameter_type@01@PAUansi_string@?1??type_case_Z@?$output_processor@_WV?$string_output_adapter@_W@__crt_stdio_output@@V?$positional_parameter_base@_WV?$string_output_adapter@_W@__crt_stdio_output@@@2@@1@AAE_NXZ@@Z 10031701 f i libucrt:output.obj
 0001:00030705       ??$get_parameter_type@X@?$positional_parameter_base@DV?$stream_output_adapter@D@__crt_stdio_output@@@__crt_stdio_output@@CA?AW4parameter_type@01@PAX@Z 10031705 f i libucrt:output.obj
 0001:00030709       ??$get_parameter_type@X@?$positional_parameter_base@DV?$string_output_adapter@D@__crt_stdio_output@@@__crt_stdio_output@@CA?AW4parameter_type@01@PAX@Z 10031709 f i libucrt:output.obj
 0001:0003070d       ??$get_parameter_type@X@?$positional_parameter_base@_WV?$stream_output_adapter@_W@__crt_stdio_output@@@__crt_stdio_output@@CA?AW4parameter_type@01@PAX@Z 1003170d f i libucrt:output.obj
 0001:00030711       ??$get_parameter_type@X@?$positional_parameter_base@_WV?$string_output_adapter@_W@__crt_stdio_output@@@__crt_stdio_output@@CA?AW4parameter_type@01@PAX@Z 10031711 f i libucrt:output.obj
 0001:00030715       ??$is_character_specifier@D@?$positional_parameter_base@DV?$stream_output_adapter@D@__crt_stdio_output@@@__crt_stdio_output@@CA_ND@Z 10031715 f i libucrt:output.obj
 0001:0003072d       ??$is_character_specifier@D@?$positional_parameter_base@DV?$string_output_adapter@D@__crt_stdio_output@@@__crt_stdio_output@@CA_ND@Z 1003172d f i libucrt:output.obj
 0001:00030745       ??$is_character_specifier@_W@?$positional_parameter_base@_WV?$stream_output_adapter@_W@__crt_stdio_output@@@__crt_stdio_output@@CA_N_W@Z 10031745 f i libucrt:output.obj
 0001:00030760       ??$is_character_specifier@_W@?$positional_parameter_base@_WV?$string_output_adapter@_W@__crt_stdio_output@@@__crt_stdio_output@@CA_N_W@Z 10031760 f i libucrt:output.obj
 0001:0003077b       ??$is_integral_specifier@D@?$positional_parameter_base@DV?$stream_output_adapter@D@__crt_stdio_output@@@__crt_stdio_output@@CA_ND@Z 1003177b f i libucrt:output.obj
 0001:000307a7       ??$is_integral_specifier@D@?$positional_parameter_base@DV?$string_output_adapter@D@__crt_stdio_output@@@__crt_stdio_output@@CA_ND@Z 100317a7 f i libucrt:output.obj
 0001:000307d3       ??$is_integral_specifier@_W@?$positional_parameter_base@_WV?$stream_output_adapter@_W@__crt_stdio_output@@@__crt_stdio_output@@CA_N_W@Z 100317d3 f i libucrt:output.obj
 0001:0003080e       ??$is_integral_specifier@_W@?$positional_parameter_base@_WV?$string_output_adapter@_W@__crt_stdio_output@@@__crt_stdio_output@@CA_N_W@Z 1003180e f i libucrt:output.obj
 0001:00030849       ??$is_pointer_specifier@D@?$positional_parameter_base@DV?$stream_output_adapter@D@__crt_stdio_output@@@__crt_stdio_output@@CA_ND@Z 10031849 f i libucrt:output.obj
 0001:00030857       ??$is_pointer_specifier@D@?$positional_parameter_base@DV?$string_output_adapter@D@__crt_stdio_output@@@__crt_stdio_output@@CA_ND@Z 10031857 f i libucrt:output.obj
 0001:00030865       ??$is_pointer_specifier@_W@?$positional_parameter_base@_WV?$stream_output_adapter@_W@__crt_stdio_output@@@__crt_stdio_output@@CA_N_W@Z 10031865 f i libucrt:output.obj
 0001:00030874       ??$is_pointer_specifier@_W@?$positional_parameter_base@_WV?$string_output_adapter@_W@__crt_stdio_output@@@__crt_stdio_output@@CA_N_W@Z 10031874 f i libucrt:output.obj
 0001:00030883       ??$is_string_specifier@D@?$positional_parameter_base@DV?$stream_output_adapter@D@__crt_stdio_output@@@__crt_stdio_output@@CA_ND@Z 10031883 f i libucrt:output.obj
 0001:0003089b       ??$is_string_specifier@D@?$positional_parameter_base@DV?$string_output_adapter@D@__crt_stdio_output@@@__crt_stdio_output@@CA_ND@Z 1003189b f i libucrt:output.obj
 0001:000308b3       ??$is_string_specifier@_W@?$positional_parameter_base@_WV?$stream_output_adapter@_W@__crt_stdio_output@@@__crt_stdio_output@@CA_N_W@Z 100318b3 f i libucrt:output.obj
 0001:000308ce       ??$is_string_specifier@_W@?$positional_parameter_base@_WV?$string_output_adapter@_W@__crt_stdio_output@@@__crt_stdio_output@@CA_N_W@Z 100318ce f i libucrt:output.obj
 0001:000308e9       ??$is_wide_character_specifier@D@__crt_stdio_output@@YA_N_KDW4length_modifier@0@@Z 100318e9 f i libucrt:output.obj
 0001:0003091a       ??$is_wide_character_specifier@_W@__crt_stdio_output@@YA_N_K_WW4length_modifier@0@@Z 1003191a f i libucrt:output.obj
 0001:00030968       ??$make_c_string_character_source@DPAPAD@__crt_strtox@@YA?AV?$c_string_character_source@D@0@QBDQAPAD@Z 10031968 f i libucrt:output.obj
 0001:00030983       ??$make_c_string_character_source@_WPAPA_W@__crt_strtox@@YA?AV?$c_string_character_source@_W@0@QB_WQAPA_W@Z 10031983 f i libucrt:output.obj
 0001:0003099e       ??$parse_integer@KV?$c_string_character_source@D@__crt_strtox@@$0A@@__crt_strtox@@YAKAAV__crt_cached_ptd_host@@V?$c_string_character_source@D@0@H_N@Z 1003199e f i libucrt:output.obj
 0001:00030bad       ??$parse_integer@KV?$c_string_character_source@_W@__crt_strtox@@$0A@@__crt_strtox@@YAKAAV__crt_cached_ptd_host@@V?$c_string_character_source@_W@0@H_N@Z 10031bad f i libucrt:output.obj
 0001:00031180       ??$peek_va_arg@C@__crt_stdio_output@@YACPAD@Z 10032180 f i libucrt:output.obj
 0001:0003118c       ??$peek_va_arg@E@__crt_stdio_output@@YAEPAD@Z 1003218c f i libucrt:output.obj
 0001:00031198       ??$peek_va_arg@F@__crt_stdio_output@@YAFPAD@Z 10032198 f i libucrt:output.obj
 0001:000311a5       ??$peek_va_arg@G@__crt_stdio_output@@YAGPAD@Z 100321a5 f i libucrt:output.obj
 0001:000311b2       ??$peek_va_arg@H@__crt_stdio_output@@YAHPAD@Z 100321b2 f i libucrt:output.obj
 0001:000311be       ??$peek_va_arg@I@__crt_stdio_output@@YAIPAD@Z 100321be f i libucrt:output.obj
 0001:000311ca       ??$peek_va_arg@PAD@__crt_stdio_output@@YAPADPAD@Z 100321ca f i libucrt:output.obj
 0001:000311d6       ??$peek_va_arg@PAUansi_string@?1??type_case_Z@?$output_processor@DV?$stream_output_adapter@D@__crt_stdio_output@@V?$positional_parameter_base@DV?$stream_output_adapter@D@__crt_stdio_output@@@2@@__crt_stdio_output@@AAE_NXZ@@__crt_stdio_output@@YAPAUansi_string@?1??type_case_Z@?$output_processor@DV?$stream_output_adapter@D@__crt_stdio_output@@V?$positional_parameter_base@DV?$stream_output_adapter@D@__crt_stdio_output@@@2@@0@AAE_NXZ@PAD@Z 100321d6 f i libucrt:output.obj
 0001:000311e2       ??$peek_va_arg@PAUansi_string@?1??type_case_Z@?$output_processor@DV?$string_output_adapter@D@__crt_stdio_output@@V?$positional_parameter_base@DV?$string_output_adapter@D@__crt_stdio_output@@@2@@__crt_stdio_output@@AAE_NXZ@@__crt_stdio_output@@YAPAUansi_string@?1??type_case_Z@?$output_processor@DV?$string_output_adapter@D@__crt_stdio_output@@V?$positional_parameter_base@DV?$string_output_adapter@D@__crt_stdio_output@@@2@@0@AAE_NXZ@PAD@Z 100321e2 f i libucrt:output.obj
 0001:000311ee       ??$peek_va_arg@PAUansi_string@?1??type_case_Z@?$output_processor@_WV?$stream_output_adapter@_W@__crt_stdio_output@@V?$positional_parameter_base@_WV?$stream_output_adapter@_W@__crt_stdio_output@@@2@@__crt_stdio_output@@AAE_NXZ@@__crt_stdio_output@@YAPAUansi_string@?1??type_case_Z@?$output_processor@_WV?$stream_output_adapter@_W@__crt_stdio_output@@V?$positional_parameter_base@_WV?$stream_output_adapter@_W@__crt_stdio_output@@@2@@0@AAE_NXZ@PAD@Z 100321ee f i libucrt:output.obj
 0001:000311fa       ??$peek_va_arg@PAUansi_string@?1??type_case_Z@?$output_processor@_WV?$string_output_adapter@_W@__crt_stdio_output@@V?$positional_parameter_base@_WV?$string_output_adapter@_W@__crt_stdio_output@@@2@@__crt_stdio_output@@AAE_NXZ@@__crt_stdio_output@@YAPAUansi_string@?1??type_case_Z@?$output_processor@_WV?$string_output_adapter@_W@__crt_stdio_output@@V?$positional_parameter_base@_WV?$string_output_adapter@_W@__crt_stdio_output@@@2@@0@AAE_NXZ@PAD@Z 100321fa f i libucrt:output.obj
 0001:00031206       ??$peek_va_arg@PAX@__crt_stdio_output@@YAPAXPAD@Z 10032206 f i libucrt:output.obj
 0001:00031212       ??$peek_va_arg@U_CRT_DOUBLE@@@__crt_stdio_output@@YA?AU_CRT_DOUBLE@@PAD@Z 10032212 f i libucrt:output.obj
 0001:00031221       ??$peek_va_arg@_J@__crt_stdio_output@@YA_JPAD@Z 10032221 f i libucrt:output.obj
 0001:00031230       ??$peek_va_arg@_K@__crt_stdio_output@@YA_KPAD@Z 10032230 f i libucrt:output.obj
 0001:0003123f       ??$peek_va_arg@_W@__crt_stdio_output@@YA_WPAD@Z 1003223f f i libucrt:output.obj
 0001:0003124c       ??$puttc_nolock_internal@ABDPAU_iobuf@@AAV__crt_cached_ptd_host@@@?$__crt_char_traits@D@@SAHABD$$QAPAU_iobuf@@AAV__crt_cached_ptd_host@@@Z 1003224c f i libucrt:output.obj
 0001:0003126a       ??$puttc_nolock_internal@AB_WPAU_iobuf@@AAV__crt_cached_ptd_host@@@?$__crt_char_traits@_W@@SAGAB_W$$QAPAU_iobuf@@AAV__crt_cached_ptd_host@@@Z 1003226a f i libucrt:output.obj
 0001:00031288       ??$read_va_arg@C@__crt_stdio_output@@YACAAPAD@Z 10032288 f i libucrt:output.obj
 0001:0003129b       ??$read_va_arg@E@__crt_stdio_output@@YAEAAPAD@Z 1003229b f i libucrt:output.obj
 0001:000312ae       ??$read_va_arg@F@__crt_stdio_output@@YAFAAPAD@Z 100322ae f i libucrt:output.obj
 0001:000312c2       ??$read_va_arg@G@__crt_stdio_output@@YAGAAPAD@Z 100322c2 f i libucrt:output.obj
 0001:000312d6       ??$read_va_arg@H@__crt_stdio_output@@YAHAAPAD@Z 100322d6 f i libucrt:output.obj
 0001:000312e9       ??$read_va_arg@I@__crt_stdio_output@@YAIAAPAD@Z 100322e9 f i libucrt:output.obj
 0001:000312fc       ??$read_va_arg@PAD@__crt_stdio_output@@YAPADAAPAD@Z 100322fc f i libucrt:output.obj
 0001:0003130f       ??$read_va_arg@PAUansi_string@?1??type_case_Z@?$output_processor@DV?$stream_output_adapter@D@__crt_stdio_output@@V?$format_validation_base@DV?$stream_output_adapter@D@__crt_stdio_output@@@2@@__crt_stdio_output@@AAE_NXZ@@__crt_stdio_output@@YAPAUansi_string@?1??type_case_Z@?$output_processor@DV?$stream_output_adapter@D@__crt_stdio_output@@V?$format_validation_base@DV?$stream_output_adapter@D@__crt_stdio_output@@@2@@0@AAE_NXZ@AAPAD@Z 1003230f f i libucrt:output.obj
 0001:00031322       ??$read_va_arg@PAUansi_string@?1??type_case_Z@?$output_processor@DV?$stream_output_adapter@D@__crt_stdio_output@@V?$positional_parameter_base@DV?$stream_output_adapter@D@__crt_stdio_output@@@2@@__crt_stdio_output@@AAE_NXZ@@__crt_stdio_output@@YAPAUansi_string@?1??type_case_Z@?$output_processor@DV?$stream_output_adapter@D@__crt_stdio_output@@V?$positional_parameter_base@DV?$stream_output_adapter@D@__crt_stdio_output@@@2@@0@AAE_NXZ@AAPAD@Z 10032322 f i libucrt:output.obj
 0001:00031335       ??$read_va_arg@PAUansi_string@?1??type_case_Z@?$output_processor@DV?$stream_output_adapter@D@__crt_stdio_output@@V?$standard_base@DV?$stream_output_adapter@D@__crt_stdio_output@@@2@@__crt_stdio_output@@AAE_NXZ@@__crt_stdio_output@@YAPAUansi_string@?1??type_case_Z@?$output_processor@DV?$stream_output_adapter@D@__crt_stdio_output@@V?$standard_base@DV?$stream_output_adapter@D@__crt_stdio_output@@@2@@0@AAE_NXZ@AAPAD@Z 10032335 f i libucrt:output.obj
 0001:00031348       ??$read_va_arg@PAUansi_string@?1??type_case_Z@?$output_processor@DV?$string_output_adapter@D@__crt_stdio_output@@V?$format_validation_base@DV?$string_output_adapter@D@__crt_stdio_output@@@2@@__crt_stdio_output@@AAE_NXZ@@__crt_stdio_output@@YAPAUansi_string@?1??type_case_Z@?$output_processor@DV?$string_output_adapter@D@__crt_stdio_output@@V?$format_validation_base@DV?$string_output_adapter@D@__crt_stdio_output@@@2@@0@AAE_NXZ@AAPAD@Z 10032348 f i libucrt:output.obj
 0001:0003135b       ??$read_va_arg@PAUansi_string@?1??type_case_Z@?$output_processor@DV?$string_output_adapter@D@__crt_stdio_output@@V?$positional_parameter_base@DV?$string_output_adapter@D@__crt_stdio_output@@@2@@__crt_stdio_output@@AAE_NXZ@@__crt_stdio_output@@YAPAUansi_string@?1??type_case_Z@?$output_processor@DV?$string_output_adapter@D@__crt_stdio_output@@V?$positional_parameter_base@DV?$string_output_adapter@D@__crt_stdio_output@@@2@@0@AAE_NXZ@AAPAD@Z 1003235b f i libucrt:output.obj
 0001:0003136e       ??$read_va_arg@PAUansi_string@?1??type_case_Z@?$output_processor@DV?$string_output_adapter@D@__crt_stdio_output@@V?$standard_base@DV?$string_output_adapter@D@__crt_stdio_output@@@2@@__crt_stdio_output@@AAE_NXZ@@__crt_stdio_output@@YAPAUansi_string@?1??type_case_Z@?$output_processor@DV?$string_output_adapter@D@__crt_stdio_output@@V?$standard_base@DV?$string_output_adapter@D@__crt_stdio_output@@@2@@0@AAE_NXZ@AAPAD@Z 1003236e f i libucrt:output.obj
 0001:00031381       ??$read_va_arg@PAUansi_string@?1??type_case_Z@?$output_processor@_WV?$stream_output_adapter@_W@__crt_stdio_output@@V?$format_validation_base@_WV?$stream_output_adapter@_W@__crt_stdio_output@@@2@@__crt_stdio_output@@AAE_NXZ@@__crt_stdio_output@@YAPAUansi_string@?1??type_case_Z@?$output_processor@_WV?$stream_output_adapter@_W@__crt_stdio_output@@V?$format_validation_base@_WV?$stream_output_adapter@_W@__crt_stdio_output@@@2@@0@AAE_NXZ@AAPAD@Z 10032381 f i libucrt:output.obj
 0001:00031394       ??$read_va_arg@PAUansi_string@?1??type_case_Z@?$output_processor@_WV?$stream_output_adapter@_W@__crt_stdio_output@@V?$positional_parameter_base@_WV?$stream_output_adapter@_W@__crt_stdio_output@@@2@@__crt_stdio_output@@AAE_NXZ@@__crt_stdio_output@@YAPAUansi_string@?1??type_case_Z@?$output_processor@_WV?$stream_output_adapter@_W@__crt_stdio_output@@V?$positional_parameter_base@_WV?$stream_output_adapter@_W@__crt_stdio_output@@@2@@0@AAE_NXZ@AAPAD@Z 10032394 f i libucrt:output.obj
 0001:000313a7       ??$read_va_arg@PAUansi_string@?1??type_case_Z@?$output_processor@_WV?$stream_output_adapter@_W@__crt_stdio_output@@V?$standard_base@_WV?$stream_output_adapter@_W@__crt_stdio_output@@@2@@__crt_stdio_output@@AAE_NXZ@@__crt_stdio_output@@YAPAUansi_string@?1??type_case_Z@?$output_processor@_WV?$stream_output_adapter@_W@__crt_stdio_output@@V?$standard_base@_WV?$stream_output_adapter@_W@__crt_stdio_output@@@2@@0@AAE_NXZ@AAPAD@Z 100323a7 f i libucrt:output.obj
 0001:000313ba       ??$read_va_arg@PAUansi_string@?1??type_case_Z@?$output_processor@_WV?$string_output_adapter@_W@__crt_stdio_output@@V?$format_validation_base@_WV?$string_output_adapter@_W@__crt_stdio_output@@@2@@__crt_stdio_output@@AAE_NXZ@@__crt_stdio_output@@YAPAUansi_string@?1??type_case_Z@?$output_processor@_WV?$string_output_adapter@_W@__crt_stdio_output@@V?$format_validation_base@_WV?$string_output_adapter@_W@__crt_stdio_output@@@2@@0@AAE_NXZ@AAPAD@Z 100323ba f i libucrt:output.obj
 0001:000313cd       ??$read_va_arg@PAUansi_string@?1??type_case_Z@?$output_processor@_WV?$string_output_adapter@_W@__crt_stdio_output@@V?$positional_parameter_base@_WV?$string_output_adapter@_W@__crt_stdio_output@@@2@@__crt_stdio_output@@AAE_NXZ@@__crt_stdio_output@@YAPAUansi_string@?1??type_case_Z@?$output_processor@_WV?$string_output_adapter@_W@__crt_stdio_output@@V?$positional_parameter_base@_WV?$string_output_adapter@_W@__crt_stdio_output@@@2@@0@AAE_NXZ@AAPAD@Z 100323cd f i libucrt:output.obj
 0001:000313e0       ??$read_va_arg@PAUansi_string@?1??type_case_Z@?$output_processor@_WV?$string_output_adapter@_W@__crt_stdio_output@@V?$standard_base@_WV?$string_output_adapter@_W@__crt_stdio_output@@@2@@__crt_stdio_output@@AAE_NXZ@@__crt_stdio_output@@YAPAUansi_string@?1??type_case_Z@?$output_processor@_WV?$string_output_adapter@_W@__crt_stdio_output@@V?$standard_base@_WV?$string_output_adapter@_W@__crt_stdio_output@@@2@@0@AAE_NXZ@AAPAD@Z 100323e0 f i libucrt:output.obj
 0001:000313f3       ??$read_va_arg@PAX@__crt_stdio_output@@YAPAXAAPAD@Z 100323f3 f i libucrt:output.obj
 0001:00031406       ??$read_va_arg@U_CRT_DOUBLE@@@__crt_stdio_output@@YA?AU_CRT_DOUBLE@@AAPAD@Z 10032406 f i libucrt:output.obj
 0001:0003141c       ??$read_va_arg@_J@__crt_stdio_output@@YA_JAAPAD@Z 1003241c f i libucrt:output.obj
 0001:00031432       ??$read_va_arg@_K@__crt_stdio_output@@YA_KAAPAD@Z 10032432 f i libucrt:output.obj
 0001:00031448       ??$read_va_arg@_W@__crt_stdio_output@@YA_WAAPAD@Z 10032448 f i libucrt:output.obj
 0001:0003145c       ??$scratch_count@D@formatting_buffer@__crt_stdio_output@@QBEIXZ 1003245c f i libucrt:output.obj
 0001:00031461       ??$scratch_data@D@formatting_buffer@__crt_stdio_output@@QAEPADXZ 10032461 f i libucrt:output.obj
 0001:0003147f       ??$type_case_integer@$07@?$output_processor@DV?$stream_output_adapter@D@__crt_stdio_output@@V?$format_validation_base@DV?$stream_output_adapter@D@__crt_stdio_output@@@2@@__crt_stdio_output@@AAE_N_N@Z 1003247f f i libucrt:output.obj
 0001:0003160c       ??$type_case_integer@$07@?$output_processor@DV?$stream_output_adapter@D@__crt_stdio_output@@V?$positional_parameter_base@DV?$stream_output_adapter@D@__crt_stdio_output@@@2@@__crt_stdio_output@@AAE_N_N@Z 1003260c f i libucrt:output.obj
 0001:000317a8       ??$type_case_integer@$07@?$output_processor@DV?$stream_output_adapter@D@__crt_stdio_output@@V?$standard_base@DV?$stream_output_adapter@D@__crt_stdio_output@@@2@@__crt_stdio_output@@AAE_N_N@Z 100327a8 f i libucrt:output.obj
 0001:00031935       ??$type_case_integer@$07@?$output_processor@DV?$string_output_adapter@D@__crt_stdio_output@@V?$format_validation_base@DV?$string_output_adapter@D@__crt_stdio_output@@@2@@__crt_stdio_output@@AAE_N_N@Z 10032935 f i libucrt:output.obj
 0001:00031ac2       ??$type_case_integer@$07@?$output_processor@DV?$string_output_adapter@D@__crt_stdio_output@@V?$positional_parameter_base@DV?$string_output_adapter@D@__crt_stdio_output@@@2@@__crt_stdio_output@@AAE_N_N@Z 10032ac2 f i libucrt:output.obj
 0001:00031c5e       ??$type_case_integer@$07@?$output_processor@DV?$string_output_adapter@D@__crt_stdio_output@@V?$standard_base@DV?$string_output_adapter@D@__crt_stdio_output@@@2@@__crt_stdio_output@@AAE_N_N@Z 10032c5e f i libucrt:output.obj
 0001:00031deb       ??$type_case_integer@$07@?$output_processor@_WV?$stream_output_adapter@_W@__crt_stdio_output@@V?$format_validation_base@_WV?$stream_output_adapter@_W@__crt_stdio_output@@@2@@__crt_stdio_output@@AAE_N_N@Z 10032deb f i libucrt:output.obj
 0001:00031f7d       ??$type_case_integer@$07@?$output_processor@_WV?$stream_output_adapter@_W@__crt_stdio_output@@V?$positional_parameter_base@_WV?$stream_output_adapter@_W@__crt_stdio_output@@@2@@__crt_stdio_output@@AAE_N_N@Z 10032f7d f i libucrt:output.obj
 0001:0003211d       ??$type_case_integer@$07@?$output_processor@_WV?$stream_output_adapter@_W@__crt_stdio_output@@V?$standard_base@_WV?$stream_output_adapter@_W@__crt_stdio_output@@@2@@__crt_stdio_output@@AAE_N_N@Z 1003311d f i libucrt:output.obj
 0001:000322af       ??$type_case_integer@$07@?$output_processor@_WV?$string_output_adapter@_W@__crt_stdio_output@@V?$format_validation_base@_WV?$string_output_adapter@_W@__crt_stdio_output@@@2@@__crt_stdio_output@@AAE_N_N@Z 100332af f i libucrt:output.obj
 0001:00032441       ??$type_case_integer@$07@?$output_processor@_WV?$string_output_adapter@_W@__crt_stdio_output@@V?$positional_parameter_base@_WV?$string_output_adapter@_W@__crt_stdio_output@@@2@@__crt_stdio_output@@AAE_N_N@Z 10033441 f i libucrt:output.obj
 0001:000325e1       ??$type_case_integer@$07@?$output_processor@_WV?$string_output_adapter@_W@__crt_stdio_output@@V?$standard_base@_WV?$string_output_adapter@_W@__crt_stdio_output@@@2@@__crt_stdio_output@@AAE_N_N@Z 100335e1 f i libucrt:output.obj
 0001:00032773       ??$type_case_integer@$09@?$output_processor@DV?$stream_output_adapter@D@__crt_stdio_output@@V?$format_validation_base@DV?$stream_output_adapter@D@__crt_stdio_output@@@2@@__crt_stdio_output@@AAE_N_N@Z 10033773 f i libucrt:output.obj
 0001:00032900       ??$type_case_integer@$09@?$output_processor@DV?$stream_output_adapter@D@__crt_stdio_output@@V?$positional_parameter_base@DV?$stream_output_adapter@D@__crt_stdio_output@@@2@@__crt_stdio_output@@AAE_N_N@Z 10033900 f i libucrt:output.obj
 0001:00032a9c       ??$type_case_integer@$09@?$output_processor@DV?$stream_output_adapter@D@__crt_stdio_output@@V?$standard_base@DV?$stream_output_adapter@D@__crt_stdio_output@@@2@@__crt_stdio_output@@AAE_N_N@Z 10033a9c f i libucrt:output.obj
 0001:00032c29       ??$type_case_integer@$09@?$output_processor@DV?$string_output_adapter@D@__crt_stdio_output@@V?$format_validation_base@DV?$string_output_adapter@D@__crt_stdio_output@@@2@@__crt_stdio_output@@AAE_N_N@Z 10033c29 f i libucrt:output.obj
 0001:00032db6       ??$type_case_integer@$09@?$output_processor@DV?$string_output_adapter@D@__crt_stdio_output@@V?$positional_parameter_base@DV?$string_output_adapter@D@__crt_stdio_output@@@2@@__crt_stdio_output@@AAE_N_N@Z 10033db6 f i libucrt:output.obj
 0001:00032f52       ??$type_case_integer@$09@?$output_processor@DV?$string_output_adapter@D@__crt_stdio_output@@V?$standard_base@DV?$string_output_adapter@D@__crt_stdio_output@@@2@@__crt_stdio_output@@AAE_N_N@Z 10033f52 f i libucrt:output.obj
 0001:000330df       ??$type_case_integer@$09@?$output_processor@_WV?$stream_output_adapter@_W@__crt_stdio_output@@V?$format_validation_base@_WV?$stream_output_adapter@_W@__crt_stdio_output@@@2@@__crt_stdio_output@@AAE_N_N@Z 100340df f i libucrt:output.obj
 0001:00033271       ??$type_case_integer@$09@?$output_processor@_WV?$stream_output_adapter@_W@__crt_stdio_output@@V?$positional_parameter_base@_WV?$stream_output_adapter@_W@__crt_stdio_output@@@2@@__crt_stdio_output@@AAE_N_N@Z 10034271 f i libucrt:output.obj
 0001:00033411       ??$type_case_integer@$09@?$output_processor@_WV?$stream_output_adapter@_W@__crt_stdio_output@@V?$standard_base@_WV?$stream_output_adapter@_W@__crt_stdio_output@@@2@@__crt_stdio_output@@AAE_N_N@Z 10034411 f i libucrt:output.obj
 0001:000335a3       ??$type_case_integer@$09@?$output_processor@_WV?$string_output_adapter@_W@__crt_stdio_output@@V?$format_validation_base@_WV?$string_output_adapter@_W@__crt_stdio_output@@@2@@__crt_stdio_output@@AAE_N_N@Z 100345a3 f i libucrt:output.obj
 0001:00033735       ??$type_case_integer@$09@?$output_processor@_WV?$string_output_adapter@_W@__crt_stdio_output@@V?$positional_parameter_base@_WV?$string_output_adapter@_W@__crt_stdio_output@@@2@@__crt_stdio_output@@AAE_N_N@Z 10034735 f i libucrt:output.obj
 0001:000338d5       ??$type_case_integer@$09@?$output_processor@_WV?$string_output_adapter@_W@__crt_stdio_output@@V?$standard_base@_WV?$string_output_adapter@_W@__crt_stdio_output@@@2@@__crt_stdio_output@@AAE_N_N@Z 100348d5 f i libucrt:output.obj
 0001:00033a67       ??$type_case_integer@$0BA@@?$output_processor@DV?$stream_output_adapter@D@__crt_stdio_output@@V?$format_validation_base@DV?$stream_output_adapter@D@__crt_stdio_output@@@2@@__crt_stdio_output@@AAE_N_N@Z 10034a67 f i libucrt:output.obj
 0001:00033bf4       ??$type_case_integer@$0BA@@?$output_processor@DV?$stream_output_adapter@D@__crt_stdio_output@@V?$positional_parameter_base@DV?$stream_output_adapter@D@__crt_stdio_output@@@2@@__crt_stdio_output@@AAE_N_N@Z 10034bf4 f i libucrt:output.obj
 0001:00033d90       ??$type_case_integer@$0BA@@?$output_processor@DV?$stream_output_adapter@D@__crt_stdio_output@@V?$standard_base@DV?$stream_output_adapter@D@__crt_stdio_output@@@2@@__crt_stdio_output@@AAE_N_N@Z 10034d90 f i libucrt:output.obj
 0001:00033f1d       ??$type_case_integer@$0BA@@?$output_processor@DV?$string_output_adapter@D@__crt_stdio_output@@V?$format_validation_base@DV?$string_output_adapter@D@__crt_stdio_output@@@2@@__crt_stdio_output@@AAE_N_N@Z 10034f1d f i libucrt:output.obj
 0001:000340aa       ??$type_case_integer@$0BA@@?$output_processor@DV?$string_output_adapter@D@__crt_stdio_output@@V?$positional_parameter_base@DV?$string_output_adapter@D@__crt_stdio_output@@@2@@__crt_stdio_output@@AAE_N_N@Z 100350aa f i libucrt:output.obj
 0001:00034246       ??$type_case_integer@$0BA@@?$output_processor@DV?$string_output_adapter@D@__crt_stdio_output@@V?$standard_base@DV?$string_output_adapter@D@__crt_stdio_output@@@2@@__crt_stdio_output@@AAE_N_N@Z 10035246 f i libucrt:output.obj
 0001:000343d3       ??$type_case_integer@$0BA@@?$output_processor@_WV?$stream_output_adapter@_W@__crt_stdio_output@@V?$format_validation_base@_WV?$stream_output_adapter@_W@__crt_stdio_output@@@2@@__crt_stdio_output@@AAE_N_N@Z 100353d3 f i libucrt:output.obj
 0001:00034565       ??$type_case_integer@$0BA@@?$output_processor@_WV?$stream_output_adapter@_W@__crt_stdio_output@@V?$positional_parameter_base@_WV?$stream_output_adapter@_W@__crt_stdio_output@@@2@@__crt_stdio_output@@AAE_N_N@Z 10035565 f i libucrt:output.obj
 0001:00034705       ??$type_case_integer@$0BA@@?$output_processor@_WV?$stream_output_adapter@_W@__crt_stdio_output@@V?$standard_base@_WV?$stream_output_adapter@_W@__crt_stdio_output@@@2@@__crt_stdio_output@@AAE_N_N@Z 10035705 f i libucrt:output.obj
 0001:00034897       ??$type_case_integer@$0BA@@?$output_processor@_WV?$string_output_adapter@_W@__crt_stdio_output@@V?$format_validation_base@_WV?$string_output_adapter@_W@__crt_stdio_output@@@2@@__crt_stdio_output@@AAE_N_N@Z 10035897 f i libucrt:output.obj
 0001:00034a29       ??$type_case_integer@$0BA@@?$output_processor@_WV?$string_output_adapter@_W@__crt_stdio_output@@V?$positional_parameter_base@_WV?$string_output_adapter@_W@__crt_stdio_output@@@2@@__crt_stdio_output@@AAE_N_N@Z 10035a29 f i libucrt:output.obj
 0001:00034bc9       ??$type_case_integer@$0BA@@?$output_processor@_WV?$string_output_adapter@_W@__crt_stdio_output@@V?$standard_base@_WV?$string_output_adapter@_W@__crt_stdio_output@@@2@@__crt_stdio_output@@AAE_N_N@Z 10035bc9 f i libucrt:output.obj
 0001:00034d5b       ??$type_case_integer_parse_into_buffer@I$07@?$output_processor@DV?$stream_output_adapter@D@__crt_stdio_output@@V?$format_validation_base@DV?$stream_output_adapter@D@__crt_stdio_output@@@2@@__crt_stdio_output@@AAEXI_N@Z 10035d5b f i libucrt:output.obj
 0001:00034dbe       ??$type_case_integer_parse_into_buffer@I$07@?$output_processor@DV?$stream_output_adapter@D@__crt_stdio_output@@V?$positional_parameter_base@DV?$stream_output_adapter@D@__crt_stdio_output@@@2@@__crt_stdio_output@@AAEXI_N@Z 10035dbe f i libucrt:output.obj
 0001:00034e21       ??$type_case_integer_parse_into_buffer@I$07@?$output_processor@DV?$stream_output_adapter@D@__crt_stdio_output@@V?$standard_base@DV?$stream_output_adapter@D@__crt_stdio_output@@@2@@__crt_stdio_output@@AAEXI_N@Z 10035e21 f i libucrt:output.obj
 0001:00034e84       ??$type_case_integer_parse_into_buffer@I$07@?$output_processor@DV?$string_output_adapter@D@__crt_stdio_output@@V?$format_validation_base@DV?$string_output_adapter@D@__crt_stdio_output@@@2@@__crt_stdio_output@@AAEXI_N@Z 10035e84 f i libucrt:output.obj
 0001:00034ee7       ??$type_case_integer_parse_into_buffer@I$07@?$output_processor@DV?$string_output_adapter@D@__crt_stdio_output@@V?$positional_parameter_base@DV?$string_output_adapter@D@__crt_stdio_output@@@2@@__crt_stdio_output@@AAEXI_N@Z 10035ee7 f i libucrt:output.obj
 0001:00034f4a       ??$type_case_integer_parse_into_buffer@I$07@?$output_processor@DV?$string_output_adapter@D@__crt_stdio_output@@V?$standard_base@DV?$string_output_adapter@D@__crt_stdio_output@@@2@@__crt_stdio_output@@AAEXI_N@Z 10035f4a f i libucrt:output.obj
 0001:00034fad       ??$type_case_integer_parse_into_buffer@I$07@?$output_processor@_WV?$stream_output_adapter@_W@__crt_stdio_output@@V?$format_validation_base@_WV?$stream_output_adapter@_W@__crt_stdio_output@@@2@@__crt_stdio_output@@AAEXI_N@Z 10035fad f i libucrt:output.obj
 0001:00035020       ??$type_case_integer_parse_into_buffer@I$07@?$output_processor@_WV?$stream_output_adapter@_W@__crt_stdio_output@@V?$positional_parameter_base@_WV?$stream_output_adapter@_W@__crt_stdio_output@@@2@@__crt_stdio_output@@AAEXI_N@Z 10036020 f i libucrt:output.obj
 0001:00035093       ??$type_case_integer_parse_into_buffer@I$07@?$output_processor@_WV?$stream_output_adapter@_W@__crt_stdio_output@@V?$standard_base@_WV?$stream_output_adapter@_W@__crt_stdio_output@@@2@@__crt_stdio_output@@AAEXI_N@Z 10036093 f i libucrt:output.obj
 0001:00035106       ??$type_case_integer_parse_into_buffer@I$07@?$output_processor@_WV?$string_output_adapter@_W@__crt_stdio_output@@V?$format_validation_base@_WV?$string_output_adapter@_W@__crt_stdio_output@@@2@@__crt_stdio_output@@AAEXI_N@Z 10036106 f i libucrt:output.obj
 0001:00035179       ??$type_case_integer_parse_into_buffer@I$07@?$output_processor@_WV?$string_output_adapter@_W@__crt_stdio_output@@V?$positional_parameter_base@_WV?$string_output_adapter@_W@__crt_stdio_output@@@2@@__crt_stdio_output@@AAEXI_N@Z 10036179 f i libucrt:output.obj
 0001:000351ec       ??$type_case_integer_parse_into_buffer@I$07@?$output_processor@_WV?$string_output_adapter@_W@__crt_stdio_output@@V?$standard_base@_WV?$string_output_adapter@_W@__crt_stdio_output@@@2@@__crt_stdio_output@@AAEXI_N@Z 100361ec f i libucrt:output.obj
 0001:0003525f       ??$type_case_integer_parse_into_buffer@I$09@?$output_processor@DV?$stream_output_adapter@D@__crt_stdio_output@@V?$format_validation_base@DV?$stream_output_adapter@D@__crt_stdio_output@@@2@@__crt_stdio_output@@AAEXI_N@Z 1003625f f i libucrt:output.obj
 0001:000352e6       ??$type_case_integer_parse_into_buffer@I$09@?$output_processor@DV?$stream_output_adapter@D@__crt_stdio_output@@V?$positional_parameter_base@DV?$stream_output_adapter@D@__crt_stdio_output@@@2@@__crt_stdio_output@@AAEXI_N@Z 100362e6 f i libucrt:output.obj
 0001:0003536d       ??$type_case_integer_parse_into_buffer@I$09@?$output_processor@DV?$stream_output_adapter@D@__crt_stdio_output@@V?$standard_base@DV?$stream_output_adapter@D@__crt_stdio_output@@@2@@__crt_stdio_output@@AAEXI_N@Z 1003636d f i libucrt:output.obj
 0001:000353f4       ??$type_case_integer_parse_into_buffer@I$09@?$output_processor@DV?$string_output_adapter@D@__crt_stdio_output@@V?$format_validation_base@DV?$string_output_adapter@D@__crt_stdio_output@@@2@@__crt_stdio_output@@AAEXI_N@Z 100363f4 f i libucrt:output.obj
 0001:0003547b       ??$type_case_integer_parse_into_buffer@I$09@?$output_processor@DV?$string_output_adapter@D@__crt_stdio_output@@V?$positional_parameter_base@DV?$string_output_adapter@D@__crt_stdio_output@@@2@@__crt_stdio_output@@AAEXI_N@Z 1003647b f i libucrt:output.obj
 0001:00035502       ??$type_case_integer_parse_into_buffer@I$09@?$output_processor@DV?$string_output_adapter@D@__crt_stdio_output@@V?$standard_base@DV?$string_output_adapter@D@__crt_stdio_output@@@2@@__crt_stdio_output@@AAEXI_N@Z 10036502 f i libucrt:output.obj
 0001:00035589       ??$type_case_integer_parse_into_buffer@I$09@?$output_processor@_WV?$stream_output_adapter@_W@__crt_stdio_output@@V?$format_validation_base@_WV?$stream_output_adapter@_W@__crt_stdio_output@@@2@@__crt_stdio_output@@AAEXI_N@Z 10036589 f i libucrt:output.obj
 0001:00035625       ??$type_case_integer_parse_into_buffer@I$09@?$output_processor@_WV?$stream_output_adapter@_W@__crt_stdio_output@@V?$positional_parameter_base@_WV?$stream_output_adapter@_W@__crt_stdio_output@@@2@@__crt_stdio_output@@AAEXI_N@Z 10036625 f i libucrt:output.obj
 0001:000356c1       ??$type_case_integer_parse_into_buffer@I$09@?$output_processor@_WV?$stream_output_adapter@_W@__crt_stdio_output@@V?$standard_base@_WV?$stream_output_adapter@_W@__crt_stdio_output@@@2@@__crt_stdio_output@@AAEXI_N@Z 100366c1 f i libucrt:output.obj
 0001:0003575d       ??$type_case_integer_parse_into_buffer@I$09@?$output_processor@_WV?$string_output_adapter@_W@__crt_stdio_output@@V?$format_validation_base@_WV?$string_output_adapter@_W@__crt_stdio_output@@@2@@__crt_stdio_output@@AAEXI_N@Z 1003675d f i libucrt:output.obj
 0001:000357f9       ??$type_case_integer_parse_into_buffer@I$09@?$output_processor@_WV?$string_output_adapter@_W@__crt_stdio_output@@V?$positional_parameter_base@_WV?$string_output_adapter@_W@__crt_stdio_output@@@2@@__crt_stdio_output@@AAEXI_N@Z 100367f9 f i libucrt:output.obj
 0001:00035895       ??$type_case_integer_parse_into_buffer@I$09@?$output_processor@_WV?$string_output_adapter@_W@__crt_stdio_output@@V?$standard_base@_WV?$string_output_adapter@_W@__crt_stdio_output@@@2@@__crt_stdio_output@@AAEXI_N@Z 10036895 f i libucrt:output.obj
 0001:00035931       ??$type_case_integer_parse_into_buffer@I$0BA@@?$output_processor@DV?$stream_output_adapter@D@__crt_stdio_output@@V?$format_validation_base@DV?$stream_output_adapter@D@__crt_stdio_output@@@2@@__crt_stdio_output@@AAEXI_N@Z 10036931 f i libucrt:output.obj
 0001:000359ae       ??$type_case_integer_parse_into_buffer@I$0BA@@?$output_processor@DV?$stream_output_adapter@D@__crt_stdio_output@@V?$positional_parameter_base@DV?$stream_output_adapter@D@__crt_stdio_output@@@2@@__crt_stdio_output@@AAEXI_N@Z 100369ae f i libucrt:output.obj
 0001:00035a2b       ??$type_case_integer_parse_into_buffer@I$0BA@@?$output_processor@DV?$stream_output_adapter@D@__crt_stdio_output@@V?$standard_base@DV?$stream_output_adapter@D@__crt_stdio_output@@@2@@__crt_stdio_output@@AAEXI_N@Z 10036a2b f i libucrt:output.obj
 0001:00035aa8       ??$type_case_integer_parse_into_buffer@I$0BA@@?$output_processor@DV?$string_output_adapter@D@__crt_stdio_output@@V?$format_validation_base@DV?$string_output_adapter@D@__crt_stdio_output@@@2@@__crt_stdio_output@@AAEXI_N@Z 10036aa8 f i libucrt:output.obj
 0001:00035b25       ??$type_case_integer_parse_into_buffer@I$0BA@@?$output_processor@DV?$string_output_adapter@D@__crt_stdio_output@@V?$positional_parameter_base@DV?$string_output_adapter@D@__crt_stdio_output@@@2@@__crt_stdio_output@@AAEXI_N@Z 10036b25 f i libucrt:output.obj
 0001:00035ba2       ??$type_case_integer_parse_into_buffer@I$0BA@@?$output_processor@DV?$string_output_adapter@D@__crt_stdio_output@@V?$standard_base@DV?$string_output_adapter@D@__crt_stdio_output@@@2@@__crt_stdio_output@@AAEXI_N@Z 10036ba2 f i libucrt:output.obj
 0001:00035c1f       ??$type_case_integer_parse_into_buffer@I$0BA@@?$output_processor@_WV?$stream_output_adapter@_W@__crt_stdio_output@@V?$format_validation_base@_WV?$stream_output_adapter@_W@__crt_stdio_output@@@2@@__crt_stdio_output@@AAEXI_N@Z 10036c1f f i libucrt:output.obj
 0001:00035ca9       ??$type_case_integer_parse_into_buffer@I$0BA@@?$output_processor@_WV?$stream_output_adapter@_W@__crt_stdio_output@@V?$positional_parameter_base@_WV?$stream_output_adapter@_W@__crt_stdio_output@@@2@@__crt_stdio_output@@AAEXI_N@Z 10036ca9 f i libucrt:output.obj
 0001:00035d33       ??$type_case_integer_parse_into_buffer@I$0BA@@?$output_processor@_WV?$stream_output_adapter@_W@__crt_stdio_output@@V?$standard_base@_WV?$stream_output_adapter@_W@__crt_stdio_output@@@2@@__crt_stdio_output@@AAEXI_N@Z 10036d33 f i libucrt:output.obj
 0001:00035dbd       ??$type_case_integer_parse_into_buffer@I$0BA@@?$output_processor@_WV?$string_output_adapter@_W@__crt_stdio_output@@V?$format_validation_base@_WV?$string_output_adapter@_W@__crt_stdio_output@@@2@@__crt_stdio_output@@AAEXI_N@Z 10036dbd f i libucrt:output.obj
 0001:00035e47       ??$type_case_integer_parse_into_buffer@I$0BA@@?$output_processor@_WV?$string_output_adapter@_W@__crt_stdio_output@@V?$positional_parameter_base@_WV?$string_output_adapter@_W@__crt_stdio_output@@@2@@__crt_stdio_output@@AAEXI_N@Z 10036e47 f i libucrt:output.obj
 0001:00035ed1       ??$type_case_integer_parse_into_buffer@I$0BA@@?$output_processor@_WV?$string_output_adapter@_W@__crt_stdio_output@@V?$standard_base@_WV?$string_output_adapter@_W@__crt_stdio_output@@@2@@__crt_stdio_output@@AAEXI_N@Z 10036ed1 f i libucrt:output.obj
 0001:00035f5b       ??$type_case_integer_parse_into_buffer@_K$07@?$output_processor@DV?$stream_output_adapter@D@__crt_stdio_output@@V?$format_validation_base@DV?$stream_output_adapter@D@__crt_stdio_output@@@2@@__crt_stdio_output@@AAEX_K_N@Z 10036f5b f i libucrt:output.obj
 0001:00035fd3       ??$type_case_integer_parse_into_buffer@_K$07@?$output_processor@DV?$stream_output_adapter@D@__crt_stdio_output@@V?$positional_parameter_base@DV?$stream_output_adapter@D@__crt_stdio_output@@@2@@__crt_stdio_output@@AAEX_K_N@Z 10036fd3 f i libucrt:output.obj
 0001:0003604b       ??$type_case_integer_parse_into_buffer@_K$07@?$output_processor@DV?$stream_output_adapter@D@__crt_stdio_output@@V?$standard_base@DV?$stream_output_adapter@D@__crt_stdio_output@@@2@@__crt_stdio_output@@AAEX_K_N@Z 1003704b f i libucrt:output.obj
 0001:000360c3       ??$type_case_integer_parse_into_buffer@_K$07@?$output_processor@DV?$string_output_adapter@D@__crt_stdio_output@@V?$format_validation_base@DV?$string_output_adapter@D@__crt_stdio_output@@@2@@__crt_stdio_output@@AAEX_K_N@Z 100370c3 f i libucrt:output.obj
 0001:0003613b       ??$type_case_integer_parse_into_buffer@_K$07@?$output_processor@DV?$string_output_adapter@D@__crt_stdio_output@@V?$positional_parameter_base@DV?$string_output_adapter@D@__crt_stdio_output@@@2@@__crt_stdio_output@@AAEX_K_N@Z 1003713b f i libucrt:output.obj
 0001:000361b3       ??$type_case_integer_parse_into_buffer@_K$07@?$output_processor@DV?$string_output_adapter@D@__crt_stdio_output@@V?$standard_base@DV?$string_output_adapter@D@__crt_stdio_output@@@2@@__crt_stdio_output@@AAEX_K_N@Z 100371b3 f i libucrt:output.obj
 0001:0003622b       ??$type_case_integer_parse_into_buffer@_K$07@?$output_processor@_WV?$stream_output_adapter@_W@__crt_stdio_output@@V?$format_validation_base@_WV?$stream_output_adapter@_W@__crt_stdio_output@@@2@@__crt_stdio_output@@AAEX_K_N@Z 1003722b f i libucrt:output.obj
 0001:000362b2       ??$type_case_integer_parse_into_buffer@_K$07@?$output_processor@_WV?$stream_output_adapter@_W@__crt_stdio_output@@V?$positional_parameter_base@_WV?$stream_output_adapter@_W@__crt_stdio_output@@@2@@__crt_stdio_output@@AAEX_K_N@Z 100372b2 f i libucrt:output.obj
 0001:00036339       ??$type_case_integer_parse_into_buffer@_K$07@?$output_processor@_WV?$stream_output_adapter@_W@__crt_stdio_output@@V?$standard_base@_WV?$stream_output_adapter@_W@__crt_stdio_output@@@2@@__crt_stdio_output@@AAEX_K_N@Z 10037339 f i libucrt:output.obj
 0001:000363c0       ??$type_case_integer_parse_into_buffer@_K$07@?$output_processor@_WV?$string_output_adapter@_W@__crt_stdio_output@@V?$format_validation_base@_WV?$string_output_adapter@_W@__crt_stdio_output@@@2@@__crt_stdio_output@@AAEX_K_N@Z 100373c0 f i libucrt:output.obj
 0001:00036447       ??$type_case_integer_parse_into_buffer@_K$07@?$output_processor@_WV?$string_output_adapter@_W@__crt_stdio_output@@V?$positional_parameter_base@_WV?$string_output_adapter@_W@__crt_stdio_output@@@2@@__crt_stdio_output@@AAEX_K_N@Z 10037447 f i libucrt:output.obj
 0001:000364ce       ??$type_case_integer_parse_into_buffer@_K$07@?$output_processor@_WV?$string_output_adapter@_W@__crt_stdio_output@@V?$standard_base@_WV?$string_output_adapter@_W@__crt_stdio_output@@@2@@__crt_stdio_output@@AAEX_K_N@Z 100374ce f i libucrt:output.obj
 0001:00036555       ??$type_case_integer_parse_into_buffer@_K$09@?$output_processor@DV?$stream_output_adapter@D@__crt_stdio_output@@V?$format_validation_base@DV?$stream_output_adapter@D@__crt_stdio_output@@@2@@__crt_stdio_output@@AAEX_K_N@Z 10037555 f i libucrt:output.obj
 0001:000365fc       ??$type_case_integer_parse_into_buffer@_K$09@?$output_processor@DV?$stream_output_adapter@D@__crt_stdio_output@@V?$positional_parameter_base@DV?$stream_output_adapter@D@__crt_stdio_output@@@2@@__crt_stdio_output@@AAEX_K_N@Z 100375fc f i libucrt:output.obj
 0001:000366a3       ??$type_case_integer_parse_into_buffer@_K$09@?$output_processor@DV?$stream_output_adapter@D@__crt_stdio_output@@V?$standard_base@DV?$stream_output_adapter@D@__crt_stdio_output@@@2@@__crt_stdio_output@@AAEX_K_N@Z 100376a3 f i libucrt:output.obj
 0001:0003674a       ??$type_case_integer_parse_into_buffer@_K$09@?$output_processor@DV?$string_output_adapter@D@__crt_stdio_output@@V?$format_validation_base@DV?$string_output_adapter@D@__crt_stdio_output@@@2@@__crt_stdio_output@@AAEX_K_N@Z 1003774a f i libucrt:output.obj
 0001:000367f1       ??$type_case_integer_parse_into_buffer@_K$09@?$output_processor@DV?$string_output_adapter@D@__crt_stdio_output@@V?$positional_parameter_base@DV?$string_output_adapter@D@__crt_stdio_output@@@2@@__crt_stdio_output@@AAEX_K_N@Z 100377f1 f i libucrt:output.obj
 0001:00036898       ??$type_case_integer_parse_into_buffer@_K$09@?$output_processor@DV?$string_output_adapter@D@__crt_stdio_output@@V?$standard_base@DV?$string_output_adapter@D@__crt_stdio_output@@@2@@__crt_stdio_output@@AAEX_K_N@Z 10037898 f i libucrt:output.obj
 0001:0003693f       ??$type_case_integer_parse_into_buffer@_K$09@?$output_processor@_WV?$stream_output_adapter@_W@__crt_stdio_output@@V?$format_validation_base@_WV?$stream_output_adapter@_W@__crt_stdio_output@@@2@@__crt_stdio_output@@AAEX_K_N@Z 1003793f f i libucrt:output.obj
 0001:000369fc       ??$type_case_integer_parse_into_buffer@_K$09@?$output_processor@_WV?$stream_output_adapter@_W@__crt_stdio_output@@V?$positional_parameter_base@_WV?$stream_output_adapter@_W@__crt_stdio_output@@@2@@__crt_stdio_output@@AAEX_K_N@Z 100379fc f i libucrt:output.obj
 0001:00036ab9       ??$type_case_integer_parse_into_buffer@_K$09@?$output_processor@_WV?$stream_output_adapter@_W@__crt_stdio_output@@V?$standard_base@_WV?$stream_output_adapter@_W@__crt_stdio_output@@@2@@__crt_stdio_output@@AAEX_K_N@Z 10037ab9 f i libucrt:output.obj
 0001:00036b76       ??$type_case_integer_parse_into_buffer@_K$09@?$output_processor@_WV?$string_output_adapter@_W@__crt_stdio_output@@V?$format_validation_base@_WV?$string_output_adapter@_W@__crt_stdio_output@@@2@@__crt_stdio_output@@AAEX_K_N@Z 10037b76 f i libucrt:output.obj
 0001:00036c33       ??$type_case_integer_parse_into_buffer@_K$09@?$output_processor@_WV?$string_output_adapter@_W@__crt_stdio_output@@V?$positional_parameter_base@_WV?$string_output_adapter@_W@__crt_stdio_output@@@2@@__crt_stdio_output@@AAEX_K_N@Z 10037c33 f i libucrt:output.obj
 0001:00036cf0       ??$type_case_integer_parse_into_buffer@_K$09@?$output_processor@_WV?$string_output_adapter@_W@__crt_stdio_output@@V?$standard_base@_WV?$string_output_adapter@_W@__crt_stdio_output@@@2@@__crt_stdio_output@@AAEX_K_N@Z 10037cf0 f i libucrt:output.obj
 0001:00036dad       ??$type_case_integer_parse_into_buffer@_K$0BA@@?$output_processor@DV?$stream_output_adapter@D@__crt_stdio_output@@V?$format_validation_base@DV?$stream_output_adapter@D@__crt_stdio_output@@@2@@__crt_stdio_output@@AAEX_K_N@Z 10037dad f i libucrt:output.obj
 0001:00036e37       ??$type_case_integer_parse_into_buffer@_K$0BA@@?$output_processor@DV?$stream_output_adapter@D@__crt_stdio_output@@V?$positional_parameter_base@DV?$stream_output_adapter@D@__crt_stdio_output@@@2@@__crt_stdio_output@@AAEX_K_N@Z 10037e37 f i libucrt:output.obj
 0001:00036ec1       ??$type_case_integer_parse_into_buffer@_K$0BA@@?$output_processor@DV?$stream_output_adapter@D@__crt_stdio_output@@V?$standard_base@DV?$stream_output_adapter@D@__crt_stdio_output@@@2@@__crt_stdio_output@@AAEX_K_N@Z 10037ec1 f i libucrt:output.obj
 0001:00036f4b       ??$type_case_integer_parse_into_buffer@_K$0BA@@?$output_processor@DV?$string_output_adapter@D@__crt_stdio_output@@V?$format_validation_base@DV?$string_output_adapter@D@__crt_stdio_output@@@2@@__crt_stdio_output@@AAEX_K_N@Z 10037f4b f i libucrt:output.obj
 0001:00036fd5       ??$type_case_integer_parse_into_buffer@_K$0BA@@?$output_processor@DV?$string_output_adapter@D@__crt_stdio_output@@V?$positional_parameter_base@DV?$string_output_adapter@D@__crt_stdio_output@@@2@@__crt_stdio_output@@AAEX_K_N@Z 10037fd5 f i libucrt:output.obj
 0001:0003705f       ??$type_case_integer_parse_into_buffer@_K$0BA@@?$output_processor@DV?$string_output_adapter@D@__crt_stdio_output@@V?$standard_base@DV?$string_output_adapter@D@__crt_stdio_output@@@2@@__crt_stdio_output@@AAEX_K_N@Z 1003805f f i libucrt:output.obj
 0001:000370e9       ??$type_case_integer_parse_into_buffer@_K$0BA@@?$output_processor@_WV?$stream_output_adapter@_W@__crt_stdio_output@@V?$format_validation_base@_WV?$stream_output_adapter@_W@__crt_stdio_output@@@2@@__crt_stdio_output@@AAEX_K_N@Z 100380e9 f i libucrt:output.obj
 0001:0003717f       ??$type_case_integer_parse_into_buffer@_K$0BA@@?$output_processor@_WV?$stream_output_adapter@_W@__crt_stdio_output@@V?$positional_parameter_base@_WV?$stream_output_adapter@_W@__crt_stdio_output@@@2@@__crt_stdio_output@@AAEX_K_N@Z 1003817f f i libucrt:output.obj
 0001:00037215       ??$type_case_integer_parse_into_buffer@_K$0BA@@?$output_processor@_WV?$stream_output_adapter@_W@__crt_stdio_output@@V?$standard_base@_WV?$stream_output_adapter@_W@__crt_stdio_output@@@2@@__crt_stdio_output@@AAEX_K_N@Z 10038215 f i libucrt:output.obj
 0001:000372ab       ??$type_case_integer_parse_into_buffer@_K$0BA@@?$output_processor@_WV?$string_output_adapter@_W@__crt_stdio_output@@V?$format_validation_base@_WV?$string_output_adapter@_W@__crt_stdio_output@@@2@@__crt_stdio_output@@AAEX_K_N@Z 100382ab f i libucrt:output.obj
 0001:00037341       ??$type_case_integer_parse_into_buffer@_K$0BA@@?$output_processor@_WV?$string_output_adapter@_W@__crt_stdio_output@@V?$positional_parameter_base@_WV?$string_output_adapter@_W@__crt_stdio_output@@@2@@__crt_stdio_output@@AAEX_K_N@Z 10038341 f i libucrt:output.obj
 0001:000373d7       ??$type_case_integer_parse_into_buffer@_K$0BA@@?$output_processor@_WV?$string_output_adapter@_W@__crt_stdio_output@@V?$standard_base@_WV?$string_output_adapter@_W@__crt_stdio_output@@@2@@__crt_stdio_output@@AAEX_K_N@Z 100383d7 f i libucrt:output.obj
 0001:0003746d       ??$write_multiple_characters@V?$stream_output_adapter@D@__crt_stdio_output@@D@__crt_stdio_output@@YAXABV?$stream_output_adapter@D@0@DHQAHAAV__crt_cached_ptd_host@@@Z 1003846d f i libucrt:output.obj
 0001:0003749c       ??$write_multiple_characters@V?$stream_output_adapter@_W@__crt_stdio_output@@D@__crt_stdio_output@@YAXABV?$stream_output_adapter@_W@0@DHQAHAAV__crt_cached_ptd_host@@@Z 1003849c f i libucrt:output.obj
 0001:000374d0       ??$write_multiple_characters@V?$string_output_adapter@D@__crt_stdio_output@@D@__crt_stdio_output@@YAXABV?$string_output_adapter@D@0@DHQAHAAV__crt_cached_ptd_host@@@Z 100384d0 f i libucrt:output.obj
 0001:00037533       ??$write_multiple_characters@V?$string_output_adapter@_W@__crt_stdio_output@@D@__crt_stdio_output@@YAXABV?$string_output_adapter@_W@0@DHQAHAAV__crt_cached_ptd_host@@@Z 10038533 f i libucrt:output.obj
 0001:00037762       ??0?$common_data@D@__crt_stdio_output@@IAE@AAV__crt_cached_ptd_host@@@Z 10038762 f i libucrt:output.obj
 0001:000377a9       ??0?$common_data@_W@__crt_stdio_output@@IAE@AAV__crt_cached_ptd_host@@@Z 100387a9 f i libucrt:output.obj
 0001:000377f5       ??0?$output_adapter_data@DV?$stream_output_adapter@D@__crt_stdio_output@@@__crt_stdio_output@@IAE@ABV?$stream_output_adapter@D@1@_KQBDAAV__crt_cached_ptd_host@@QAD@Z 100387f5 f i libucrt:output.obj
 0001:0003785c       ??0?$output_adapter_data@DV?$string_output_adapter@D@__crt_stdio_output@@@__crt_stdio_output@@IAE@ABV?$string_output_adapter@D@1@_KQBDAAV__crt_cached_ptd_host@@QAD@Z 1003885c f i libucrt:output.obj
 0001:000378c3       ??0?$output_adapter_data@_WV?$stream_output_adapter@_W@__crt_stdio_output@@@__crt_stdio_output@@IAE@ABV?$stream_output_adapter@_W@1@_KQB_WAAV__crt_cached_ptd_host@@QAD@Z 100388c3 f i libucrt:output.obj
 0001:0003792f       ??0?$output_adapter_data@_WV?$string_output_adapter@_W@__crt_stdio_output@@@__crt_stdio_output@@IAE@ABV?$string_output_adapter@_W@1@_KQB_WAAV__crt_cached_ptd_host@@QAD@Z 1003892f f i libucrt:output.obj
 0001:0003799b       ??0?$output_processor@DV?$stream_output_adapter@D@__crt_stdio_output@@V?$format_validation_base@DV?$stream_output_adapter@D@__crt_stdio_output@@@2@@__crt_stdio_output@@QAE@ABV?$stream_output_adapter@D@1@_KQBDAAV__crt_cached_ptd_host@@QAD@Z 1003899b f i libucrt:output.obj
 0001:000379c8       ??0?$output_processor@DV?$stream_output_adapter@D@__crt_stdio_output@@V?$positional_parameter_base@DV?$stream_output_adapter@D@__crt_stdio_output@@@2@@__crt_stdio_output@@QAE@ABV?$stream_output_adapter@D@1@_KQBDAAV__crt_cached_ptd_host@@QAD@Z 100389c8 f i libucrt:output.obj
 0001:000379ee       ??0?$output_processor@DV?$stream_output_adapter@D@__crt_stdio_output@@V?$standard_base@DV?$stream_output_adapter@D@__crt_stdio_output@@@2@@__crt_stdio_output@@QAE@ABV?$stream_output_adapter@D@1@_KQBDAAV__crt_cached_ptd_host@@QAD@Z 100389ee f i libucrt:output.obj
 0001:00037a1b       ??0?$output_processor@DV?$string_output_adapter@D@__crt_stdio_output@@V?$format_validation_base@DV?$string_output_adapter@D@__crt_stdio_output@@@2@@__crt_stdio_output@@QAE@ABV?$string_output_adapter@D@1@_KQBDAAV__crt_cached_ptd_host@@QAD@Z 10038a1b f i libucrt:output.obj
 0001:00037a48       ??0?$output_processor@DV?$string_output_adapter@D@__crt_stdio_output@@V?$positional_parameter_base@DV?$string_output_adapter@D@__crt_stdio_output@@@2@@__crt_stdio_output@@QAE@ABV?$string_output_adapter@D@1@_KQBDAAV__crt_cached_ptd_host@@QAD@Z 10038a48 f i libucrt:output.obj
 0001:00037a6e       ??0?$output_processor@DV?$string_output_adapter@D@__crt_stdio_output@@V?$standard_base@DV?$string_output_adapter@D@__crt_stdio_output@@@2@@__crt_stdio_output@@QAE@ABV?$string_output_adapter@D@1@_KQBDAAV__crt_cached_ptd_host@@QAD@Z 10038a6e f i libucrt:output.obj
 0001:00037a9b       ??0?$output_processor@_WV?$stream_output_adapter@_W@__crt_stdio_output@@V?$format_validation_base@_WV?$stream_output_adapter@_W@__crt_stdio_output@@@2@@__crt_stdio_output@@QAE@ABV?$stream_output_adapter@_W@1@_KQB_WAAV__crt_cached_ptd_host@@QAD@Z 10038a9b f i libucrt:output.obj
 0001:00037ac8       ??0?$output_processor@_WV?$stream_output_adapter@_W@__crt_stdio_output@@V?$positional_parameter_base@_WV?$stream_output_adapter@_W@__crt_stdio_output@@@2@@__crt_stdio_output@@QAE@ABV?$stream_output_adapter@_W@1@_KQB_WAAV__crt_cached_ptd_host@@QAD@Z 10038ac8 f i libucrt:output.obj
 0001:00037aee       ??0?$output_processor@_WV?$stream_output_adapter@_W@__crt_stdio_output@@V?$standard_base@_WV?$stream_output_adapter@_W@__crt_stdio_output@@@2@@__crt_stdio_output@@QAE@ABV?$stream_output_adapter@_W@1@_KQB_WAAV__crt_cached_ptd_host@@QAD@Z 10038aee f i libucrt:output.obj
 0001:00037b1b       ??0?$output_processor@_WV?$string_output_adapter@_W@__crt_stdio_output@@V?$format_validation_base@_WV?$string_output_adapter@_W@__crt_stdio_output@@@2@@__crt_stdio_output@@QAE@ABV?$string_output_adapter@_W@1@_KQB_WAAV__crt_cached_ptd_host@@QAD@Z 10038b1b f i libucrt:output.obj
 0001:00037b48       ??0?$output_processor@_WV?$string_output_adapter@_W@__crt_stdio_output@@V?$positional_parameter_base@_WV?$string_output_adapter@_W@__crt_stdio_output@@@2@@__crt_stdio_output@@QAE@ABV?$string_output_adapter@_W@1@_KQB_WAAV__crt_cached_ptd_host@@QAD@Z 10038b48 f i libucrt:output.obj
 0001:00037b6e       ??0?$output_processor@_WV?$string_output_adapter@_W@__crt_stdio_output@@V?$standard_base@_WV?$string_output_adapter@_W@__crt_stdio_output@@@2@@__crt_stdio_output@@QAE@ABV?$string_output_adapter@_W@1@_KQB_WAAV__crt_cached_ptd_host@@QAD@Z 10038b6e f i libucrt:output.obj
 0001:00037b9b       ??0?$stream_output_adapter@D@__crt_stdio_output@@QAE@QAU_iobuf@@@Z 10038b9b f i libucrt:output.obj
 0001:00037bab       ??0?$stream_output_adapter@_W@__crt_stdio_output@@QAE@QAU_iobuf@@@Z 10038bab f i libucrt:output.obj
 0001:00037bbb       ??0?$string_output_adapter@D@__crt_stdio_output@@QAE@QAU?$string_output_adapter_context@D@1@@Z 10038bbb f i libucrt:output.obj
 0001:00037bcb       ??0?$string_output_adapter@_W@__crt_stdio_output@@QAE@QAU?$string_output_adapter_context@_W@1@@Z 10038bcb f i libucrt:output.obj
 0001:00037bdb       ??0__acrt_stdio_temporary_buffering_guard@@QAE@QAU_iobuf@@AAV__crt_cached_ptd_host@@@Z 10038bdb f i libucrt:output.obj
 0001:00037bff       ??0__crt_stdio_stream@@QAE@QAU_iobuf@@@Z 10038bff f i libucrt:output.obj
 0001:00037c0f       ??0formatting_buffer@__crt_stdio_output@@QAE@XZ 10038c0f f i libucrt:output.obj
 0001:00037c20       ??0guard@?$cached@H@__crt_cached_ptd_host@@QAE@AAU12@@Z 10038c20 f i libucrt:output.obj
 0001:00037c3f       ??1?$common_data@D@__crt_stdio_output@@QAE@XZ 10038c3f f i libucrt:output.obj
 0001:00037c47       ??1?$common_data@_W@__crt_stdio_output@@QAE@XZ 10038c47 f i libucrt:output.obj
 0001:00037c4f       ??1?$format_validation_base@DV?$stream_output_adapter@D@__crt_stdio_output@@@__crt_stdio_output@@QAE@XZ 10038c4f f i libucrt:output.obj
 0001:00037c57       ??1?$format_validation_base@DV?$string_output_adapter@D@__crt_stdio_output@@@__crt_stdio_output@@QAE@XZ 10038c57 f i libucrt:output.obj
 0001:00037c5f       ??1?$format_validation_base@_WV?$stream_output_adapter@_W@__crt_stdio_output@@@__crt_stdio_output@@QAE@XZ 10038c5f f i libucrt:output.obj
 0001:00037c67       ??1?$format_validation_base@_WV?$string_output_adapter@_W@__crt_stdio_output@@@__crt_stdio_output@@QAE@XZ 10038c67 f i libucrt:output.obj
 0001:00037c6f       ??1?$output_adapter_data@DV?$stream_output_adapter@D@__crt_stdio_output@@@__crt_stdio_output@@QAE@XZ 10038c6f f i libucrt:output.obj
 0001:00037c77       ??1?$output_adapter_data@DV?$string_output_adapter@D@__crt_stdio_output@@@__crt_stdio_output@@QAE@XZ 10038c77 f i libucrt:output.obj
 0001:00037c7f       ??1?$output_adapter_data@_WV?$stream_output_adapter@_W@__crt_stdio_output@@@__crt_stdio_output@@QAE@XZ 10038c7f f i libucrt:output.obj
 0001:00037c87       ??1?$output_adapter_data@_WV?$string_output_adapter@_W@__crt_stdio_output@@@__crt_stdio_output@@QAE@XZ 10038c87 f i libucrt:output.obj
 0001:00037c8f       ??1?$output_processor@DV?$stream_output_adapter@D@__crt_stdio_output@@V?$format_validation_base@DV?$stream_output_adapter@D@__crt_stdio_output@@@2@@__crt_stdio_output@@QAE@XZ 10038c8f f i libucrt:output.obj
 0001:00037c97       ??1?$output_processor@DV?$stream_output_adapter@D@__crt_stdio_output@@V?$positional_parameter_base@DV?$stream_output_adapter@D@__crt_stdio_output@@@2@@__crt_stdio_output@@QAE@XZ 10038c97 f i libucrt:output.obj
 0001:00037c9f       ??1?$output_processor@DV?$stream_output_adapter@D@__crt_stdio_output@@V?$standard_base@DV?$stream_output_adapter@D@__crt_stdio_output@@@2@@__crt_stdio_output@@QAE@XZ 10038c9f f i libucrt:output.obj
 0001:00037ca7       ??1?$output_processor@DV?$string_output_adapter@D@__crt_stdio_output@@V?$format_validation_base@DV?$string_output_adapter@D@__crt_stdio_output@@@2@@__crt_stdio_output@@QAE@XZ 10038ca7 f i libucrt:output.obj
 0001:00037caf       ??1?$output_processor@DV?$string_output_adapter@D@__crt_stdio_output@@V?$positional_parameter_base@DV?$string_output_adapter@D@__crt_stdio_output@@@2@@__crt_stdio_output@@QAE@XZ 10038caf f i libucrt:output.obj
 0001:00037cb7       ??1?$output_processor@DV?$string_output_adapter@D@__crt_stdio_output@@V?$standard_base@DV?$string_output_adapter@D@__crt_stdio_output@@@2@@__crt_stdio_output@@QAE@XZ 10038cb7 f i libucrt:output.obj
 0001:00037cbf       ??1?$output_processor@_WV?$stream_output_adapter@_W@__crt_stdio_output@@V?$format_validation_base@_WV?$stream_output_adapter@_W@__crt_stdio_output@@@2@@__crt_stdio_output@@QAE@XZ 10038cbf f i libucrt:output.obj
 0001:00037cc7       ??1?$output_processor@_WV?$stream_output_adapter@_W@__crt_stdio_output@@V?$positional_parameter_base@_WV?$stream_output_adapter@_W@__crt_stdio_output@@@2@@__crt_stdio_output@@QAE@XZ 10038cc7 f i libucrt:output.obj
 0001:00037ccf       ??1?$output_processor@_WV?$stream_output_adapter@_W@__crt_stdio_output@@V?$standard_base@_WV?$stream_output_adapter@_W@__crt_stdio_output@@@2@@__crt_stdio_output@@QAE@XZ 10038ccf f i libucrt:output.obj
 0001:00037cd7       ??1?$output_processor@_WV?$string_output_adapter@_W@__crt_stdio_output@@V?$format_validation_base@_WV?$string_output_adapter@_W@__crt_stdio_output@@@2@@__crt_stdio_output@@QAE@XZ 10038cd7 f i libucrt:output.obj
 0001:00037cdf       ??1?$output_processor@_WV?$string_output_adapter@_W@__crt_stdio_output@@V?$positional_parameter_base@_WV?$string_output_adapter@_W@__crt_stdio_output@@@2@@__crt_stdio_output@@QAE@XZ 10038cdf f i libucrt:output.obj
 0001:00037ce7       ??1?$output_processor@_WV?$string_output_adapter@_W@__crt_stdio_output@@V?$standard_base@_WV?$string_output_adapter@_W@__crt_stdio_output@@@2@@__crt_stdio_output@@QAE@XZ 10038ce7 f i libucrt:output.obj
 0001:00037cef       ??1?$positional_parameter_base@DV?$stream_output_adapter@D@__crt_stdio_output@@@__crt_stdio_output@@QAE@XZ 10038cef f i libucrt:output.obj
 0001:00037cf7       ??1?$positional_parameter_base@DV?$string_output_adapter@D@__crt_stdio_output@@@__crt_stdio_output@@QAE@XZ 10038cf7 f i libucrt:output.obj
 0001:00037cff       ??1?$positional_parameter_base@_WV?$stream_output_adapter@_W@__crt_stdio_output@@@__crt_stdio_output@@QAE@XZ 10038cff f i libucrt:output.obj
 0001:00037d07       ??1?$positional_parameter_base@_WV?$string_output_adapter@_W@__crt_stdio_output@@@__crt_stdio_output@@QAE@XZ 10038d07 f i libucrt:output.obj
 0001:00037d0f       ??1?$standard_base@DV?$stream_output_adapter@D@__crt_stdio_output@@@__crt_stdio_output@@QAE@XZ 10038d0f f i libucrt:output.obj
 0001:00037d17       ??1?$standard_base@DV?$string_output_adapter@D@__crt_stdio_output@@@__crt_stdio_output@@QAE@XZ 10038d17 f i libucrt:output.obj
 0001:00037d1f       ??1?$standard_base@_WV?$stream_output_adapter@_W@__crt_stdio_output@@@__crt_stdio_output@@QAE@XZ 10038d1f f i libucrt:output.obj
 0001:00037d27       ??1?$standard_base@_WV?$string_output_adapter@_W@__crt_stdio_output@@@__crt_stdio_output@@QAE@XZ 10038d27 f i libucrt:output.obj
 0001:00037d2f       ??1__acrt_stdio_temporary_buffering_guard@@QAE@XZ 10038d2f f i libucrt:output.obj
 0001:00037d42       ??1formatting_buffer@__crt_stdio_output@@QAE@XZ 10038d42 f i libucrt:output.obj
 0001:00037d5c       ??1guard@?$cached@H@__crt_cached_ptd_host@@QAE@XZ 10038d5c f i libucrt:output.obj
 0001:00037d72       ??4?$__crt_unique_heap_ptr@DU__crt_internal_free_policy@@@@QAEAAV0@$$QAV0@@Z 10038d72 f i libucrt:output.obj
 0001:00037d96       ??A?$spectre_mitigated_lookup_table@Ustate_transition_pair@__crt_stdio_output@@$0IA@@__crt_stdio_output@@QBEABUstate_transition_pair@1@I@Z 10038d96 f i libucrt:output.obj
 0001:00037da8       ??C__crt_stdio_stream@@QBEPAU__crt_stdio_stream_data@@XZ 10038da8 f i libucrt:output.obj
 0001:00038211       ?adjust_hexit@?$output_processor@DV?$stream_output_adapter@D@__crt_stdio_output@@V?$format_validation_base@DV?$stream_output_adapter@D@__crt_stdio_output@@@2@@__crt_stdio_output@@CADH_N@Z 10039211 f i libucrt:output.obj
 0001:00038225       ?adjust_hexit@?$output_processor@DV?$stream_output_adapter@D@__crt_stdio_output@@V?$positional_parameter_base@DV?$stream_output_adapter@D@__crt_stdio_output@@@2@@__crt_stdio_output@@CADH_N@Z 10039225 f i libucrt:output.obj
 0001:00038239       ?adjust_hexit@?$output_processor@DV?$stream_output_adapter@D@__crt_stdio_output@@V?$standard_base@DV?$stream_output_adapter@D@__crt_stdio_output@@@2@@__crt_stdio_output@@CADH_N@Z 10039239 f i libucrt:output.obj
 0001:0003824d       ?adjust_hexit@?$output_processor@DV?$string_output_adapter@D@__crt_stdio_output@@V?$format_validation_base@DV?$string_output_adapter@D@__crt_stdio_output@@@2@@__crt_stdio_output@@CADH_N@Z 1003924d f i libucrt:output.obj
 0001:00038261       ?adjust_hexit@?$output_processor@DV?$string_output_adapter@D@__crt_stdio_output@@V?$positional_parameter_base@DV?$string_output_adapter@D@__crt_stdio_output@@@2@@__crt_stdio_output@@CADH_N@Z 10039261 f i libucrt:output.obj
 0001:00038275       ?adjust_hexit@?$output_processor@DV?$string_output_adapter@D@__crt_stdio_output@@V?$standard_base@DV?$string_output_adapter@D@__crt_stdio_output@@@2@@__crt_stdio_output@@CADH_N@Z 10039275 f i libucrt:output.obj
 0001:00038289       ?adjust_hexit@?$output_processor@_WV?$stream_output_adapter@_W@__crt_stdio_output@@V?$format_validation_base@_WV?$stream_output_adapter@_W@__crt_stdio_output@@@2@@__crt_stdio_output@@CADH_N@Z 10039289 f i libucrt:output.obj
 0001:0003829d       ?adjust_hexit@?$output_processor@_WV?$stream_output_adapter@_W@__crt_stdio_output@@V?$positional_parameter_base@_WV?$stream_output_adapter@_W@__crt_stdio_output@@@2@@__crt_stdio_output@@CADH_N@Z 1003929d f i libucrt:output.obj
 0001:000382b1       ?adjust_hexit@?$output_processor@_WV?$stream_output_adapter@_W@__crt_stdio_output@@V?$standard_base@_WV?$stream_output_adapter@_W@__crt_stdio_output@@@2@@__crt_stdio_output@@CADH_N@Z 100392b1 f i libucrt:output.obj
 0001:000382c5       ?adjust_hexit@?$output_processor@_WV?$string_output_adapter@_W@__crt_stdio_output@@V?$format_validation_base@_WV?$string_output_adapter@_W@__crt_stdio_output@@@2@@__crt_stdio_output@@CADH_N@Z 100392c5 f i libucrt:output.obj
 0001:000382d9       ?adjust_hexit@?$output_processor@_WV?$string_output_adapter@_W@__crt_stdio_output@@V?$positional_parameter_base@_WV?$string_output_adapter@_W@__crt_stdio_output@@@2@@__crt_stdio_output@@CADH_N@Z 100392d9 f i libucrt:output.obj
 0001:000382ed       ?adjust_hexit@?$output_processor@_WV?$string_output_adapter@_W@__crt_stdio_output@@V?$standard_base@_WV?$string_output_adapter@_W@__crt_stdio_output@@@2@@__crt_stdio_output@@CADH_N@Z 100392ed f i libucrt:output.obj
 0001:00038301       ?advance_to_next_pass@?$positional_parameter_base@DV?$stream_output_adapter@D@__crt_stdio_output@@@__crt_stdio_output@@IAE_NXZ 10039301 f i libucrt:output.obj
 0001:0003834f       ?advance_to_next_pass@?$positional_parameter_base@DV?$string_output_adapter@D@__crt_stdio_output@@@__crt_stdio_output@@IAE_NXZ 1003934f f i libucrt:output.obj
 0001:0003839d       ?advance_to_next_pass@?$positional_parameter_base@_WV?$stream_output_adapter@_W@__crt_stdio_output@@@__crt_stdio_output@@IAE_NXZ 1003939d f i libucrt:output.obj
 0001:000383eb       ?advance_to_next_pass@?$positional_parameter_base@_WV?$string_output_adapter@_W@__crt_stdio_output@@@__crt_stdio_output@@IAE_NXZ 100393eb f i libucrt:output.obj
 0001:00038439       ?advance_to_next_pass@?$standard_base@DV?$stream_output_adapter@D@__crt_stdio_output@@@__crt_stdio_output@@IAE_NXZ 10039439 f i libucrt:output.obj
 0001:0003844a       ?advance_to_next_pass@?$standard_base@DV?$string_output_adapter@D@__crt_stdio_output@@@__crt_stdio_output@@IAE_NXZ 1003944a f i libucrt:output.obj
 0001:0003845b       ?advance_to_next_pass@?$standard_base@_WV?$stream_output_adapter@_W@__crt_stdio_output@@@__crt_stdio_output@@IAE_NXZ 1003945b f i libucrt:output.obj
 0001:0003846c       ?advance_to_next_pass@?$standard_base@_WV?$string_output_adapter@_W@__crt_stdio_output@@@__crt_stdio_output@@IAE_NXZ 1003946c f i libucrt:output.obj
 0001:0003847d       ?check@?$cached@H@__crt_cached_ptd_host@@QBE_NH@Z 1003947d f i libucrt:output.obj
 0001:00038499       ?create_guard@?$cached@H@__crt_cached_ptd_host@@QAE?AVguard@12@XZ 10039499 f i libucrt:output.obj
 0001:000384b6       ?crop_zeroes@__crt_stdio_output@@YAXPADQAU__crt_locale_pointers@@@Z 100394b6 f i libucrt:output.obj
 0001:00038516       ?disable@guard@?$cached@H@__crt_cached_ptd_host@@QAEXXZ 10039516 f i libucrt:output.obj
 0001:0003851b       ?enable@guard@?$cached@H@__crt_cached_ptd_host@@QAEXXZ 1003951b f i libucrt:output.obj
 0001:00038520       ?find_next_state@?$output_processor@DV?$stream_output_adapter@D@__crt_stdio_output@@V?$format_validation_base@DV?$stream_output_adapter@D@__crt_stdio_output@@@2@@__crt_stdio_output@@ABE?AW4state@2@DW432@@Z 10039520 f i libucrt:output.obj
 0001:0003855d       ?find_next_state@?$output_processor@DV?$stream_output_adapter@D@__crt_stdio_output@@V?$positional_parameter_base@DV?$stream_output_adapter@D@__crt_stdio_output@@@2@@__crt_stdio_output@@ABE?AW4state@2@DW432@@Z 1003955d f i libucrt:output.obj
 0001:0003859a       ?find_next_state@?$output_processor@DV?$stream_output_adapter@D@__crt_stdio_output@@V?$standard_base@DV?$stream_output_adapter@D@__crt_stdio_output@@@2@@__crt_stdio_output@@ABE?AW4state@2@DW432@@Z 1003959a f i libucrt:output.obj
 0001:000385d5       ?find_next_state@?$output_processor@DV?$string_output_adapter@D@__crt_stdio_output@@V?$format_validation_base@DV?$string_output_adapter@D@__crt_stdio_output@@@2@@__crt_stdio_output@@ABE?AW4state@2@DW432@@Z 100395d5 f i libucrt:output.obj
 0001:00038612       ?find_next_state@?$output_processor@DV?$string_output_adapter@D@__crt_stdio_output@@V?$positional_parameter_base@DV?$string_output_adapter@D@__crt_stdio_output@@@2@@__crt_stdio_output@@ABE?AW4state@2@DW432@@Z 10039612 f i libucrt:output.obj
 0001:0003864f       ?find_next_state@?$output_processor@DV?$string_output_adapter@D@__crt_stdio_output@@V?$standard_base@DV?$string_output_adapter@D@__crt_stdio_output@@@2@@__crt_stdio_output@@ABE?AW4state@2@DW432@@Z 1003964f f i libucrt:output.obj
 0001:0003868a       ?find_next_state@?$output_processor@_WV?$stream_output_adapter@_W@__crt_stdio_output@@V?$format_validation_base@_WV?$stream_output_adapter@_W@__crt_stdio_output@@@2@@__crt_stdio_output@@ABE?AW4state@2@_WW432@@Z 1003968a f i libucrt:output.obj
 0001:000386c6       ?find_next_state@?$output_processor@_WV?$stream_output_adapter@_W@__crt_stdio_output@@V?$positional_parameter_base@_WV?$stream_output_adapter@_W@__crt_stdio_output@@@2@@__crt_stdio_output@@ABE?AW4state@2@_WW432@@Z 100396c6 f i libucrt:output.obj
 0001:00038702       ?find_next_state@?$output_processor@_WV?$stream_output_adapter@_W@__crt_stdio_output@@V?$standard_base@_WV?$stream_output_adapter@_W@__crt_stdio_output@@@2@@__crt_stdio_output@@ABE?AW4state@2@_WW432@@Z 10039702 f i libucrt:output.obj
 0001:0003873c       ?find_next_state@?$output_processor@_WV?$string_output_adapter@_W@__crt_stdio_output@@V?$format_validation_base@_WV?$string_output_adapter@_W@__crt_stdio_output@@@2@@__crt_stdio_output@@ABE?AW4state@2@_WW432@@Z 1003973c f i libucrt:output.obj
 0001:00038778       ?find_next_state@?$output_processor@_WV?$string_output_adapter@_W@__crt_stdio_output@@V?$positional_parameter_base@_WV?$string_output_adapter@_W@__crt_stdio_output@@@2@@__crt_stdio_output@@ABE?AW4state@2@_WW432@@Z 10039778 f i libucrt:output.obj
 0001:000387b4       ?find_next_state@?$output_processor@_WV?$string_output_adapter@_W@__crt_stdio_output@@V?$standard_base@_WV?$string_output_adapter@_W@__crt_stdio_output@@@2@@__crt_stdio_output@@ABE?AW4state@2@_WW432@@Z 100397b4 f i libucrt:output.obj
 0001:000387ee       ?force_decimal_point@__crt_stdio_output@@YAXPADQAU__crt_locale_pointers@@@Z 100397ee f i libucrt:output.obj
 0001:0003884a       ?get_flags@__crt_stdio_stream@@QBEJXZ 1003984a f i libucrt:output.obj
 0001:00038851       ?get_parameter_type@?$positional_parameter_base@DV?$stream_output_adapter@D@__crt_stdio_output@@@__crt_stdio_output@@CA?AW4parameter_type@12@F@Z 10039851 f i libucrt:output.obj
 0001:00038855       ?get_parameter_type@?$positional_parameter_base@DV?$stream_output_adapter@D@__crt_stdio_output@@@__crt_stdio_output@@CA?AW4parameter_type@12@G@Z 10039855 f i libucrt:output.obj
 0001:00038859       ?get_parameter_type@?$positional_parameter_base@DV?$stream_output_adapter@D@__crt_stdio_output@@@__crt_stdio_output@@CA?AW4parameter_type@12@H@Z 10039859 f i libucrt:output.obj
 0001:0003885d       ?get_parameter_type@?$positional_parameter_base@DV?$stream_output_adapter@D@__crt_stdio_output@@@__crt_stdio_output@@CA?AW4parameter_type@12@I@Z 1003985d f i libucrt:output.obj
 0001:00038861       ?get_parameter_type@?$positional_parameter_base@DV?$stream_output_adapter@D@__crt_stdio_output@@@__crt_stdio_output@@CA?AW4parameter_type@12@U_CRT_DOUBLE@@@Z 10039861 f i libucrt:output.obj
 0001:00038865       ?get_parameter_type@?$positional_parameter_base@DV?$stream_output_adapter@D@__crt_stdio_output@@@__crt_stdio_output@@CA?AW4parameter_type@12@_J@Z 10039865 f i libucrt:output.obj
 0001:00038869       ?get_parameter_type@?$positional_parameter_base@DV?$stream_output_adapter@D@__crt_stdio_output@@@__crt_stdio_output@@CA?AW4parameter_type@12@_K@Z 10039869 f i libucrt:output.obj
 0001:0003886d       ?get_parameter_type@?$positional_parameter_base@DV?$stream_output_adapter@D@__crt_stdio_output@@@__crt_stdio_output@@CA?AW4parameter_type@12@_W@Z 1003986d f i libucrt:output.obj
 0001:00038871       ?get_parameter_type@?$positional_parameter_base@DV?$string_output_adapter@D@__crt_stdio_output@@@__crt_stdio_output@@CA?AW4parameter_type@12@F@Z 10039871 f i libucrt:output.obj
 0001:00038875       ?get_parameter_type@?$positional_parameter_base@DV?$string_output_adapter@D@__crt_stdio_output@@@__crt_stdio_output@@CA?AW4parameter_type@12@G@Z 10039875 f i libucrt:output.obj
 0001:00038879       ?get_parameter_type@?$positional_parameter_base@DV?$string_output_adapter@D@__crt_stdio_output@@@__crt_stdio_output@@CA?AW4parameter_type@12@H@Z 10039879 f i libucrt:output.obj
 0001:0003887d       ?get_parameter_type@?$positional_parameter_base@DV?$string_output_adapter@D@__crt_stdio_output@@@__crt_stdio_output@@CA?AW4parameter_type@12@I@Z 1003987d f i libucrt:output.obj
 0001:00038881       ?get_parameter_type@?$positional_parameter_base@DV?$string_output_adapter@D@__crt_stdio_output@@@__crt_stdio_output@@CA?AW4parameter_type@12@U_CRT_DOUBLE@@@Z 10039881 f i libucrt:output.obj
 0001:00038885       ?get_parameter_type@?$positional_parameter_base@DV?$string_output_adapter@D@__crt_stdio_output@@@__crt_stdio_output@@CA?AW4parameter_type@12@_J@Z 10039885 f i libucrt:output.obj
 0001:00038889       ?get_parameter_type@?$positional_parameter_base@DV?$string_output_adapter@D@__crt_stdio_output@@@__crt_stdio_output@@CA?AW4parameter_type@12@_K@Z 10039889 f i libucrt:output.obj
 0001:0003888d       ?get_parameter_type@?$positional_parameter_base@DV?$string_output_adapter@D@__crt_stdio_output@@@__crt_stdio_output@@CA?AW4parameter_type@12@_W@Z 1003988d f i libucrt:output.obj
 0001:00038891       ?get_parameter_type@?$positional_parameter_base@_WV?$stream_output_adapter@_W@__crt_stdio_output@@@__crt_stdio_output@@CA?AW4parameter_type@12@F@Z 10039891 f i libucrt:output.obj
 0001:00038895       ?get_parameter_type@?$positional_parameter_base@_WV?$stream_output_adapter@_W@__crt_stdio_output@@@__crt_stdio_output@@CA?AW4parameter_type@12@G@Z 10039895 f i libucrt:output.obj
 0001:00038899       ?get_parameter_type@?$positional_parameter_base@_WV?$stream_output_adapter@_W@__crt_stdio_output@@@__crt_stdio_output@@CA?AW4parameter_type@12@H@Z 10039899 f i libucrt:output.obj
 0001:0003889d       ?get_parameter_type@?$positional_parameter_base@_WV?$stream_output_adapter@_W@__crt_stdio_output@@@__crt_stdio_output@@CA?AW4parameter_type@12@I@Z 1003989d f i libucrt:output.obj
 0001:000388a1       ?get_parameter_type@?$positional_parameter_base@_WV?$stream_output_adapter@_W@__crt_stdio_output@@@__crt_stdio_output@@CA?AW4parameter_type@12@U_CRT_DOUBLE@@@Z 100398a1 f i libucrt:output.obj
 0001:000388a5       ?get_parameter_type@?$positional_parameter_base@_WV?$stream_output_adapter@_W@__crt_stdio_output@@@__crt_stdio_output@@CA?AW4parameter_type@12@_J@Z 100398a5 f i libucrt:output.obj
 0001:000388a9       ?get_parameter_type@?$positional_parameter_base@_WV?$stream_output_adapter@_W@__crt_stdio_output@@@__crt_stdio_output@@CA?AW4parameter_type@12@_K@Z 100398a9 f i libucrt:output.obj
 0001:000388ad       ?get_parameter_type@?$positional_parameter_base@_WV?$stream_output_adapter@_W@__crt_stdio_output@@@__crt_stdio_output@@CA?AW4parameter_type@12@_W@Z 100398ad f i libucrt:output.obj
 0001:000388b1       ?get_parameter_type@?$positional_parameter_base@_WV?$string_output_adapter@_W@__crt_stdio_output@@@__crt_stdio_output@@CA?AW4parameter_type@12@F@Z 100398b1 f i libucrt:output.obj
 0001:000388b5       ?get_parameter_type@?$positional_parameter_base@_WV?$string_output_adapter@_W@__crt_stdio_output@@@__crt_stdio_output@@CA?AW4parameter_type@12@G@Z 100398b5 f i libucrt:output.obj
 0001:000388b9       ?get_parameter_type@?$positional_parameter_base@_WV?$string_output_adapter@_W@__crt_stdio_output@@@__crt_stdio_output@@CA?AW4parameter_type@12@H@Z 100398b9 f i libucrt:output.obj
 0001:000388bd       ?get_parameter_type@?$positional_parameter_base@_WV?$string_output_adapter@_W@__crt_stdio_output@@@__crt_stdio_output@@CA?AW4parameter_type@12@I@Z 100398bd f i libucrt:output.obj
 0001:000388c1       ?get_parameter_type@?$positional_parameter_base@_WV?$string_output_adapter@_W@__crt_stdio_output@@@__crt_stdio_output@@CA?AW4parameter_type@12@U_CRT_DOUBLE@@@Z 100398c1 f i libucrt:output.obj
 0001:000388c5       ?get_parameter_type@?$positional_parameter_base@_WV?$string_output_adapter@_W@__crt_stdio_output@@@__crt_stdio_output@@CA?AW4parameter_type@12@_J@Z 100398c5 f i libucrt:output.obj
 0001:000388c9       ?get_parameter_type@?$positional_parameter_base@_WV?$string_output_adapter@_W@__crt_stdio_output@@@__crt_stdio_output@@CA?AW4parameter_type@12@_K@Z 100398c9 f i libucrt:output.obj
 0001:000388cd       ?get_parameter_type@?$positional_parameter_base@_WV?$string_output_adapter@_W@__crt_stdio_output@@@__crt_stdio_output@@CA?AW4parameter_type@12@_W@Z 100398cd f i libucrt:output.obj
 0001:000388d1       ?has_flag@?$output_processor@DV?$stream_output_adapter@D@__crt_stdio_output@@V?$format_validation_base@DV?$stream_output_adapter@D@__crt_stdio_output@@@2@@__crt_stdio_output@@ABE_NI@Z 100398d1 f i libucrt:output.obj
 0001:000388e3       ?has_flag@?$output_processor@DV?$stream_output_adapter@D@__crt_stdio_output@@V?$positional_parameter_base@DV?$stream_output_adapter@D@__crt_stdio_output@@@2@@__crt_stdio_output@@ABE_NI@Z 100398e3 f i libucrt:output.obj
 0001:000388f5       ?has_flag@?$output_processor@DV?$stream_output_adapter@D@__crt_stdio_output@@V?$standard_base@DV?$stream_output_adapter@D@__crt_stdio_output@@@2@@__crt_stdio_output@@ABE_NI@Z 100398f5 f i libucrt:output.obj
 0001:00038907       ?has_flag@?$output_processor@DV?$string_output_adapter@D@__crt_stdio_output@@V?$format_validation_base@DV?$string_output_adapter@D@__crt_stdio_output@@@2@@__crt_stdio_output@@ABE_NI@Z 10039907 f i libucrt:output.obj
 0001:00038919       ?has_flag@?$output_processor@DV?$string_output_adapter@D@__crt_stdio_output@@V?$positional_parameter_base@DV?$string_output_adapter@D@__crt_stdio_output@@@2@@__crt_stdio_output@@ABE_NI@Z 10039919 f i libucrt:output.obj
 0001:0003892b       ?has_flag@?$output_processor@DV?$string_output_adapter@D@__crt_stdio_output@@V?$standard_base@DV?$string_output_adapter@D@__crt_stdio_output@@@2@@__crt_stdio_output@@ABE_NI@Z 1003992b f i libucrt:output.obj
 0001:0003893d       ?has_flag@?$output_processor@_WV?$stream_output_adapter@_W@__crt_stdio_output@@V?$format_validation_base@_WV?$stream_output_adapter@_W@__crt_stdio_output@@@2@@__crt_stdio_output@@ABE_NI@Z 1003993d f i libucrt:output.obj
 0001:0003894f       ?has_flag@?$output_processor@_WV?$stream_output_adapter@_W@__crt_stdio_output@@V?$positional_parameter_base@_WV?$stream_output_adapter@_W@__crt_stdio_output@@@2@@__crt_stdio_output@@ABE_NI@Z 1003994f f i libucrt:output.obj
 0001:00038961       ?has_flag@?$output_processor@_WV?$stream_output_adapter@_W@__crt_stdio_output@@V?$standard_base@_WV?$stream_output_adapter@_W@__crt_stdio_output@@@2@@__crt_stdio_output@@ABE_NI@Z 10039961 f i libucrt:output.obj
 0001:00038973       ?has_flag@?$output_processor@_WV?$string_output_adapter@_W@__crt_stdio_output@@V?$format_validation_base@_WV?$string_output_adapter@_W@__crt_stdio_output@@@2@@__crt_stdio_output@@ABE_NI@Z 10039973 f i libucrt:output.obj
 0001:00038985       ?has_flag@?$output_processor@_WV?$string_output_adapter@_W@__crt_stdio_output@@V?$positional_parameter_base@_WV?$string_output_adapter@_W@__crt_stdio_output@@@2@@__crt_stdio_output@@ABE_NI@Z 10039985 f i libucrt:output.obj
 0001:00038997       ?has_flag@?$output_processor@_WV?$string_output_adapter@_W@__crt_stdio_output@@V?$standard_base@_WV?$string_output_adapter@_W@__crt_stdio_output@@@2@@__crt_stdio_output@@ABE_NI@Z 10039997 f i libucrt:output.obj
 0001:000389a9       ?is_positional_parameter_reappearance_consistent@?$positional_parameter_base@DV?$stream_output_adapter@D@__crt_stdio_output@@@__crt_stdio_output@@AAE_NABUparameter_data@12@W4parameter_type@12@DW4length_modifier@2@@Z 100399a9 f i libucrt:output.obj
 0001:00038ac3       ?is_positional_parameter_reappearance_consistent@?$positional_parameter_base@DV?$string_output_adapter@D@__crt_stdio_output@@@__crt_stdio_output@@AAE_NABUparameter_data@12@W4parameter_type@12@DW4length_modifier@2@@Z 10039ac3 f i libucrt:output.obj
 0001:00038bdd       ?is_positional_parameter_reappearance_consistent@?$positional_parameter_base@_WV?$stream_output_adapter@_W@__crt_stdio_output@@@__crt_stdio_output@@AAE_NABUparameter_data@12@W4parameter_type@12@_WW4length_modifier@2@@Z 10039bdd f i libucrt:output.obj
 0001:00038cf8       ?is_positional_parameter_reappearance_consistent@?$positional_parameter_base@_WV?$string_output_adapter@_W@__crt_stdio_output@@@__crt_stdio_output@@AAE_NABUparameter_data@12@W4parameter_type@12@_WW4length_modifier@2@@Z 10039cf8 f i libucrt:output.obj
 0001:00038e13       ?is_string_backed@__crt_stdio_stream@@QBE_NXZ 10039e13 f i libucrt:output.obj
 0001:00038e1f       ?narrow_null_string@?$output_processor@DV?$stream_output_adapter@D@__crt_stdio_output@@V?$format_validation_base@DV?$stream_output_adapter@D@__crt_stdio_output@@@2@@__crt_stdio_output@@CAPADXZ 10039e1f f i libucrt:output.obj
 0001:00038e25       ?narrow_null_string@?$output_processor@DV?$stream_output_adapter@D@__crt_stdio_output@@V?$positional_parameter_base@DV?$stream_output_adapter@D@__crt_stdio_output@@@2@@__crt_stdio_output@@CAPADXZ 10039e25 f i libucrt:output.obj
 0001:00038e2b       ?narrow_null_string@?$output_processor@DV?$stream_output_adapter@D@__crt_stdio_output@@V?$standard_base@DV?$stream_output_adapter@D@__crt_stdio_output@@@2@@__crt_stdio_output@@CAPADXZ 10039e2b f i libucrt:output.obj
 0001:00038e31       ?narrow_null_string@?$output_processor@DV?$string_output_adapter@D@__crt_stdio_output@@V?$format_validation_base@DV?$string_output_adapter@D@__crt_stdio_output@@@2@@__crt_stdio_output@@CAPADXZ 10039e31 f i libucrt:output.obj
 0001:00038e37       ?narrow_null_string@?$output_processor@DV?$string_output_adapter@D@__crt_stdio_output@@V?$positional_parameter_base@DV?$string_output_adapter@D@__crt_stdio_output@@@2@@__crt_stdio_output@@CAPADXZ 10039e37 f i libucrt:output.obj
 0001:00038e3d       ?narrow_null_string@?$output_processor@DV?$string_output_adapter@D@__crt_stdio_output@@V?$standard_base@DV?$string_output_adapter@D@__crt_stdio_output@@@2@@__crt_stdio_output@@CAPADXZ 10039e3d f i libucrt:output.obj
 0001:00038e43       ?narrow_null_string@?$output_processor@_WV?$stream_output_adapter@_W@__crt_stdio_output@@V?$format_validation_base@_WV?$stream_output_adapter@_W@__crt_stdio_output@@@2@@__crt_stdio_output@@CAPADXZ 10039e43 f i libucrt:output.obj
 0001:00038e49       ?narrow_null_string@?$output_processor@_WV?$stream_output_adapter@_W@__crt_stdio_output@@V?$positional_parameter_base@_WV?$stream_output_adapter@_W@__crt_stdio_output@@@2@@__crt_stdio_output@@CAPADXZ 10039e49 f i libucrt:output.obj
 0001:00038e4f       ?narrow_null_string@?$output_processor@_WV?$stream_output_adapter@_W@__crt_stdio_output@@V?$standard_base@_WV?$stream_output_adapter@_W@__crt_stdio_output@@@2@@__crt_stdio_output@@CAPADXZ 10039e4f f i libucrt:output.obj
 0001:00038e55       ?narrow_null_string@?$output_processor@_WV?$string_output_adapter@_W@__crt_stdio_output@@V?$format_validation_base@_WV?$string_output_adapter@_W@__crt_stdio_output@@@2@@__crt_stdio_output@@CAPADXZ 10039e55 f i libucrt:output.obj
 0001:00038e5b       ?narrow_null_string@?$output_processor@_WV?$string_output_adapter@_W@__crt_stdio_output@@V?$positional_parameter_base@_WV?$string_output_adapter@_W@__crt_stdio_output@@@2@@__crt_stdio_output@@CAPADXZ 10039e5b f i libucrt:output.obj
 0001:00038e61       ?narrow_null_string@?$output_processor@_WV?$string_output_adapter@_W@__crt_stdio_output@@V?$standard_base@_WV?$string_output_adapter@_W@__crt_stdio_output@@@2@@__crt_stdio_output@@CAPADXZ 10039e61 f i libucrt:output.obj
 0001:00038e67       ?parse_int_from_format_string@?$output_processor@DV?$stream_output_adapter@D@__crt_stdio_output@@V?$format_validation_base@DV?$stream_output_adapter@D@__crt_stdio_output@@@2@@__crt_stdio_output@@AAE_NQAH@Z 10039e67 f i libucrt:output.obj
 0001:00038edf       ?parse_int_from_format_string@?$output_processor@DV?$stream_output_adapter@D@__crt_stdio_output@@V?$positional_parameter_base@DV?$stream_output_adapter@D@__crt_stdio_output@@@2@@__crt_stdio_output@@AAE_NQAH@Z 10039edf f i libucrt:output.obj
 0001:00038f57       ?parse_int_from_format_string@?$output_processor@DV?$stream_output_adapter@D@__crt_stdio_output@@V?$standard_base@DV?$stream_output_adapter@D@__crt_stdio_output@@@2@@__crt_stdio_output@@AAE_NQAH@Z 10039f57 f i libucrt:output.obj
 0001:00038fcf       ?parse_int_from_format_string@?$output_processor@DV?$string_output_adapter@D@__crt_stdio_output@@V?$format_validation_base@DV?$string_output_adapter@D@__crt_stdio_output@@@2@@__crt_stdio_output@@AAE_NQAH@Z 10039fcf f i libucrt:output.obj
 0001:00039047       ?parse_int_from_format_string@?$output_processor@DV?$string_output_adapter@D@__crt_stdio_output@@V?$positional_parameter_base@DV?$string_output_adapter@D@__crt_stdio_output@@@2@@__crt_stdio_output@@AAE_NQAH@Z 1003a047 f i libucrt:output.obj
 0001:000390bf       ?parse_int_from_format_string@?$output_processor@DV?$string_output_adapter@D@__crt_stdio_output@@V?$standard_base@DV?$string_output_adapter@D@__crt_stdio_output@@@2@@__crt_stdio_output@@AAE_NQAH@Z 1003a0bf f i libucrt:output.obj
 0001:00039137       ?parse_int_from_format_string@?$output_processor@_WV?$stream_output_adapter@_W@__crt_stdio_output@@V?$format_validation_base@_WV?$stream_output_adapter@_W@__crt_stdio_output@@@2@@__crt_stdio_output@@AAE_NQAH@Z 1003a137 f i libucrt:output.obj
 0001:000391b1       ?parse_int_from_format_string@?$output_processor@_WV?$stream_output_adapter@_W@__crt_stdio_output@@V?$positional_parameter_base@_WV?$stream_output_adapter@_W@__crt_stdio_output@@@2@@__crt_stdio_output@@AAE_NQAH@Z 1003a1b1 f i libucrt:output.obj
 0001:0003922b       ?parse_int_from_format_string@?$output_processor@_WV?$stream_output_adapter@_W@__crt_stdio_output@@V?$standard_base@_WV?$stream_output_adapter@_W@__crt_stdio_output@@@2@@__crt_stdio_output@@AAE_NQAH@Z 1003a22b f i libucrt:output.obj
 0001:000392a5       ?parse_int_from_format_string@?$output_processor@_WV?$string_output_adapter@_W@__crt_stdio_output@@V?$format_validation_base@_WV?$string_output_adapter@_W@__crt_stdio_output@@@2@@__crt_stdio_output@@AAE_NQAH@Z 1003a2a5 f i libucrt:output.obj
 0001:0003931f       ?parse_int_from_format_string@?$output_processor@_WV?$string_output_adapter@_W@__crt_stdio_output@@V?$positional_parameter_base@_WV?$string_output_adapter@_W@__crt_stdio_output@@@2@@__crt_stdio_output@@AAE_NQAH@Z 1003a31f f i libucrt:output.obj
 0001:00039399       ?parse_int_from_format_string@?$output_processor@_WV?$string_output_adapter@_W@__crt_stdio_output@@V?$standard_base@_WV?$string_output_adapter@_W@__crt_stdio_output@@@2@@__crt_stdio_output@@AAE_NQAH@Z 1003a399 f i libucrt:output.obj
 0001:00039413       ?process@?$output_processor@DV?$stream_output_adapter@D@__crt_stdio_output@@V?$format_validation_base@DV?$stream_output_adapter@D@__crt_stdio_output@@@2@@__crt_stdio_output@@QAEHXZ 1003a413 f i libucrt:output.obj
 0001:000396d3       ?process@?$output_processor@DV?$stream_output_adapter@D@__crt_stdio_output@@V?$positional_parameter_base@DV?$stream_output_adapter@D@__crt_stdio_output@@@2@@__crt_stdio_output@@QAEHXZ 1003a6d3 f i libucrt:output.obj
 0001:000399a7       ?process@?$output_processor@DV?$stream_output_adapter@D@__crt_stdio_output@@V?$standard_base@DV?$stream_output_adapter@D@__crt_stdio_output@@@2@@__crt_stdio_output@@QAEHXZ 1003a9a7 f i libucrt:output.obj
 0001:00039c57       ?process@?$output_processor@DV?$string_output_adapter@D@__crt_stdio_output@@V?$format_validation_base@DV?$string_output_adapter@D@__crt_stdio_output@@@2@@__crt_stdio_output@@QAEHXZ 1003ac57 f i libucrt:output.obj
 0001:00039f3b       ?process@?$output_processor@DV?$string_output_adapter@D@__crt_stdio_output@@V?$positional_parameter_base@DV?$string_output_adapter@D@__crt_stdio_output@@@2@@__crt_stdio_output@@QAEHXZ 1003af3b f i libucrt:output.obj
 0001:0003a23b       ?process@?$output_processor@DV?$string_output_adapter@D@__crt_stdio_output@@V?$standard_base@DV?$string_output_adapter@D@__crt_stdio_output@@@2@@__crt_stdio_output@@QAEHXZ 1003b23b f i libucrt:output.obj
 0001:0003a50f       ?process@?$output_processor@_WV?$stream_output_adapter@_W@__crt_stdio_output@@V?$format_validation_base@_WV?$stream_output_adapter@_W@__crt_stdio_output@@@2@@__crt_stdio_output@@QAEHXZ 1003b50f f i libucrt:output.obj
 0001:0003a72b       ?process@?$output_processor@_WV?$stream_output_adapter@_W@__crt_stdio_output@@V?$positional_parameter_base@_WV?$stream_output_adapter@_W@__crt_stdio_output@@@2@@__crt_stdio_output@@QAEHXZ 1003b72b f i libucrt:output.obj
 0001:0003a97f       ?process@?$output_processor@_WV?$stream_output_adapter@_W@__crt_stdio_output@@V?$standard_base@_WV?$stream_output_adapter@_W@__crt_stdio_output@@@2@@__crt_stdio_output@@QAEHXZ 1003b97f f i libucrt:output.obj
 0001:0003ab8f       ?process@?$output_processor@_WV?$string_output_adapter@_W@__crt_stdio_output@@V?$format_validation_base@_WV?$string_output_adapter@_W@__crt_stdio_output@@@2@@__crt_stdio_output@@QAEHXZ 1003bb8f f i libucrt:output.obj
 0001:0003adcf       ?process@?$output_processor@_WV?$string_output_adapter@_W@__crt_stdio_output@@V?$positional_parameter_base@_WV?$string_output_adapter@_W@__crt_stdio_output@@@2@@__crt_stdio_output@@QAEHXZ 1003bdcf f i libucrt:output.obj
 0001:0003b037       ?process@?$output_processor@_WV?$string_output_adapter@_W@__crt_stdio_output@@V?$standard_base@_WV?$string_output_adapter@_W@__crt_stdio_output@@@2@@__crt_stdio_output@@QAEHXZ 1003c037 f i libucrt:output.obj
 0001:0003b273       ?public_stream@__crt_stdio_stream@@QBEPAU_iobuf@@XZ 1003c273 f i libucrt:output.obj
 0001:0003b276       ?set_flag@?$output_processor@DV?$stream_output_adapter@D@__crt_stdio_output@@V?$format_validation_base@DV?$stream_output_adapter@D@__crt_stdio_output@@@2@@__crt_stdio_output@@AAEXI@Z 1003c276 f i libucrt:output.obj
 0001:0003b285       ?set_flag@?$output_processor@DV?$stream_output_adapter@D@__crt_stdio_output@@V?$positional_parameter_base@DV?$stream_output_adapter@D@__crt_stdio_output@@@2@@__crt_stdio_output@@AAEXI@Z 1003c285 f i libucrt:output.obj
 0001:0003b294       ?set_flag@?$output_processor@DV?$stream_output_adapter@D@__crt_stdio_output@@V?$standard_base@DV?$stream_output_adapter@D@__crt_stdio_output@@@2@@__crt_stdio_output@@AAEXI@Z 1003c294 f i libucrt:output.obj
 0001:0003b2a3       ?set_flag@?$output_processor@DV?$string_output_adapter@D@__crt_stdio_output@@V?$format_validation_base@DV?$string_output_adapter@D@__crt_stdio_output@@@2@@__crt_stdio_output@@AAEXI@Z 1003c2a3 f i libucrt:output.obj
 0001:0003b2b2       ?set_flag@?$output_processor@DV?$string_output_adapter@D@__crt_stdio_output@@V?$positional_parameter_base@DV?$string_output_adapter@D@__crt_stdio_output@@@2@@__crt_stdio_output@@AAEXI@Z 1003c2b2 f i libucrt:output.obj
 0001:0003b2c1       ?set_flag@?$output_processor@DV?$string_output_adapter@D@__crt_stdio_output@@V?$standard_base@DV?$string_output_adapter@D@__crt_stdio_output@@@2@@__crt_stdio_output@@AAEXI@Z 1003c2c1 f i libucrt:output.obj
 0001:0003b2d0       ?set_flag@?$output_processor@_WV?$stream_output_adapter@_W@__crt_stdio_output@@V?$format_validation_base@_WV?$stream_output_adapter@_W@__crt_stdio_output@@@2@@__crt_stdio_output@@AAEXI@Z 1003c2d0 f i libucrt:output.obj
 0001:0003b2df       ?set_flag@?$output_processor@_WV?$stream_output_adapter@_W@__crt_stdio_output@@V?$positional_parameter_base@_WV?$stream_output_adapter@_W@__crt_stdio_output@@@2@@__crt_stdio_output@@AAEXI@Z 1003c2df f i libucrt:output.obj
 0001:0003b2ee       ?set_flag@?$output_processor@_WV?$stream_output_adapter@_W@__crt_stdio_output@@V?$standard_base@_WV?$stream_output_adapter@_W@__crt_stdio_output@@@2@@__crt_stdio_output@@AAEXI@Z 1003c2ee f i libucrt:output.obj
 0001:0003b2fd       ?set_flag@?$output_processor@_WV?$string_output_adapter@_W@__crt_stdio_output@@V?$format_validation_base@_WV?$string_output_adapter@_W@__crt_stdio_output@@@2@@__crt_stdio_output@@AAEXI@Z 1003c2fd f i libucrt:output.obj
 0001:0003b30c       ?set_flag@?$output_processor@_WV?$string_output_adapter@_W@__crt_stdio_output@@V?$positional_parameter_base@_WV?$string_output_adapter@_W@__crt_stdio_output@@@2@@__crt_stdio_output@@AAEXI@Z 1003c30c f i libucrt:output.obj
 0001:0003b31b       ?set_flag@?$output_processor@_WV?$string_output_adapter@_W@__crt_stdio_output@@V?$standard_base@_WV?$string_output_adapter@_W@__crt_stdio_output@@@2@@__crt_stdio_output@@AAEXI@Z 1003c31b f i libucrt:output.obj
 0001:0003b32a       ?should_format@?$positional_parameter_base@DV?$stream_output_adapter@D@__crt_stdio_output@@@__crt_stdio_output@@IAE_NXZ 1003c32a f i libucrt:output.obj
 0001:0003b340       ?should_format@?$positional_parameter_base@DV?$string_output_adapter@D@__crt_stdio_output@@@__crt_stdio_output@@IAE_NXZ 1003c340 f i libucrt:output.obj
 0001:0003b356       ?should_format@?$positional_parameter_base@_WV?$stream_output_adapter@_W@__crt_stdio_output@@@__crt_stdio_output@@IAE_NXZ 1003c356 f i libucrt:output.obj
 0001:0003b36c       ?should_format@?$positional_parameter_base@_WV?$string_output_adapter@_W@__crt_stdio_output@@@__crt_stdio_output@@IAE_NXZ 1003c36c f i libucrt:output.obj
 0001:0003b382       ?should_format@?$standard_base@DV?$stream_output_adapter@D@__crt_stdio_output@@@__crt_stdio_output@@IAE_NXZ 1003c382 f i libucrt:output.obj
 0001:0003b385       ?should_format@?$standard_base@DV?$string_output_adapter@D@__crt_stdio_output@@@__crt_stdio_output@@IAE_NXZ 1003c385 f i libucrt:output.obj
 0001:0003b388       ?should_format@?$standard_base@_WV?$stream_output_adapter@_W@__crt_stdio_output@@@__crt_stdio_output@@IAE_NXZ 1003c388 f i libucrt:output.obj
 0001:0003b38b       ?should_format@?$standard_base@_WV?$string_output_adapter@_W@__crt_stdio_output@@@__crt_stdio_output@@IAE_NXZ 1003c38b f i libucrt:output.obj
 0001:0003b38e       ?should_skip_normal_state_processing@?$positional_parameter_base@DV?$stream_output_adapter@D@__crt_stdio_output@@@__crt_stdio_output@@IAE_NXZ 1003c38e f i libucrt:output.obj
 0001:0003b3b8       ?should_skip_normal_state_processing@?$positional_parameter_base@DV?$string_output_adapter@D@__crt_stdio_output@@@__crt_stdio_output@@IAE_NXZ 1003c3b8 f i libucrt:output.obj
 0001:0003b3e2       ?should_skip_normal_state_processing@?$positional_parameter_base@_WV?$stream_output_adapter@_W@__crt_stdio_output@@@__crt_stdio_output@@IAE_NXZ 1003c3e2 f i libucrt:output.obj
 0001:0003b40c       ?should_skip_normal_state_processing@?$positional_parameter_base@_WV?$string_output_adapter@_W@__crt_stdio_output@@@__crt_stdio_output@@IAE_NXZ 1003c40c f i libucrt:output.obj
 0001:0003b436       ?should_skip_normal_state_processing@?$standard_base@DV?$stream_output_adapter@D@__crt_stdio_output@@@__crt_stdio_output@@IAE_NXZ 1003c436 f i libucrt:output.obj
 0001:0003b439       ?should_skip_normal_state_processing@?$standard_base@DV?$string_output_adapter@D@__crt_stdio_output@@@__crt_stdio_output@@IAE_NXZ 1003c439 f i libucrt:output.obj
 0001:0003b43c       ?should_skip_normal_state_processing@?$standard_base@_WV?$stream_output_adapter@_W@__crt_stdio_output@@@__crt_stdio_output@@IAE_NXZ 1003c43c f i libucrt:output.obj
 0001:0003b43f       ?should_skip_normal_state_processing@?$standard_base@_WV?$string_output_adapter@_W@__crt_stdio_output@@@__crt_stdio_output@@IAE_NXZ 1003c43f f i libucrt:output.obj
 0001:0003b442       ?should_skip_type_state_output@?$positional_parameter_base@DV?$stream_output_adapter@D@__crt_stdio_output@@@__crt_stdio_output@@IBE_NXZ 1003c442 f i libucrt:output.obj
 0001:0003b459       ?should_skip_type_state_output@?$positional_parameter_base@DV?$string_output_adapter@D@__crt_stdio_output@@@__crt_stdio_output@@IBE_NXZ 1003c459 f i libucrt:output.obj
 0001:0003b470       ?should_skip_type_state_output@?$positional_parameter_base@_WV?$stream_output_adapter@_W@__crt_stdio_output@@@__crt_stdio_output@@IBE_NXZ 1003c470 f i libucrt:output.obj
 0001:0003b487       ?should_skip_type_state_output@?$positional_parameter_base@_WV?$string_output_adapter@_W@__crt_stdio_output@@@__crt_stdio_output@@IBE_NXZ 1003c487 f i libucrt:output.obj
 0001:0003b49e       ?should_skip_type_state_output@?$standard_base@DV?$stream_output_adapter@D@__crt_stdio_output@@@__crt_stdio_output@@IBE_NXZ 1003c49e f i libucrt:output.obj
 0001:0003b4a1       ?should_skip_type_state_output@?$standard_base@DV?$string_output_adapter@D@__crt_stdio_output@@@__crt_stdio_output@@IBE_NXZ 1003c4a1 f i libucrt:output.obj
 0001:0003b4a4       ?should_skip_type_state_output@?$standard_base@_WV?$stream_output_adapter@_W@__crt_stdio_output@@@__crt_stdio_output@@IBE_NXZ 1003c4a4 f i libucrt:output.obj
 0001:0003b4a7       ?should_skip_type_state_output@?$standard_base@_WV?$string_output_adapter@_W@__crt_stdio_output@@@__crt_stdio_output@@IBE_NXZ 1003c4a7 f i libucrt:output.obj
 0001:0003b4aa       ?state_case_dot@?$output_processor@DV?$stream_output_adapter@D@__crt_stdio_output@@V?$format_validation_base@DV?$stream_output_adapter@D@__crt_stdio_output@@@2@@__crt_stdio_output@@AAE_NXZ 1003c4aa f i libucrt:output.obj
 0001:0003b4b1       ?state_case_dot@?$output_processor@DV?$stream_output_adapter@D@__crt_stdio_output@@V?$positional_parameter_base@DV?$stream_output_adapter@D@__crt_stdio_output@@@2@@__crt_stdio_output@@AAE_NXZ 1003c4b1 f i libucrt:output.obj
 0001:0003b4b8       ?state_case_dot@?$output_processor@DV?$stream_output_adapter@D@__crt_stdio_output@@V?$standard_base@DV?$stream_output_adapter@D@__crt_stdio_output@@@2@@__crt_stdio_output@@AAE_NXZ 1003c4b8 f i libucrt:output.obj
 0001:0003b4bf       ?state_case_dot@?$output_processor@DV?$string_output_adapter@D@__crt_stdio_output@@V?$format_validation_base@DV?$string_output_adapter@D@__crt_stdio_output@@@2@@__crt_stdio_output@@AAE_NXZ 1003c4bf f i libucrt:output.obj
 0001:0003b4c6       ?state_case_dot@?$output_processor@DV?$string_output_adapter@D@__crt_stdio_output@@V?$positional_parameter_base@DV?$string_output_adapter@D@__crt_stdio_output@@@2@@__crt_stdio_output@@AAE_NXZ 1003c4c6 f i libucrt:output.obj
 0001:0003b4cd       ?state_case_dot@?$output_processor@DV?$string_output_adapter@D@__crt_stdio_output@@V?$standard_base@DV?$string_output_adapter@D@__crt_stdio_output@@@2@@__crt_stdio_output@@AAE_NXZ 1003c4cd f i libucrt:output.obj
 0001:0003b4d4       ?state_case_dot@?$output_processor@_WV?$stream_output_adapter@_W@__crt_stdio_output@@V?$format_validation_base@_WV?$stream_output_adapter@_W@__crt_stdio_output@@@2@@__crt_stdio_output@@AAE_NXZ 1003c4d4 f i libucrt:output.obj
 0001:0003b4db       ?state_case_dot@?$output_processor@_WV?$stream_output_adapter@_W@__crt_stdio_output@@V?$positional_parameter_base@_WV?$stream_output_adapter@_W@__crt_stdio_output@@@2@@__crt_stdio_output@@AAE_NXZ 1003c4db f i libucrt:output.obj
 0001:0003b4e2       ?state_case_dot@?$output_processor@_WV?$stream_output_adapter@_W@__crt_stdio_output@@V?$standard_base@_WV?$stream_output_adapter@_W@__crt_stdio_output@@@2@@__crt_stdio_output@@AAE_NXZ 1003c4e2 f i libucrt:output.obj
 0001:0003b4e9       ?state_case_dot@?$output_processor@_WV?$string_output_adapter@_W@__crt_stdio_output@@V?$format_validation_base@_WV?$string_output_adapter@_W@__crt_stdio_output@@@2@@__crt_stdio_output@@AAE_NXZ 1003c4e9 f i libucrt:output.obj
 0001:0003b4f0       ?state_case_dot@?$output_processor@_WV?$string_output_adapter@_W@__crt_stdio_output@@V?$positional_parameter_base@_WV?$string_output_adapter@_W@__crt_stdio_output@@@2@@__crt_stdio_output@@AAE_NXZ 1003c4f0 f i libucrt:output.obj
 0001:0003b4f7       ?state_case_dot@?$output_processor@_WV?$string_output_adapter@_W@__crt_stdio_output@@V?$standard_base@_WV?$string_output_adapter@_W@__crt_stdio_output@@@2@@__crt_stdio_output@@AAE_NXZ 1003c4f7 f i libucrt:output.obj
 0001:0003b4fe       ?state_case_flag@?$output_processor@DV?$stream_output_adapter@D@__crt_stdio_output@@V?$format_validation_base@DV?$stream_output_adapter@D@__crt_stdio_output@@@2@@__crt_stdio_output@@AAE_NXZ 1003c4fe f i libucrt:output.obj
 0001:0003b53b       ?state_case_flag@?$output_processor@DV?$stream_output_adapter@D@__crt_stdio_output@@V?$positional_parameter_base@DV?$stream_output_adapter@D@__crt_stdio_output@@@2@@__crt_stdio_output@@AAE_NXZ 1003c53b f i libucrt:output.obj
 0001:0003b578       ?state_case_flag@?$output_processor@DV?$stream_output_adapter@D@__crt_stdio_output@@V?$standard_base@DV?$stream_output_adapter@D@__crt_stdio_output@@@2@@__crt_stdio_output@@AAE_NXZ 1003c578 f i libucrt:output.obj
 0001:0003b5b5       ?state_case_flag@?$output_processor@DV?$string_output_adapter@D@__crt_stdio_output@@V?$format_validation_base@DV?$string_output_adapter@D@__crt_stdio_output@@@2@@__crt_stdio_output@@AAE_NXZ 1003c5b5 f i libucrt:output.obj
 0001:0003b5f2       ?state_case_flag@?$output_processor@DV?$string_output_adapter@D@__crt_stdio_output@@V?$positional_parameter_base@DV?$string_output_adapter@D@__crt_stdio_output@@@2@@__crt_stdio_output@@AAE_NXZ 1003c5f2 f i libucrt:output.obj
 0001:0003b62f       ?state_case_flag@?$output_processor@DV?$string_output_adapter@D@__crt_stdio_output@@V?$standard_base@DV?$string_output_adapter@D@__crt_stdio_output@@@2@@__crt_stdio_output@@AAE_NXZ 1003c62f f i libucrt:output.obj
 0001:0003b66c       ?state_case_flag@?$output_processor@_WV?$stream_output_adapter@_W@__crt_stdio_output@@V?$format_validation_base@_WV?$stream_output_adapter@_W@__crt_stdio_output@@@2@@__crt_stdio_output@@AAE_NXZ 1003c66c f i libucrt:output.obj
 0001:0003b6a9       ?state_case_flag@?$output_processor@_WV?$stream_output_adapter@_W@__crt_stdio_output@@V?$positional_parameter_base@_WV?$stream_output_adapter@_W@__crt_stdio_output@@@2@@__crt_stdio_output@@AAE_NXZ 1003c6a9 f i libucrt:output.obj
 0001:0003b6e6       ?state_case_flag@?$output_processor@_WV?$stream_output_adapter@_W@__crt_stdio_output@@V?$standard_base@_WV?$stream_output_adapter@_W@__crt_stdio_output@@@2@@__crt_stdio_output@@AAE_NXZ 1003c6e6 f i libucrt:output.obj
 0001:0003b723       ?state_case_flag@?$output_processor@_WV?$string_output_adapter@_W@__crt_stdio_output@@V?$format_validation_base@_WV?$string_output_adapter@_W@__crt_stdio_output@@@2@@__crt_stdio_output@@AAE_NXZ 1003c723 f i libucrt:output.obj
 0001:0003b760       ?state_case_flag@?$output_processor@_WV?$string_output_adapter@_W@__crt_stdio_output@@V?$positional_parameter_base@_WV?$string_output_adapter@_W@__crt_stdio_output@@@2@@__crt_stdio_output@@AAE_NXZ 1003c760 f i libucrt:output.obj
 0001:0003b79d       ?state_case_flag@?$output_processor@_WV?$string_output_adapter@_W@__crt_stdio_output@@V?$standard_base@_WV?$string_output_adapter@_W@__crt_stdio_output@@@2@@__crt_stdio_output@@AAE_NXZ 1003c79d f i libucrt:output.obj
 0001:0003b7da       ?state_case_normal@?$output_processor@DV?$stream_output_adapter@D@__crt_stdio_output@@V?$format_validation_base@DV?$stream_output_adapter@D@__crt_stdio_output@@@2@@__crt_stdio_output@@AAE_NXZ 1003c7da f i libucrt:output.obj
 0001:0003b897       ?state_case_normal@?$output_processor@DV?$stream_output_adapter@D@__crt_stdio_output@@V?$positional_parameter_base@DV?$stream_output_adapter@D@__crt_stdio_output@@@2@@__crt_stdio_output@@AAE_NXZ 1003c897 f i libucrt:output.obj
 0001:0003b95f       ?state_case_normal@?$output_processor@DV?$stream_output_adapter@D@__crt_stdio_output@@V?$standard_base@DV?$stream_output_adapter@D@__crt_stdio_output@@@2@@__crt_stdio_output@@AAE_NXZ 1003c95f f i libucrt:output.obj
 0001:0003ba1c       ?state_case_normal@?$output_processor@DV?$string_output_adapter@D@__crt_stdio_output@@V?$format_validation_base@DV?$string_output_adapter@D@__crt_stdio_output@@@2@@__crt_stdio_output@@AAE_NXZ 1003ca1c f i libucrt:output.obj
 0001:0003bb18       ?state_case_normal@?$output_processor@DV?$string_output_adapter@D@__crt_stdio_output@@V?$positional_parameter_base@DV?$string_output_adapter@D@__crt_stdio_output@@@2@@__crt_stdio_output@@AAE_NXZ 1003cb18 f i libucrt:output.obj
 0001:0003bc1f       ?state_case_normal@?$output_processor@DV?$string_output_adapter@D@__crt_stdio_output@@V?$standard_base@DV?$string_output_adapter@D@__crt_stdio_output@@@2@@__crt_stdio_output@@AAE_NXZ 1003cc1f f i libucrt:output.obj
 0001:0003bd1b       ?state_case_normal@?$output_processor@_WV?$stream_output_adapter@_W@__crt_stdio_output@@V?$format_validation_base@_WV?$stream_output_adapter@_W@__crt_stdio_output@@@2@@__crt_stdio_output@@AAE_NXZ 1003cd1b f i libucrt:output.obj
 0001:0003bd39       ?state_case_normal@?$output_processor@_WV?$stream_output_adapter@_W@__crt_stdio_output@@V?$positional_parameter_base@_WV?$stream_output_adapter@_W@__crt_stdio_output@@@2@@__crt_stdio_output@@AAE_NXZ 1003cd39 f i libucrt:output.obj
 0001:0003bd66       ?state_case_normal@?$output_processor@_WV?$stream_output_adapter@_W@__crt_stdio_output@@V?$standard_base@_WV?$stream_output_adapter@_W@__crt_stdio_output@@@2@@__crt_stdio_output@@AAE_NXZ 1003cd66 f i libucrt:output.obj
 0001:0003bd84       ?state_case_normal@?$output_processor@_WV?$string_output_adapter@_W@__crt_stdio_output@@V?$format_validation_base@_WV?$string_output_adapter@_W@__crt_stdio_output@@@2@@__crt_stdio_output@@AAE_NXZ 1003cd84 f i libucrt:output.obj
 0001:0003bdcc       ?state_case_normal@?$output_processor@_WV?$string_output_adapter@_W@__crt_stdio_output@@V?$positional_parameter_base@_WV?$string_output_adapter@_W@__crt_stdio_output@@@2@@__crt_stdio_output@@AAE_NXZ 1003cdcc f i libucrt:output.obj
 0001:0003be1f       ?state_case_normal@?$output_processor@_WV?$string_output_adapter@_W@__crt_stdio_output@@V?$standard_base@_WV?$string_output_adapter@_W@__crt_stdio_output@@@2@@__crt_stdio_output@@AAE_NXZ 1003ce1f f i libucrt:output.obj
 0001:0003be67       ?state_case_normal_common@?$output_processor@DV?$stream_output_adapter@D@__crt_stdio_output@@V?$format_validation_base@DV?$stream_output_adapter@D@__crt_stdio_output@@@2@@__crt_stdio_output@@AAE_NXZ 1003ce67 f i libucrt:output.obj
 0001:0003beff       ?state_case_normal_common@?$output_processor@DV?$stream_output_adapter@D@__crt_stdio_output@@V?$positional_parameter_base@DV?$stream_output_adapter@D@__crt_stdio_output@@@2@@__crt_stdio_output@@AAE_NXZ 1003ceff f i libucrt:output.obj
 0001:0003bf97       ?state_case_normal_common@?$output_processor@DV?$stream_output_adapter@D@__crt_stdio_output@@V?$standard_base@DV?$stream_output_adapter@D@__crt_stdio_output@@@2@@__crt_stdio_output@@AAE_NXZ 1003cf97 f i libucrt:output.obj
 0001:0003c02f       ?state_case_normal_common@?$output_processor@DV?$string_output_adapter@D@__crt_stdio_output@@V?$format_validation_base@DV?$string_output_adapter@D@__crt_stdio_output@@@2@@__crt_stdio_output@@AAE_NXZ 1003d02f f i libucrt:output.obj
 0001:0003c10f       ?state_case_normal_common@?$output_processor@DV?$string_output_adapter@D@__crt_stdio_output@@V?$positional_parameter_base@DV?$string_output_adapter@D@__crt_stdio_output@@@2@@__crt_stdio_output@@AAE_NXZ 1003d10f f i libucrt:output.obj
 0001:0003c1ef       ?state_case_normal_common@?$output_processor@DV?$string_output_adapter@D@__crt_stdio_output@@V?$standard_base@DV?$string_output_adapter@D@__crt_stdio_output@@@2@@__crt_stdio_output@@AAE_NXZ 1003d1ef f i libucrt:output.obj
 0001:0003c2cf       ?state_case_normal_common@?$output_processor@_WV?$stream_output_adapter@_W@__crt_stdio_output@@V?$format_validation_base@_WV?$stream_output_adapter@_W@__crt_stdio_output@@@2@@__crt_stdio_output@@AAE_NXZ 1003d2cf f i libucrt:output.obj
 0001:0003c2ed       ?state_case_normal_common@?$output_processor@_WV?$stream_output_adapter@_W@__crt_stdio_output@@V?$positional_parameter_base@_WV?$stream_output_adapter@_W@__crt_stdio_output@@@2@@__crt_stdio_output@@AAE_NXZ 1003d2ed f i libucrt:output.obj
 0001:0003c30b       ?state_case_normal_common@?$output_processor@_WV?$stream_output_adapter@_W@__crt_stdio_output@@V?$standard_base@_WV?$stream_output_adapter@_W@__crt_stdio_output@@@2@@__crt_stdio_output@@AAE_NXZ 1003d30b f i libucrt:output.obj
 0001:0003c329       ?state_case_normal_common@?$output_processor@_WV?$string_output_adapter@_W@__crt_stdio_output@@V?$format_validation_base@_WV?$string_output_adapter@_W@__crt_stdio_output@@@2@@__crt_stdio_output@@AAE_NXZ 1003d329 f i libucrt:output.obj
 0001:0003c371       ?state_case_normal_common@?$output_processor@_WV?$string_output_adapter@_W@__crt_stdio_output@@V?$positional_parameter_base@_WV?$string_output_adapter@_W@__crt_stdio_output@@@2@@__crt_stdio_output@@AAE_NXZ 1003d371 f i libucrt:output.obj
 0001:0003c3b9       ?state_case_normal_common@?$output_processor@_WV?$string_output_adapter@_W@__crt_stdio_output@@V?$standard_base@_WV?$string_output_adapter@_W@__crt_stdio_output@@@2@@__crt_stdio_output@@AAE_NXZ 1003d3b9 f i libucrt:output.obj
 0001:0003c401       ?state_case_normal_tchar@?$output_processor@DV?$stream_output_adapter@D@__crt_stdio_output@@V?$format_validation_base@DV?$stream_output_adapter@D@__crt_stdio_output@@@2@@__crt_stdio_output@@AAE_ND@Z 1003d401 f i libucrt:output.obj
 0001:0003c488       ?state_case_normal_tchar@?$output_processor@DV?$stream_output_adapter@D@__crt_stdio_output@@V?$positional_parameter_base@DV?$stream_output_adapter@D@__crt_stdio_output@@@2@@__crt_stdio_output@@AAE_ND@Z 1003d488 f i libucrt:output.obj
 0001:0003c50f       ?state_case_normal_tchar@?$output_processor@DV?$stream_output_adapter@D@__crt_stdio_output@@V?$standard_base@DV?$stream_output_adapter@D@__crt_stdio_output@@@2@@__crt_stdio_output@@AAE_ND@Z 1003d50f f i libucrt:output.obj
 0001:0003c596       ?state_case_normal_tchar@?$output_processor@DV?$string_output_adapter@D@__crt_stdio_output@@V?$format_validation_base@DV?$string_output_adapter@D@__crt_stdio_output@@@2@@__crt_stdio_output@@AAE_ND@Z 1003d596 f i libucrt:output.obj
 0001:0003c641       ?state_case_normal_tchar@?$output_processor@DV?$string_output_adapter@D@__crt_stdio_output@@V?$positional_parameter_base@DV?$string_output_adapter@D@__crt_stdio_output@@@2@@__crt_stdio_output@@AAE_ND@Z 1003d641 f i libucrt:output.obj
 0001:0003c6ec       ?state_case_normal_tchar@?$output_processor@DV?$string_output_adapter@D@__crt_stdio_output@@V?$standard_base@DV?$string_output_adapter@D@__crt_stdio_output@@@2@@__crt_stdio_output@@AAE_ND@Z 1003d6ec f i libucrt:output.obj
 0001:0003c797       ?state_case_normal_tchar@?$output_processor@_WV?$stream_output_adapter@_W@__crt_stdio_output@@V?$format_validation_base@_WV?$stream_output_adapter@_W@__crt_stdio_output@@@2@@__crt_stdio_output@@AAE_N_W@Z 1003d797 f i libucrt:output.obj
 0001:0003c7a0       ?state_case_normal_tchar@?$output_processor@_WV?$stream_output_adapter@_W@__crt_stdio_output@@V?$positional_parameter_base@_WV?$stream_output_adapter@_W@__crt_stdio_output@@@2@@__crt_stdio_output@@AAE_N_W@Z 1003d7a0 f i libucrt:output.obj
 0001:0003c7a9       ?state_case_normal_tchar@?$output_processor@_WV?$stream_output_adapter@_W@__crt_stdio_output@@V?$standard_base@_WV?$stream_output_adapter@_W@__crt_stdio_output@@@2@@__crt_stdio_output@@AAE_N_W@Z 1003d7a9 f i libucrt:output.obj
 0001:0003c7b2       ?state_case_normal_tchar@?$output_processor@_WV?$string_output_adapter@_W@__crt_stdio_output@@V?$format_validation_base@_WV?$string_output_adapter@_W@__crt_stdio_output@@@2@@__crt_stdio_output@@AAE_N_W@Z 1003d7b2 f i libucrt:output.obj
 0001:0003c7bb       ?state_case_normal_tchar@?$output_processor@_WV?$string_output_adapter@_W@__crt_stdio_output@@V?$positional_parameter_base@_WV?$string_output_adapter@_W@__crt_stdio_output@@@2@@__crt_stdio_output@@AAE_N_W@Z 1003d7bb f i libucrt:output.obj
 0001:0003c7c4       ?state_case_normal_tchar@?$output_processor@_WV?$string_output_adapter@_W@__crt_stdio_output@@V?$standard_base@_WV?$string_output_adapter@_W@__crt_stdio_output@@@2@@__crt_stdio_output@@AAE_N_W@Z 1003d7c4 f i libucrt:output.obj
 0001:0003c7cd       ?state_case_percent@?$output_processor@DV?$stream_output_adapter@D@__crt_stdio_output@@V?$format_validation_base@DV?$stream_output_adapter@D@__crt_stdio_output@@@2@@__crt_stdio_output@@AAE_NXZ 1003d7cd f i libucrt:output.obj
 0001:0003c7e5       ?state_case_percent@?$output_processor@DV?$stream_output_adapter@D@__crt_stdio_output@@V?$positional_parameter_base@DV?$stream_output_adapter@D@__crt_stdio_output@@@2@@__crt_stdio_output@@AAE_NXZ 1003d7e5 f i libucrt:output.obj
 0001:0003c7fd       ?state_case_percent@?$output_processor@DV?$stream_output_adapter@D@__crt_stdio_output@@V?$standard_base@DV?$stream_output_adapter@D@__crt_stdio_output@@@2@@__crt_stdio_output@@AAE_NXZ 1003d7fd f i libucrt:output.obj
 0001:0003c815       ?state_case_percent@?$output_processor@DV?$string_output_adapter@D@__crt_stdio_output@@V?$format_validation_base@DV?$string_output_adapter@D@__crt_stdio_output@@@2@@__crt_stdio_output@@AAE_NXZ 1003d815 f i libucrt:output.obj
 0001:0003c82d       ?state_case_percent@?$output_processor@DV?$string_output_adapter@D@__crt_stdio_output@@V?$positional_parameter_base@DV?$string_output_adapter@D@__crt_stdio_output@@@2@@__crt_stdio_output@@AAE_NXZ 1003d82d f i libucrt:output.obj
 0001:0003c845       ?state_case_percent@?$output_processor@DV?$string_output_adapter@D@__crt_stdio_output@@V?$standard_base@DV?$string_output_adapter@D@__crt_stdio_output@@@2@@__crt_stdio_output@@AAE_NXZ 1003d845 f i libucrt:output.obj
 0001:0003c85d       ?state_case_percent@?$output_processor@_WV?$stream_output_adapter@_W@__crt_stdio_output@@V?$format_validation_base@_WV?$stream_output_adapter@_W@__crt_stdio_output@@@2@@__crt_stdio_output@@AAE_NXZ 1003d85d f i libucrt:output.obj
 0001:0003c875       ?state_case_percent@?$output_processor@_WV?$stream_output_adapter@_W@__crt_stdio_output@@V?$positional_parameter_base@_WV?$stream_output_adapter@_W@__crt_stdio_output@@@2@@__crt_stdio_output@@AAE_NXZ 1003d875 f i libucrt:output.obj
 0001:0003c88d       ?state_case_percent@?$output_processor@_WV?$stream_output_adapter@_W@__crt_stdio_output@@V?$standard_base@_WV?$stream_output_adapter@_W@__crt_stdio_output@@@2@@__crt_stdio_output@@AAE_NXZ 1003d88d f i libucrt:output.obj
 0001:0003c8a5       ?state_case_percent@?$output_processor@_WV?$string_output_adapter@_W@__crt_stdio_output@@V?$format_validation_base@_WV?$string_output_adapter@_W@__crt_stdio_output@@@2@@__crt_stdio_output@@AAE_NXZ 1003d8a5 f i libucrt:output.obj
 0001:0003c8bd       ?state_case_percent@?$output_processor@_WV?$string_output_adapter@_W@__crt_stdio_output@@V?$positional_parameter_base@_WV?$string_output_adapter@_W@__crt_stdio_output@@@2@@__crt_stdio_output@@AAE_NXZ 1003d8bd f i libucrt:output.obj
 0001:0003c8d5       ?state_case_percent@?$output_processor@_WV?$string_output_adapter@_W@__crt_stdio_output@@V?$standard_base@_WV?$string_output_adapter@_W@__crt_stdio_output@@@2@@__crt_stdio_output@@AAE_NXZ 1003d8d5 f i libucrt:output.obj
 0001:0003c8ed       ?state_case_precision@?$output_processor@DV?$stream_output_adapter@D@__crt_stdio_output@@V?$format_validation_base@DV?$stream_output_adapter@D@__crt_stdio_output@@@2@@__crt_stdio_output@@AAE_NXZ 1003d8ed f i libucrt:output.obj
 0001:0003c919       ?state_case_precision@?$output_processor@DV?$stream_output_adapter@D@__crt_stdio_output@@V?$positional_parameter_base@DV?$stream_output_adapter@D@__crt_stdio_output@@@2@@__crt_stdio_output@@AAE_NXZ 1003d919 f i libucrt:output.obj
 0001:0003c953       ?state_case_precision@?$output_processor@DV?$stream_output_adapter@D@__crt_stdio_output@@V?$standard_base@DV?$stream_output_adapter@D@__crt_stdio_output@@@2@@__crt_stdio_output@@AAE_NXZ 1003d953 f i libucrt:output.obj
 0001:0003c97f       ?state_case_precision@?$output_processor@DV?$string_output_adapter@D@__crt_stdio_output@@V?$format_validation_base@DV?$string_output_adapter@D@__crt_stdio_output@@@2@@__crt_stdio_output@@AAE_NXZ 1003d97f f i libucrt:output.obj
 0001:0003c9ab       ?state_case_precision@?$output_processor@DV?$string_output_adapter@D@__crt_stdio_output@@V?$positional_parameter_base@DV?$string_output_adapter@D@__crt_stdio_output@@@2@@__crt_stdio_output@@AAE_NXZ 1003d9ab f i libucrt:output.obj
 0001:0003c9e5       ?state_case_precision@?$output_processor@DV?$string_output_adapter@D@__crt_stdio_output@@V?$standard_base@DV?$string_output_adapter@D@__crt_stdio_output@@@2@@__crt_stdio_output@@AAE_NXZ 1003d9e5 f i libucrt:output.obj
 0001:0003ca11       ?state_case_precision@?$output_processor@_WV?$stream_output_adapter@_W@__crt_stdio_output@@V?$format_validation_base@_WV?$stream_output_adapter@_W@__crt_stdio_output@@@2@@__crt_stdio_output@@AAE_NXZ 1003da11 f i libucrt:output.obj
 0001:0003ca3e       ?state_case_precision@?$output_processor@_WV?$stream_output_adapter@_W@__crt_stdio_output@@V?$positional_parameter_base@_WV?$stream_output_adapter@_W@__crt_stdio_output@@@2@@__crt_stdio_output@@AAE_NXZ 1003da3e f i libucrt:output.obj
 0001:0003ca79       ?state_case_precision@?$output_processor@_WV?$stream_output_adapter@_W@__crt_stdio_output@@V?$standard_base@_WV?$stream_output_adapter@_W@__crt_stdio_output@@@2@@__crt_stdio_output@@AAE_NXZ 1003da79 f i libucrt:output.obj
 0001:0003caa6       ?state_case_precision@?$output_processor@_WV?$string_output_adapter@_W@__crt_stdio_output@@V?$format_validation_base@_WV?$string_output_adapter@_W@__crt_stdio_output@@@2@@__crt_stdio_output@@AAE_NXZ 1003daa6 f i libucrt:output.obj
 0001:0003cad3       ?state_case_precision@?$output_processor@_WV?$string_output_adapter@_W@__crt_stdio_output@@V?$positional_parameter_base@_WV?$string_output_adapter@_W@__crt_stdio_output@@@2@@__crt_stdio_output@@AAE_NXZ 1003dad3 f i libucrt:output.obj
 0001:0003cb0e       ?state_case_precision@?$output_processor@_WV?$string_output_adapter@_W@__crt_stdio_output@@V?$standard_base@_WV?$string_output_adapter@_W@__crt_stdio_output@@@2@@__crt_stdio_output@@AAE_NXZ 1003db0e f i libucrt:output.obj
 0001:0003cb3b       ?state_case_size@?$output_processor@DV?$stream_output_adapter@D@__crt_stdio_output@@V?$format_validation_base@DV?$stream_output_adapter@D@__crt_stdio_output@@@2@@__crt_stdio_output@@AAE_NXZ 1003db3b f i libucrt:output.obj
 0001:0003cc94       ?state_case_size@?$output_processor@DV?$stream_output_adapter@D@__crt_stdio_output@@V?$positional_parameter_base@DV?$stream_output_adapter@D@__crt_stdio_output@@@2@@__crt_stdio_output@@AAE_NXZ 1003dc94 f i libucrt:output.obj
 0001:0003cded       ?state_case_size@?$output_processor@DV?$stream_output_adapter@D@__crt_stdio_output@@V?$standard_base@DV?$stream_output_adapter@D@__crt_stdio_output@@@2@@__crt_stdio_output@@AAE_NXZ 1003dded f i libucrt:output.obj
 0001:0003cf46       ?state_case_size@?$output_processor@DV?$string_output_adapter@D@__crt_stdio_output@@V?$format_validation_base@DV?$string_output_adapter@D@__crt_stdio_output@@@2@@__crt_stdio_output@@AAE_NXZ 1003df46 f i libucrt:output.obj
 0001:0003d09f       ?state_case_size@?$output_processor@DV?$string_output_adapter@D@__crt_stdio_output@@V?$positional_parameter_base@DV?$string_output_adapter@D@__crt_stdio_output@@@2@@__crt_stdio_output@@AAE_NXZ 1003e09f f i libucrt:output.obj
 0001:0003d1f8       ?state_case_size@?$output_processor@DV?$string_output_adapter@D@__crt_stdio_output@@V?$standard_base@DV?$string_output_adapter@D@__crt_stdio_output@@@2@@__crt_stdio_output@@AAE_NXZ 1003e1f8 f i libucrt:output.obj
 0001:0003d351       ?state_case_size@?$output_processor@_WV?$stream_output_adapter@_W@__crt_stdio_output@@V?$format_validation_base@_WV?$stream_output_adapter@_W@__crt_stdio_output@@@2@@__crt_stdio_output@@AAE_NXZ 1003e351 f i libucrt:output.obj
 0001:0003d4db       ?state_case_size@?$output_processor@_WV?$stream_output_adapter@_W@__crt_stdio_output@@V?$positional_parameter_base@_WV?$stream_output_adapter@_W@__crt_stdio_output@@@2@@__crt_stdio_output@@AAE_NXZ 1003e4db f i libucrt:output.obj
 0001:0003d665       ?state_case_size@?$output_processor@_WV?$stream_output_adapter@_W@__crt_stdio_output@@V?$standard_base@_WV?$stream_output_adapter@_W@__crt_stdio_output@@@2@@__crt_stdio_output@@AAE_NXZ 1003e665 f i libucrt:output.obj
 0001:0003d7ef       ?state_case_size@?$output_processor@_WV?$string_output_adapter@_W@__crt_stdio_output@@V?$format_validation_base@_WV?$string_output_adapter@_W@__crt_stdio_output@@@2@@__crt_stdio_output@@AAE_NXZ 1003e7ef f i libucrt:output.obj
 0001:0003d979       ?state_case_size@?$output_processor@_WV?$string_output_adapter@_W@__crt_stdio_output@@V?$positional_parameter_base@_WV?$string_output_adapter@_W@__crt_stdio_output@@@2@@__crt_stdio_output@@AAE_NXZ 1003e979 f i libucrt:output.obj
 0001:0003db03       ?state_case_size@?$output_processor@_WV?$string_output_adapter@_W@__crt_stdio_output@@V?$standard_base@_WV?$string_output_adapter@_W@__crt_stdio_output@@@2@@__crt_stdio_output@@AAE_NXZ 1003eb03 f i libucrt:output.obj
 0001:0003dc8d       ?state_case_type@?$output_processor@DV?$stream_output_adapter@D@__crt_stdio_output@@V?$format_validation_base@DV?$stream_output_adapter@D@__crt_stdio_output@@@2@@__crt_stdio_output@@AAE_NXZ 1003ec8d f i libucrt:output.obj
 0001:0003dfcf       ?state_case_type@?$output_processor@DV?$stream_output_adapter@D@__crt_stdio_output@@V?$positional_parameter_base@DV?$stream_output_adapter@D@__crt_stdio_output@@@2@@__crt_stdio_output@@AAE_NXZ 1003efcf f i libucrt:output.obj
 0001:0003e320       ?state_case_type@?$output_processor@DV?$stream_output_adapter@D@__crt_stdio_output@@V?$standard_base@DV?$stream_output_adapter@D@__crt_stdio_output@@@2@@__crt_stdio_output@@AAE_NXZ 1003f320 f i libucrt:output.obj
 0001:0003e662       ?state_case_type@?$output_processor@DV?$string_output_adapter@D@__crt_stdio_output@@V?$format_validation_base@DV?$string_output_adapter@D@__crt_stdio_output@@@2@@__crt_stdio_output@@AAE_NXZ 1003f662 f i libucrt:output.obj
 0001:0003e9c1       ?state_case_type@?$output_processor@DV?$string_output_adapter@D@__crt_stdio_output@@V?$positional_parameter_base@DV?$string_output_adapter@D@__crt_stdio_output@@@2@@__crt_stdio_output@@AAE_NXZ 1003f9c1 f i libucrt:output.obj
 0001:0003ed2f       ?state_case_type@?$output_processor@DV?$string_output_adapter@D@__crt_stdio_output@@V?$standard_base@DV?$string_output_adapter@D@__crt_stdio_output@@@2@@__crt_stdio_output@@AAE_NXZ 1003fd2f f i libucrt:output.obj
 0001:0003f08e       ?state_case_type@?$output_processor@_WV?$stream_output_adapter@_W@__crt_stdio_output@@V?$format_validation_base@_WV?$stream_output_adapter@_W@__crt_stdio_output@@@2@@__crt_stdio_output@@AAE_NXZ 1004008e f i libucrt:output.obj
 0001:0003f3ec       ?state_case_type@?$output_processor@_WV?$stream_output_adapter@_W@__crt_stdio_output@@V?$positional_parameter_base@_WV?$stream_output_adapter@_W@__crt_stdio_output@@@2@@__crt_stdio_output@@AAE_NXZ 100403ec f i libucrt:output.obj
 0001:0003f759       ?state_case_type@?$output_processor@_WV?$stream_output_adapter@_W@__crt_stdio_output@@V?$standard_base@_WV?$stream_output_adapter@_W@__crt_stdio_output@@@2@@__crt_stdio_output@@AAE_NXZ 10040759 f i libucrt:output.obj
 0001:0003fab7       ?state_case_type@?$output_processor@_WV?$string_output_adapter@_W@__crt_stdio_output@@V?$format_validation_base@_WV?$string_output_adapter@_W@__crt_stdio_output@@@2@@__crt_stdio_output@@AAE_NXZ 10040ab7 f i libucrt:output.obj
 0001:0003feab       ?state_case_type@?$output_processor@_WV?$string_output_adapter@_W@__crt_stdio_output@@V?$positional_parameter_base@_WV?$string_output_adapter@_W@__crt_stdio_output@@@2@@__crt_stdio_output@@AAE_NXZ 10040eab f i libucrt:output.obj
 0001:000402ae       ?state_case_type@?$output_processor@_WV?$string_output_adapter@_W@__crt_stdio_output@@V?$standard_base@_WV?$string_output_adapter@_W@__crt_stdio_output@@@2@@__crt_stdio_output@@AAE_NXZ 100412ae f i libucrt:output.obj
 0001:000406a2       ?state_case_width@?$output_processor@DV?$stream_output_adapter@D@__crt_stdio_output@@V?$format_validation_base@DV?$stream_output_adapter@D@__crt_stdio_output@@@2@@__crt_stdio_output@@AAE_NXZ 100416a2 f i libucrt:output.obj
 0001:000406d3       ?state_case_width@?$output_processor@DV?$stream_output_adapter@D@__crt_stdio_output@@V?$positional_parameter_base@DV?$stream_output_adapter@D@__crt_stdio_output@@@2@@__crt_stdio_output@@AAE_NXZ 100416d3 f i libucrt:output.obj
 0001:00040713       ?state_case_width@?$output_processor@DV?$stream_output_adapter@D@__crt_stdio_output@@V?$standard_base@DV?$stream_output_adapter@D@__crt_stdio_output@@@2@@__crt_stdio_output@@AAE_NXZ 10041713 f i libucrt:output.obj
 0001:00040744       ?state_case_width@?$output_processor@DV?$string_output_adapter@D@__crt_stdio_output@@V?$format_validation_base@DV?$string_output_adapter@D@__crt_stdio_output@@@2@@__crt_stdio_output@@AAE_NXZ 10041744 f i libucrt:output.obj
 0001:00040775       ?state_case_width@?$output_processor@DV?$string_output_adapter@D@__crt_stdio_output@@V?$positional_parameter_base@DV?$string_output_adapter@D@__crt_stdio_output@@@2@@__crt_stdio_output@@AAE_NXZ 10041775 f i libucrt:output.obj
 0001:000407b5       ?state_case_width@?$output_processor@DV?$string_output_adapter@D@__crt_stdio_output@@V?$standard_base@DV?$string_output_adapter@D@__crt_stdio_output@@@2@@__crt_stdio_output@@AAE_NXZ 100417b5 f i libucrt:output.obj
 0001:000407e6       ?state_case_width@?$output_processor@_WV?$stream_output_adapter@_W@__crt_stdio_output@@V?$format_validation_base@_WV?$stream_output_adapter@_W@__crt_stdio_output@@@2@@__crt_stdio_output@@AAE_NXZ 100417e6 f i libucrt:output.obj
 0001:00040818       ?state_case_width@?$output_processor@_WV?$stream_output_adapter@_W@__crt_stdio_output@@V?$positional_parameter_base@_WV?$stream_output_adapter@_W@__crt_stdio_output@@@2@@__crt_stdio_output@@AAE_NXZ 10041818 f i libucrt:output.obj
 0001:00040859       ?state_case_width@?$output_processor@_WV?$stream_output_adapter@_W@__crt_stdio_output@@V?$standard_base@_WV?$stream_output_adapter@_W@__crt_stdio_output@@@2@@__crt_stdio_output@@AAE_NXZ 10041859 f i libucrt:output.obj
 0001:0004088b       ?state_case_width@?$output_processor@_WV?$string_output_adapter@_W@__crt_stdio_output@@V?$format_validation_base@_WV?$string_output_adapter@_W@__crt_stdio_output@@@2@@__crt_stdio_output@@AAE_NXZ 1004188b f i libucrt:output.obj
 0001:000408bd       ?state_case_width@?$output_processor@_WV?$string_output_adapter@_W@__crt_stdio_output@@V?$positional_parameter_base@_WV?$string_output_adapter@_W@__crt_stdio_output@@@2@@__crt_stdio_output@@AAE_NXZ 100418bd f i libucrt:output.obj
 0001:000408fe       ?state_case_width@?$output_processor@_WV?$string_output_adapter@_W@__crt_stdio_output@@V?$standard_base@_WV?$string_output_adapter@_W@__crt_stdio_output@@@2@@__crt_stdio_output@@AAE_NXZ 100418fe f i libucrt:output.obj
 0001:00040930       ?state_count@?$format_validation_base@DV?$stream_output_adapter@D@__crt_stdio_output@@@__crt_stdio_output@@KAIXZ 10041930 f i libucrt:output.obj
 0001:00040934       ?state_count@?$format_validation_base@DV?$string_output_adapter@D@__crt_stdio_output@@@__crt_stdio_output@@KAIXZ 10041934 f i libucrt:output.obj
 0001:00040938       ?state_count@?$format_validation_base@_WV?$stream_output_adapter@_W@__crt_stdio_output@@@__crt_stdio_output@@KAIXZ 10041938 f i libucrt:output.obj
 0001:0004093c       ?state_count@?$format_validation_base@_WV?$string_output_adapter@_W@__crt_stdio_output@@@__crt_stdio_output@@KAIXZ 1004193c f i libucrt:output.obj
 0001:00040940       ?state_count@?$standard_base@DV?$stream_output_adapter@D@__crt_stdio_output@@@__crt_stdio_output@@KAIXZ 10041940 f i libucrt:output.obj
 0001:00040944       ?state_count@?$standard_base@DV?$string_output_adapter@D@__crt_stdio_output@@@__crt_stdio_output@@KAIXZ 10041944 f i libucrt:output.obj
 0001:00040948       ?state_count@?$standard_base@_WV?$stream_output_adapter@_W@__crt_stdio_output@@@__crt_stdio_output@@KAIXZ 10041948 f i libucrt:output.obj
 0001:0004094c       ?state_count@?$standard_base@_WV?$string_output_adapter@_W@__crt_stdio_output@@@__crt_stdio_output@@KAIXZ 1004194c f i libucrt:output.obj
 0001:00040950       ?state_transition_table@?$format_validation_base@DV?$stream_output_adapter@D@__crt_stdio_output@@@__crt_stdio_output@@KAABV?$spectre_mitigated_lookup_table@Ustate_transition_pair@__crt_stdio_output@@$0IA@@2@XZ 10041950 f i libucrt:output.obj
 0001:00040956       ?state_transition_table@?$format_validation_base@DV?$string_output_adapter@D@__crt_stdio_output@@@__crt_stdio_output@@KAABV?$spectre_mitigated_lookup_table@Ustate_transition_pair@__crt_stdio_output@@$0IA@@2@XZ 10041956 f i libucrt:output.obj
 0001:0004095c       ?state_transition_table@?$format_validation_base@_WV?$stream_output_adapter@_W@__crt_stdio_output@@@__crt_stdio_output@@KAABV?$spectre_mitigated_lookup_table@Ustate_transition_pair@__crt_stdio_output@@$0IA@@2@XZ 1004195c f i libucrt:output.obj
 0001:00040962       ?state_transition_table@?$format_validation_base@_WV?$string_output_adapter@_W@__crt_stdio_output@@@__crt_stdio_output@@KAABV?$spectre_mitigated_lookup_table@Ustate_transition_pair@__crt_stdio_output@@$0IA@@2@XZ 10041962 f i libucrt:output.obj
 0001:00040968       ?state_transition_table@?$standard_base@DV?$stream_output_adapter@D@__crt_stdio_output@@@__crt_stdio_output@@KAABV?$spectre_mitigated_lookup_table@Ustate_transition_pair@__crt_stdio_output@@$0IA@@2@XZ 10041968 f i libucrt:output.obj
 0001:0004096e       ?state_transition_table@?$standard_base@DV?$string_output_adapter@D@__crt_stdio_output@@@__crt_stdio_output@@KAABV?$spectre_mitigated_lookup_table@Ustate_transition_pair@__crt_stdio_output@@$0IA@@2@XZ 1004196e f i libucrt:output.obj
 0001:00040974       ?state_transition_table@?$standard_base@_WV?$stream_output_adapter@_W@__crt_stdio_output@@@__crt_stdio_output@@KAABV?$spectre_mitigated_lookup_table@Ustate_transition_pair@__crt_stdio_output@@$0IA@@2@XZ 10041974 f i libucrt:output.obj
 0001:0004097a       ?state_transition_table@?$standard_base@_WV?$string_output_adapter@_W@__crt_stdio_output@@@__crt_stdio_output@@KAABV?$spectre_mitigated_lookup_table@Ustate_transition_pair@__crt_stdio_output@@$0IA@@2@XZ 1004197a f i libucrt:output.obj
 0001:00040980       ?tchar_string@?$common_data@D@__crt_stdio_output@@IAEAAPADD@Z 10041980 f i libucrt:output.obj
 0001:00040986       ?tchar_string@?$common_data@D@__crt_stdio_output@@IAEAAPADXZ 10041986 f i libucrt:output.obj
 0001:0004098a       ?tchar_string@?$common_data@_W@__crt_stdio_output@@IAEAAPA_WXZ 1004198a f i libucrt:output.obj
 0001:0004098e       ?tchar_string@?$common_data@_W@__crt_stdio_output@@IAEAAPA_W_W@Z 1004198e f i libucrt:output.obj
 0001:00040994       ?to_integer_size@__crt_stdio_output@@YAIW4length_modifier@1@@Z 10041994 f i libucrt:output.obj
 0001:000409e8       ?type_case_X@?$output_processor@DV?$stream_output_adapter@D@__crt_stdio_output@@V?$format_validation_base@DV?$stream_output_adapter@D@__crt_stdio_output@@@2@@__crt_stdio_output@@AAE_NXZ 100419e8 f i libucrt:output.obj
 0001:000409f0       ?type_case_X@?$output_processor@DV?$stream_output_adapter@D@__crt_stdio_output@@V?$positional_parameter_base@DV?$stream_output_adapter@D@__crt_stdio_output@@@2@@__crt_stdio_output@@AAE_NXZ 100419f0 f i libucrt:output.obj
 0001:000409f8       ?type_case_X@?$output_processor@DV?$stream_output_adapter@D@__crt_stdio_output@@V?$standard_base@DV?$stream_output_adapter@D@__crt_stdio_output@@@2@@__crt_stdio_output@@AAE_NXZ 100419f8 f i libucrt:output.obj
 0001:00040a00       ?type_case_X@?$output_processor@DV?$string_output_adapter@D@__crt_stdio_output@@V?$format_validation_base@DV?$string_output_adapter@D@__crt_stdio_output@@@2@@__crt_stdio_output@@AAE_NXZ 10041a00 f i libucrt:output.obj
 0001:00040a08       ?type_case_X@?$output_processor@DV?$string_output_adapter@D@__crt_stdio_output@@V?$positional_parameter_base@DV?$string_output_adapter@D@__crt_stdio_output@@@2@@__crt_stdio_output@@AAE_NXZ 10041a08 f i libucrt:output.obj
 0001:00040a10       ?type_case_X@?$output_processor@DV?$string_output_adapter@D@__crt_stdio_output@@V?$standard_base@DV?$string_output_adapter@D@__crt_stdio_output@@@2@@__crt_stdio_output@@AAE_NXZ 10041a10 f i libucrt:output.obj
 0001:00040a18       ?type_case_X@?$output_processor@_WV?$stream_output_adapter@_W@__crt_stdio_output@@V?$format_validation_base@_WV?$stream_output_adapter@_W@__crt_stdio_output@@@2@@__crt_stdio_output@@AAE_NXZ 10041a18 f i libucrt:output.obj
 0001:00040a20       ?type_case_X@?$output_processor@_WV?$stream_output_adapter@_W@__crt_stdio_output@@V?$positional_parameter_base@_WV?$stream_output_adapter@_W@__crt_stdio_output@@@2@@__crt_stdio_output@@AAE_NXZ 10041a20 f i libucrt:output.obj
 0001:00040a28       ?type_case_X@?$output_processor@_WV?$stream_output_adapter@_W@__crt_stdio_output@@V?$standard_base@_WV?$stream_output_adapter@_W@__crt_stdio_output@@@2@@__crt_stdio_output@@AAE_NXZ 10041a28 f i libucrt:output.obj
 0001:00040a30       ?type_case_X@?$output_processor@_WV?$string_output_adapter@_W@__crt_stdio_output@@V?$format_validation_base@_WV?$string_output_adapter@_W@__crt_stdio_output@@@2@@__crt_stdio_output@@AAE_NXZ 10041a30 f i libucrt:output.obj
 0001:00040a38       ?type_case_X@?$output_processor@_WV?$string_output_adapter@_W@__crt_stdio_output@@V?$positional_parameter_base@_WV?$string_output_adapter@_W@__crt_stdio_output@@@2@@__crt_stdio_output@@AAE_NXZ 10041a38 f i libucrt:output.obj
 0001:00040a40       ?type_case_X@?$output_processor@_WV?$string_output_adapter@_W@__crt_stdio_output@@V?$standard_base@_WV?$string_output_adapter@_W@__crt_stdio_output@@@2@@__crt_stdio_output@@AAE_NXZ 10041a40 f i libucrt:output.obj
 0001:00040a48       ?type_case_Z@?$output_processor@DV?$stream_output_adapter@D@__crt_stdio_output@@V?$format_validation_base@DV?$stream_output_adapter@D@__crt_stdio_output@@@2@@__crt_stdio_output@@AAE_NXZ 10041a48 f i libucrt:output.obj
 0001:00040aab       ?type_case_Z@?$output_processor@DV?$stream_output_adapter@D@__crt_stdio_output@@V?$positional_parameter_base@DV?$stream_output_adapter@D@__crt_stdio_output@@@2@@__crt_stdio_output@@AAE_NXZ 10041aab f i libucrt:output.obj
 0001:00040b25       ?type_case_Z@?$output_processor@DV?$stream_output_adapter@D@__crt_stdio_output@@V?$standard_base@DV?$stream_output_adapter@D@__crt_stdio_output@@@2@@__crt_stdio_output@@AAE_NXZ 10041b25 f i libucrt:output.obj
 0001:00040b88       ?type_case_Z@?$output_processor@DV?$string_output_adapter@D@__crt_stdio_output@@V?$format_validation_base@DV?$string_output_adapter@D@__crt_stdio_output@@@2@@__crt_stdio_output@@AAE_NXZ 10041b88 f i libucrt:output.obj
 0001:00040beb       ?type_case_Z@?$output_processor@DV?$string_output_adapter@D@__crt_stdio_output@@V?$positional_parameter_base@DV?$string_output_adapter@D@__crt_stdio_output@@@2@@__crt_stdio_output@@AAE_NXZ 10041beb f i libucrt:output.obj
 0001:00040c65       ?type_case_Z@?$output_processor@DV?$string_output_adapter@D@__crt_stdio_output@@V?$standard_base@DV?$string_output_adapter@D@__crt_stdio_output@@@2@@__crt_stdio_output@@AAE_NXZ 10041c65 f i libucrt:output.obj
 0001:00040cc8       ?type_case_Z@?$output_processor@_WV?$stream_output_adapter@_W@__crt_stdio_output@@V?$format_validation_base@_WV?$stream_output_adapter@_W@__crt_stdio_output@@@2@@__crt_stdio_output@@AAE_NXZ 10041cc8 f i libucrt:output.obj
 0001:00040d2b       ?type_case_Z@?$output_processor@_WV?$stream_output_adapter@_W@__crt_stdio_output@@V?$positional_parameter_base@_WV?$stream_output_adapter@_W@__crt_stdio_output@@@2@@__crt_stdio_output@@AAE_NXZ 10041d2b f i libucrt:output.obj
 0001:00040da5       ?type_case_Z@?$output_processor@_WV?$stream_output_adapter@_W@__crt_stdio_output@@V?$standard_base@_WV?$stream_output_adapter@_W@__crt_stdio_output@@@2@@__crt_stdio_output@@AAE_NXZ 10041da5 f i libucrt:output.obj
 0001:00040e08       ?type_case_Z@?$output_processor@_WV?$string_output_adapter@_W@__crt_stdio_output@@V?$format_validation_base@_WV?$string_output_adapter@_W@__crt_stdio_output@@@2@@__crt_stdio_output@@AAE_NXZ 10041e08 f i libucrt:output.obj
 0001:00040e6b       ?type_case_Z@?$output_processor@_WV?$string_output_adapter@_W@__crt_stdio_output@@V?$positional_parameter_base@_WV?$string_output_adapter@_W@__crt_stdio_output@@@2@@__crt_stdio_output@@AAE_NXZ 10041e6b f i libucrt:output.obj
 0001:00040ee5       ?type_case_Z@?$output_processor@_WV?$string_output_adapter@_W@__crt_stdio_output@@V?$standard_base@_WV?$string_output_adapter@_W@__crt_stdio_output@@@2@@__crt_stdio_output@@AAE_NXZ 10041ee5 f i libucrt:output.obj
 0001:00040f48       ?type_case_a@?$output_processor@DV?$stream_output_adapter@D@__crt_stdio_output@@V?$format_validation_base@DV?$stream_output_adapter@D@__crt_stdio_output@@@2@@__crt_stdio_output@@AAE_NXZ 10041f48 f i libucrt:output.obj
 0001:000410d9       ?type_case_a@?$output_processor@DV?$stream_output_adapter@D@__crt_stdio_output@@V?$positional_parameter_base@DV?$stream_output_adapter@D@__crt_stdio_output@@@2@@__crt_stdio_output@@AAE_NXZ 100420d9 f i libucrt:output.obj
 0001:00041287       ?type_case_a@?$output_processor@DV?$stream_output_adapter@D@__crt_stdio_output@@V?$standard_base@DV?$stream_output_adapter@D@__crt_stdio_output@@@2@@__crt_stdio_output@@AAE_NXZ 10042287 f i libucrt:output.obj
 0001:00041418       ?type_case_a@?$output_processor@DV?$string_output_adapter@D@__crt_stdio_output@@V?$format_validation_base@DV?$string_output_adapter@D@__crt_stdio_output@@@2@@__crt_stdio_output@@AAE_NXZ 10042418 f i libucrt:output.obj
 0001:000415a9       ?type_case_a@?$output_processor@DV?$string_output_adapter@D@__crt_stdio_output@@V?$positional_parameter_base@DV?$string_output_adapter@D@__crt_stdio_output@@@2@@__crt_stdio_output@@AAE_NXZ 100425a9 f i libucrt:output.obj
 0001:00041757       ?type_case_a@?$output_processor@DV?$string_output_adapter@D@__crt_stdio_output@@V?$standard_base@DV?$string_output_adapter@D@__crt_stdio_output@@@2@@__crt_stdio_output@@AAE_NXZ 10042757 f i libucrt:output.obj
 0001:000418e8       ?type_case_a@?$output_processor@_WV?$stream_output_adapter@_W@__crt_stdio_output@@V?$format_validation_base@_WV?$stream_output_adapter@_W@__crt_stdio_output@@@2@@__crt_stdio_output@@AAE_NXZ 100428e8 f i libucrt:output.obj
 0001:00041a8f       ?type_case_a@?$output_processor@_WV?$stream_output_adapter@_W@__crt_stdio_output@@V?$positional_parameter_base@_WV?$stream_output_adapter@_W@__crt_stdio_output@@@2@@__crt_stdio_output@@AAE_NXZ 10042a8f f i libucrt:output.obj
 0001:00041c53       ?type_case_a@?$output_processor@_WV?$stream_output_adapter@_W@__crt_stdio_output@@V?$standard_base@_WV?$stream_output_adapter@_W@__crt_stdio_output@@@2@@__crt_stdio_output@@AAE_NXZ 10042c53 f i libucrt:output.obj
 0001:00041dfa       ?type_case_a@?$output_processor@_WV?$string_output_adapter@_W@__crt_stdio_output@@V?$format_validation_base@_WV?$string_output_adapter@_W@__crt_stdio_output@@@2@@__crt_stdio_output@@AAE_NXZ 10042dfa f i libucrt:output.obj
 0001:00041fa1       ?type_case_a@?$output_processor@_WV?$string_output_adapter@_W@__crt_stdio_output@@V?$positional_parameter_base@_WV?$string_output_adapter@_W@__crt_stdio_output@@@2@@__crt_stdio_output@@AAE_NXZ 10042fa1 f i libucrt:output.obj
 0001:00042165       ?type_case_a@?$output_processor@_WV?$string_output_adapter@_W@__crt_stdio_output@@V?$standard_base@_WV?$string_output_adapter@_W@__crt_stdio_output@@@2@@__crt_stdio_output@@AAE_NXZ 10043165 f i libucrt:output.obj
 0001:0004230c       ?type_case_c@?$output_processor@DV?$stream_output_adapter@D@__crt_stdio_output@@V?$format_validation_base@DV?$stream_output_adapter@D@__crt_stdio_output@@@2@@__crt_stdio_output@@AAE_NXZ 1004330c f i libucrt:output.obj
 0001:00042314       ?type_case_c@?$output_processor@DV?$stream_output_adapter@D@__crt_stdio_output@@V?$positional_parameter_base@DV?$stream_output_adapter@D@__crt_stdio_output@@@2@@__crt_stdio_output@@AAE_NXZ 10043314 f i libucrt:output.obj
 0001:0004231c       ?type_case_c@?$output_processor@DV?$stream_output_adapter@D@__crt_stdio_output@@V?$standard_base@DV?$stream_output_adapter@D@__crt_stdio_output@@@2@@__crt_stdio_output@@AAE_NXZ 1004331c f i libucrt:output.obj
 0001:00042324       ?type_case_c@?$output_processor@DV?$string_output_adapter@D@__crt_stdio_output@@V?$format_validation_base@DV?$string_output_adapter@D@__crt_stdio_output@@@2@@__crt_stdio_output@@AAE_NXZ 10043324 f i libucrt:output.obj
 0001:0004232c       ?type_case_c@?$output_processor@DV?$string_output_adapter@D@__crt_stdio_output@@V?$positional_parameter_base@DV?$string_output_adapter@D@__crt_stdio_output@@@2@@__crt_stdio_output@@AAE_NXZ 1004332c f i libucrt:output.obj
 0001:00042334       ?type_case_c@?$output_processor@DV?$string_output_adapter@D@__crt_stdio_output@@V?$standard_base@DV?$string_output_adapter@D@__crt_stdio_output@@@2@@__crt_stdio_output@@AAE_NXZ 10043334 f i libucrt:output.obj
 0001:0004233c       ?type_case_c@?$output_processor@_WV?$stream_output_adapter@_W@__crt_stdio_output@@V?$format_validation_base@_WV?$stream_output_adapter@_W@__crt_stdio_output@@@2@@__crt_stdio_output@@AAE_NXZ 1004333c f i libucrt:output.obj
 0001:00042344       ?type_case_c@?$output_processor@_WV?$stream_output_adapter@_W@__crt_stdio_output@@V?$positional_parameter_base@_WV?$stream_output_adapter@_W@__crt_stdio_output@@@2@@__crt_stdio_output@@AAE_NXZ 10043344 f i libucrt:output.obj
 0001:0004234c       ?type_case_c@?$output_processor@_WV?$stream_output_adapter@_W@__crt_stdio_output@@V?$standard_base@_WV?$stream_output_adapter@_W@__crt_stdio_output@@@2@@__crt_stdio_output@@AAE_NXZ 1004334c f i libucrt:output.obj
 0001:00042354       ?type_case_c@?$output_processor@_WV?$string_output_adapter@_W@__crt_stdio_output@@V?$format_validation_base@_WV?$string_output_adapter@_W@__crt_stdio_output@@@2@@__crt_stdio_output@@AAE_NXZ 10043354 f i libucrt:output.obj
 0001:0004235c       ?type_case_c@?$output_processor@_WV?$string_output_adapter@_W@__crt_stdio_output@@V?$positional_parameter_base@_WV?$string_output_adapter@_W@__crt_stdio_output@@@2@@__crt_stdio_output@@AAE_NXZ 1004335c f i libucrt:output.obj
 0001:00042364       ?type_case_c@?$output_processor@_WV?$string_output_adapter@_W@__crt_stdio_output@@V?$standard_base@_WV?$string_output_adapter@_W@__crt_stdio_output@@@2@@__crt_stdio_output@@AAE_NXZ 10043364 f i libucrt:output.obj
 0001:0004236c       ?type_case_c_tchar@?$output_processor@DV?$stream_output_adapter@D@__crt_stdio_output@@V?$format_validation_base@DV?$stream_output_adapter@D@__crt_stdio_output@@@2@@__crt_stdio_output@@AAE_ND@Z 1004336c f i libucrt:output.obj
 0001:00042401       ?type_case_c_tchar@?$output_processor@DV?$stream_output_adapter@D@__crt_stdio_output@@V?$positional_parameter_base@DV?$stream_output_adapter@D@__crt_stdio_output@@@2@@__crt_stdio_output@@AAE_ND@Z 10043401 f i libucrt:output.obj
 0001:000424c0       ?type_case_c_tchar@?$output_processor@DV?$stream_output_adapter@D@__crt_stdio_output@@V?$standard_base@DV?$stream_output_adapter@D@__crt_stdio_output@@@2@@__crt_stdio_output@@AAE_ND@Z 100434c0 f i libucrt:output.obj
 0001:00042555       ?type_case_c_tchar@?$output_processor@DV?$string_output_adapter@D@__crt_stdio_output@@V?$format_validation_base@DV?$string_output_adapter@D@__crt_stdio_output@@@2@@__crt_stdio_output@@AAE_ND@Z 10043555 f i libucrt:output.obj
 0001:000425ea       ?type_case_c_tchar@?$output_processor@DV?$string_output_adapter@D@__crt_stdio_output@@V?$positional_parameter_base@DV?$string_output_adapter@D@__crt_stdio_output@@@2@@__crt_stdio_output@@AAE_ND@Z 100435ea f i libucrt:output.obj
 0001:000426a9       ?type_case_c_tchar@?$output_processor@DV?$string_output_adapter@D@__crt_stdio_output@@V?$standard_base@DV?$string_output_adapter@D@__crt_stdio_output@@@2@@__crt_stdio_output@@AAE_ND@Z 100436a9 f i libucrt:output.obj
 0001:0004273e       ?type_case_c_tchar@?$output_processor@_WV?$stream_output_adapter@_W@__crt_stdio_output@@V?$format_validation_base@_WV?$stream_output_adapter@_W@__crt_stdio_output@@@2@@__crt_stdio_output@@AAE_N_W@Z 1004373e f i libucrt:output.obj
 0001:000427e6       ?type_case_c_tchar@?$output_processor@_WV?$stream_output_adapter@_W@__crt_stdio_output@@V?$positional_parameter_base@_WV?$stream_output_adapter@_W@__crt_stdio_output@@@2@@__crt_stdio_output@@AAE_N_W@Z 100437e6 f i libucrt:output.obj
 0001:000428b1       ?type_case_c_tchar@?$output_processor@_WV?$stream_output_adapter@_W@__crt_stdio_output@@V?$standard_base@_WV?$stream_output_adapter@_W@__crt_stdio_output@@@2@@__crt_stdio_output@@AAE_N_W@Z 100438b1 f i libucrt:output.obj
 0001:00042959       ?type_case_c_tchar@?$output_processor@_WV?$string_output_adapter@_W@__crt_stdio_output@@V?$format_validation_base@_WV?$string_output_adapter@_W@__crt_stdio_output@@@2@@__crt_stdio_output@@AAE_N_W@Z 10043959 f i libucrt:output.obj
 0001:00042a01       ?type_case_c_tchar@?$output_processor@_WV?$string_output_adapter@_W@__crt_stdio_output@@V?$positional_parameter_base@_WV?$string_output_adapter@_W@__crt_stdio_output@@@2@@__crt_stdio_output@@AAE_N_W@Z 10043a01 f i libucrt:output.obj
 0001:00042acc       ?type_case_c_tchar@?$output_processor@_WV?$string_output_adapter@_W@__crt_stdio_output@@V?$standard_base@_WV?$string_output_adapter@_W@__crt_stdio_output@@@2@@__crt_stdio_output@@AAE_N_W@Z 10043acc f i libucrt:output.obj
 0001:00042b74       ?type_case_d@?$output_processor@DV?$stream_output_adapter@D@__crt_stdio_output@@V?$format_validation_base@DV?$stream_output_adapter@D@__crt_stdio_output@@@2@@__crt_stdio_output@@AAE_NXZ 10043b74 f i libucrt:output.obj
 0001:00042b80       ?type_case_d@?$output_processor@DV?$stream_output_adapter@D@__crt_stdio_output@@V?$positional_parameter_base@DV?$stream_output_adapter@D@__crt_stdio_output@@@2@@__crt_stdio_output@@AAE_NXZ 10043b80 f i libucrt:output.obj
 0001:00042b8c       ?type_case_d@?$output_processor@DV?$stream_output_adapter@D@__crt_stdio_output@@V?$standard_base@DV?$stream_output_adapter@D@__crt_stdio_output@@@2@@__crt_stdio_output@@AAE_NXZ 10043b8c f i libucrt:output.obj
 0001:00042b98       ?type_case_d@?$output_processor@DV?$string_output_adapter@D@__crt_stdio_output@@V?$format_validation_base@DV?$string_output_adapter@D@__crt_stdio_output@@@2@@__crt_stdio_output@@AAE_NXZ 10043b98 f i libucrt:output.obj
 0001:00042ba4       ?type_case_d@?$output_processor@DV?$string_output_adapter@D@__crt_stdio_output@@V?$positional_parameter_base@DV?$string_output_adapter@D@__crt_stdio_output@@@2@@__crt_stdio_output@@AAE_NXZ 10043ba4 f i libucrt:output.obj
 0001:00042bb0       ?type_case_d@?$output_processor@DV?$string_output_adapter@D@__crt_stdio_output@@V?$standard_base@DV?$string_output_adapter@D@__crt_stdio_output@@@2@@__crt_stdio_output@@AAE_NXZ 10043bb0 f i libucrt:output.obj
 0001:00042bbc       ?type_case_d@?$output_processor@_WV?$stream_output_adapter@_W@__crt_stdio_output@@V?$format_validation_base@_WV?$stream_output_adapter@_W@__crt_stdio_output@@@2@@__crt_stdio_output@@AAE_NXZ 10043bbc f i libucrt:output.obj
 0001:00042bc8       ?type_case_d@?$output_processor@_WV?$stream_output_adapter@_W@__crt_stdio_output@@V?$positional_parameter_base@_WV?$stream_output_adapter@_W@__crt_stdio_output@@@2@@__crt_stdio_output@@AAE_NXZ 10043bc8 f i libucrt:output.obj
 0001:00042bd4       ?type_case_d@?$output_processor@_WV?$stream_output_adapter@_W@__crt_stdio_output@@V?$standard_base@_WV?$stream_output_adapter@_W@__crt_stdio_output@@@2@@__crt_stdio_output@@AAE_NXZ 10043bd4 f i libucrt:output.obj
 0001:00042be0       ?type_case_d@?$output_processor@_WV?$string_output_adapter@_W@__crt_stdio_output@@V?$format_validation_base@_WV?$string_output_adapter@_W@__crt_stdio_output@@@2@@__crt_stdio_output@@AAE_NXZ 10043be0 f i libucrt:output.obj
 0001:00042bec       ?type_case_d@?$output_processor@_WV?$string_output_adapter@_W@__crt_stdio_output@@V?$positional_parameter_base@_WV?$string_output_adapter@_W@__crt_stdio_output@@@2@@__crt_stdio_output@@AAE_NXZ 10043bec f i libucrt:output.obj
 0001:00042bf8       ?type_case_d@?$output_processor@_WV?$string_output_adapter@_W@__crt_stdio_output@@V?$standard_base@_WV?$string_output_adapter@_W@__crt_stdio_output@@@2@@__crt_stdio_output@@AAE_NXZ 10043bf8 f i libucrt:output.obj
 0001:00042c04       ?type_case_n@?$output_processor@DV?$stream_output_adapter@D@__crt_stdio_output@@V?$format_validation_base@DV?$stream_output_adapter@D@__crt_stdio_output@@@2@@__crt_stdio_output@@AAE_NXZ 10043c04 f i libucrt:output.obj
 0001:00042c89       ?type_case_n@?$output_processor@DV?$stream_output_adapter@D@__crt_stdio_output@@V?$positional_parameter_base@DV?$stream_output_adapter@D@__crt_stdio_output@@@2@@__crt_stdio_output@@AAE_NXZ 10043c89 f i libucrt:output.obj
 0001:00042d36       ?type_case_n@?$output_processor@DV?$stream_output_adapter@D@__crt_stdio_output@@V?$standard_base@DV?$stream_output_adapter@D@__crt_stdio_output@@@2@@__crt_stdio_output@@AAE_NXZ 10043d36 f i libucrt:output.obj
 0001:00042dbb       ?type_case_n@?$output_processor@DV?$string_output_adapter@D@__crt_stdio_output@@V?$format_validation_base@DV?$string_output_adapter@D@__crt_stdio_output@@@2@@__crt_stdio_output@@AAE_NXZ 10043dbb f i libucrt:output.obj
 0001:00042e40       ?type_case_n@?$output_processor@DV?$string_output_adapter@D@__crt_stdio_output@@V?$positional_parameter_base@DV?$string_output_adapter@D@__crt_stdio_output@@@2@@__crt_stdio_output@@AAE_NXZ 10043e40 f i libucrt:output.obj
 0001:00042eed       ?type_case_n@?$output_processor@DV?$string_output_adapter@D@__crt_stdio_output@@V?$standard_base@DV?$string_output_adapter@D@__crt_stdio_output@@@2@@__crt_stdio_output@@AAE_NXZ 10043eed f i libucrt:output.obj
 0001:00042f72       ?type_case_n@?$output_processor@_WV?$stream_output_adapter@_W@__crt_stdio_output@@V?$format_validation_base@_WV?$stream_output_adapter@_W@__crt_stdio_output@@@2@@__crt_stdio_output@@AAE_NXZ 10043f72 f i libucrt:output.obj
 0001:00042ff7       ?type_case_n@?$output_processor@_WV?$stream_output_adapter@_W@__crt_stdio_output@@V?$positional_parameter_base@_WV?$stream_output_adapter@_W@__crt_stdio_output@@@2@@__crt_stdio_output@@AAE_NXZ 10043ff7 f i libucrt:output.obj
 0001:000430a4       ?type_case_n@?$output_processor@_WV?$stream_output_adapter@_W@__crt_stdio_output@@V?$standard_base@_WV?$stream_output_adapter@_W@__crt_stdio_output@@@2@@__crt_stdio_output@@AAE_NXZ 100440a4 f i libucrt:output.obj
 0001:00043129       ?type_case_n@?$output_processor@_WV?$string_output_adapter@_W@__crt_stdio_output@@V?$format_validation_base@_WV?$string_output_adapter@_W@__crt_stdio_output@@@2@@__crt_stdio_output@@AAE_NXZ 10044129 f i libucrt:output.obj
 0001:000431ae       ?type_case_n@?$output_processor@_WV?$string_output_adapter@_W@__crt_stdio_output@@V?$positional_parameter_base@_WV?$string_output_adapter@_W@__crt_stdio_output@@@2@@__crt_stdio_output@@AAE_NXZ 100441ae f i libucrt:output.obj
 0001:0004325b       ?type_case_n@?$output_processor@_WV?$string_output_adapter@_W@__crt_stdio_output@@V?$standard_base@_WV?$string_output_adapter@_W@__crt_stdio_output@@@2@@__crt_stdio_output@@AAE_NXZ 1004425b f i libucrt:output.obj
 0001:000432e0       ?type_case_o@?$output_processor@DV?$stream_output_adapter@D@__crt_stdio_output@@V?$format_validation_base@DV?$stream_output_adapter@D@__crt_stdio_output@@@2@@__crt_stdio_output@@AAE_NXZ 100442e0 f i libucrt:output.obj
 0001:000432fd       ?type_case_o@?$output_processor@DV?$stream_output_adapter@D@__crt_stdio_output@@V?$positional_parameter_base@DV?$stream_output_adapter@D@__crt_stdio_output@@@2@@__crt_stdio_output@@AAE_NXZ 100442fd f i libucrt:output.obj
 0001:0004331a       ?type_case_o@?$output_processor@DV?$stream_output_adapter@D@__crt_stdio_output@@V?$standard_base@DV?$stream_output_adapter@D@__crt_stdio_output@@@2@@__crt_stdio_output@@AAE_NXZ 1004431a f i libucrt:output.obj
 0001:00043337       ?type_case_o@?$output_processor@DV?$string_output_adapter@D@__crt_stdio_output@@V?$format_validation_base@DV?$string_output_adapter@D@__crt_stdio_output@@@2@@__crt_stdio_output@@AAE_NXZ 10044337 f i libucrt:output.obj
 0001:00043354       ?type_case_o@?$output_processor@DV?$string_output_adapter@D@__crt_stdio_output@@V?$positional_parameter_base@DV?$string_output_adapter@D@__crt_stdio_output@@@2@@__crt_stdio_output@@AAE_NXZ 10044354 f i libucrt:output.obj
 0001:00043371       ?type_case_o@?$output_processor@DV?$string_output_adapter@D@__crt_stdio_output@@V?$standard_base@DV?$string_output_adapter@D@__crt_stdio_output@@@2@@__crt_stdio_output@@AAE_NXZ 10044371 f i libucrt:output.obj
 0001:0004338e       ?type_case_o@?$output_processor@_WV?$stream_output_adapter@_W@__crt_stdio_output@@V?$format_validation_base@_WV?$stream_output_adapter@_W@__crt_stdio_output@@@2@@__crt_stdio_output@@AAE_NXZ 1004438e f i libucrt:output.obj
 0001:000433ab       ?type_case_o@?$output_processor@_WV?$stream_output_adapter@_W@__crt_stdio_output@@V?$positional_parameter_base@_WV?$stream_output_adapter@_W@__crt_stdio_output@@@2@@__crt_stdio_output@@AAE_NXZ 100443ab f i libucrt:output.obj
 0001:000433c8       ?type_case_o@?$output_processor@_WV?$stream_output_adapter@_W@__crt_stdio_output@@V?$standard_base@_WV?$stream_output_adapter@_W@__crt_stdio_output@@@2@@__crt_stdio_output@@AAE_NXZ 100443c8 f i libucrt:output.obj
 0001:000433e5       ?type_case_o@?$output_processor@_WV?$string_output_adapter@_W@__crt_stdio_output@@V?$format_validation_base@_WV?$string_output_adapter@_W@__crt_stdio_output@@@2@@__crt_stdio_output@@AAE_NXZ 100443e5 f i libucrt:output.obj
 0001:00043402       ?type_case_o@?$output_processor@_WV?$string_output_adapter@_W@__crt_stdio_output@@V?$positional_parameter_base@_WV?$string_output_adapter@_W@__crt_stdio_output@@@2@@__crt_stdio_output@@AAE_NXZ 10044402 f i libucrt:output.obj
 0001:0004341f       ?type_case_o@?$output_processor@_WV?$string_output_adapter@_W@__crt_stdio_output@@V?$standard_base@_WV?$string_output_adapter@_W@__crt_stdio_output@@@2@@__crt_stdio_output@@AAE_NXZ 1004441f f i libucrt:output.obj
 0001:0004343c       ?type_case_p@?$output_processor@DV?$stream_output_adapter@D@__crt_stdio_output@@V?$format_validation_base@DV?$stream_output_adapter@D@__crt_stdio_output@@@2@@__crt_stdio_output@@AAE_NXZ 1004443c f i libucrt:output.obj
 0001:00043452       ?type_case_p@?$output_processor@DV?$stream_output_adapter@D@__crt_stdio_output@@V?$positional_parameter_base@DV?$stream_output_adapter@D@__crt_stdio_output@@@2@@__crt_stdio_output@@AAE_NXZ 10044452 f i libucrt:output.obj
 0001:00043468       ?type_case_p@?$output_processor@DV?$stream_output_adapter@D@__crt_stdio_output@@V?$standard_base@DV?$stream_output_adapter@D@__crt_stdio_output@@@2@@__crt_stdio_output@@AAE_NXZ 10044468 f i libucrt:output.obj
 0001:0004347e       ?type_case_p@?$output_processor@DV?$string_output_adapter@D@__crt_stdio_output@@V?$format_validation_base@DV?$string_output_adapter@D@__crt_stdio_output@@@2@@__crt_stdio_output@@AAE_NXZ 1004447e f i libucrt:output.obj
 0001:00043494       ?type_case_p@?$output_processor@DV?$string_output_adapter@D@__crt_stdio_output@@V?$positional_parameter_base@DV?$string_output_adapter@D@__crt_stdio_output@@@2@@__crt_stdio_output@@AAE_NXZ 10044494 f i libucrt:output.obj
 0001:000434aa       ?type_case_p@?$output_processor@DV?$string_output_adapter@D@__crt_stdio_output@@V?$standard_base@DV?$string_output_adapter@D@__crt_stdio_output@@@2@@__crt_stdio_output@@AAE_NXZ 100444aa f i libucrt:output.obj
 0001:000434c0       ?type_case_p@?$output_processor@_WV?$stream_output_adapter@_W@__crt_stdio_output@@V?$format_validation_base@_WV?$stream_output_adapter@_W@__crt_stdio_output@@@2@@__crt_stdio_output@@AAE_NXZ 100444c0 f i libucrt:output.obj
 0001:000434d6       ?type_case_p@?$output_processor@_WV?$stream_output_adapter@_W@__crt_stdio_output@@V?$positional_parameter_base@_WV?$stream_output_adapter@_W@__crt_stdio_output@@@2@@__crt_stdio_output@@AAE_NXZ 100444d6 f i libucrt:output.obj
 0001:000434ec       ?type_case_p@?$output_processor@_WV?$stream_output_adapter@_W@__crt_stdio_output@@V?$standard_base@_WV?$stream_output_adapter@_W@__crt_stdio_output@@@2@@__crt_stdio_output@@AAE_NXZ 100444ec f i libucrt:output.obj
 0001:00043502       ?type_case_p@?$output_processor@_WV?$string_output_adapter@_W@__crt_stdio_output@@V?$format_validation_base@_WV?$string_output_adapter@_W@__crt_stdio_output@@@2@@__crt_stdio_output@@AAE_NXZ 10044502 f i libucrt:output.obj
 0001:00043518       ?type_case_p@?$output_processor@_WV?$string_output_adapter@_W@__crt_stdio_output@@V?$positional_parameter_base@_WV?$string_output_adapter@_W@__crt_stdio_output@@@2@@__crt_stdio_output@@AAE_NXZ 10044518 f i libucrt:output.obj
 0001:0004352e       ?type_case_p@?$output_processor@_WV?$string_output_adapter@_W@__crt_stdio_output@@V?$standard_base@_WV?$string_output_adapter@_W@__crt_stdio_output@@@2@@__crt_stdio_output@@AAE_NXZ 1004452e f i libucrt:output.obj
 0001:00043544       ?type_case_s@?$output_processor@DV?$stream_output_adapter@D@__crt_stdio_output@@V?$format_validation_base@DV?$stream_output_adapter@D@__crt_stdio_output@@@2@@__crt_stdio_output@@AAE_NXZ 10044544 f i libucrt:output.obj
 0001:000435b6       ?type_case_s@?$output_processor@DV?$stream_output_adapter@D@__crt_stdio_output@@V?$positional_parameter_base@DV?$stream_output_adapter@D@__crt_stdio_output@@@2@@__crt_stdio_output@@AAE_NXZ 100445b6 f i libucrt:output.obj
 0001:00043634       ?type_case_s@?$output_processor@DV?$stream_output_adapter@D@__crt_stdio_output@@V?$standard_base@DV?$stream_output_adapter@D@__crt_stdio_output@@@2@@__crt_stdio_output@@AAE_NXZ 10044634 f i libucrt:output.obj
 0001:000436a6       ?type_case_s@?$output_processor@DV?$string_output_adapter@D@__crt_stdio_output@@V?$format_validation_base@DV?$string_output_adapter@D@__crt_stdio_output@@@2@@__crt_stdio_output@@AAE_NXZ 100446a6 f i libucrt:output.obj
 0001:00043718       ?type_case_s@?$output_processor@DV?$string_output_adapter@D@__crt_stdio_output@@V?$positional_parameter_base@DV?$string_output_adapter@D@__crt_stdio_output@@@2@@__crt_stdio_output@@AAE_NXZ 10044718 f i libucrt:output.obj
 0001:00043796       ?type_case_s@?$output_processor@DV?$string_output_adapter@D@__crt_stdio_output@@V?$standard_base@DV?$string_output_adapter@D@__crt_stdio_output@@@2@@__crt_stdio_output@@AAE_NXZ 10044796 f i libucrt:output.obj
 0001:00043808       ?type_case_s@?$output_processor@_WV?$stream_output_adapter@_W@__crt_stdio_output@@V?$format_validation_base@_WV?$stream_output_adapter@_W@__crt_stdio_output@@@2@@__crt_stdio_output@@AAE_NXZ 10044808 f i libucrt:output.obj
 0001:0004387c       ?type_case_s@?$output_processor@_WV?$stream_output_adapter@_W@__crt_stdio_output@@V?$positional_parameter_base@_WV?$stream_output_adapter@_W@__crt_stdio_output@@@2@@__crt_stdio_output@@AAE_NXZ 1004487c f i libucrt:output.obj
 0001:000438fc       ?type_case_s@?$output_processor@_WV?$stream_output_adapter@_W@__crt_stdio_output@@V?$standard_base@_WV?$stream_output_adapter@_W@__crt_stdio_output@@@2@@__crt_stdio_output@@AAE_NXZ 100448fc f i libucrt:output.obj
 0001:00043970       ?type_case_s@?$output_processor@_WV?$string_output_adapter@_W@__crt_stdio_output@@V?$format_validation_base@_WV?$string_output_adapter@_W@__crt_stdio_output@@@2@@__crt_stdio_output@@AAE_NXZ 10044970 f i libucrt:output.obj
 0001:000439e4       ?type_case_s@?$output_processor@_WV?$string_output_adapter@_W@__crt_stdio_output@@V?$positional_parameter_base@_WV?$string_output_adapter@_W@__crt_stdio_output@@@2@@__crt_stdio_output@@AAE_NXZ 100449e4 f i libucrt:output.obj
 0001:00043a64       ?type_case_s@?$output_processor@_WV?$string_output_adapter@_W@__crt_stdio_output@@V?$standard_base@_WV?$string_output_adapter@_W@__crt_stdio_output@@@2@@__crt_stdio_output@@AAE_NXZ 10044a64 f i libucrt:output.obj
 0001:00043ad8       ?type_case_s_compute_narrow_string_length@?$output_processor@DV?$stream_output_adapter@D@__crt_stdio_output@@V?$format_validation_base@DV?$stream_output_adapter@D@__crt_stdio_output@@@2@@__crt_stdio_output@@AAEHHD@Z 10044ad8 f i libucrt:output.obj
 0001:00043aee       ?type_case_s_compute_narrow_string_length@?$output_processor@DV?$stream_output_adapter@D@__crt_stdio_output@@V?$positional_parameter_base@DV?$stream_output_adapter@D@__crt_stdio_output@@@2@@__crt_stdio_output@@AAEHHD@Z 10044aee f i libucrt:output.obj
 0001:00043b04       ?type_case_s_compute_narrow_string_length@?$output_processor@DV?$stream_output_adapter@D@__crt_stdio_output@@V?$standard_base@DV?$stream_output_adapter@D@__crt_stdio_output@@@2@@__crt_stdio_output@@AAEHHD@Z 10044b04 f i libucrt:output.obj
 0001:00043b1a       ?type_case_s_compute_narrow_string_length@?$output_processor@DV?$string_output_adapter@D@__crt_stdio_output@@V?$format_validation_base@DV?$string_output_adapter@D@__crt_stdio_output@@@2@@__crt_stdio_output@@AAEHHD@Z 10044b1a f i libucrt:output.obj
 0001:00043b30       ?type_case_s_compute_narrow_string_length@?$output_processor@DV?$string_output_adapter@D@__crt_stdio_output@@V?$positional_parameter_base@DV?$string_output_adapter@D@__crt_stdio_output@@@2@@__crt_stdio_output@@AAEHHD@Z 10044b30 f i libucrt:output.obj
 0001:00043b46       ?type_case_s_compute_narrow_string_length@?$output_processor@DV?$string_output_adapter@D@__crt_stdio_output@@V?$standard_base@DV?$string_output_adapter@D@__crt_stdio_output@@@2@@__crt_stdio_output@@AAEHHD@Z 10044b46 f i libucrt:output.obj
 0001:00043b5c       ?type_case_s_compute_narrow_string_length@?$output_processor@_WV?$stream_output_adapter@_W@__crt_stdio_output@@V?$format_validation_base@_WV?$stream_output_adapter@_W@__crt_stdio_output@@@2@@__crt_stdio_output@@AAEHH_W@Z 10044b5c f i libucrt:output.obj
 0001:00043bb1       ?type_case_s_compute_narrow_string_length@?$output_processor@_WV?$stream_output_adapter@_W@__crt_stdio_output@@V?$positional_parameter_base@_WV?$stream_output_adapter@_W@__crt_stdio_output@@@2@@__crt_stdio_output@@AAEHH_W@Z 10044bb1 f i libucrt:output.obj
 0001:00043c06       ?type_case_s_compute_narrow_string_length@?$output_processor@_WV?$stream_output_adapter@_W@__crt_stdio_output@@V?$standard_base@_WV?$stream_output_adapter@_W@__crt_stdio_output@@@2@@__crt_stdio_output@@AAEHH_W@Z 10044c06 f i libucrt:output.obj
 0001:00043c5b       ?type_case_s_compute_narrow_string_length@?$output_processor@_WV?$string_output_adapter@_W@__crt_stdio_output@@V?$format_validation_base@_WV?$string_output_adapter@_W@__crt_stdio_output@@@2@@__crt_stdio_output@@AAEHH_W@Z 10044c5b f i libucrt:output.obj
 0001:00043cb0       ?type_case_s_compute_narrow_string_length@?$output_processor@_WV?$string_output_adapter@_W@__crt_stdio_output@@V?$positional_parameter_base@_WV?$string_output_adapter@_W@__crt_stdio_output@@@2@@__crt_stdio_output@@AAEHH_W@Z 10044cb0 f i libucrt:output.obj
 0001:00043d05       ?type_case_s_compute_narrow_string_length@?$output_processor@_WV?$string_output_adapter@_W@__crt_stdio_output@@V?$standard_base@_WV?$string_output_adapter@_W@__crt_stdio_output@@@2@@__crt_stdio_output@@AAEHH_W@Z 10044d05 f i libucrt:output.obj
 0001:00043d5a       ?type_case_u@?$output_processor@DV?$stream_output_adapter@D@__crt_stdio_output@@V?$format_validation_base@DV?$stream_output_adapter@D@__crt_stdio_output@@@2@@__crt_stdio_output@@AAE_NXZ 10044d5a f i libucrt:output.obj
 0001:00043d62       ?type_case_u@?$output_processor@DV?$stream_output_adapter@D@__crt_stdio_output@@V?$positional_parameter_base@DV?$stream_output_adapter@D@__crt_stdio_output@@@2@@__crt_stdio_output@@AAE_NXZ 10044d62 f i libucrt:output.obj
 0001:00043d6a       ?type_case_u@?$output_processor@DV?$stream_output_adapter@D@__crt_stdio_output@@V?$standard_base@DV?$stream_output_adapter@D@__crt_stdio_output@@@2@@__crt_stdio_output@@AAE_NXZ 10044d6a f i libucrt:output.obj
 0001:00043d72       ?type_case_u@?$output_processor@DV?$string_output_adapter@D@__crt_stdio_output@@V?$format_validation_base@DV?$string_output_adapter@D@__crt_stdio_output@@@2@@__crt_stdio_output@@AAE_NXZ 10044d72 f i libucrt:output.obj
 0001:00043d7a       ?type_case_u@?$output_processor@DV?$string_output_adapter@D@__crt_stdio_output@@V?$positional_parameter_base@DV?$string_output_adapter@D@__crt_stdio_output@@@2@@__crt_stdio_output@@AAE_NXZ 10044d7a f i libucrt:output.obj
 0001:00043d82       ?type_case_u@?$output_processor@DV?$string_output_adapter@D@__crt_stdio_output@@V?$standard_base@DV?$string_output_adapter@D@__crt_stdio_output@@@2@@__crt_stdio_output@@AAE_NXZ 10044d82 f i libucrt:output.obj
 0001:00043d8a       ?type_case_u@?$output_processor@_WV?$stream_output_adapter@_W@__crt_stdio_output@@V?$format_validation_base@_WV?$stream_output_adapter@_W@__crt_stdio_output@@@2@@__crt_stdio_output@@AAE_NXZ 10044d8a f i libucrt:output.obj
 0001:00043d92       ?type_case_u@?$output_processor@_WV?$stream_output_adapter@_W@__crt_stdio_output@@V?$positional_parameter_base@_WV?$stream_output_adapter@_W@__crt_stdio_output@@@2@@__crt_stdio_output@@AAE_NXZ 10044d92 f i libucrt:output.obj
 0001:00043d9a       ?type_case_u@?$output_processor@_WV?$stream_output_adapter@_W@__crt_stdio_output@@V?$standard_base@_WV?$stream_output_adapter@_W@__crt_stdio_output@@@2@@__crt_stdio_output@@AAE_NXZ 10044d9a f i libucrt:output.obj
 0001:00043da2       ?type_case_u@?$output_processor@_WV?$string_output_adapter@_W@__crt_stdio_output@@V?$format_validation_base@_WV?$string_output_adapter@_W@__crt_stdio_output@@@2@@__crt_stdio_output@@AAE_NXZ 10044da2 f i libucrt:output.obj
 0001:00043daa       ?type_case_u@?$output_processor@_WV?$string_output_adapter@_W@__crt_stdio_output@@V?$positional_parameter_base@_WV?$string_output_adapter@_W@__crt_stdio_output@@@2@@__crt_stdio_output@@AAE_NXZ 10044daa f i libucrt:output.obj
 0001:00043db2       ?type_case_u@?$output_processor@_WV?$string_output_adapter@_W@__crt_stdio_output@@V?$standard_base@_WV?$string_output_adapter@_W@__crt_stdio_output@@@2@@__crt_stdio_output@@AAE_NXZ 10044db2 f i libucrt:output.obj
 0001:00043dba       ?type_case_x@?$output_processor@DV?$stream_output_adapter@D@__crt_stdio_output@@V?$format_validation_base@DV?$stream_output_adapter@D@__crt_stdio_output@@@2@@__crt_stdio_output@@AAE_NXZ 10044dba f i libucrt:output.obj
 0001:00043dc2       ?type_case_x@?$output_processor@DV?$stream_output_adapter@D@__crt_stdio_output@@V?$positional_parameter_base@DV?$stream_output_adapter@D@__crt_stdio_output@@@2@@__crt_stdio_output@@AAE_NXZ 10044dc2 f i libucrt:output.obj
 0001:00043dca       ?type_case_x@?$output_processor@DV?$stream_output_adapter@D@__crt_stdio_output@@V?$standard_base@DV?$stream_output_adapter@D@__crt_stdio_output@@@2@@__crt_stdio_output@@AAE_NXZ 10044dca f i libucrt:output.obj
 0001:00043dd2       ?type_case_x@?$output_processor@DV?$string_output_adapter@D@__crt_stdio_output@@V?$format_validation_base@DV?$string_output_adapter@D@__crt_stdio_output@@@2@@__crt_stdio_output@@AAE_NXZ 10044dd2 f i libucrt:output.obj
 0001:00043dda       ?type_case_x@?$output_processor@DV?$string_output_adapter@D@__crt_stdio_output@@V?$positional_parameter_base@DV?$string_output_adapter@D@__crt_stdio_output@@@2@@__crt_stdio_output@@AAE_NXZ 10044dda f i libucrt:output.obj
 0001:00043de2       ?type_case_x@?$output_processor@DV?$string_output_adapter@D@__crt_stdio_output@@V?$standard_base@DV?$string_output_adapter@D@__crt_stdio_output@@@2@@__crt_stdio_output@@AAE_NXZ 10044de2 f i libucrt:output.obj
 0001:00043dea       ?type_case_x@?$output_processor@_WV?$stream_output_adapter@_W@__crt_stdio_output@@V?$format_validation_base@_WV?$stream_output_adapter@_W@__crt_stdio_output@@@2@@__crt_stdio_output@@AAE_NXZ 10044dea f i libucrt:output.obj
 0001:00043df2       ?type_case_x@?$output_processor@_WV?$stream_output_adapter@_W@__crt_stdio_output@@V?$positional_parameter_base@_WV?$stream_output_adapter@_W@__crt_stdio_output@@@2@@__crt_stdio_output@@AAE_NXZ 10044df2 f i libucrt:output.obj
 0001:00043dfa       ?type_case_x@?$output_processor@_WV?$stream_output_adapter@_W@__crt_stdio_output@@V?$standard_base@_WV?$stream_output_adapter@_W@__crt_stdio_output@@@2@@__crt_stdio_output@@AAE_NXZ 10044dfa f i libucrt:output.obj
 0001:00043e02       ?type_case_x@?$output_processor@_WV?$string_output_adapter@_W@__crt_stdio_output@@V?$format_validation_base@_WV?$string_output_adapter@_W@__crt_stdio_output@@@2@@__crt_stdio_output@@AAE_NXZ 10044e02 f i libucrt:output.obj
 0001:00043e0a       ?type_case_x@?$output_processor@_WV?$string_output_adapter@_W@__crt_stdio_output@@V?$positional_parameter_base@_WV?$string_output_adapter@_W@__crt_stdio_output@@@2@@__crt_stdio_output@@AAE_NXZ 10044e0a f i libucrt:output.obj
 0001:00043e12       ?type_case_x@?$output_processor@_WV?$string_output_adapter@_W@__crt_stdio_output@@V?$standard_base@_WV?$string_output_adapter@_W@__crt_stdio_output@@@2@@__crt_stdio_output@@AAE_NXZ 10044e12 f i libucrt:output.obj
 0001:00043e1a       ?unset_flag@?$output_processor@DV?$stream_output_adapter@D@__crt_stdio_output@@V?$format_validation_base@DV?$stream_output_adapter@D@__crt_stdio_output@@@2@@__crt_stdio_output@@AAEXI@Z 10044e1a f i libucrt:output.obj
 0001:00043e2b       ?unset_flag@?$output_processor@DV?$stream_output_adapter@D@__crt_stdio_output@@V?$positional_parameter_base@DV?$stream_output_adapter@D@__crt_stdio_output@@@2@@__crt_stdio_output@@AAEXI@Z 10044e2b f i libucrt:output.obj
 0001:00043e3c       ?unset_flag@?$output_processor@DV?$stream_output_adapter@D@__crt_stdio_output@@V?$standard_base@DV?$stream_output_adapter@D@__crt_stdio_output@@@2@@__crt_stdio_output@@AAEXI@Z 10044e3c f i libucrt:output.obj
 0001:00043e4d       ?unset_flag@?$output_processor@DV?$string_output_adapter@D@__crt_stdio_output@@V?$format_validation_base@DV?$string_output_adapter@D@__crt_stdio_output@@@2@@__crt_stdio_output@@AAEXI@Z 10044e4d f i libucrt:output.obj
 0001:00043e5e       ?unset_flag@?$output_processor@DV?$string_output_adapter@D@__crt_stdio_output@@V?$positional_parameter_base@DV?$string_output_adapter@D@__crt_stdio_output@@@2@@__crt_stdio_output@@AAEXI@Z 10044e5e f i libucrt:output.obj
 0001:00043e6f       ?unset_flag@?$output_processor@DV?$string_output_adapter@D@__crt_stdio_output@@V?$standard_base@DV?$string_output_adapter@D@__crt_stdio_output@@@2@@__crt_stdio_output@@AAEXI@Z 10044e6f f i libucrt:output.obj
 0001:00043e80       ?unset_flag@?$output_processor@_WV?$stream_output_adapter@_W@__crt_stdio_output@@V?$format_validation_base@_WV?$stream_output_adapter@_W@__crt_stdio_output@@@2@@__crt_stdio_output@@AAEXI@Z 10044e80 f i libucrt:output.obj
 0001:00043e91       ?unset_flag@?$output_processor@_WV?$stream_output_adapter@_W@__crt_stdio_output@@V?$positional_parameter_base@_WV?$stream_output_adapter@_W@__crt_stdio_output@@@2@@__crt_stdio_output@@AAEXI@Z 10044e91 f i libucrt:output.obj
 0001:00043ea2       ?unset_flag@?$output_processor@_WV?$stream_output_adapter@_W@__crt_stdio_output@@V?$standard_base@_WV?$stream_output_adapter@_W@__crt_stdio_output@@@2@@__crt_stdio_output@@AAEXI@Z 10044ea2 f i libucrt:output.obj
 0001:00043eb3       ?unset_flag@?$output_processor@_WV?$string_output_adapter@_W@__crt_stdio_output@@V?$format_validation_base@_WV?$string_output_adapter@_W@__crt_stdio_output@@@2@@__crt_stdio_output@@AAEXI@Z 10044eb3 f i libucrt:output.obj
 0001:00043ec4       ?unset_flag@?$output_processor@_WV?$string_output_adapter@_W@__crt_stdio_output@@V?$positional_parameter_base@_WV?$string_output_adapter@_W@__crt_stdio_output@@@2@@__crt_stdio_output@@AAEXI@Z 10044ec4 f i libucrt:output.obj
 0001:00043ed5       ?unset_flag@?$output_processor@_WV?$string_output_adapter@_W@__crt_stdio_output@@V?$standard_base@_WV?$string_output_adapter@_W@__crt_stdio_output@@@2@@__crt_stdio_output@@AAEXI@Z 10044ed5 f i libucrt:output.obj
 0001:00043ee6       ?update_field_width@?$positional_parameter_base@DV?$stream_output_adapter@D@__crt_stdio_output@@@__crt_stdio_output@@IAE_NXZ 10044ee6 f i libucrt:output.obj
 0001:00043fbb       ?update_field_width@?$positional_parameter_base@DV?$string_output_adapter@D@__crt_stdio_output@@@__crt_stdio_output@@IAE_NXZ 10044fbb f i libucrt:output.obj
 0001:00044090       ?update_field_width@?$positional_parameter_base@_WV?$stream_output_adapter@_W@__crt_stdio_output@@@__crt_stdio_output@@IAE_NXZ 10045090 f i libucrt:output.obj
 0001:00044166       ?update_field_width@?$positional_parameter_base@_WV?$string_output_adapter@_W@__crt_stdio_output@@@__crt_stdio_output@@IAE_NXZ 10045166 f i libucrt:output.obj
 0001:0004423c       ?update_field_width@?$standard_base@DV?$stream_output_adapter@D@__crt_stdio_output@@@__crt_stdio_output@@IAE_NXZ 1004523c f i libucrt:output.obj
 0001:0004424d       ?update_field_width@?$standard_base@DV?$string_output_adapter@D@__crt_stdio_output@@@__crt_stdio_output@@IAE_NXZ 1004524d f i libucrt:output.obj
 0001:0004425e       ?update_field_width@?$standard_base@_WV?$stream_output_adapter@_W@__crt_stdio_output@@@__crt_stdio_output@@IAE_NXZ 1004525e f i libucrt:output.obj
 0001:0004426f       ?update_field_width@?$standard_base@_WV?$string_output_adapter@_W@__crt_stdio_output@@@__crt_stdio_output@@IAE_NXZ 1004526f f i libucrt:output.obj
 0001:00044280       ?update_precision@?$positional_parameter_base@DV?$stream_output_adapter@D@__crt_stdio_output@@@__crt_stdio_output@@IAE_NXZ 10045280 f i libucrt:output.obj
 0001:00044355       ?update_precision@?$positional_parameter_base@DV?$string_output_adapter@D@__crt_stdio_output@@@__crt_stdio_output@@IAE_NXZ 10045355 f i libucrt:output.obj
 0001:0004442a       ?update_precision@?$positional_parameter_base@_WV?$stream_output_adapter@_W@__crt_stdio_output@@@__crt_stdio_output@@IAE_NXZ 1004542a f i libucrt:output.obj
 0001:00044500       ?update_precision@?$positional_parameter_base@_WV?$string_output_adapter@_W@__crt_stdio_output@@@__crt_stdio_output@@IAE_NXZ 10045500 f i libucrt:output.obj
 0001:000445d6       ?update_precision@?$standard_base@DV?$stream_output_adapter@D@__crt_stdio_output@@@__crt_stdio_output@@IAE_NXZ 100455d6 f i libucrt:output.obj
 0001:000445e7       ?update_precision@?$standard_base@DV?$string_output_adapter@D@__crt_stdio_output@@@__crt_stdio_output@@IAE_NXZ 100455e7 f i libucrt:output.obj
 0001:000445f8       ?update_precision@?$standard_base@_WV?$stream_output_adapter@_W@__crt_stdio_output@@@__crt_stdio_output@@IAE_NXZ 100455f8 f i libucrt:output.obj
 0001:00044609       ?update_precision@?$standard_base@_WV?$string_output_adapter@_W@__crt_stdio_output@@@__crt_stdio_output@@IAE_NXZ 10045609 f i libucrt:output.obj
 0001:0004461a       ?valid@__crt_stdio_stream@@QBE_NXZ 1004561a f i libucrt:output.obj
 0001:00044621       ?validate@?$stream_output_adapter@D@__crt_stdio_output@@QBE_NAAV__crt_cached_ptd_host@@@Z 10045621 f i libucrt:output.obj
 0001:00044659       ?validate@?$stream_output_adapter@_W@__crt_stdio_output@@QBE_NAAV__crt_cached_ptd_host@@@Z 10045659 f i libucrt:output.obj
 0001:0004468a       ?validate@?$string_output_adapter@D@__crt_stdio_output@@QBE_NAAV__crt_cached_ptd_host@@@Z 1004568a f i libucrt:output.obj
 0001:000446bb       ?validate@?$string_output_adapter@_W@__crt_stdio_output@@QBE_NAAV__crt_cached_ptd_host@@@Z 100456bb f i libucrt:output.obj
 0001:000446ec       ?validate_and_store_parameter_data@?$positional_parameter_base@DV?$stream_output_adapter@D@__crt_stdio_output@@@__crt_stdio_output@@AAE_NAAUparameter_data@12@W4parameter_type@12@DW4length_modifier@2@@Z 100456ec f i libucrt:output.obj
 0001:0004474e       ?validate_and_store_parameter_data@?$positional_parameter_base@DV?$string_output_adapter@D@__crt_stdio_output@@@__crt_stdio_output@@AAE_NAAUparameter_data@12@W4parameter_type@12@DW4length_modifier@2@@Z 1004574e f i libucrt:output.obj
 0001:000447b0       ?validate_and_store_parameter_data@?$positional_parameter_base@_WV?$stream_output_adapter@_W@__crt_stdio_output@@@__crt_stdio_output@@AAE_NAAUparameter_data@12@W4parameter_type@12@_WW4length_modifier@2@@Z 100457b0 f i libucrt:output.obj
 0001:00044814       ?validate_and_store_parameter_data@?$positional_parameter_base@_WV?$string_output_adapter@_W@__crt_stdio_output@@@__crt_stdio_output@@AAE_NAAUparameter_data@12@W4parameter_type@12@_WW4length_modifier@2@@Z 10045814 f i libucrt:output.obj
 0001:00044878       ?validate_and_update_state_at_beginning_of_format_character@?$positional_parameter_base@DV?$stream_output_adapter@D@__crt_stdio_output@@@__crt_stdio_output@@IAE_NXZ 10045878 f i libucrt:output.obj
 0001:0004498f       ?validate_and_update_state_at_beginning_of_format_character@?$positional_parameter_base@DV?$string_output_adapter@D@__crt_stdio_output@@@__crt_stdio_output@@IAE_NXZ 1004598f f i libucrt:output.obj
 0001:00044aa6       ?validate_and_update_state_at_beginning_of_format_character@?$positional_parameter_base@_WV?$stream_output_adapter@_W@__crt_stdio_output@@@__crt_stdio_output@@IAE_NXZ 10045aa6 f i libucrt:output.obj
 0001:00044bca       ?validate_and_update_state_at_beginning_of_format_character@?$positional_parameter_base@_WV?$string_output_adapter@_W@__crt_stdio_output@@@__crt_stdio_output@@IAE_NXZ 10045bca f i libucrt:output.obj
 0001:00044cee       ?validate_and_update_state_at_beginning_of_format_character@?$standard_base@DV?$stream_output_adapter@D@__crt_stdio_output@@@__crt_stdio_output@@IAE_NXZ 10045cee f i libucrt:output.obj
 0001:00044cf1       ?validate_and_update_state_at_beginning_of_format_character@?$standard_base@DV?$string_output_adapter@D@__crt_stdio_output@@@__crt_stdio_output@@IAE_NXZ 10045cf1 f i libucrt:output.obj
 0001:00044cf4       ?validate_and_update_state_at_beginning_of_format_character@?$standard_base@_WV?$stream_output_adapter@_W@__crt_stdio_output@@@__crt_stdio_output@@IAE_NXZ 10045cf4 f i libucrt:output.obj
 0001:00044cf7       ?validate_and_update_state_at_beginning_of_format_character@?$standard_base@_WV?$string_output_adapter@_W@__crt_stdio_output@@@__crt_stdio_output@@IAE_NXZ 10045cf7 f i libucrt:output.obj
 0001:00044cfa       ?validate_and_update_state_at_end_of_format_string@?$format_validation_base@DV?$stream_output_adapter@D@__crt_stdio_output@@@__crt_stdio_output@@IAE_NXZ 10045cfa f i libucrt:output.obj
 0001:00044d2b       ?validate_and_update_state_at_end_of_format_string@?$format_validation_base@DV?$string_output_adapter@D@__crt_stdio_output@@@__crt_stdio_output@@IAE_NXZ 10045d2b f i libucrt:output.obj
 0001:00044d5c       ?validate_and_update_state_at_end_of_format_string@?$format_validation_base@_WV?$stream_output_adapter@_W@__crt_stdio_output@@@__crt_stdio_output@@IAE_NXZ 10045d5c f i libucrt:output.obj
 0001:00044d8d       ?validate_and_update_state_at_end_of_format_string@?$format_validation_base@_WV?$string_output_adapter@_W@__crt_stdio_output@@@__crt_stdio_output@@IAE_NXZ 10045d8d f i libucrt:output.obj
 0001:00044dbe       ?validate_and_update_state_at_end_of_format_string@?$positional_parameter_base@DV?$stream_output_adapter@D@__crt_stdio_output@@@__crt_stdio_output@@IAE_NXZ 10045dbe f i libucrt:output.obj
 0001:00044e78       ?validate_and_update_state_at_end_of_format_string@?$positional_parameter_base@DV?$string_output_adapter@D@__crt_stdio_output@@@__crt_stdio_output@@IAE_NXZ 10045e78 f i libucrt:output.obj
 0001:00044f32       ?validate_and_update_state_at_end_of_format_string@?$positional_parameter_base@_WV?$stream_output_adapter@_W@__crt_stdio_output@@@__crt_stdio_output@@IAE_NXZ 10045f32 f i libucrt:output.obj
 0001:00044fec       ?validate_and_update_state_at_end_of_format_string@?$positional_parameter_base@_WV?$string_output_adapter@_W@__crt_stdio_output@@@__crt_stdio_output@@IAE_NXZ 10045fec f i libucrt:output.obj
 0001:000450a6       ?validate_and_update_state_at_end_of_format_string@?$standard_base@DV?$stream_output_adapter@D@__crt_stdio_output@@@__crt_stdio_output@@IBE_NXZ 100460a6 f i libucrt:output.obj
 0001:000450a9       ?validate_and_update_state_at_end_of_format_string@?$standard_base@DV?$string_output_adapter@D@__crt_stdio_output@@@__crt_stdio_output@@IBE_NXZ 100460a9 f i libucrt:output.obj
 0001:000450ac       ?validate_and_update_state_at_end_of_format_string@?$standard_base@_WV?$stream_output_adapter@_W@__crt_stdio_output@@@__crt_stdio_output@@IBE_NXZ 100460ac f i libucrt:output.obj
 0001:000450af       ?validate_and_update_state_at_end_of_format_string@?$standard_base@_WV?$string_output_adapter@_W@__crt_stdio_output@@@__crt_stdio_output@@IBE_NXZ 100460af f i libucrt:output.obj
 0001:000450b2       ?validate_state_for_type_case_a@?$positional_parameter_base@DV?$stream_output_adapter@D@__crt_stdio_output@@@__crt_stdio_output@@IAE_NXZ 100460b2 f i libucrt:output.obj
 0001:00045111       ?validate_state_for_type_case_a@?$positional_parameter_base@DV?$string_output_adapter@D@__crt_stdio_output@@@__crt_stdio_output@@IAE_NXZ 10046111 f i libucrt:output.obj
 0001:00045170       ?validate_state_for_type_case_a@?$positional_parameter_base@_WV?$stream_output_adapter@_W@__crt_stdio_output@@@__crt_stdio_output@@IAE_NXZ 10046170 f i libucrt:output.obj
 0001:000451cf       ?validate_state_for_type_case_a@?$positional_parameter_base@_WV?$string_output_adapter@_W@__crt_stdio_output@@@__crt_stdio_output@@IAE_NXZ 100461cf f i libucrt:output.obj
 0001:0004522e       ?validate_state_for_type_case_a@?$standard_base@DV?$stream_output_adapter@D@__crt_stdio_output@@@__crt_stdio_output@@IBE_NXZ 1004622e f i libucrt:output.obj
 0001:00045231       ?validate_state_for_type_case_a@?$standard_base@DV?$string_output_adapter@D@__crt_stdio_output@@@__crt_stdio_output@@IBE_NXZ 10046231 f i libucrt:output.obj
 0001:00045234       ?validate_state_for_type_case_a@?$standard_base@_WV?$stream_output_adapter@_W@__crt_stdio_output@@@__crt_stdio_output@@IBE_NXZ 10046234 f i libucrt:output.obj
 0001:00045237       ?validate_state_for_type_case_a@?$standard_base@_WV?$string_output_adapter@_W@__crt_stdio_output@@@__crt_stdio_output@@IBE_NXZ 10046237 f i libucrt:output.obj
 0001:0004523a       ?validate_stream_is_ansi_if_required@?$__acrt_stdio_char_traits@D@@SA_NQAU_iobuf@@@Z 1004623a f i libucrt:output.obj
 0001:000452c1       ?validate_stream_is_ansi_if_required@?$__acrt_stdio_char_traits@_W@@SA_NQAU_iobuf@@@Z 100462c1 f i libucrt:output.obj
 0001:000452c4       ?wide_null_string@?$output_processor@DV?$stream_output_adapter@D@__crt_stdio_output@@V?$format_validation_base@DV?$stream_output_adapter@D@__crt_stdio_output@@@2@@__crt_stdio_output@@CAPA_WXZ 100462c4 f i libucrt:output.obj
 0001:000452ca       ?wide_null_string@?$output_processor@DV?$stream_output_adapter@D@__crt_stdio_output@@V?$positional_parameter_base@DV?$stream_output_adapter@D@__crt_stdio_output@@@2@@__crt_stdio_output@@CAPA_WXZ 100462ca f i libucrt:output.obj
 0001:000452d0       ?wide_null_string@?$output_processor@DV?$stream_output_adapter@D@__crt_stdio_output@@V?$standard_base@DV?$stream_output_adapter@D@__crt_stdio_output@@@2@@__crt_stdio_output@@CAPA_WXZ 100462d0 f i libucrt:output.obj
 0001:000452d6       ?wide_null_string@?$output_processor@DV?$string_output_adapter@D@__crt_stdio_output@@V?$format_validation_base@DV?$string_output_adapter@D@__crt_stdio_output@@@2@@__crt_stdio_output@@CAPA_WXZ 100462d6 f i libucrt:output.obj
 0001:000452dc       ?wide_null_string@?$output_processor@DV?$string_output_adapter@D@__crt_stdio_output@@V?$positional_parameter_base@DV?$string_output_adapter@D@__crt_stdio_output@@@2@@__crt_stdio_output@@CAPA_WXZ 100462dc f i libucrt:output.obj
 0001:000452e2       ?wide_null_string@?$output_processor@DV?$string_output_adapter@D@__crt_stdio_output@@V?$standard_base@DV?$string_output_adapter@D@__crt_stdio_output@@@2@@__crt_stdio_output@@CAPA_WXZ 100462e2 f i libucrt:output.obj
 0001:000452e8       ?wide_null_string@?$output_processor@_WV?$stream_output_adapter@_W@__crt_stdio_output@@V?$format_validation_base@_WV?$stream_output_adapter@_W@__crt_stdio_output@@@2@@__crt_stdio_output@@CAPA_WXZ 100462e8 f i libucrt:output.obj
 0001:000452ee       ?wide_null_string@?$output_processor@_WV?$stream_output_adapter@_W@__crt_stdio_output@@V?$positional_parameter_base@_WV?$stream_output_adapter@_W@__crt_stdio_output@@@2@@__crt_stdio_output@@CAPA_WXZ 100462ee f i libucrt:output.obj
 0001:000452f4       ?wide_null_string@?$output_processor@_WV?$stream_output_adapter@_W@__crt_stdio_output@@V?$standard_base@_WV?$stream_output_adapter@_W@__crt_stdio_output@@@2@@__crt_stdio_output@@CAPA_WXZ 100462f4 f i libucrt:output.obj
 0001:000452fa       ?wide_null_string@?$output_processor@_WV?$string_output_adapter@_W@__crt_stdio_output@@V?$format_validation_base@_WV?$string_output_adapter@_W@__crt_stdio_output@@@2@@__crt_stdio_output@@CAPA_WXZ 100462fa f i libucrt:output.obj
 0001:00045300       ?wide_null_string@?$output_processor@_WV?$string_output_adapter@_W@__crt_stdio_output@@V?$positional_parameter_base@_WV?$string_output_adapter@_W@__crt_stdio_output@@@2@@__crt_stdio_output@@CAPA_WXZ 10046300 f i libucrt:output.obj
 0001:00045306       ?wide_null_string@?$output_processor@_WV?$string_output_adapter@_W@__crt_stdio_output@@V?$standard_base@_WV?$string_output_adapter@_W@__crt_stdio_output@@@2@@__crt_stdio_output@@CAPA_WXZ 10046306 f i libucrt:output.obj
 0001:0004530c       ?write_character@?$output_adapter_common@DV?$stream_output_adapter@D@__crt_stdio_output@@@__crt_stdio_output@@QBEXDQAHAAV__crt_cached_ptd_host@@@Z 1004630c f i libucrt:output.obj
 0001:0004532e       ?write_character@?$output_adapter_common@_WV?$stream_output_adapter@_W@__crt_stdio_output@@@__crt_stdio_output@@QBEX_WQAHAAV__crt_cached_ptd_host@@@Z 1004632e f i libucrt:output.obj
 0001:00045350       ?write_character@?$string_output_adapter@D@__crt_stdio_output@@QBE_NDQAHAAV__crt_cached_ptd_host@@@Z 10046350 f i libucrt:output.obj
 0001:00045392       ?write_character@?$string_output_adapter@_W@__crt_stdio_output@@QBE_N_WQAHAAV__crt_cached_ptd_host@@@Z 10046392 f i libucrt:output.obj
 0001:000453d7       ?write_character_without_count_update@?$stream_output_adapter@D@__crt_stdio_output@@QBE_NDAAV__crt_cached_ptd_host@@@Z 100463d7 f i libucrt:output.obj
 0001:00045411       ?write_character_without_count_update@?$stream_output_adapter@_W@__crt_stdio_output@@QBE_N_WAAV__crt_cached_ptd_host@@@Z 10046411 f i libucrt:output.obj
 0001:0004544e       ?write_stored_string_tchar@?$output_processor@DV?$stream_output_adapter@D@__crt_stdio_output@@V?$format_validation_base@DV?$stream_output_adapter@D@__crt_stdio_output@@@2@@__crt_stdio_output@@AAE_ND@Z 1004644e f i libucrt:output.obj
 0001:000454f9       ?write_stored_string_tchar@?$output_processor@DV?$stream_output_adapter@D@__crt_stdio_output@@V?$positional_parameter_base@DV?$stream_output_adapter@D@__crt_stdio_output@@@2@@__crt_stdio_output@@AAE_ND@Z 100464f9 f i libucrt:output.obj
 0001:000455a4       ?write_stored_string_tchar@?$output_processor@DV?$stream_output_adapter@D@__crt_stdio_output@@V?$standard_base@DV?$stream_output_adapter@D@__crt_stdio_output@@@2@@__crt_stdio_output@@AAE_ND@Z 100465a4 f i libucrt:output.obj
 0001:0004564f       ?write_stored_string_tchar@?$output_processor@DV?$string_output_adapter@D@__crt_stdio_output@@V?$format_validation_base@DV?$string_output_adapter@D@__crt_stdio_output@@@2@@__crt_stdio_output@@AAE_ND@Z 1004664f f i libucrt:output.obj
 0001:000456fa       ?write_stored_string_tchar@?$output_processor@DV?$string_output_adapter@D@__crt_stdio_output@@V?$positional_parameter_base@DV?$string_output_adapter@D@__crt_stdio_output@@@2@@__crt_stdio_output@@AAE_ND@Z 100466fa f i libucrt:output.obj
 0001:000457a5       ?write_stored_string_tchar@?$output_processor@DV?$string_output_adapter@D@__crt_stdio_output@@V?$standard_base@DV?$string_output_adapter@D@__crt_stdio_output@@@2@@__crt_stdio_output@@AAE_ND@Z 100467a5 f i libucrt:output.obj
 0001:00045850       ?write_stored_string_tchar@?$output_processor@_WV?$stream_output_adapter@_W@__crt_stdio_output@@V?$format_validation_base@_WV?$stream_output_adapter@_W@__crt_stdio_output@@@2@@__crt_stdio_output@@AAE_N_W@Z 10046850 f i libucrt:output.obj
 0001:000458fd       ?write_stored_string_tchar@?$output_processor@_WV?$stream_output_adapter@_W@__crt_stdio_output@@V?$positional_parameter_base@_WV?$stream_output_adapter@_W@__crt_stdio_output@@@2@@__crt_stdio_output@@AAE_N_W@Z 100468fd f i libucrt:output.obj
 0001:000459aa       ?write_stored_string_tchar@?$output_processor@_WV?$stream_output_adapter@_W@__crt_stdio_output@@V?$standard_base@_WV?$stream_output_adapter@_W@__crt_stdio_output@@@2@@__crt_stdio_output@@AAE_N_W@Z 100469aa f i libucrt:output.obj
 0001:00045a57       ?write_stored_string_tchar@?$output_processor@_WV?$string_output_adapter@_W@__crt_stdio_output@@V?$format_validation_base@_WV?$string_output_adapter@_W@__crt_stdio_output@@@2@@__crt_stdio_output@@AAE_N_W@Z 10046a57 f i libucrt:output.obj
 0001:00045b34       ?write_stored_string_tchar@?$output_processor@_WV?$string_output_adapter@_W@__crt_stdio_output@@V?$positional_parameter_base@_WV?$string_output_adapter@_W@__crt_stdio_output@@@2@@__crt_stdio_output@@AAE_N_W@Z 10046b34 f i libucrt:output.obj
 0001:00045c11       ?write_stored_string_tchar@?$output_processor@_WV?$string_output_adapter@_W@__crt_stdio_output@@V?$standard_base@_WV?$string_output_adapter@_W@__crt_stdio_output@@@2@@__crt_stdio_output@@AAE_N_W@Z 10046c11 f i libucrt:output.obj
 0001:00045cee       ?write_string@?$stream_output_adapter@D@__crt_stdio_output@@QBEXQBDHQAHAAV__crt_cached_ptd_host@@@Z 10046cee f i libucrt:output.obj
 0001:00045d1a       ?write_string@?$stream_output_adapter@_W@__crt_stdio_output@@QBEXQB_WHQAHAAV__crt_cached_ptd_host@@@Z 10046d1a f i libucrt:output.obj
 0001:00045d46       ?write_string@?$string_output_adapter@D@__crt_stdio_output@@QBEXQBDHQAHAAV__crt_cached_ptd_host@@@Z 10046d46 f i libucrt:output.obj
 0001:00045dad       ?write_string@?$string_output_adapter@_W@__crt_stdio_output@@QBEXQB_WHQAHAAV__crt_cached_ptd_host@@@Z 10046dad f i libucrt:output.obj
 0001:00045e1e       ?write_string_impl@?$output_adapter_common@DV?$stream_output_adapter@D@__crt_stdio_output@@@__crt_stdio_output@@IBEXQBDHQAHAAV__crt_cached_ptd_host@@@Z 10046e1e f i libucrt:output.obj
 0001:00045e9d       ?write_string_impl@?$output_adapter_common@_WV?$stream_output_adapter@_W@__crt_stdio_output@@@__crt_stdio_output@@IBEXQB_WHQAHAAV__crt_cached_ptd_host@@@Z 10046e9d f i libucrt:output.obj
 0001:00045f1f       ___acrt_isleadbyte_l_noupdate 10046f1f f i libucrt:output.obj
 0001:00045f3d       ___stdio_common_vfprintf   10046f3d f   libucrt:output.obj
 0001:00045fe1       ___stdio_common_vfprintf_p 10046fe1 f   libucrt:output.obj
 0001:00046085       ___stdio_common_vfprintf_s 10047085 f   libucrt:output.obj
 0001:00046129       ___stdio_common_vfwprintf  10047129 f   libucrt:output.obj
 0001:000461cd       ___stdio_common_vfwprintf_p 100471cd f   libucrt:output.obj
 0001:00046271       ___stdio_common_vfwprintf_s 10047271 f   libucrt:output.obj
 0001:00046315       ___stdio_common_vsnprintf_s 10047315 f   libucrt:output.obj
 0001:00046359       ___stdio_common_vsnwprintf_s 10047359 f   libucrt:output.obj
 0001:0004639d       ___stdio_common_vsprintf   1004739d f   libucrt:output.obj
 0001:000463de       ___stdio_common_vsprintf_p 100473de f   libucrt:output.obj
 0001:0004641f       ___stdio_common_vsprintf_s 1004741f f   libucrt:output.obj
 0001:00046460       ___stdio_common_vswprintf  10047460 f   libucrt:output.obj
 0001:000464a1       ___stdio_common_vswprintf_p 100474a1 f   libucrt:output.obj
 0001:000464e2       ___stdio_common_vswprintf_s 100474e2 f   libucrt:output.obj
 0001:00046523       __ctype_fast_check_internal 10047523 f i libucrt:output.obj
 0001:0004653d       __isdigit_fast_internal    1004753d f i libucrt:output.obj
 0001:00046557       __tolower_fast_internal    10047557 f i libucrt:output.obj
 0001:00046570       ??$?RE@__crt_internal_free_policy@@QBEXQBE@Z 10047570 f i libucrt:input.obj
 0001:00046684       ??$assemble_floating_point_ind@M@__crt_strtox@@YAXAAM@Z 10047684 f i libucrt:input.obj
 0001:00046694       ??$assemble_floating_point_ind@N@__crt_strtox@@YAXAAN@Z 10047694 f i libucrt:input.obj
 0001:000466a8       ??$assemble_floating_point_infinity@M@__crt_strtox@@YAX_NAAM@Z 100476a8 f i libucrt:input.obj
 0001:000466c1       ??$assemble_floating_point_infinity@N@__crt_strtox@@YAX_NAAN@Z 100476c1 f i libucrt:input.obj
 0001:000466de       ??$assemble_floating_point_qnan@M@__crt_strtox@@YAX_NAAM@Z 100476de f i libucrt:input.obj
 0001:000466f7       ??$assemble_floating_point_qnan@N@__crt_strtox@@YAX_NAAN@Z 100476f7 f i libucrt:input.obj
 0001:00046714       ??$assemble_floating_point_snan@M@__crt_strtox@@YAX_NAAM@Z 10047714 f i libucrt:input.obj
 0001:0004672d       ??$assemble_floating_point_snan@N@__crt_strtox@@YAX_NAAN@Z 1004772d f i libucrt:input.obj
 0001:0004674e       ??$assemble_floating_point_value_t@M@__crt_strtox@@YA?AW4SLD_STATUS@@_NH_KAAM@Z 1004774e f i libucrt:input.obj
 0001:0004677e       ??$assemble_floating_point_value_t@N@__crt_strtox@@YA?AW4SLD_STATUS@@_NH_KAAN@Z 1004777e f i libucrt:input.obj
 0001:000467c0       ??$assemble_floating_point_zero@M@__crt_strtox@@YAX_NAAM@Z 100477c0 f i libucrt:input.obj
 0001:000467d3       ??$assemble_floating_point_zero@N@__crt_strtox@@YAX_NAAN@Z 100477d3 f i libucrt:input.obj
 0001:00046a00       ??$convert_decimal_string_to_floating_type@M@__crt_strtox@@YA?AW4SLD_STATUS@@ABUfloating_point_string@0@AAM@Z 10047a00 f i libucrt:input.obj
 0001:00046a21       ??$convert_decimal_string_to_floating_type@N@__crt_strtox@@YA?AW4SLD_STATUS@@ABUfloating_point_string@0@AAN@Z 10047a21 f i libucrt:input.obj
 0001:00046a42       ??$convert_hexadecimal_string_to_floating_type@M@__crt_strtox@@YA?AW4SLD_STATUS@@ABUfloating_point_string@0@AAM@Z 10047a42 f i libucrt:input.obj
 0001:00046a63       ??$convert_hexadecimal_string_to_floating_type@N@__crt_strtox@@YA?AW4SLD_STATUS@@ABUfloating_point_string@0@AAN@Z 10047a63 f i libucrt:input.obj
 0001:00046a84       ??$fill_buffer@D@?$input_processor@DV?$stream_input_adapter@D@__crt_stdio_input@@@__crt_stdio_input@@CAXQADII@Z 10047a84 f i libucrt:input.obj
 0001:00046a87       ??$fill_buffer@D@?$input_processor@DV?$string_input_adapter@D@__crt_stdio_input@@@__crt_stdio_input@@CAXQADII@Z 10047a87 f i libucrt:input.obj
 0001:00046a8a       ??$fill_buffer@D@?$input_processor@_WV?$stream_input_adapter@_W@__crt_stdio_input@@@__crt_stdio_input@@CAXQADII@Z 10047a8a f i libucrt:input.obj
 0001:00046a8d       ??$fill_buffer@D@?$input_processor@_WV?$string_input_adapter@_W@__crt_stdio_input@@@__crt_stdio_input@@CAXQADII@Z 10047a8d f i libucrt:input.obj
 0001:00046a90       ??$fill_buffer@_W@?$input_processor@DV?$stream_input_adapter@D@__crt_stdio_input@@@__crt_stdio_input@@CAXQA_WII@Z 10047a90 f i libucrt:input.obj
 0001:00046a93       ??$fill_buffer@_W@?$input_processor@DV?$string_input_adapter@D@__crt_stdio_input@@@__crt_stdio_input@@CAXQA_WII@Z 10047a93 f i libucrt:input.obj
 0001:00046a96       ??$fill_buffer@_W@?$input_processor@_WV?$stream_input_adapter@_W@__crt_stdio_input@@@__crt_stdio_input@@CAXQA_WII@Z 10047a96 f i libucrt:input.obj
 0001:00046a99       ??$fill_buffer@_W@?$input_processor@_WV?$string_input_adapter@_W@__crt_stdio_input@@@__crt_stdio_input@@CAXQA_WII@Z 10047a99 f i libucrt:input.obj
 0001:00046a9c       ??$getc_nolock@PAU_iobuf@@@?$__crt_char_traits@D@@SAH$$QAPAU_iobuf@@@Z 10047a9c f i libucrt:input.obj
 0001:00046aae       ??$getc_nolock@PAU_iobuf@@@?$__crt_char_traits@_W@@SAG$$QAPAU_iobuf@@@Z 10047aae f i libucrt:input.obj
 0001:00046ac0       ??$istspace@ABE@?$__crt_char_traits@D@@SAHABE@Z 10047ac0 f i libucrt:input.obj
 0001:00046ad4       ??$istspace@AB_W@?$__crt_char_traits@_W@@SAHAB_W@Z 10047ad4 f i libucrt:input.obj
 0001:00046aeb       ??$make_input_adapter_character_source@V?$stream_input_adapter@D@__crt_stdio_input@@@__crt_strtox@@YA?AV?$input_adapter_character_source@V?$stream_input_adapter@D@__crt_stdio_input@@@0@QAV?$stream_input_adapter@D@__crt_stdio_input@@_KQA_N@Z 10047aeb f i libucrt:input.obj
 0001:00046b09       ??$make_input_adapter_character_source@V?$stream_input_adapter@_W@__crt_stdio_input@@@__crt_strtox@@YA?AV?$input_adapter_character_source@V?$stream_input_adapter@_W@__crt_stdio_input@@@0@QAV?$stream_input_adapter@_W@__crt_stdio_input@@_KQA_N@Z 10047b09 f i libucrt:input.obj
 0001:00046b27       ??$make_input_adapter_character_source@V?$string_input_adapter@D@__crt_stdio_input@@@__crt_strtox@@YA?AV?$input_adapter_character_source@V?$string_input_adapter@D@__crt_stdio_input@@@0@QAV?$string_input_adapter@D@__crt_stdio_input@@_KQA_N@Z 10047b27 f i libucrt:input.obj
 0001:00046b45       ??$make_input_adapter_character_source@V?$string_input_adapter@_W@__crt_stdio_input@@@__crt_strtox@@YA?AV?$input_adapter_character_source@V?$string_input_adapter@_W@__crt_stdio_input@@@0@QAV?$string_input_adapter@_W@__crt_stdio_input@@_KQA_N@Z 10047b45 f i libucrt:input.obj
 0001:00046b63       ??$parse_floating_point@V?$input_adapter_character_source@V?$stream_input_adapter@D@__crt_stdio_input@@@__crt_strtox@@M@__crt_strtox@@YA?AW4SLD_STATUS@@QAU__crt_locale_pointers@@V?$input_adapter_character_source@V?$stream_input_adapter@D@__crt_stdio_input@@@0@QAM@Z 10047b63 f i libucrt:input.obj
 0001:00046bed       ??$parse_floating_point@V?$input_adapter_character_source@V?$stream_input_adapter@D@__crt_stdio_input@@@__crt_strtox@@N@__crt_strtox@@YA?AW4SLD_STATUS@@QAU__crt_locale_pointers@@V?$input_adapter_character_source@V?$stream_input_adapter@D@__crt_stdio_input@@@0@QAN@Z 10047bed f i libucrt:input.obj
 0001:00046c77       ??$parse_floating_point@V?$input_adapter_character_source@V?$stream_input_adapter@_W@__crt_stdio_input@@@__crt_strtox@@M@__crt_strtox@@YA?AW4SLD_STATUS@@QAU__crt_locale_pointers@@V?$input_adapter_character_source@V?$stream_input_adapter@_W@__crt_stdio_input@@@0@QAM@Z 10047c77 f i libucrt:input.obj
 0001:00046d01       ??$parse_floating_point@V?$input_adapter_character_source@V?$stream_input_adapter@_W@__crt_stdio_input@@@__crt_strtox@@N@__crt_strtox@@YA?AW4SLD_STATUS@@QAU__crt_locale_pointers@@V?$input_adapter_character_source@V?$stream_input_adapter@_W@__crt_stdio_input@@@0@QAN@Z 10047d01 f i libucrt:input.obj
 0001:00046d8b       ??$parse_floating_point@V?$input_adapter_character_source@V?$string_input_adapter@D@__crt_stdio_input@@@__crt_strtox@@M@__crt_strtox@@YA?AW4SLD_STATUS@@QAU__crt_locale_pointers@@V?$input_adapter_character_source@V?$string_input_adapter@D@__crt_stdio_input@@@0@QAM@Z 10047d8b f i libucrt:input.obj
 0001:00046e15       ??$parse_floating_point@V?$input_adapter_character_source@V?$string_input_adapter@D@__crt_stdio_input@@@__crt_strtox@@N@__crt_strtox@@YA?AW4SLD_STATUS@@QAU__crt_locale_pointers@@V?$input_adapter_character_source@V?$string_input_adapter@D@__crt_stdio_input@@@0@QAN@Z 10047e15 f i libucrt:input.obj
 0001:00046e9f       ??$parse_floating_point@V?$input_adapter_character_source@V?$string_input_adapter@_W@__crt_stdio_input@@@__crt_strtox@@M@__crt_strtox@@YA?AW4SLD_STATUS@@QAU__crt_locale_pointers@@V?$input_adapter_character_source@V?$string_input_adapter@_W@__crt_stdio_input@@@0@QAM@Z 10047e9f f i libucrt:input.obj
 0001:00046f29       ??$parse_floating_point@V?$input_adapter_character_source@V?$string_input_adapter@_W@__crt_stdio_input@@@__crt_strtox@@N@__crt_strtox@@YA?AW4SLD_STATUS@@QAU__crt_locale_pointers@@V?$input_adapter_character_source@V?$string_input_adapter@_W@__crt_stdio_input@@@0@QAN@Z 10047f29 f i libucrt:input.obj
 0001:00046fb3       ??$parse_floating_point_from_source@V?$input_adapter_character_source@V?$stream_input_adapter@D@__crt_stdio_input@@@__crt_strtox@@@__crt_strtox@@YA?AW4floating_point_parse_result@0@QAU__crt_locale_pointers@@AAV?$input_adapter_character_source@V?$stream_input_adapter@D@__crt_stdio_input@@@0@AAUfloating_point_string@0@@Z 10047fb3 f i libucrt:input.obj
 0001:00047415       ??$parse_floating_point_from_source@V?$input_adapter_character_source@V?$stream_input_adapter@_W@__crt_stdio_input@@@__crt_strtox@@@__crt_strtox@@YA?AW4floating_point_parse_result@0@QAU__crt_locale_pointers@@AAV?$input_adapter_character_source@V?$stream_input_adapter@_W@__crt_stdio_input@@@0@AAUfloating_point_string@0@@Z 10048415 f i libucrt:input.obj
 0001:00047fb6       ??$parse_floating_point_from_source@V?$input_adapter_character_source@V?$string_input_adapter@D@__crt_stdio_input@@@__crt_strtox@@@__crt_strtox@@YA?AW4floating_point_parse_result@0@QAU__crt_locale_pointers@@AAV?$input_adapter_character_source@V?$string_input_adapter@D@__crt_stdio_input@@@0@AAUfloating_point_string@0@@Z 10048fb6 f i libucrt:input.obj
 0001:00048418       ??$parse_floating_point_from_source@V?$input_adapter_character_source@V?$string_input_adapter@_W@__crt_stdio_input@@@__crt_strtox@@@__crt_strtox@@YA?AW4floating_point_parse_result@0@QAU__crt_locale_pointers@@AAV?$input_adapter_character_source@V?$string_input_adapter@_W@__crt_stdio_input@@@0@AAUfloating_point_string@0@@Z 10049418 f i libucrt:input.obj
 0001:00048fb9       ??$parse_floating_point_possible_infinity@DV?$input_adapter_character_source@V?$stream_input_adapter@D@__crt_stdio_input@@@__crt_strtox@@_K@__crt_strtox@@YA?AW4floating_point_parse_result@0@AADAAV?$input_adapter_character_source@V?$stream_input_adapter@D@__crt_stdio_input@@@0@_K@Z 10049fb9 f i libucrt:input.obj
 0001:00049078       ??$parse_floating_point_possible_infinity@DV?$input_adapter_character_source@V?$string_input_adapter@D@__crt_stdio_input@@@__crt_strtox@@_K@__crt_strtox@@YA?AW4floating_point_parse_result@0@AADAAV?$input_adapter_character_source@V?$string_input_adapter@D@__crt_stdio_input@@@0@_K@Z 1004a078 f i libucrt:input.obj
 0001:00049137       ??$parse_floating_point_possible_infinity@_WV?$input_adapter_character_source@V?$stream_input_adapter@_W@__crt_stdio_input@@@__crt_strtox@@_K@__crt_strtox@@YA?AW4floating_point_parse_result@0@AA_WAAV?$input_adapter_character_source@V?$stream_input_adapter@_W@__crt_stdio_input@@@0@_K@Z 1004a137 f i libucrt:input.obj
 0001:00049204       ??$parse_floating_point_possible_infinity@_WV?$input_adapter_character_source@V?$string_input_adapter@_W@__crt_stdio_input@@@__crt_strtox@@_K@__crt_strtox@@YA?AW4floating_point_parse_result@0@AA_WAAV?$input_adapter_character_source@V?$string_input_adapter@_W@__crt_stdio_input@@@0@_K@Z 1004a204 f i libucrt:input.obj
 0001:000492d1       ??$parse_floating_point_possible_nan@DV?$input_adapter_character_source@V?$stream_input_adapter@D@__crt_stdio_input@@@__crt_strtox@@_K@__crt_strtox@@YA?AW4floating_point_parse_result@0@AADAAV?$input_adapter_character_source@V?$stream_input_adapter@D@__crt_stdio_input@@@0@_K@Z 1004a2d1 f i libucrt:input.obj
 0001:000493d9       ??$parse_floating_point_possible_nan@DV?$input_adapter_character_source@V?$string_input_adapter@D@__crt_stdio_input@@@__crt_strtox@@_K@__crt_strtox@@YA?AW4floating_point_parse_result@0@AADAAV?$input_adapter_character_source@V?$string_input_adapter@D@__crt_stdio_input@@@0@_K@Z 1004a3d9 f i libucrt:input.obj
 0001:000494e1       ??$parse_floating_point_possible_nan@_WV?$input_adapter_character_source@V?$stream_input_adapter@_W@__crt_stdio_input@@@__crt_strtox@@_K@__crt_strtox@@YA?AW4floating_point_parse_result@0@AA_WAAV?$input_adapter_character_source@V?$stream_input_adapter@_W@__crt_stdio_input@@@0@_K@Z 1004a4e1 f i libucrt:input.obj
 0001:00049602       ??$parse_floating_point_possible_nan@_WV?$input_adapter_character_source@V?$string_input_adapter@_W@__crt_stdio_input@@@__crt_strtox@@_K@__crt_strtox@@YA?AW4floating_point_parse_result@0@AA_WAAV?$input_adapter_character_source@V?$string_input_adapter@_W@__crt_stdio_input@@@0@_K@Z 1004a602 f i libucrt:input.obj
 0001:00049723       ??$parse_floating_point_possible_nan_is_ind@DV?$input_adapter_character_source@V?$stream_input_adapter@D@__crt_stdio_input@@@__crt_strtox@@@__crt_strtox@@YA_NAADAAV?$input_adapter_character_source@V?$stream_input_adapter@D@__crt_stdio_input@@@0@@Z 1004a723 f i libucrt:input.obj
 0001:0004975d       ??$parse_floating_point_possible_nan_is_ind@DV?$input_adapter_character_source@V?$string_input_adapter@D@__crt_stdio_input@@@__crt_strtox@@@__crt_strtox@@YA_NAADAAV?$input_adapter_character_source@V?$string_input_adapter@D@__crt_stdio_input@@@0@@Z 1004a75d f i libucrt:input.obj
 0001:00049797       ??$parse_floating_point_possible_nan_is_ind@_WV?$input_adapter_character_source@V?$stream_input_adapter@_W@__crt_stdio_input@@@__crt_strtox@@@__crt_strtox@@YA_NAA_WAAV?$input_adapter_character_source@V?$stream_input_adapter@_W@__crt_stdio_input@@@0@@Z 1004a797 f i libucrt:input.obj
 0001:000497d7       ??$parse_floating_point_possible_nan_is_ind@_WV?$input_adapter_character_source@V?$string_input_adapter@_W@__crt_stdio_input@@@__crt_strtox@@@__crt_strtox@@YA_NAA_WAAV?$input_adapter_character_source@V?$string_input_adapter@_W@__crt_stdio_input@@@0@@Z 1004a7d7 f i libucrt:input.obj
 0001:00049817       ??$parse_floating_point_possible_nan_is_snan@DV?$input_adapter_character_source@V?$stream_input_adapter@D@__crt_stdio_input@@@__crt_strtox@@@__crt_strtox@@YA_NAADAAV?$input_adapter_character_source@V?$stream_input_adapter@D@__crt_stdio_input@@@0@@Z 1004a817 f i libucrt:input.obj
 0001:00049851       ??$parse_floating_point_possible_nan_is_snan@DV?$input_adapter_character_source@V?$string_input_adapter@D@__crt_stdio_input@@@__crt_strtox@@@__crt_strtox@@YA_NAADAAV?$input_adapter_character_source@V?$string_input_adapter@D@__crt_stdio_input@@@0@@Z 1004a851 f i libucrt:input.obj
 0001:0004988b       ??$parse_floating_point_possible_nan_is_snan@_WV?$input_adapter_character_source@V?$stream_input_adapter@_W@__crt_stdio_input@@@__crt_strtox@@@__crt_strtox@@YA_NAA_WAAV?$input_adapter_character_source@V?$stream_input_adapter@_W@__crt_stdio_input@@@0@@Z 1004a88b f i libucrt:input.obj
 0001:000498cb       ??$parse_floating_point_possible_nan_is_snan@_WV?$input_adapter_character_source@V?$string_input_adapter@_W@__crt_stdio_input@@@__crt_strtox@@@__crt_strtox@@YA_NAA_WAAV?$input_adapter_character_source@V?$string_input_adapter@_W@__crt_stdio_input@@@0@@Z 1004a8cb f i libucrt:input.obj
 0001:0004990b       ??$parse_floating_point_write_result@M@__crt_strtox@@YA?AW4SLD_STATUS@@W4floating_point_parse_result@0@ABUfloating_point_string@0@QAM@Z 1004a90b f i libucrt:input.obj
 0001:00049a77       ??$parse_floating_point_write_result@N@__crt_strtox@@YA?AW4SLD_STATUS@@W4floating_point_parse_result@0@ABUfloating_point_string@0@QAN@Z 1004aa77 f i libucrt:input.obj
 0001:00049b9b       ??$parse_integer@_KV?$input_adapter_character_source@V?$stream_input_adapter@D@__crt_stdio_input@@@__crt_strtox@@$00@__crt_strtox@@YA_KAAV__crt_cached_ptd_host@@V?$input_adapter_character_source@V?$stream_input_adapter@D@__crt_stdio_input@@@0@H_N@Z 1004ab9b f i libucrt:input.obj
 0001:00049e9f       ??$parse_integer@_KV?$input_adapter_character_source@V?$stream_input_adapter@D@__crt_stdio_input@@@__crt_strtox@@@__crt_strtox@@YA_KQAU__crt_locale_pointers@@V?$input_adapter_character_source@V?$stream_input_adapter@D@__crt_stdio_input@@@0@H_N@Z 1004ae9f f i libucrt:input.obj
 0001:00049efb       ??$parse_integer@_KV?$input_adapter_character_source@V?$stream_input_adapter@_W@__crt_stdio_input@@@__crt_strtox@@$00@__crt_strtox@@YA_KAAV__crt_cached_ptd_host@@V?$input_adapter_character_source@V?$stream_input_adapter@_W@__crt_stdio_input@@@0@H_N@Z 1004aefb f i libucrt:input.obj
 0001:0004a5cb       ??$parse_integer@_KV?$input_adapter_character_source@V?$stream_input_adapter@_W@__crt_stdio_input@@@__crt_strtox@@@__crt_strtox@@YA_KQAU__crt_locale_pointers@@V?$input_adapter_character_source@V?$stream_input_adapter@_W@__crt_stdio_input@@@0@H_N@Z 1004b5cb f i libucrt:input.obj
 0001:0004a627       ??$parse_integer@_KV?$input_adapter_character_source@V?$string_input_adapter@D@__crt_stdio_input@@@__crt_strtox@@$00@__crt_strtox@@YA_KAAV__crt_cached_ptd_host@@V?$input_adapter_character_source@V?$string_input_adapter@D@__crt_stdio_input@@@0@H_N@Z 1004b627 f i libucrt:input.obj
 0001:0004a92b       ??$parse_integer@_KV?$input_adapter_character_source@V?$string_input_adapter@D@__crt_stdio_input@@@__crt_strtox@@@__crt_strtox@@YA_KQAU__crt_locale_pointers@@V?$input_adapter_character_source@V?$string_input_adapter@D@__crt_stdio_input@@@0@H_N@Z 1004b92b f i libucrt:input.obj
 0001:0004a987       ??$parse_integer@_KV?$input_adapter_character_source@V?$string_input_adapter@_W@__crt_stdio_input@@@__crt_strtox@@$00@__crt_strtox@@YA_KAAV__crt_cached_ptd_host@@V?$input_adapter_character_source@V?$string_input_adapter@_W@__crt_stdio_input@@@0@H_N@Z 1004b987 f i libucrt:input.obj
 0001:0004b057       ??$parse_integer@_KV?$input_adapter_character_source@V?$string_input_adapter@_W@__crt_stdio_input@@@__crt_strtox@@@__crt_strtox@@YA_KQAU__crt_locale_pointers@@V?$input_adapter_character_source@V?$string_input_adapter@_W@__crt_stdio_input@@@0@H_N@Z 1004c057 f i libucrt:input.obj
 0001:0004b0b3       ??$parse_next_characters_from_source@DV?$input_adapter_character_source@V?$stream_input_adapter@D@__crt_stdio_input@@@__crt_strtox@@@__crt_strtox@@YA_NQBD0IAADAAV?$input_adapter_character_source@V?$stream_input_adapter@D@__crt_stdio_input@@@0@@Z 1004c0b3 f i libucrt:input.obj
 0001:0004b0f7       ??$parse_next_characters_from_source@DV?$input_adapter_character_source@V?$string_input_adapter@D@__crt_stdio_input@@@__crt_strtox@@@__crt_strtox@@YA_NQBD0IAADAAV?$input_adapter_character_source@V?$string_input_adapter@D@__crt_stdio_input@@@0@@Z 1004c0f7 f i libucrt:input.obj
 0001:0004b13b       ??$parse_next_characters_from_source@_WV?$input_adapter_character_source@V?$stream_input_adapter@_W@__crt_stdio_input@@@__crt_strtox@@@__crt_strtox@@YA_NQB_W0IAA_WAAV?$input_adapter_character_source@V?$stream_input_adapter@_W@__crt_stdio_input@@@0@@Z 1004c13b f i libucrt:input.obj
 0001:0004b185       ??$parse_next_characters_from_source@_WV?$input_adapter_character_source@V?$string_input_adapter@_W@__crt_stdio_input@@@__crt_strtox@@@__crt_strtox@@YA_NQB_W0IAA_WAAV?$input_adapter_character_source@V?$string_input_adapter@_W@__crt_stdio_input@@@0@@Z 1004c185 f i libucrt:input.obj
 0001:0004b1cf       ??$process_floating_point_specifier_t@M@?$input_processor@DV?$stream_input_adapter@D@__crt_stdio_input@@@__crt_stdio_input@@AAE_NXZ 1004c1cf f i libucrt:input.obj
 0001:0004b238       ??$process_floating_point_specifier_t@M@?$input_processor@DV?$string_input_adapter@D@__crt_stdio_input@@@__crt_stdio_input@@AAE_NXZ 1004c238 f i libucrt:input.obj
 0001:0004b2a1       ??$process_floating_point_specifier_t@M@?$input_processor@_WV?$stream_input_adapter@_W@__crt_stdio_input@@@__crt_stdio_input@@AAE_NXZ 1004c2a1 f i libucrt:input.obj
 0001:0004b30a       ??$process_floating_point_specifier_t@M@?$input_processor@_WV?$string_input_adapter@_W@__crt_stdio_input@@@__crt_stdio_input@@AAE_NXZ 1004c30a f i libucrt:input.obj
 0001:0004b373       ??$process_floating_point_specifier_t@N@?$input_processor@DV?$stream_input_adapter@D@__crt_stdio_input@@@__crt_stdio_input@@AAE_NXZ 1004c373 f i libucrt:input.obj
 0001:0004b3dc       ??$process_floating_point_specifier_t@N@?$input_processor@DV?$string_input_adapter@D@__crt_stdio_input@@@__crt_stdio_input@@AAE_NXZ 1004c3dc f i libucrt:input.obj
 0001:0004b445       ??$process_floating_point_specifier_t@N@?$input_processor@_WV?$stream_input_adapter@_W@__crt_stdio_input@@@__crt_stdio_input@@AAE_NXZ 1004c445 f i libucrt:input.obj
 0001:0004b4ae       ??$process_floating_point_specifier_t@N@?$input_processor@_WV?$string_input_adapter@_W@__crt_stdio_input@@@__crt_stdio_input@@AAE_NXZ 1004c4ae f i libucrt:input.obj
 0001:0004b517       ??$process_string_specifier_tchar@D@?$input_processor@DV?$stream_input_adapter@D@__crt_stdio_input@@@__crt_stdio_input@@AAE_NW4conversion_mode@1@D@Z 1004c517 f i libucrt:input.obj
 0001:0004b68d       ??$process_string_specifier_tchar@D@?$input_processor@DV?$string_input_adapter@D@__crt_stdio_input@@@__crt_stdio_input@@AAE_NW4conversion_mode@1@D@Z 1004c68d f i libucrt:input.obj
 0001:0004b7ef       ??$process_string_specifier_tchar@D@?$input_processor@_WV?$stream_input_adapter@_W@__crt_stdio_input@@@__crt_stdio_input@@AAE_NW4conversion_mode@1@D@Z 1004c7ef f i libucrt:input.obj
 0001:0004b95a       ??$process_string_specifier_tchar@D@?$input_processor@_WV?$string_input_adapter@_W@__crt_stdio_input@@@__crt_stdio_input@@AAE_NW4conversion_mode@1@D@Z 1004c95a f i libucrt:input.obj
 0001:0004bac5       ??$process_string_specifier_tchar@_W@?$input_processor@DV?$stream_input_adapter@D@__crt_stdio_input@@@__crt_stdio_input@@AAE_NW4conversion_mode@1@_W@Z 1004cac5 f i libucrt:input.obj
 0001:0004bc47       ??$process_string_specifier_tchar@_W@?$input_processor@DV?$string_input_adapter@D@__crt_stdio_input@@@__crt_stdio_input@@AAE_NW4conversion_mode@1@_W@Z 1004cc47 f i libucrt:input.obj
 0001:0004bdb5       ??$process_string_specifier_tchar@_W@?$input_processor@_WV?$stream_input_adapter@_W@__crt_stdio_input@@@__crt_stdio_input@@AAE_NW4conversion_mode@1@_W@Z 1004cdb5 f i libucrt:input.obj
 0001:0004bf23       ??$process_string_specifier_tchar@_W@?$input_processor@_WV?$string_input_adapter@_W@__crt_stdio_input@@@__crt_stdio_input@@AAE_NW4conversion_mode@1@_W@Z 1004cf23 f i libucrt:input.obj
 0001:0004c091       ??$reset_buffer@D@?$input_processor@DV?$stream_input_adapter@D@__crt_stdio_input@@@__crt_stdio_input@@CAXQADI@Z 1004d091 f i libucrt:input.obj
 0001:0004c0a4       ??$reset_buffer@D@?$input_processor@DV?$string_input_adapter@D@__crt_stdio_input@@@__crt_stdio_input@@CAXQADI@Z 1004d0a4 f i libucrt:input.obj
 0001:0004c0b7       ??$reset_buffer@D@?$input_processor@_WV?$stream_input_adapter@_W@__crt_stdio_input@@@__crt_stdio_input@@CAXQADI@Z 1004d0b7 f i libucrt:input.obj
 0001:0004c0ca       ??$reset_buffer@D@?$input_processor@_WV?$string_input_adapter@_W@__crt_stdio_input@@@__crt_stdio_input@@CAXQADI@Z 1004d0ca f i libucrt:input.obj
 0001:0004c0dd       ??$reset_buffer@_W@?$input_processor@DV?$stream_input_adapter@D@__crt_stdio_input@@@__crt_stdio_input@@CAXQA_WI@Z 1004d0dd f i libucrt:input.obj
 0001:0004c0f2       ??$reset_buffer@_W@?$input_processor@DV?$string_input_adapter@D@__crt_stdio_input@@@__crt_stdio_input@@CAXQA_WI@Z 1004d0f2 f i libucrt:input.obj
 0001:0004c107       ??$reset_buffer@_W@?$input_processor@_WV?$stream_input_adapter@_W@__crt_stdio_input@@@__crt_stdio_input@@CAXQA_WI@Z 1004d107 f i libucrt:input.obj
 0001:0004c11c       ??$reset_buffer@_W@?$input_processor@_WV?$string_input_adapter@_W@__crt_stdio_input@@@__crt_stdio_input@@CAXQA_WI@Z 1004d11c f i libucrt:input.obj
 0001:0004c131       ??$skip_whitespace@Vstream_input_adapter@__crt_stdio_input@@D@__crt_stdio_input@@YAHAAV?$stream_input_adapter@D@0@QAU__crt_locale_pointers@@@Z 1004d131 f i libucrt:input.obj
 0001:0004c168       ??$skip_whitespace@Vstream_input_adapter@__crt_stdio_input@@_W@__crt_stdio_input@@YAGAAV?$stream_input_adapter@_W@0@QAU__crt_locale_pointers@@@Z 1004d168 f i libucrt:input.obj
 0001:0004c197       ??$skip_whitespace@Vstring_input_adapter@__crt_stdio_input@@D@__crt_stdio_input@@YAHAAV?$string_input_adapter@D@0@QAU__crt_locale_pointers@@@Z 1004d197 f i libucrt:input.obj
 0001:0004c1c6       ??$skip_whitespace@Vstring_input_adapter@__crt_stdio_input@@_W@__crt_stdio_input@@YAGAAV?$string_input_adapter@_W@0@QAU__crt_locale_pointers@@@Z 1004d1c6 f i libucrt:input.obj
 0001:0004c1f5       ??$tcsnlen@ABQBDABI@?$__crt_char_traits@D@@SAIABQBDABI@Z 1004d1f5 f i libucrt:input.obj
 0001:0004c20d       ??$tcsnlen@ABQB_WABI@?$__crt_char_traits@_W@@SAIABQB_WABI@Z 1004d20d f i libucrt:input.obj
 0001:0004c225       ??$tcstoull@PBDPAPADH@?$__crt_char_traits@D@@SA_K$$QAPBD$$QAPAPAD$$QAH@Z 1004d225 f i libucrt:input.obj
 0001:0004c243       ??$tcstoull@PB_WPAPA_WH@?$__crt_char_traits@_W@@SA_K$$QAPB_W$$QAPAPA_W$$QAH@Z 1004d243 f i libucrt:input.obj
 0001:0004c261       ??$ungettc_nolock@ABGPAU_iobuf@@@?$__crt_char_traits@_W@@SAGABG$$QAPAU_iobuf@@@Z 1004d261 f i libucrt:input.obj
 0001:0004c27b       ??$ungettc_nolock@ABHPAU_iobuf@@@?$__crt_char_traits@D@@SAHABH$$QAPAU_iobuf@@@Z 1004d27b f i libucrt:input.obj
 0001:0004c293       ??$write_floating_point@M@?$input_processor@DV?$stream_input_adapter@D@__crt_stdio_input@@@__crt_stdio_input@@AAE_NABM@Z 1004d293 f i libucrt:input.obj
 0001:0004c2c8       ??$write_floating_point@M@?$input_processor@DV?$string_input_adapter@D@__crt_stdio_input@@@__crt_stdio_input@@AAE_NABM@Z 1004d2c8 f i libucrt:input.obj
 0001:0004c2fd       ??$write_floating_point@M@?$input_processor@_WV?$stream_input_adapter@_W@__crt_stdio_input@@@__crt_stdio_input@@AAE_NABM@Z 1004d2fd f i libucrt:input.obj
 0001:0004c332       ??$write_floating_point@M@?$input_processor@_WV?$string_input_adapter@_W@__crt_stdio_input@@@__crt_stdio_input@@AAE_NABM@Z 1004d332 f i libucrt:input.obj
 0001:0004c367       ??$write_floating_point@N@?$input_processor@DV?$stream_input_adapter@D@__crt_stdio_input@@@__crt_stdio_input@@AAE_NABN@Z 1004d367 f i libucrt:input.obj
 0001:0004c3a2       ??$write_floating_point@N@?$input_processor@DV?$string_input_adapter@D@__crt_stdio_input@@@__crt_stdio_input@@AAE_NABN@Z 1004d3a2 f i libucrt:input.obj
 0001:0004c3dd       ??$write_floating_point@N@?$input_processor@_WV?$stream_input_adapter@_W@__crt_stdio_input@@@__crt_stdio_input@@AAE_NABN@Z 1004d3dd f i libucrt:input.obj
 0001:0004c418       ??$write_floating_point@N@?$input_processor@_WV?$string_input_adapter@_W@__crt_stdio_input@@@__crt_stdio_input@@AAE_NABN@Z 1004d418 f i libucrt:input.obj
 0001:0004c453       ??0<lambda_0b87716a0b73cdfba1cd37fcaaa20711>@@QAE@AAV?$input_adapter_character_source@V?$stream_input_adapter@D@__crt_stdio_input@@@__crt_strtox@@AADAA_K@Z 1004d453 f i libucrt:input.obj
 0001:0004c4e3       ??0<lambda_448605b25275ab87d3c5d4aa7a38a0aa>@@QAE@AAV?$input_adapter_character_source@V?$string_input_adapter@_W@__crt_stdio_input@@@__crt_strtox@@AA_WAA_K@Z 1004d4e3 f i libucrt:input.obj
 0001:0004c4ff       ??0<lambda_46698efe93618fff5274d84d009d2be1>@@QAE@AAV?$input_adapter_character_source@V?$stream_input_adapter@_W@__crt_stdio_input@@@__crt_strtox@@AA_WAA_K@Z 1004d4ff f i libucrt:input.obj
 0001:0004c51b       ??0<lambda_5f3f4d49f9676d963a9a63518de6904a>@@QAE@AAV?$input_adapter_character_source@V?$stream_input_adapter@_W@__crt_stdio_input@@@__crt_strtox@@AA_WAA_K@Z 1004d51b f i libucrt:input.obj
 0001:0004c537       ??0<lambda_644f8ab42ed3fd1d660977a2364b3a7d>@@QAE@AAV?$input_adapter_character_source@V?$string_input_adapter@D@__crt_stdio_input@@@__crt_strtox@@AADAA_K@Z 1004d537 f i libucrt:input.obj
 0001:0004c565       ??0<lambda_c7c3f778895f47e7f4eff38a8fef279a>@@QAE@AAV?$input_adapter_character_source@V?$stream_input_adapter@D@__crt_stdio_input@@@__crt_strtox@@AADAA_K@Z 1004d565 f i libucrt:input.obj
 0001:0004c581       ??0<lambda_cbb29514201643ebc3996c8b1c7ae90c>@@QAE@AAV?$input_adapter_character_source@V?$stream_input_adapter@_W@__crt_stdio_input@@@__crt_strtox@@AA_WAA_K@Z 1004d581 f i libucrt:input.obj
 0001:0004c5af       ??0<lambda_e41f1170c8800e4a6fed1afad60fab6f>@@QAE@AAV?$input_adapter_character_source@V?$stream_input_adapter@D@__crt_stdio_input@@@__crt_strtox@@AADAA_K@Z 1004d5af f i libucrt:input.obj
 0001:0004c5cb       ??0<lambda_e5165159ec566db3a71156c9b71536ca>@@QAE@AAV?$input_adapter_character_source@V?$string_input_adapter@_W@__crt_stdio_input@@@__crt_strtox@@AA_WAA_K@Z 1004d5cb f i libucrt:input.obj
 0001:0004c5e7       ??0<lambda_f1fa4c266c18b246f3ed9c36247dab4f>@@QAE@AAV?$input_adapter_character_source@V?$string_input_adapter@D@__crt_stdio_input@@@__crt_strtox@@AADAA_K@Z 1004d5e7 f i libucrt:input.obj
 0001:0004c603       ??0<lambda_f765c90ab33e8386abf09c0f079d37e9>@@QAE@AAV?$input_adapter_character_source@V?$string_input_adapter@D@__crt_stdio_input@@@__crt_strtox@@AADAA_K@Z 1004d603 f i libucrt:input.obj
 0001:0004c61f       ??0<lambda_fd76cae15b6f790020ebaa7b78a868c2>@@QAE@AAV?$input_adapter_character_source@V?$string_input_adapter@_W@__crt_stdio_input@@@__crt_strtox@@AA_WAA_K@Z 1004d61f f i libucrt:input.obj
 0001:0004c63b       ??0?$__crt_unique_heap_ptr@EU__crt_internal_free_policy@@@@QAE@QAE@Z 1004d63b f i libucrt:input.obj
 0001:0004c64b       ??0?$format_string_parser@D@__crt_stdio_input@@QAE@_KQBE@Z 1004d64b f i libucrt:input.obj
 0001:0004c695       ??0?$format_string_parser@_W@__crt_stdio_input@@QAE@_KQB_W@Z 1004d695 f i libucrt:input.obj
 0001:0004c6d3       ??0?$input_adapter_character_source@V?$stream_input_adapter@D@__crt_stdio_input@@@__crt_strtox@@QAE@$$QAV01@@Z 1004d6d3 f i libucrt:input.obj
 0001:0004c710       ??0?$input_adapter_character_source@V?$stream_input_adapter@D@__crt_stdio_input@@@__crt_strtox@@QAE@QAV?$stream_input_adapter@D@__crt_stdio_input@@_KQA_N@Z 1004d710 f i libucrt:input.obj
 0001:0004c741       ??0?$input_adapter_character_source@V?$stream_input_adapter@_W@__crt_stdio_input@@@__crt_strtox@@QAE@$$QAV01@@Z 1004d741 f i libucrt:input.obj
 0001:0004c77e       ??0?$input_adapter_character_source@V?$stream_input_adapter@_W@__crt_stdio_input@@@__crt_strtox@@QAE@QAV?$stream_input_adapter@_W@__crt_stdio_input@@_KQA_N@Z 1004d77e f i libucrt:input.obj
 0001:0004c7af       ??0?$input_adapter_character_source@V?$string_input_adapter@D@__crt_stdio_input@@@__crt_strtox@@QAE@$$QAV01@@Z 1004d7af f i libucrt:input.obj
 0001:0004c7ec       ??0?$input_adapter_character_source@V?$string_input_adapter@D@__crt_stdio_input@@@__crt_strtox@@QAE@QAV?$string_input_adapter@D@__crt_stdio_input@@_KQA_N@Z 1004d7ec f i libucrt:input.obj
 0001:0004c81d       ??0?$input_adapter_character_source@V?$string_input_adapter@_W@__crt_stdio_input@@@__crt_strtox@@QAE@$$QAV01@@Z 1004d81d f i libucrt:input.obj
 0001:0004c85a       ??0?$input_adapter_character_source@V?$string_input_adapter@_W@__crt_stdio_input@@@__crt_strtox@@QAE@QAV?$string_input_adapter@_W@__crt_stdio_input@@_KQA_N@Z 1004d85a f i libucrt:input.obj
 0001:0004c88b       ??0?$input_processor@DV?$stream_input_adapter@D@__crt_stdio_input@@@__crt_stdio_input@@QAE@ABV?$stream_input_adapter@D@1@_KQBDQAU__crt_locale_pointers@@QAD@Z 1004d88b f i libucrt:input.obj
 0001:0004c8d4       ??0?$input_processor@DV?$string_input_adapter@D@__crt_stdio_input@@@__crt_stdio_input@@QAE@ABV?$string_input_adapter@D@1@_KQBDQAU__crt_locale_pointers@@QAD@Z 1004d8d4 f i libucrt:input.obj
 0001:0004c918       ??0?$input_processor@_WV?$stream_input_adapter@_W@__crt_stdio_input@@@__crt_stdio_input@@QAE@ABV?$stream_input_adapter@_W@1@_KQB_WQAU__crt_locale_pointers@@QAD@Z 1004d918 f i libucrt:input.obj
 0001:0004c961       ??0?$input_processor@_WV?$string_input_adapter@_W@__crt_stdio_input@@@__crt_stdio_input@@QAE@ABV?$string_input_adapter@_W@1@_KQB_WQAU__crt_locale_pointers@@QAD@Z 1004d961 f i libucrt:input.obj
 0001:0004c9a5       ??0?$scanset_buffer@E@__crt_stdio_input@@QAE@XZ 1004d9a5 f i libucrt:input.obj
 0001:0004c9b7       ??0?$scanset_buffer@_W@__crt_stdio_input@@QAE@XZ 1004d9b7 f i libucrt:input.obj
 0001:0004c9bd       ??0?$scanset_storage@$00@__crt_stdio_input@@QAE@XZ 1004d9bd f i libucrt:input.obj
 0001:0004c9cf       ??0?$scanset_storage@$01@__crt_stdio_input@@QAE@XZ 1004d9cf f i libucrt:input.obj
 0001:0004c9d5       ??0?$stream_input_adapter@D@__crt_stdio_input@@QAE@QAU_iobuf@@@Z 1004d9d5 f i libucrt:input.obj
 0001:0004c9e9       ??0?$stream_input_adapter@_W@__crt_stdio_input@@QAE@QAU_iobuf@@@Z 1004d9e9 f i libucrt:input.obj
 0001:0004c9fd       ??0?$string_input_adapter@D@__crt_stdio_input@@QAE@QBDI@Z 1004d9fd f i libucrt:input.obj
 0001:0004ca18       ??0?$string_input_adapter@_W@__crt_stdio_input@@QAE@QB_WI@Z 1004da18 f i libucrt:input.obj
 0001:0004ca34       ??0_LocaleUpdate@@QAE@QAU__crt_locale_pointers@@@Z 1004da34 f i libucrt:input.obj
 0001:0004cac0       ??0big_integer@__crt_strtox@@QAE@ABU01@@Z 1004dac0 f i libucrt:input.obj
 0001:0004cb00       ??0big_integer@__crt_strtox@@QAE@XZ 1004db00 f i libucrt:input.obj
 0001:0004cb09       ??0floating_point_value@__crt_strtox@@QAE@QAM@Z 1004db09 f i libucrt:input.obj
 0001:0004cb1d       ??0floating_point_value@__crt_strtox@@QAE@QAN@Z 1004db1d f i libucrt:input.obj
 0001:0004cb31       ??1?$__crt_unique_heap_ptr@EU__crt_internal_free_policy@@@@QAE@XZ 1004db31 f i libucrt:input.obj
 0001:0004cb43       ??1?$format_string_parser@_W@__crt_stdio_input@@QAE@XZ 1004db43 f i libucrt:input.obj
 0001:0004cb57       ??1?$input_adapter_character_source@V?$stream_input_adapter@D@__crt_stdio_input@@@__crt_strtox@@QAE@XZ 1004db57 f i libucrt:input.obj
 0001:0004cb69       ??1?$input_adapter_character_source@V?$stream_input_adapter@_W@__crt_stdio_input@@@__crt_strtox@@QAE@XZ 1004db69 f i libucrt:input.obj
 0001:0004cb7b       ??1?$input_adapter_character_source@V?$string_input_adapter@D@__crt_stdio_input@@@__crt_strtox@@QAE@XZ 1004db7b f i libucrt:input.obj
 0001:0004cb8d       ??1?$input_adapter_character_source@V?$string_input_adapter@_W@__crt_stdio_input@@@__crt_strtox@@QAE@XZ 1004db8d f i libucrt:input.obj
 0001:0004cb9f       ??1?$input_processor@_WV?$stream_input_adapter@_W@__crt_stdio_input@@@__crt_stdio_input@@QAE@XZ 1004db9f f i libucrt:input.obj
 0001:0004cbb3       ??1?$input_processor@_WV?$string_input_adapter@_W@__crt_stdio_input@@@__crt_stdio_input@@QAE@XZ 1004dbb3 f i libucrt:input.obj
 0001:0004cbc7       ??1?$scanset_buffer@_W@__crt_stdio_input@@QAE@XZ 1004dbc7 f i libucrt:input.obj
 0001:0004cbd9       ??1?$scanset_storage@$01@__crt_stdio_input@@QAE@XZ 1004dbd9 f i libucrt:input.obj
 0001:0004cbeb       ??1_LocaleUpdate@@QAE@XZ   1004dbeb f i libucrt:input.obj
 0001:0004cbfb       ??4?$__crt_unique_heap_ptr@EU__crt_internal_free_policy@@@@QAEAAV0@$$QAV0@@Z 1004dbfb f i libucrt:input.obj
 0001:0004cc20       ??4big_integer@__crt_strtox@@QAEAAU01@ABU01@@Z 1004dc20 f i libucrt:input.obj
 0001:0004cc51       ??B?$__crt_unique_heap_ptr@EU__crt_internal_free_policy@@@@QBE_NXZ 1004dc51 f i libucrt:input.obj
 0001:0004cc60       ??M__crt_strtox@@YA_NABUbig_integer@0@0@Z 1004dc60 f i libucrt:input.obj
 0001:0004ccb6       ??R<lambda_0b87716a0b73cdfba1cd37fcaaa20711>@@QBE@XZ 1004dcb6 f i libucrt:input.obj
 0001:0004cde3       ??R<lambda_448605b25275ab87d3c5d4aa7a38a0aa>@@QBE@XZ 1004dde3 f i libucrt:input.obj
 0001:0004ce0f       ??R<lambda_46698efe93618fff5274d84d009d2be1>@@QBE@XZ 1004de0f f i libucrt:input.obj
 0001:0004ce3b       ??R<lambda_5f3f4d49f9676d963a9a63518de6904a>@@QBE@XZ 1004de3b f i libucrt:input.obj
 0001:0004ce67       ??R<lambda_644f8ab42ed3fd1d660977a2364b3a7d>@@QBE@XZ 1004de67 f i libucrt:input.obj
 0001:0004ce9a       ??R<lambda_c7c3f778895f47e7f4eff38a8fef279a>@@QBE@XZ 1004de9a f i libucrt:input.obj
 0001:0004cec4       ??R<lambda_cbb29514201643ebc3996c8b1c7ae90c>@@QBE@XZ 1004dec4 f i libucrt:input.obj
 0001:0004cef9       ??R<lambda_e41f1170c8800e4a6fed1afad60fab6f>@@QBE@XZ 1004def9 f i libucrt:input.obj
 0001:0004cf23       ??R<lambda_e5165159ec566db3a71156c9b71536ca>@@QBE@XZ 1004df23 f i libucrt:input.obj
 0001:0004cf4f       ??R<lambda_f1fa4c266c18b246f3ed9c36247dab4f>@@QBE@XZ 1004df4f f i libucrt:input.obj
 0001:0004cf79       ??R<lambda_f765c90ab33e8386abf09c0f079d37e9>@@QBE@XZ 1004df79 f i libucrt:input.obj
 0001:0004cfa3       ??R<lambda_fd76cae15b6f790020ebaa7b78a868c2>@@QBE@XZ 1004dfa3 f i libucrt:input.obj
 0001:0004cfcf       ?GetLocaleT@_LocaleUpdate@@QAEPAU__crt_locale_pointers@@XZ 1004dfcf f i libucrt:input.obj
 0001:0004cfd3       ?accumulate_decimal_digits_into_big_integer@__crt_strtox@@YAXQBE0AAUbig_integer@1@@Z 1004dfd3 f i libucrt:input.obj
 0001:0004d6c0       ?add@__crt_strtox@@YA_NAAUbig_integer@1@I@Z 1004e6c0 f i libucrt:input.obj
 0001:0004d740       ?add_carry@__crt_strtox@@YAIAAIII@Z 1004e740 f i libucrt:input.obj
 0001:0004d760       ?add_multiply_carry@__crt_strtox@@YAIAAIIII@Z 1004e760 f i libucrt:input.obj
 0001:0004d784       ?advance@?$format_string_parser@D@__crt_stdio_input@@QAE_NXZ 1004e784 f i libucrt:input.obj
 0001:0004d89c       ?advance@?$format_string_parser@_W@__crt_stdio_input@@QAE_NXZ 1004e89c f i libucrt:input.obj
 0001:0004d9a0       ?as_double@floating_point_value@__crt_strtox@@QBEAANXZ 1004e9a0 f i libucrt:input.obj
 0001:0004d9c5       ?as_float@floating_point_value@__crt_strtox@@QBEAAMXZ 1004e9c5 f i libucrt:input.obj
 0001:0004d9ea       ?assemble_floating_point_infinity@__crt_strtox@@YAX_NABVfloating_point_value@1@@Z 1004e9ea f i libucrt:input.obj
 0001:0004da2a       ?assemble_floating_point_value@__crt_strtox@@YA?AW4SLD_STATUS@@_KH_N1ABVfloating_point_value@1@@Z 1004ea2a f i libucrt:input.obj
 0001:0004dd83       ?assemble_floating_point_value_from_big_integer@__crt_strtox@@YA?AW4SLD_STATUS@@ABUbig_integer@1@I_N1ABVfloating_point_value@1@@Z 1004ed83 f i libucrt:input.obj
 0001:0004df15       ?assemble_floating_point_zero@__crt_strtox@@YAX_NABVfloating_point_value@1@@Z 1004ef15 f i libucrt:input.obj
 0001:0004df50       ?bit_scan_reverse@__crt_strtox@@YAIABUbig_integer@1@@Z 1004ef50 f i libucrt:input.obj
 0001:0004df90       ?bit_scan_reverse@__crt_strtox@@YAII@Z 1004ef90 f i libucrt:input.obj
 0001:0004dfb0       ?bit_scan_reverse@__crt_strtox@@YAI_K@Z 1004efb0 f i libucrt:input.obj
 0001:0004dff7       ?characters_read@?$stream_input_adapter@D@__crt_stdio_input@@QBEIXZ 1004eff7 f i libucrt:input.obj
 0001:0004dffb       ?characters_read@?$stream_input_adapter@_W@__crt_stdio_input@@QBEIXZ 1004effb f i libucrt:input.obj
 0001:0004dfff       ?characters_read@?$string_input_adapter@D@__crt_stdio_input@@QBEIXZ 1004efff f i libucrt:input.obj
 0001:0004e005       ?characters_read@?$string_input_adapter@_W@__crt_stdio_input@@QBEIXZ 1004f005 f i libucrt:input.obj
 0001:0004e00d       ?convert_decimal_string_to_floating_type_common@__crt_strtox@@YA?AW4SLD_STATUS@@ABUfloating_point_string@1@ABVfloating_point_value@1@@Z 1004f00d f i libucrt:input.obj
 0001:0004fdb3       ?convert_hexadecimal_string_to_floating_type_common@__crt_strtox@@YA?AW4SLD_STATUS@@ABUfloating_point_string@1@ABVfloating_point_value@1@@Z 10050db3 f i libucrt:input.obj
 0001:0004fe60       ?count_sequential_high_zeroes@__crt_strtox@@YAII@Z 10050e60 f i libucrt:input.obj
 0001:0004fe7b       ?data@?$scanset_storage@$00@__crt_stdio_input@@QBEPAEXZ 10050e7b f i libucrt:input.obj
 0001:0004fe7e       ?data@?$scanset_storage@$01@__crt_stdio_input@@QBEPAEXZ 10050e7e f i libucrt:input.obj
 0001:0004feb6       ?denormal_mantissa_mask@floating_point_value@__crt_strtox@@QBE_KXZ 10050eb6 f i libucrt:input.obj
 0001:0004fed0       ?divide@__crt_strtox@@YA_KAAUbig_integer@1@ABU21@@Z 10050ed0 f i libucrt:input.obj
 0001:0005037b       ?error_code@?$format_string_parser@D@__crt_stdio_input@@QBEHXZ 1005137b f i libucrt:input.obj
 0001:0005037f       ?error_code@?$format_string_parser@_W@__crt_stdio_input@@QBEHXZ 1005137f f i libucrt:input.obj
 0001:00050383       ?exponent_bias@floating_point_value@__crt_strtox@@QBEHXZ 10051383 f i libucrt:input.obj
 0001:00050395       ?get@?$__crt_unique_heap_ptr@EU__crt_internal_free_policy@@@@QBEPAEXZ 10051395 f i libucrt:input.obj
 0001:00050398       ?get@?$input_adapter_character_source@V?$stream_input_adapter@D@__crt_stdio_input@@@__crt_strtox@@QAEDXZ 10051398 f i libucrt:input.obj
 0001:000503d7       ?get@?$input_adapter_character_source@V?$stream_input_adapter@_W@__crt_stdio_input@@@__crt_strtox@@QAE_WXZ 100513d7 f i libucrt:input.obj
 0001:00050416       ?get@?$input_adapter_character_source@V?$string_input_adapter@D@__crt_stdio_input@@@__crt_strtox@@QAEDXZ 10051416 f i libucrt:input.obj
 0001:0005044d       ?get@?$input_adapter_character_source@V?$string_input_adapter@_W@__crt_stdio_input@@@__crt_strtox@@QAE_WXZ 1005144d f i libucrt:input.obj
 0001:0005048c       ?get@?$stream_input_adapter@D@__crt_stdio_input@@QAEHXZ 1005148c f i libucrt:input.obj
 0001:000504a3       ?get@?$stream_input_adapter@_W@__crt_stdio_input@@QAEGXZ 100514a3 f i libucrt:input.obj
 0001:000504c2       ?get@?$string_input_adapter@D@__crt_stdio_input@@QAEHXZ 100514c2 f i libucrt:input.obj
 0001:000504d8       ?get@?$string_input_adapter@_W@__crt_stdio_input@@QAEGXZ 100514d8 f i libucrt:input.obj
 0001:000504f2       ?invert@?$scanset_buffer@E@__crt_stdio_input@@QAEXXZ 100514f2 f i libucrt:input.obj
 0001:000504ff       ?invert@?$scanset_buffer@_W@__crt_stdio_input@@QAEXXZ 100514ff f i libucrt:input.obj
 0001:00050514       ?is_character_allowed_in_string@?$input_processor@DV?$stream_input_adapter@D@__crt_stdio_input@@@__crt_stdio_input@@ABE_NW4conversion_mode@2@H@Z 10051514 f i libucrt:input.obj
 0001:00050564       ?is_character_allowed_in_string@?$input_processor@DV?$string_input_adapter@D@__crt_stdio_input@@@__crt_stdio_input@@ABE_NW4conversion_mode@2@H@Z 10051564 f i libucrt:input.obj
 0001:000505b4       ?is_character_allowed_in_string@?$input_processor@_WV?$stream_input_adapter@_W@__crt_stdio_input@@@__crt_stdio_input@@ABE_NW4conversion_mode@2@G@Z 100515b4 f i libucrt:input.obj
 0001:000505fe       ?is_character_allowed_in_string@?$input_processor@_WV?$string_input_adapter@_W@__crt_stdio_input@@@__crt_stdio_input@@ABE_NW4conversion_mode@2@G@Z 100515fe f i libucrt:input.obj
 0001:00050648       ?is_digit_or_nondigit@__crt_strtox@@YA_NH@Z 10051648 f i libucrt:input.obj
 0001:00050674       ?is_double@floating_point_value@__crt_strtox@@QBE_NXZ 10051674 f i libucrt:input.obj
 0001:00050678       ?is_length_valid@__crt_stdio_input@@YA_NW4conversion_mode@1@W4length_modifier@1@@Z 10051678 f i libucrt:input.obj
 0001:00050691       ?is_usable@?$scanset_buffer@E@__crt_stdio_input@@QAE_NXZ 10051691 f i libucrt:input.obj
 0001:00050697       ?is_usable@?$scanset_buffer@_W@__crt_stdio_input@@QAE_NXZ 10051697 f i libucrt:input.obj
 0001:000506a2       ?is_valid@?$__crt_unique_heap_ptr@EU__crt_internal_free_policy@@@@QBE_NXZ 100516a2 f i libucrt:input.obj
 0001:000506a9       ?kind@?$format_string_parser@D@__crt_stdio_input@@QBE?AW4format_directive_kind@2@XZ 100516a9 f i libucrt:input.obj
 0001:000506ad       ?kind@?$format_string_parser@_W@__crt_stdio_input@@QBE?AW4format_directive_kind@2@XZ 100516ad f i libucrt:input.obj
 0001:000506b1       ?length@?$format_string_parser@D@__crt_stdio_input@@QBEIXZ 100516b1 f i libucrt:input.obj
 0001:000506ff       ?length@?$format_string_parser@_W@__crt_stdio_input@@QBEIXZ 100516ff f i libucrt:input.obj
 0001:0005074d       ?literal_character_lead@?$format_string_parser@D@__crt_stdio_input@@QBEEXZ 1005174d f i libucrt:input.obj
 0001:00050751       ?literal_character_lead@?$format_string_parser@_W@__crt_stdio_input@@QBE_WXZ 10051751 f i libucrt:input.obj
 0001:00050756       ?literal_character_trail@?$format_string_parser@D@__crt_stdio_input@@QBEEXZ 10051756 f i libucrt:input.obj
 0001:00050760       ?make_big_integer@__crt_strtox@@YA?AUbig_integer@1@_K@Z 10051760 f i libucrt:input.obj
 0001:00050780       ?mantissa_bits@floating_point_value@__crt_strtox@@QBEHXZ 10051780 f i libucrt:input.obj
 0001:00050790       ?maximum_binary_exponent@floating_point_value@__crt_strtox@@QBEHXZ 10051790 f i libucrt:input.obj
 0001:000507a2       ?minimum_binary_exponent@floating_point_value@__crt_strtox@@QBEHXZ 100517a2 f i libucrt:input.obj
 0001:000507b4       ?mode@?$format_string_parser@D@__crt_stdio_input@@QBE?AW4conversion_mode@2@XZ 100517b4 f i libucrt:input.obj
 0001:000507b8       ?mode@?$format_string_parser@_W@__crt_stdio_input@@QBE?AW4conversion_mode@2@XZ 100517b8 f i libucrt:input.obj
 0001:000507c0       ?multiply@__crt_strtox@@YA_NAAUbig_integer@1@ABU21@@Z 100517c0 f i libucrt:input.obj
 0001:00050b20       ?multiply@__crt_strtox@@YA_NAAUbig_integer@1@I@Z 10051b20 f i libucrt:input.obj
 0001:00050bf0       ?multiply_64_32@__crt_strtox@@YA_K_KI@Z 10051bf0 f i libucrt:input.obj
 0001:00050c10       ?multiply_by_power_of_ten@__crt_strtox@@YA_NAAUbig_integer@1@I@Z 10051c10 f i libucrt:input.obj
 0001:000511a0       ?multiply_core@__crt_strtox@@YAIQAIII@Z 100521a0 f i libucrt:input.obj
 0001:000511de       ?normal_mantissa_mask@floating_point_value@__crt_strtox@@QBE_KXZ 100521de f i libucrt:input.obj
 0001:000511f5       ?process@?$input_processor@DV?$stream_input_adapter@D@__crt_stdio_input@@@__crt_stdio_input@@QAEHXZ 100521f5 f i libucrt:input.obj
 0001:00051280       ?process@?$input_processor@DV?$string_input_adapter@D@__crt_stdio_input@@@__crt_stdio_input@@QAEHXZ 10052280 f i libucrt:input.obj
 0001:00051304       ?process@?$input_processor@_WV?$stream_input_adapter@_W@__crt_stdio_input@@@__crt_stdio_input@@QAEHXZ 10052304 f i libucrt:input.obj
 0001:00051391       ?process@?$input_processor@_WV?$string_input_adapter@_W@__crt_stdio_input@@@__crt_stdio_input@@QAEHXZ 10052391 f i libucrt:input.obj
 0001:0005141e       ?process_character_count_specifier@?$input_processor@DV?$stream_input_adapter@D@__crt_stdio_input@@@__crt_stdio_input@@AAE_NXZ 1005241e f i libucrt:input.obj
 0001:00051432       ?process_character_count_specifier@?$input_processor@DV?$string_input_adapter@D@__crt_stdio_input@@@__crt_stdio_input@@AAE_NXZ 10052432 f i libucrt:input.obj
 0001:0005144a       ?process_character_count_specifier@?$input_processor@_WV?$stream_input_adapter@_W@__crt_stdio_input@@@__crt_stdio_input@@AAE_NXZ 1005244a f i libucrt:input.obj
 0001:0005145e       ?process_character_count_specifier@?$input_processor@_WV?$string_input_adapter@_W@__crt_stdio_input@@@__crt_stdio_input@@AAE_NXZ 1005245e f i libucrt:input.obj
 0001:00051478       ?process_conversion_specifier@?$input_processor@DV?$stream_input_adapter@D@__crt_stdio_input@@@__crt_stdio_input@@AAE_NXZ 10052478 f i libucrt:input.obj
 0001:000514ec       ?process_conversion_specifier@?$input_processor@DV?$string_input_adapter@D@__crt_stdio_input@@@__crt_stdio_input@@AAE_NXZ 100524ec f i libucrt:input.obj
 0001:00051560       ?process_conversion_specifier@?$input_processor@_WV?$stream_input_adapter@_W@__crt_stdio_input@@@__crt_stdio_input@@AAE_NXZ 10052560 f i libucrt:input.obj
 0001:000515d4       ?process_conversion_specifier@?$input_processor@_WV?$string_input_adapter@_W@__crt_stdio_input@@@__crt_stdio_input@@AAE_NXZ 100525d4 f i libucrt:input.obj
 0001:00051648       ?process_floating_point_specifier@?$input_processor@DV?$stream_input_adapter@D@__crt_stdio_input@@@__crt_stdio_input@@AAE_NXZ 10052648 f i libucrt:input.obj
 0001:00051678       ?process_floating_point_specifier@?$input_processor@DV?$string_input_adapter@D@__crt_stdio_input@@@__crt_stdio_input@@AAE_NXZ 10052678 f i libucrt:input.obj
 0001:000516a8       ?process_floating_point_specifier@?$input_processor@_WV?$stream_input_adapter@_W@__crt_stdio_input@@@__crt_stdio_input@@AAE_NXZ 100526a8 f i libucrt:input.obj
 0001:000516d8       ?process_floating_point_specifier@?$input_processor@_WV?$string_input_adapter@_W@__crt_stdio_input@@@__crt_stdio_input@@AAE_NXZ 100526d8 f i libucrt:input.obj
 0001:00051708       ?process_integer_specifier@?$input_processor@DV?$stream_input_adapter@D@__crt_stdio_input@@@__crt_stdio_input@@AAE_NI_N@Z 10052708 f i libucrt:input.obj
 0001:0005176d       ?process_integer_specifier@?$input_processor@DV?$string_input_adapter@D@__crt_stdio_input@@@__crt_stdio_input@@AAE_NI_N@Z 1005276d f i libucrt:input.obj
 0001:000517d2       ?process_integer_specifier@?$input_processor@_WV?$stream_input_adapter@_W@__crt_stdio_input@@@__crt_stdio_input@@AAE_NI_N@Z 100527d2 f i libucrt:input.obj
 0001:00051837       ?process_integer_specifier@?$input_processor@_WV?$string_input_adapter@_W@__crt_stdio_input@@@__crt_stdio_input@@AAE_NI_N@Z 10052837 f i libucrt:input.obj
 0001:0005189c       ?process_literal_character@?$input_processor@DV?$stream_input_adapter@D@__crt_stdio_input@@@__crt_stdio_input@@AAE_NXZ 1005289c f i libucrt:input.obj
 0001:000518d2       ?process_literal_character@?$input_processor@DV?$string_input_adapter@D@__crt_stdio_input@@@__crt_stdio_input@@AAE_NXZ 100528d2 f i libucrt:input.obj
 0001:00051908       ?process_literal_character@?$input_processor@_WV?$stream_input_adapter@_W@__crt_stdio_input@@@__crt_stdio_input@@AAE_NXZ 10052908 f i libucrt:input.obj
 0001:0005193d       ?process_literal_character@?$input_processor@_WV?$string_input_adapter@_W@__crt_stdio_input@@@__crt_stdio_input@@AAE_NXZ 1005293d f i libucrt:input.obj
 0001:00051972       ?process_literal_character_tchar@?$input_processor@DV?$stream_input_adapter@D@__crt_stdio_input@@@__crt_stdio_input@@AAE_ND@Z 10052972 f i libucrt:input.obj
 0001:000519c9       ?process_literal_character_tchar@?$input_processor@DV?$string_input_adapter@D@__crt_stdio_input@@@__crt_stdio_input@@AAE_ND@Z 100529c9 f i libucrt:input.obj
 0001:00051a17       ?process_literal_character_tchar@?$input_processor@_WV?$stream_input_adapter@_W@__crt_stdio_input@@@__crt_stdio_input@@AAE_N_W@Z 10052a17 f i libucrt:input.obj
 0001:00051a1c       ?process_literal_character_tchar@?$input_processor@_WV?$string_input_adapter@_W@__crt_stdio_input@@@__crt_stdio_input@@AAE_N_W@Z 10052a1c f i libucrt:input.obj
 0001:00051a21       ?process_state@?$input_processor@DV?$stream_input_adapter@D@__crt_stdio_input@@@__crt_stdio_input@@AAE_NXZ 10052a21 f i libucrt:input.obj
 0001:00051a63       ?process_state@?$input_processor@DV?$string_input_adapter@D@__crt_stdio_input@@@__crt_stdio_input@@AAE_NXZ 10052a63 f i libucrt:input.obj
 0001:00051aa5       ?process_state@?$input_processor@_WV?$stream_input_adapter@_W@__crt_stdio_input@@@__crt_stdio_input@@AAE_NXZ 10052aa5 f i libucrt:input.obj
 0001:00051ae7       ?process_state@?$input_processor@_WV?$string_input_adapter@_W@__crt_stdio_input@@@__crt_stdio_input@@AAE_NXZ 10052ae7 f i libucrt:input.obj
 0001:00051b29       ?process_string_specifier@?$input_processor@DV?$stream_input_adapter@D@__crt_stdio_input@@@__crt_stdio_input@@AAE_NW4conversion_mode@2@@Z 10052b29 f i libucrt:input.obj
 0001:00051b71       ?process_string_specifier@?$input_processor@DV?$string_input_adapter@D@__crt_stdio_input@@@__crt_stdio_input@@AAE_NW4conversion_mode@2@@Z 10052b71 f i libucrt:input.obj
 0001:00051bb9       ?process_string_specifier@?$input_processor@_WV?$stream_input_adapter@_W@__crt_stdio_input@@@__crt_stdio_input@@AAE_NW4conversion_mode@2@@Z 10052bb9 f i libucrt:input.obj
 0001:00051c01       ?process_string_specifier@?$input_processor@_WV?$string_input_adapter@_W@__crt_stdio_input@@@__crt_stdio_input@@AAE_NW4conversion_mode@2@@Z 10052c01 f i libucrt:input.obj
 0001:00051c49       ?process_whitespace@?$input_processor@DV?$stream_input_adapter@D@__crt_stdio_input@@@__crt_stdio_input@@AAE_NXZ 10052c49 f i libucrt:input.obj
 0001:00051c66       ?process_whitespace@?$input_processor@DV?$string_input_adapter@D@__crt_stdio_input@@@__crt_stdio_input@@AAE_NXZ 10052c66 f i libucrt:input.obj
 0001:00051c83       ?process_whitespace@?$input_processor@_WV?$stream_input_adapter@_W@__crt_stdio_input@@@__crt_stdio_input@@AAE_NXZ 10052c83 f i libucrt:input.obj
 0001:00051ca3       ?process_whitespace@?$input_processor@_WV?$string_input_adapter@_W@__crt_stdio_input@@@__crt_stdio_input@@AAE_NXZ 10052ca3 f i libucrt:input.obj
 0001:00051cc3       ?release@?$__crt_unique_heap_ptr@EU__crt_internal_free_policy@@@@QAEXXZ 10052cc3 f i libucrt:input.obj
 0001:00051cd5       ?reset@?$scanset_buffer@E@__crt_stdio_input@@QAEXXZ 10052cd5 f i libucrt:input.obj
 0001:00051ce7       ?reset@?$scanset_buffer@_W@__crt_stdio_input@@QAEXXZ 10052ce7 f i libucrt:input.obj
 0001:00051d01       ?reset_token_state@?$format_string_parser@D@__crt_stdio_input@@AAEXXZ 10052d01 f i libucrt:input.obj
 0001:00051d1d       ?reset_token_state@?$format_string_parser@_W@__crt_stdio_input@@AAEXXZ 10052d1d f i libucrt:input.obj
 0001:00051d3a       ?reset_token_state_for_error@?$format_string_parser@D@__crt_stdio_input@@AAEXH@Z 10052d3a f i libucrt:input.obj
 0001:00051d64       ?reset_token_state_for_error@?$format_string_parser@_W@__crt_stdio_input@@AAEXH@Z 10052d64 f i libucrt:input.obj
 0001:00051d8f       ?restore_state@?$input_adapter_character_source@V?$stream_input_adapter@D@__crt_stdio_input@@@__crt_strtox@@QAE_N_K@Z 10052d8f f i libucrt:input.obj
 0001:00051db4       ?restore_state@?$input_adapter_character_source@V?$stream_input_adapter@_W@__crt_stdio_input@@@__crt_strtox@@QAE_N_K@Z 10052db4 f i libucrt:input.obj
 0001:00051dd9       ?restore_state@?$input_adapter_character_source@V?$string_input_adapter@D@__crt_stdio_input@@@__crt_strtox@@QAE_N_K@Z 10052dd9 f i libucrt:input.obj
 0001:00051dfe       ?restore_state@?$input_adapter_character_source@V?$string_input_adapter@_W@__crt_stdio_input@@@__crt_strtox@@QAE_N_K@Z 10052dfe f i libucrt:input.obj
 0001:00051e23       ?right_shift_with_rounding@__crt_strtox@@YA_K_N_KI0@Z 10052e23 f i libucrt:input.obj
 0001:00051f0e       ?save_state@?$input_adapter_character_source@V?$stream_input_adapter@D@__crt_stdio_input@@@__crt_strtox@@QBE_KXZ 10052f0e f i libucrt:input.obj
 0001:00051f15       ?save_state@?$input_adapter_character_source@V?$stream_input_adapter@_W@__crt_stdio_input@@@__crt_strtox@@QBE_KXZ 10052f15 f i libucrt:input.obj
 0001:00051f1c       ?save_state@?$input_adapter_character_source@V?$string_input_adapter@D@__crt_stdio_input@@@__crt_strtox@@QBE_KXZ 10052f1c f i libucrt:input.obj
 0001:00051f23       ?save_state@?$input_adapter_character_source@V?$string_input_adapter@_W@__crt_stdio_input@@@__crt_strtox@@QBE_KXZ 10052f23 f i libucrt:input.obj
 0001:00051f2a       ?scan_conversion_specifier@?$format_string_parser@D@__crt_stdio_input@@AAE_NXZ 10052f2a f i libucrt:input.obj
 0001:000520a6       ?scan_conversion_specifier@?$format_string_parser@_W@__crt_stdio_input@@AAE_NXZ 100530a6 f i libucrt:input.obj
 0001:00052206       ?scan_optional_assignment_suppressor@?$format_string_parser@D@__crt_stdio_input@@AAEXXZ 10053206 f i libucrt:input.obj
 0001:00052217       ?scan_optional_assignment_suppressor@?$format_string_parser@_W@__crt_stdio_input@@AAEXXZ 10053217 f i libucrt:input.obj
 0001:0005222b       ?scan_optional_field_width@?$format_string_parser@D@__crt_stdio_input@@AAE_NXZ 1005322b f i libucrt:input.obj
 0001:000522bf       ?scan_optional_field_width@?$format_string_parser@_W@__crt_stdio_input@@AAE_NXZ 100532bf f i libucrt:input.obj
 0001:000524ba       ?scan_optional_length_modifier@?$format_string_parser@D@__crt_stdio_input@@AAEXXZ 100534ba f i libucrt:input.obj
 0001:000525da       ?scan_optional_length_modifier@?$format_string_parser@_W@__crt_stdio_input@@AAEXXZ 100535da f i libucrt:input.obj
 0001:00052713       ?scan_optional_literal_character_trail_bytes_tchar@?$format_string_parser@D@__crt_stdio_input@@AAE_ND@Z 10053713 f i libucrt:input.obj
 0001:00052765       ?scan_optional_literal_character_trail_bytes_tchar@?$format_string_parser@_W@__crt_stdio_input@@AAE_N_W@Z 10053765 f i libucrt:input.obj
 0001:0005276a       ?scan_optional_wide_modifier@?$format_string_parser@D@__crt_stdio_input@@AAEXXZ 1005376a f i libucrt:input.obj
 0001:00052788       ?scan_optional_wide_modifier@?$format_string_parser@_W@__crt_stdio_input@@AAEXXZ 10053788 f i libucrt:input.obj
 0001:000527b2       ?scan_scanset_range@?$format_string_parser@D@__crt_stdio_input@@AAE_NXZ 100537b2 f i libucrt:input.obj
 0001:000528eb       ?scan_scanset_range@?$format_string_parser@_W@__crt_stdio_input@@AAE_NXZ 100538eb f i libucrt:input.obj
 0001:00052a23       ?scanset@?$format_string_parser@D@__crt_stdio_input@@QBEABV?$scanset_buffer@E@2@XZ 10053a23 f i libucrt:input.obj
 0001:00052a27       ?scanset@?$format_string_parser@_W@__crt_stdio_input@@QBEABV?$scanset_buffer@_W@2@XZ 10053a27 f i libucrt:input.obj
 0001:00052a2b       ?secure_buffers@?$input_processor@DV?$stream_input_adapter@D@__crt_stdio_input@@@__crt_stdio_input@@ABE_NXZ 10053a2b f i libucrt:input.obj
 0001:00052a3c       ?secure_buffers@?$input_processor@DV?$string_input_adapter@D@__crt_stdio_input@@@__crt_stdio_input@@ABE_NXZ 10053a3c f i libucrt:input.obj
 0001:00052a4d       ?secure_buffers@?$input_processor@_WV?$stream_input_adapter@_W@__crt_stdio_input@@@__crt_stdio_input@@ABE_NXZ 10053a4d f i libucrt:input.obj
 0001:00052a5e       ?secure_buffers@?$input_processor@_WV?$string_input_adapter@_W@__crt_stdio_input@@@__crt_stdio_input@@ABE_NXZ 10053a5e f i libucrt:input.obj
 0001:00052a6f       ?set@?$scanset_buffer@E@__crt_stdio_input@@QAEXE@Z 10053a6f f i libucrt:input.obj
 0001:00052a9a       ?set@?$scanset_buffer@_W@__crt_stdio_input@@QAEX_W@Z 10053a9a f i libucrt:input.obj
 0001:00052aca       ?set_wide_for_c_s_or_scanset@?$format_string_parser@D@__crt_stdio_input@@AAEXXZ 10053aca f i libucrt:input.obj
 0001:00052aeb       ?set_wide_for_c_s_or_scanset@?$format_string_parser@_W@__crt_stdio_input@@AAEXXZ 10053aeb f i libucrt:input.obj
 0001:00052b10       ?shift_left@__crt_strtox@@YA_NAAUbig_integer@1@I@Z 10053b10 f i libucrt:input.obj
 0001:00052c3f       ?should_default_to_wide@?$format_string_parser@D@__crt_stdio_input@@AAE_NE@Z 10053c3f f i libucrt:input.obj
 0001:00052c59       ?should_default_to_wide@?$format_string_parser@_W@__crt_stdio_input@@AAE_N_W@Z 10053c59 f i libucrt:input.obj
 0001:00052c8d       ?should_round_up@__crt_strtox@@YA_N_N000@Z 10053c8d f i libucrt:input.obj
 0001:00052cda       ?size@?$scanset_storage@$00@__crt_stdio_input@@QBEIXZ 10053cda f i libucrt:input.obj
 0001:00052cde       ?size@?$scanset_storage@$01@__crt_stdio_input@@QBEIXZ 10053cde f i libucrt:input.obj
 0001:00052ce4       ?suppress_assignment@?$format_string_parser@D@__crt_stdio_input@@QBE_NXZ 10053ce4 f i libucrt:input.obj
 0001:00052ce8       ?suppress_assignment@?$format_string_parser@_W@__crt_stdio_input@@QBE_NXZ 10053ce8 f i libucrt:input.obj
 0001:00052cec       ?test@?$scanset_buffer@E@__crt_stdio_input@@QBE_NE@Z 10053cec f i libucrt:input.obj
 0001:00052d10       ?test@?$scanset_buffer@_W@__crt_stdio_input@@QBE_N_W@Z 10053d10 f i libucrt:input.obj
 0001:00052d45       ?to_floating_point_length@__crt_stdio_input@@YAIW4length_modifier@1@@Z 10053d45 f i libucrt:input.obj
 0001:00052d68       ?to_integer_length@__crt_stdio_input@@YAIW4length_modifier@1@@Z 10053d68 f i libucrt:input.obj
 0001:00052dbb       ?unget@?$input_adapter_character_source@V?$stream_input_adapter@D@__crt_stdio_input@@@__crt_strtox@@QAEXD@Z 10053dbb f i libucrt:input.obj
 0001:00052e02       ?unget@?$input_adapter_character_source@V?$stream_input_adapter@_W@__crt_stdio_input@@@__crt_strtox@@QAEX_W@Z 10053e02 f i libucrt:input.obj
 0001:00052e4d       ?unget@?$input_adapter_character_source@V?$string_input_adapter@D@__crt_stdio_input@@@__crt_strtox@@QAEXD@Z 10053e4d f i libucrt:input.obj
 0001:00052e94       ?unget@?$input_adapter_character_source@V?$string_input_adapter@_W@__crt_stdio_input@@@__crt_strtox@@QAEX_W@Z 10053e94 f i libucrt:input.obj
 0001:00052edf       ?unget@?$stream_input_adapter@D@__crt_stdio_input@@QAEXH@Z 10053edf f i libucrt:input.obj
 0001:00052efd       ?unget@?$stream_input_adapter@_W@__crt_stdio_input@@QAEXG@Z 10053efd f i libucrt:input.obj
 0001:00052f20       ?unget@?$string_input_adapter@D@__crt_stdio_input@@QAEXH@Z 10053f20 f i libucrt:input.obj
 0001:00052f3f       ?unget@?$string_input_adapter@_W@__crt_stdio_input@@QAEXG@Z 10053f3f f i libucrt:input.obj
 0001:00052f65       ?validate@?$format_string_parser@D@__crt_stdio_input@@QBE_NXZ 10053f65 f i libucrt:input.obj
 0001:00052f81       ?validate@?$format_string_parser@_W@__crt_stdio_input@@QBE_NXZ 10053f81 f i libucrt:input.obj
 0001:00052f9d       ?validate@?$input_adapter_character_source@V?$stream_input_adapter@D@__crt_stdio_input@@@__crt_strtox@@QBE_NXZ 10053f9d f i libucrt:input.obj
 0001:00052fbe       ?validate@?$input_adapter_character_source@V?$stream_input_adapter@_W@__crt_stdio_input@@@__crt_strtox@@QBE_NXZ 10053fbe f i libucrt:input.obj
 0001:00052fdf       ?validate@?$input_adapter_character_source@V?$string_input_adapter@D@__crt_stdio_input@@@__crt_strtox@@QBE_NXZ 10053fdf f i libucrt:input.obj
 0001:00053000       ?validate@?$input_adapter_character_source@V?$string_input_adapter@_W@__crt_stdio_input@@@__crt_strtox@@QBE_NXZ 10054000 f i libucrt:input.obj
 0001:00053021       ?validate@?$stream_input_adapter@D@__crt_stdio_input@@QBE_NXZ 10054021 f i libucrt:input.obj
 0001:00053042       ?validate@?$stream_input_adapter@_W@__crt_stdio_input@@QBE_NXZ 10054042 f i libucrt:input.obj
 0001:0005305d       ?validate@?$string_input_adapter@D@__crt_stdio_input@@QAE_NXZ 1005405d f i libucrt:input.obj
 0001:0005307f       ?validate@?$string_input_adapter@_W@__crt_stdio_input@@QAE_NXZ 1005407f f i libucrt:input.obj
 0001:000530a1       ?width@?$format_string_parser@D@__crt_stdio_input@@QBE_KXZ 100540a1 f i libucrt:input.obj
 0001:000530a8       ?width@?$format_string_parser@_W@__crt_stdio_input@@QBE_KXZ 100540a8 f i libucrt:input.obj
 0001:000530af       ?write_character@?$input_processor@DV?$stream_input_adapter@D@__crt_stdio_input@@@__crt_stdio_input@@AAE_NQADIAAPADAAID@Z 100540af f i libucrt:input.obj
 0001:000530cb       ?write_character@?$input_processor@DV?$stream_input_adapter@D@__crt_stdio_input@@@__crt_stdio_input@@AAE_NQA_WIAAPA_WAAID@Z 100540cb f i libucrt:input.obj
 0001:00053141       ?write_character@?$input_processor@DV?$string_input_adapter@D@__crt_stdio_input@@@__crt_stdio_input@@AAE_NQADIAAPADAAID@Z 10054141 f i libucrt:input.obj
 0001:0005315d       ?write_character@?$input_processor@DV?$string_input_adapter@D@__crt_stdio_input@@@__crt_stdio_input@@AAE_NQA_WIAAPA_WAAID@Z 1005415d f i libucrt:input.obj
 0001:000531ca       ?write_character@?$input_processor@_WV?$stream_input_adapter@_W@__crt_stdio_input@@@__crt_stdio_input@@AAE_NQADIAAPADAAI_W@Z 100541ca f i libucrt:input.obj
 0001:00053250       ?write_character@?$input_processor@_WV?$stream_input_adapter@_W@__crt_stdio_input@@@__crt_stdio_input@@AAE_NQA_WIAAPA_WAAI_W@Z 10054250 f i libucrt:input.obj
 0001:0005326f       ?write_character@?$input_processor@_WV?$string_input_adapter@_W@__crt_stdio_input@@@__crt_stdio_input@@AAE_NQADIAAPADAAI_W@Z 1005426f f i libucrt:input.obj
 0001:000532f5       ?write_character@?$input_processor@_WV?$string_input_adapter@_W@__crt_stdio_input@@@__crt_stdio_input@@AAE_NQA_WIAAPA_WAAI_W@Z 100542f5 f i libucrt:input.obj
 0001:00053314       ?write_integer@?$input_processor@DV?$stream_input_adapter@D@__crt_stdio_input@@@__crt_stdio_input@@AAE_N_K@Z 10054314 f i libucrt:input.obj
 0001:00053383       ?write_integer@?$input_processor@DV?$string_input_adapter@D@__crt_stdio_input@@@__crt_stdio_input@@AAE_N_K@Z 10054383 f i libucrt:input.obj
 0001:000533f2       ?write_integer@?$input_processor@_WV?$stream_input_adapter@_W@__crt_stdio_input@@@__crt_stdio_input@@AAE_N_K@Z 100543f2 f i libucrt:input.obj
 0001:00053461       ?write_integer@?$input_processor@_WV?$string_input_adapter@_W@__crt_stdio_input@@@__crt_stdio_input@@AAE_N_K@Z 10054461 f i libucrt:input.obj
 0001:000534d0       ___stdio_common_vfscanf    100544d0 f   libucrt:input.obj
 0001:00053555       ___stdio_common_vfwscanf   10054555 f   libucrt:input.obj
 0001:000535da       ___stdio_common_vsscanf    100545da f   libucrt:input.obj
 0001:000535fe       ___stdio_common_vswscanf   100545fe f   libucrt:input.obj
 0001:00053622       __invoke_watson_if_oneof   10054622 f i libucrt:input.obj
 0001:000536d0       ??0?$__crt_scoped_stack_ptr@D@@QAE@U?$__crt_scoped_stack_ptr_tag@D@@@Z 100546d0 f i libucrt:strupr.obj
 0001:000536e0       ??0?$__crt_scoped_stack_ptr_tag@D@@QAE@QAD@Z 100546e0 f i libucrt:strupr.obj
 0001:000536f0       ??1?$__crt_scoped_stack_ptr@D@@QAE@XZ 100546f0 f i libucrt:strupr.obj
 0001:000536f9       ??B?$__crt_scoped_stack_ptr@D@@QBE_NXZ 100546f9 f i libucrt:strupr.obj
 0001:00053876       ?get@?$__crt_scoped_stack_ptr@D@@QBEPADXZ 10054876 f i libucrt:strupr.obj
 0001:00053879       __MallocaComputeSize       10054879 f i libucrt:strupr.obj
 0001:0005388c       __MarkAllocaS              1005488c f i libucrt:strupr.obj
 0001:000538a2       __freea_crt                100548a2 f i libucrt:strupr.obj
 0001:000538c2       __strupr                   100548c2 f   libucrt:strupr.obj
 0001:0005391e       __strupr_l                 1005491e f   libucrt:strupr.obj
 0001:00053938       __strupr_s                 10054938 f   libucrt:strupr.obj
 0001:0005394f       __strupr_s_l               1005494f f   libucrt:strupr.obj
 0001:00053986       ??1scoped_global_state_reset@__crt_state_management@@QAE@XZ 10054986 f i libucrt:qsort.obj
 0001:00053a50       _qsort                     10054a50 f   libucrt:qsort.obj
 0001:00054063       ?is_in_use@__crt_stdio_stream@@QBE_NXZ 10055063 f i libucrt:fclose.obj
 0001:0005406f       __fclose_nolock            1005506f f   libucrt:fclose.obj
 0001:0005409f       _fclose                    1005509f f   libucrt:fclose.obj
 0001:000542ca       ??$open_file@ABQBDABQBDABHPAU_iobuf@@@?$__crt_char_traits@D@@SAPAU_iobuf@@ABQBD0ABH$$QAPAU1@@Z 100552ca f i libucrt:fopen.obj
 0001:000542ed       ??$open_file@ABQB_WABQB_WABHPAU_iobuf@@@?$__crt_char_traits@_W@@SAPAU_iobuf@@ABQB_W0ABH$$QAPAU1@@Z 100552ed f i libucrt:fopen.obj
 0001:00054310       ?unlock@__crt_stdio_stream@@QBEXXZ 10055310 f i libucrt:fopen.obj
 0001:00054319       __fsopen                   10055319 f   libucrt:fopen.obj
 0001:00054324       __wfopen                   10055324 f   libucrt:fopen.obj
 0001:0005433b       __wfopen_s                 1005533b f   libucrt:fopen.obj
 0001:00054382       __wfsopen                  10055382 f   libucrt:fopen.obj
 0001:0005438d       _fopen                     1005538d f   libucrt:fopen.obj
 0001:000543a4       _fopen_s                   100553a4 f   libucrt:fopen.obj
 0001:0005440f       __seh_filter_dll           1005540f f   libucrt:exception_filter.obj
 0001:0005442f       __seh_filter_exe           1005542f f   libucrt:exception_filter.obj
 0001:00054575       ??$?B$$A6GXPAXK0@Z@__crt_fast_encoded_nullptr_t@@QBEP6GXPAXK0@ZXZ 10055575 f i libucrt:exit.obj
 0001:0005461d       ??$__crt_fast_decode_pointer@P6GXPAXK0@Z@@YAP6GXPAXK0@ZQ6GX0K0@Z@Z 1005561d f i libucrt:exit.obj
 0001:00054638       ??$__crt_fast_encode_pointer@P6GXPAXK0@Z@@YAP6GXPAXK0@ZQ6GX0K0@Z@Z 10055638 f i libucrt:exit.obj
 0001:00054657       ??$__crt_get_proc_address@P6GXI@Z@@YAP6GXI@ZQAUHINSTANCE__@@QBD@Z 10055657 f i libucrt:exit.obj
 0001:000546aa       ??0?$__crt_unique_handle_t@U__crt_hmodule_traits@@@@QAE@QAUHINSTANCE__@@@Z 100556aa f i libucrt:exit.obj
 0001:000546ba       ??1?$__crt_unique_handle_t@U__crt_hmodule_traits@@@@QAE@XZ 100556ba f i libucrt:exit.obj
 0001:000547cb       ?__acrt_select_exit_lock@@YA?AW4__acrt_lock_id@@XZ 100557cb f i libucrt:exit.obj
 0001:000547cf       ?__crt_fast_encode_pointer@@YA?AU__crt_fast_encoded_nullptr_t@@$$T@Z 100557cf f i libucrt:exit.obj
 0001:000547ed       ?close@?$__crt_unique_handle_t@U__crt_hmodule_traits@@@@QAEXXZ 100557ed f i libucrt:exit.obj
 0001:00054804       ?close@__crt_hmodule_traits@@SA_NPAUHINSTANCE__@@@Z 10055804 f i libucrt:exit.obj
 0001:000548e1       ?get@?$__crt_unique_handle_t@U__crt_hmodule_traits@@@@QBEPAUHINSTANCE__@@XZ 100558e1 f i libucrt:exit.obj
 0001:000548e4       ?get_address_of@?$__crt_unique_handle_t@U__crt_hmodule_traits@@@@QAEPAPAUHINSTANCE__@@XZ 100558e4 f i libucrt:exit.obj
 0001:000548e7       ?get_invalid_value@__crt_hmodule_traits@@SAPAUHINSTANCE__@@XZ 100558e7 f i libucrt:exit.obj
 0001:000549c7       __Exit                     100559c7 f   libucrt:exit.obj
 0001:000549dd       ___acrt_initialize_thread_local_exit_callback 100559dd f   libucrt:exit.obj
 0001:000549ec       __c_exit                   100559ec f   libucrt:exit.obj
 0001:000549fb       __cexit                    100559fb f   libucrt:exit.obj
 0001:00054a0a       __exit                     10055a0a f   libucrt:exit.obj
 0001:00054a20       __is_c_termination_complete 10055a20 f   libucrt:exit.obj
 0001:00054a27       __register_thread_local_exe_atexit_callback 10055a27 f   libucrt:exit.obj
 0001:00054a4d       _exit                      10055a4d f   libucrt:exit.obj
 0001:00054a63       _quick_exit                10055a63 f   libucrt:exit.obj
 0001:00054a79       ??$?RPAD@__crt_internal_free_policy@@QBEXQBQAD@Z 10055a79 f i libucrt:argv_parsing.obj
 0001:00054a8b       ??$?RPA_W@__crt_internal_free_policy@@QBEXQBQA_W@Z 10055a8b f i libucrt:argv_parsing.obj
 0001:00054d10       ??$get_module_file_name@$$TAAY0BAF@DH@?$__crt_char_traits@D@@SAK$$QA$$TAAY0BAF@D$$QAH@Z 10055d10 f i libucrt:argv_parsing.obj
 0001:00054d2c       ??$get_module_file_name@$$TAAY0BAF@_WH@?$__crt_char_traits@_W@@SAK$$QA$$TAAY0BAF@_W$$QAH@Z 10055d2c f i libucrt:argv_parsing.obj
 0001:0005505b       ??$set_program_name@PAD@?$__crt_char_traits@D@@SAX$$QAPAD@Z 1005605b f i libucrt:argv_parsing.obj
 0001:0005506c       ??$set_program_name@PA_W@?$__crt_char_traits@_W@@SAX$$QAPA_W@Z 1005606c f i libucrt:argv_parsing.obj
 0001:0005509d       ??0?$__crt_unique_heap_ptr@PADU__crt_internal_free_policy@@@@QAE@QAPAD@Z 1005609d f i libucrt:argv_parsing.obj
 0001:000550ad       ??0?$__crt_unique_heap_ptr@PA_WU__crt_internal_free_policy@@@@QAE@QAPA_W@Z 100560ad f i libucrt:argv_parsing.obj
 0001:000550bd       ??1?$__crt_unique_heap_ptr@PADU__crt_internal_free_policy@@@@QAE@XZ 100560bd f i libucrt:argv_parsing.obj
 0001:000550cf       ??1?$__crt_unique_heap_ptr@PA_WU__crt_internal_free_policy@@@@QAE@XZ 100560cf f i libucrt:argv_parsing.obj
 0001:0005510d       ?detach@?$__crt_unique_heap_ptr@EU__crt_internal_free_policy@@@@QAEPAEXZ 1005610d f i libucrt:argv_parsing.obj
 0001:00055113       ?detach@?$__crt_unique_heap_ptr@PADU__crt_internal_free_policy@@@@QAEPAPADXZ 10056113 f i libucrt:argv_parsing.obj
 0001:00055119       ?detach@?$__crt_unique_heap_ptr@PA_WU__crt_internal_free_policy@@@@QAEPAPA_WXZ 10056119 f i libucrt:argv_parsing.obj
 0001:0005513d       ?get@?$__crt_unique_heap_ptr@PADU__crt_internal_free_policy@@@@QBEPAPADXZ 1005613d f i libucrt:argv_parsing.obj
 0001:00055140       ?get@?$__crt_unique_heap_ptr@PA_WU__crt_internal_free_policy@@@@QBEPAPA_WXZ 10056140 f i libucrt:argv_parsing.obj
 0001:00055143       ?get_address_of@?$__crt_unique_heap_ptr@PADU__crt_internal_free_policy@@@@QAEPAPAPADXZ 10056143 f i libucrt:argv_parsing.obj
 0001:00055146       ?get_address_of@?$__crt_unique_heap_ptr@PA_WU__crt_internal_free_policy@@@@QAEPAPAPA_WXZ 10056146 f i libucrt:argv_parsing.obj
 0001:00055161       ?release@?$__crt_unique_heap_ptr@PADU__crt_internal_free_policy@@@@QAEXXZ 10056161 f i libucrt:argv_parsing.obj
 0001:00055173       ?release@?$__crt_unique_heap_ptr@PA_WU__crt_internal_free_policy@@@@QAEXXZ 10056173 f i libucrt:argv_parsing.obj
 0001:0005519f       ___acrt_allocate_buffer_for_argv 1005619f f   libucrt:argv_parsing.obj
 0001:000551ee       __configure_narrow_argv    100561ee f   libucrt:argv_parsing.obj
 0001:000551f9       __configure_wide_argv      100561f9 f   libucrt:argv_parsing.obj
 0001:00055204       __set_pgmptr               10056204 f i libucrt:argv_parsing.obj
 0001:00055213       __set_wpgmptr              10056213 f i libucrt:argv_parsing.obj
 0001:00055222       ??$?R_W@__crt_internal_free_policy@@QBEXQB_W@Z 10056222 f i libucrt:environment_initialization.obj
 0001:0005563e       ??$get_environment_from_os@$$V@?$__crt_char_traits@D@@SAPADXZ 1005663e f i libucrt:environment_initialization.obj
 0001:00055643       ??$get_environment_from_os@$$V@?$__crt_char_traits@_W@@SAPA_WXZ 10056643 f i libucrt:environment_initialization.obj
 0001:0005574c       ??$set_variable_in_environment_nolock@PADH@?$__crt_char_traits@D@@SAH$$QAPAD$$QAH@Z 1005674c f i libucrt:environment_initialization.obj
 0001:00055764       ??$set_variable_in_environment_nolock@PA_WH@?$__crt_char_traits@_W@@SAH$$QAPA_W$$QAH@Z 10056764 f i libucrt:environment_initialization.obj
 0001:0005577c       ??$tcscpy_s@PADABIAAPAD@?$__crt_char_traits@D@@SAH$$QAPADABIAAPAD@Z 1005677c f i libucrt:environment_initialization.obj
 0001:0005579a       ??$tcscpy_s@PA_WABIAAPA_W@?$__crt_char_traits@_W@@SAH$$QAPA_WABIAAPA_W@Z 1005679a f i libucrt:environment_initialization.obj
 0001:000557b8       ??$tcslen@AAPAD@?$__crt_char_traits@D@@SAIAAPAD@Z 100567b8 f i libucrt:environment_initialization.obj
 0001:000557d0       ??$tcslen@AAPA_W@?$__crt_char_traits@_W@@SAIAAPA_W@Z 100567d0 f i libucrt:environment_initialization.obj
 0001:000557ee       ??$uninitialize@A6AXAAPAPAD@_E@?$dual_state_global@PAPAD@__crt_state_management@@QAEXA6AXAAPAPAD@_E@Z 100567ee f i libucrt:environment_initialization.obj
 0001:00055846       ??$uninitialize@A6AXAAPAPA_W@_E@?$dual_state_global@PAPA_W@__crt_state_management@@QAEXA6AXAAPAPA_W@_E@Z 10056846 f i libucrt:environment_initialization.obj
 0001:000558d4       ??0?$__crt_unique_heap_ptr@_WU__crt_internal_free_policy@@@@QAE@QA_W@Z 100568d4 f i libucrt:environment_initialization.obj
 0001:000558e4       ??1?$__crt_unique_heap_ptr@_WU__crt_internal_free_policy@@@@QAE@XZ 100568e4 f i libucrt:environment_initialization.obj
 0001:000558f6       ??B?$__crt_unique_heap_ptr@PADU__crt_internal_free_policy@@@@QBE_NXZ 100568f6 f i libucrt:environment_initialization.obj
 0001:000558fd       ??B?$__crt_unique_heap_ptr@PA_WU__crt_internal_free_policy@@@@QBE_NXZ 100568fd f i libucrt:environment_initialization.obj
 0001:00055904       ??B?$__crt_unique_heap_ptr@_WU__crt_internal_free_policy@@@@QBE_NXZ 10056904 f i libucrt:environment_initialization.obj
 0001:0005590b       ?__crt_compute_required_transform_buffer_count@@YAIIQBD@Z 1005690b f i libucrt:environment_initialization.obj
 0001:00055927       ?__crt_compute_required_transform_buffer_count@@YAIIQB_W@Z 10056927 f i libucrt:environment_initialization.obj
 0001:00055945       ?__crt_transform_string@@YAIIQBDQA_WI@Z 10056945 f i libucrt:environment_initialization.obj
 0001:00055964       ?__crt_transform_string@@YAIIQB_WQADI@Z 10056964 f i libucrt:environment_initialization.obj
 0001:00055986       ?detach@?$__crt_unique_heap_ptr@DU__crt_internal_free_policy@@@@QAEPADXZ 10056986 f i libucrt:environment_initialization.obj
 0001:0005598c       ?detach@?$__crt_unique_heap_ptr@_WU__crt_internal_free_policy@@@@QAEPA_WXZ 1005698c f i libucrt:environment_initialization.obj
 0001:00055992       ?get@?$__crt_unique_heap_ptr@_WU__crt_internal_free_policy@@@@QBEPA_WXZ 10056992 f i libucrt:environment_initialization.obj
 0001:000559b9       ?initialize@?$dual_state_global@PAPAD@__crt_state_management@@QAEXQAPAD@Z 100569b9 f i libucrt:environment_initialization.obj
 0001:000559d5       ?initialize@?$dual_state_global@PAPA_W@__crt_state_management@@QAEXQAPA_W@Z 100569d5 f i libucrt:environment_initialization.obj
 0001:000559f1       ?is_valid@?$__crt_unique_heap_ptr@PADU__crt_internal_free_policy@@@@QBE_NXZ 100569f1 f i libucrt:environment_initialization.obj
 0001:000559f8       ?is_valid@?$__crt_unique_heap_ptr@PA_WU__crt_internal_free_policy@@@@QBE_NXZ 100569f8 f i libucrt:environment_initialization.obj
 0001:000559ff       ?is_valid@?$__crt_unique_heap_ptr@_WU__crt_internal_free_policy@@@@QBE_NXZ 100569ff f i libucrt:environment_initialization.obj
 0001:00055a0e       ?release@?$__crt_unique_heap_ptr@_WU__crt_internal_free_policy@@@@QAEXXZ 10056a0e f i libucrt:environment_initialization.obj
 0001:00055a20       ?value@?$dual_state_global@PAPAD@__crt_state_management@@QAEAAPAPADXZ 10056a20 f i libucrt:environment_initialization.obj
 0001:00055a23       ?value@?$dual_state_global@PAPA_W@__crt_state_management@@QAEAAPAPA_WXZ 10056a23 f i libucrt:environment_initialization.obj
 0001:00055a26       ___dcrt_get_or_create_narrow_environment_nolock 10056a26 f   libucrt:environment_initialization.obj
 0001:00055a2b       ___dcrt_get_or_create_wide_environment_nolock 10056a2b f   libucrt:environment_initialization.obj
 0001:00055a30       ___dcrt_uninitialize_environments_nolock 10056a30 f   libucrt:environment_initialization.obj
 0001:00055a81       ___p__environ              10056a81 f   libucrt:environment_initialization.obj
 0001:00055a87       ___p__wenviron             10056a87 f   libucrt:environment_initialization.obj
 0001:00055a8d       __get_initial_narrow_environment 10056a8d f   libucrt:environment_initialization.obj
 0001:00055aa1       __get_initial_wide_environment 10056aa1 f   libucrt:environment_initialization.obj
 0001:00055ab5       __initialize_narrow_environment 10056ab5 f   libucrt:environment_initialization.obj
 0001:00055aba       __initialize_wide_environment 10056aba f   libucrt:environment_initialization.obj
 0001:00055abf       __invoke_watson_if_error   10056abf f i libucrt:environment_initialization.obj
 0001:00055ae1       ??$?B$$A6AXXZ@__crt_fast_encoded_nullptr_t@@QBEP6AXXZXZ 10056ae1 f i libucrt:onexit.obj
 0001:00055ae7       ??$?BP6AXXZ@__crt_fast_encoded_nullptr_t@@QBEPAP6AXXZXZ 10056ae7 f i libucrt:onexit.obj
 0001:00055aed       ??$?RP6AXXZ@__crt_internal_free_policy@@QBEXQBQ6AXXZ@Z 10056aed f i libucrt:onexit.obj
 0001:00055c30       ??$__crt_fast_decode_pointer@P6AXXZ@@YAP6AXXZQ6AXXZ@Z 10056c30 f i libucrt:onexit.obj
 0001:00055c4b       ??$__crt_fast_decode_pointer@PAP6AXXZ@@YAPAP6AXXZQAP6AXXZ@Z 10056c4b f i libucrt:onexit.obj
 0001:00055c66       ??$__crt_fast_encode_pointer@P6AHXZ@@YAP6AHXZQ6AHXZ@Z 10056c66 f i libucrt:onexit.obj
 0001:00055c85       ??$__crt_fast_encode_pointer@P6AXXZ@@YAP6AXXZQ6AXXZ@Z 10056c85 f i libucrt:onexit.obj
 0001:00055ca4       ??$__crt_fast_encode_pointer@PAP6AXXZ@@YAPAP6AXXZQAP6AXXZ@Z 10056ca4 f i libucrt:onexit.obj
 0001:00055d31       ??0?$__crt_unique_heap_ptr@P6AXXZU__crt_internal_free_policy@@@@QAE@QAP6AXXZ@Z 10056d31 f i libucrt:onexit.obj
 0001:00055d41       ??1?$__crt_unique_heap_ptr@P6AXXZU__crt_internal_free_policy@@@@QAE@XZ 10056d41 f i libucrt:onexit.obj
 0001:00055f53       ?detach@?$__crt_unique_heap_ptr@P6AXXZU__crt_internal_free_policy@@@@QAEPAP6AXXZXZ 10056f53 f i libucrt:onexit.obj
 0001:00055f59       ?release@?$__crt_unique_heap_ptr@P6AXXZU__crt_internal_free_policy@@@@QAEXXZ 10056f59 f i libucrt:onexit.obj
 0001:00055f6b       __crt_at_quick_exit        10056f6b f   libucrt:onexit.obj
 0001:00055f81       __crt_atexit               10056f81 f   libucrt:onexit.obj
 0001:00055f97       __execute_onexit_table     10056f97 f   libucrt:onexit.obj
 0001:00055fd5       __initialize_onexit_table  10056fd5 f   libucrt:onexit.obj
 0001:00055ffe       __register_onexit_function 10056ffe f   libucrt:onexit.obj
 0001:0005610d       ??$?BX@__crt_fast_encoded_nullptr_t@@QBEPAXXZ 1005710d f i libucrt:initialization.obj
 0001:00056113       ??$__crt_fast_encode_pointer@PAX@@YAPAXQAX@Z 10057113 f i libucrt:initialization.obj
 0001:00056184       ?__acrt_stdio_is_initialized@@YA_NXZ 10057184 f i libucrt:initialization.obj
 0001:0005618f       ?initialize@?$dual_state_global@PAU__crt_locale_data@@@__crt_state_management@@QAEXQAU__crt_locale_data@@@Z 1005718f f i libucrt:initialization.obj
 0001:000561ab       ___acrt_initialize         100571ab f   libucrt:initialization.obj
 0001:000561bd       ___acrt_thread_attach      100571bd f   libucrt:initialization.obj
 0001:000561c8       ___acrt_thread_detach      100571c8 f   libucrt:initialization.obj
 0001:000561d0       ___acrt_uninitialize       100571d0 f   libucrt:initialization.obj
 0001:00056200       ___acrt_uninitialize_critical 10057200 f   libucrt:initialization.obj
 0001:00056228       __get_terminate            10057228 f   libucrt:terminate.obj
 0001:0005623a       _set_terminate             1005723a f   libucrt:terminate.obj
 0001:0005625a       _terminate                 1005725a f   libucrt:terminate.obj
 0001:00056296       __initterm                 10057296 f   libucrt:initterm.obj
 0001:000562c1       __initterm_e               100572c1 f   libucrt:initterm.obj
 0001:000562ef       __set_abort_behavior       100572ef f   libucrt:abort.obj
 0001:00056310       _abort                     10057310 f   libucrt:abort.obj
 0001:00056354       _free                      10057354 f   libucrt:free.obj
 0001:0005636f       _malloc                    1005736f f   libucrt:malloc.obj
 0001:0005637a       _calloc                    1005737a f   libucrt:calloc.obj
 0001:00056390       _strncmp                   10057390 f   libucrt:strncmp.obj
 0001:00056408       _wcsncmp                   10057408 f   libucrt:wcsncmp.obj
 0001:00056442       ?get_doserrno@__crt_cached_ptd_host@@QAE@XZ 10057442 f i libucrt:errno.obj
 0001:00056446       ?set@?$cached@K@__crt_cached_ptd_host@@QAEKK@Z 10057446 f i libucrt:errno.obj
 0001:00056458       ___acrt_errno_from_os_error 10057458 f   libucrt:errno.obj
 0001:0005649b       ___acrt_errno_map_os_error 1005749b f   libucrt:errno.obj
 0001:000564be       ___acrt_errno_map_os_error_ptd 100574be f   libucrt:errno.obj
 0001:000564e2       ___doserrno                100574e2 f   libucrt:errno.obj
 0001:000564f5       __errno                    100574f5 f   libucrt:errno.obj
 0001:00056508       __get_doserrno             10057508 f   libucrt:errno.obj
 0001:0005652d       __get_errno                1005752d f   libucrt:errno.obj
 0001:00056552       __set_doserrno             10057552 f   libucrt:errno.obj
 0001:00056573       __set_errno                10057573 f   libucrt:errno.obj
 0001:00056594       ??$?RU__acrt_ptd@@@__crt_internal_free_policy@@QBEXQBU__acrt_ptd@@@Z 10057594 f i libucrt:per_thread_data.obj
 0001:00056880       ??0?$__crt_unique_heap_ptr@U__acrt_ptd@@U__crt_internal_free_policy@@@@QAE@QAU__acrt_ptd@@@Z 10057880 f i libucrt:per_thread_data.obj
 0001:00056890       ??1?$__crt_unique_heap_ptr@U__acrt_ptd@@U__crt_internal_free_policy@@@@QAE@XZ 10057890 f i libucrt:per_thread_data.obj
 0001:000568a2       ??B?$__crt_unique_heap_ptr@U__acrt_ptd@@U__crt_internal_free_policy@@@@QBE_NXZ 100578a2 f i libucrt:per_thread_data.obj
 0001:000569f0       ?dangerous_get_state_array@?$dual_state_global@PAU__crt_locale_data@@@__crt_state_management@@QAEPAPAU__crt_locale_data@@XZ 100579f0 f i libucrt:per_thread_data.obj
 0001:00056ae6       ?detach@?$__crt_unique_heap_ptr@U__acrt_ptd@@U__crt_internal_free_policy@@@@QAEPAU__acrt_ptd@@XZ 10057ae6 f i libucrt:per_thread_data.obj
 0001:00056aec       ?get@?$__crt_unique_heap_ptr@U__acrt_ptd@@U__crt_internal_free_policy@@@@QBEPAU__acrt_ptd@@XZ 10057aec f i libucrt:per_thread_data.obj
 0001:00056cd1       ?is_valid@?$__crt_unique_heap_ptr@U__acrt_ptd@@U__crt_internal_free_policy@@@@QBE_NXZ 10057cd1 f i libucrt:per_thread_data.obj
 0001:00056cd8       ?release@?$__crt_unique_heap_ptr@U__acrt_ptd@@U__crt_internal_free_policy@@@@QAEXXZ 10057cd8 f i libucrt:per_thread_data.obj
 0001:00056d49       ?value@?$dual_state_global@PAU__crt_locale_data@@@__crt_state_management@@QAEAAPAU__crt_locale_data@@XZ 10057d49 f i libucrt:per_thread_data.obj
 0001:00056d4c       ___acrt_freeptd            10057d4c f   libucrt:per_thread_data.obj
 0001:00056d78       ___acrt_getptd             10057d78 f   libucrt:per_thread_data.obj
 0001:00056e33       ___acrt_getptd_head        10057e33 f   libucrt:per_thread_data.obj
 0001:00056ec9       ___acrt_getptd_noexit      10057ec9 f   libucrt:per_thread_data.obj
 0001:00056f7a       ___acrt_getptd_noexit_explicit 10057f7a f   libucrt:per_thread_data.obj
 0001:0005701d       ___acrt_initialize_ptd     1005801d f   libucrt:per_thread_data.obj
 0001:00057049       ___acrt_uninitialize_ptd   10058049 f   libucrt:per_thread_data.obj
 0001:00057063       ___threadhandle            10058063 f   libucrt:per_thread_data.obj
 0001:00057069       ___threadid                10058069 f   libucrt:per_thread_data.obj
 0001:00057072       ??$?RU__crt_locale_data@@@__crt_internal_free_policy@@QBEXQBU__crt_locale_data@@@Z 10058072 f i libucrt:wsetlocale.obj
 0001:00057084       ??$?RU__crt_locale_pointers@@@__crt_internal_free_policy@@QBEXQBU__crt_locale_pointers@@@Z 10058084 f i libucrt:wsetlocale.obj
 0001:00057096       ??$?RU__crt_multibyte_data@@@__crt_internal_free_policy@@QBEXQBU__crt_multibyte_data@@@Z 10058096 f i libucrt:wsetlocale.obj
 0001:0005743f       ??0?$__crt_unique_heap_ptr@U__crt_locale_data@@U__crt_internal_free_policy@@@@QAE@QAU__crt_locale_data@@@Z 1005843f f i libucrt:wsetlocale.obj
 0001:0005744f       ??0?$__crt_unique_heap_ptr@U__crt_locale_pointers@@U__crt_internal_free_policy@@@@QAE@QAU__crt_locale_pointers@@@Z 1005844f f i libucrt:wsetlocale.obj
 0001:0005745f       ??0?$__crt_unique_heap_ptr@U__crt_multibyte_data@@U__crt_internal_free_policy@@@@QAE@QAU__crt_multibyte_data@@@Z 1005845f f i libucrt:wsetlocale.obj
 0001:0005746f       ??0_expandlocale_locale_name_cache@@QAE@QA_WIQAU__crt_qualified_locale_data@@@Z 1005846f f i libucrt:wsetlocale.obj
 0001:000574b9       ??1?$__crt_unique_heap_ptr@U__crt_locale_data@@U__crt_internal_free_policy@@@@QAE@XZ 100584b9 f i libucrt:wsetlocale.obj
 0001:000574cb       ??1?$__crt_unique_heap_ptr@U__crt_locale_pointers@@U__crt_internal_free_policy@@@@QAE@XZ 100584cb f i libucrt:wsetlocale.obj
 0001:000574dd       ??1?$__crt_unique_heap_ptr@U__crt_multibyte_data@@U__crt_internal_free_policy@@@@QAE@XZ 100584dd f i libucrt:wsetlocale.obj
 0001:000574ef       ??1_expandlocale_locale_name_cache@@QAE@XZ 100584ef f i libucrt:wsetlocale.obj
 0001:0005751f       ??B?$__crt_unique_heap_ptr@U__crt_locale_data@@U__crt_internal_free_policy@@@@QBE_NXZ 1005851f f i libucrt:wsetlocale.obj
 0001:00057526       ??B?$__crt_unique_heap_ptr@U__crt_locale_pointers@@U__crt_internal_free_policy@@@@QBE_NXZ 10058526 f i libucrt:wsetlocale.obj
 0001:0005752d       ??B?$__crt_unique_heap_ptr@U__crt_multibyte_data@@U__crt_internal_free_policy@@@@QBE_NXZ 1005852d f i libucrt:wsetlocale.obj
 0001:0005774d       ?commit_locale_name@_expandlocale_locale_name_cache@@QAEXQB_WI@Z 1005874d f i libucrt:wsetlocale.obj
 0001:00057791       ?commit_locale_name_cache_already_updated@_expandlocale_locale_name_cache@@QAEXQB_WI@Z 10058791 f i libucrt:wsetlocale.obj
 0001:000577c6       ?detach@?$__crt_unique_heap_ptr@U__crt_locale_data@@U__crt_internal_free_policy@@@@QAEPAU__crt_locale_data@@XZ 100587c6 f i libucrt:wsetlocale.obj
 0001:000577cc       ?detach@?$__crt_unique_heap_ptr@U__crt_locale_pointers@@U__crt_internal_free_policy@@@@QAEPAU__crt_locale_pointers@@XZ 100587cc f i libucrt:wsetlocale.obj
 0001:000577d2       ?detach@?$__crt_unique_heap_ptr@U__crt_multibyte_data@@U__crt_internal_free_policy@@@@QAEPAU__crt_multibyte_data@@XZ 100587d2 f i libucrt:wsetlocale.obj
 0001:000577d8       ?get@?$__crt_unique_heap_ptr@U__crt_locale_data@@U__crt_internal_free_policy@@@@QBEPAU__crt_locale_data@@XZ 100587d8 f i libucrt:wsetlocale.obj
 0001:000577db       ?get@?$__crt_unique_heap_ptr@U__crt_locale_pointers@@U__crt_internal_free_policy@@@@QBEPAU__crt_locale_pointers@@XZ 100587db f i libucrt:wsetlocale.obj
 0001:000577de       ?get@?$__crt_unique_heap_ptr@U__crt_multibyte_data@@U__crt_internal_free_policy@@@@QBEPAU__crt_multibyte_data@@XZ 100587de f i libucrt:wsetlocale.obj
 0001:000577e1       ?is_valid@?$__crt_unique_heap_ptr@U__crt_locale_data@@U__crt_internal_free_policy@@@@QBE_NXZ 100587e1 f i libucrt:wsetlocale.obj
 0001:000577e8       ?is_valid@?$__crt_unique_heap_ptr@U__crt_locale_pointers@@U__crt_internal_free_policy@@@@QBE_NXZ 100587e8 f i libucrt:wsetlocale.obj
 0001:000577ef       ?is_valid@?$__crt_unique_heap_ptr@U__crt_multibyte_data@@U__crt_internal_free_policy@@@@QBE_NXZ 100587ef f i libucrt:wsetlocale.obj
 0001:000577f6       ?release@?$__crt_unique_heap_ptr@U__crt_locale_data@@U__crt_internal_free_policy@@@@QAEXXZ 100587f6 f i libucrt:wsetlocale.obj
 0001:00057808       ?release@?$__crt_unique_heap_ptr@U__crt_locale_pointers@@U__crt_internal_free_policy@@@@QAEXXZ 10058808 f i libucrt:wsetlocale.obj
 0001:0005781a       ?release@?$__crt_unique_heap_ptr@U__crt_multibyte_data@@U__crt_internal_free_policy@@@@QAEXXZ 1005881a f i libucrt:wsetlocale.obj
 0001:0005782c       ___acrt_copy_locale_name   1005882c f   libucrt:wsetlocale.obj
 0001:0005788c       ___acrt_set_locale_changed 1005888c f   libucrt:wsetlocale.obj
 0001:00057897       ___acrt_uninitialize_locale 10058897 f   libucrt:wsetlocale.obj
 0001:000578be       ___ascii_tolower           100588be f i libucrt:wsetlocale.obj
 0001:000578d5       ___ascii_towlower          100588d5 f i libucrt:wsetlocale.obj
 0001:000578ec       ___lc_lctowcs              100588ec f   libucrt:wsetlocale.obj
 0001:0005795c       ___lc_wcstolc              1005895c f   libucrt:wsetlocale.obj
 0001:00057a99       __configthreadlocale       10058a99 f   libucrt:wsetlocale.obj
 0001:00057b2a       __create_locale            10058b2a f   libucrt:wsetlocale.obj
 0001:00057f54       __free_locale              10058f54 f   libucrt:wsetlocale.obj
 0001:00058016       __get_current_locale       10059016 f   libucrt:wsetlocale.obj
 0001:000580b1       __wcreate_locale           100590b1 f   libucrt:wsetlocale.obj
 0001:000581b8       __wcscats                  100591b8 f   libucrt:wsetlocale.obj
 0001:000581f9       __wsetlocale               100591f9 f   libucrt:wsetlocale.obj
 0001:00058f77       ___p___mb_cur_max          10059f77 f   libucrt:nlsdata.obj
 0001:00058f9c       ___pctype_func             10059f9c f   libucrt:ctype.obj
 0001:00058fc0       ___pwctype_func            10059fc0 f   libucrt:ctype.obj
 0001:00058fc6       __iswctype_l               10059fc6 f   libucrt:iswctype.obj
 0001:00058fda       _iswctype                  10059fda f   libucrt:iswctype.obj
 0001:00059043       __isctype                  1005a043 f   libucrt:isctype.obj
 0001:00059076       __isctype_l                1005a076 f   libucrt:isctype.obj
 0001:00059141       __isleadbyte_fast_internal 1005a141 f i libucrt:isctype.obj
 0001:0005915f       ?value@?$dual_state_global@PAU__crt_multibyte_data@@@__crt_state_management@@QAEAAPAU__crt_multibyte_data@@XZ 1005a15f f i libucrt:locale_update.obj
 0001:00059162       ?value_explicit@?$dual_state_global@PAU__crt_locale_data@@@__crt_state_management@@QAEAAPAU__crt_locale_data@@I@Z 1005a162 f i libucrt:locale_update.obj
 0001:00059171       ?value_explicit@?$dual_state_global@PAU__crt_multibyte_data@@@__crt_state_management@@QAEAAPAU__crt_multibyte_data@@I@Z 1005a171 f i libucrt:locale_update.obj
 0001:00059180       ___acrt_should_sync_with_global_locale 1005a180 f i libucrt:locale_update.obj
 0001:0005919c       ___acrt_update_locale_info 1005a19c f   libucrt:locale_update.obj
 0001:000591c9       ___acrt_update_locale_info_explicit 1005a1c9 f   libucrt:locale_update.obj
 0001:000591fa       ___acrt_update_multibyte_info 1005a1fa f   libucrt:locale_update.obj
 0001:00059227       ___acrt_update_multibyte_info_explicit 1005a227 f   libucrt:locale_update.obj
 0001:0005925e       __free_base                1005a25e f   libucrt:free_base.obj
 0001:00059298       __malloc_base              1005a298 f   libucrt:malloc_base.obj
 0001:00059ae1       ??1?$__crt_simd_cleanup_guard@$00@@QAE@XZ 1005aae1 f i libucrt:strnlen.obj
 0001:00059ae5       ??1?$__crt_simd_cleanup_guard@$0A@@@QAE@XZ 1005aae5 f i libucrt:strnlen.obj
 0001:00059ae8       ?compare_equals@?$__crt_simd_traits@$00E@@SA?AT__m256i@@T2@0@Z 1005aae8 f i libucrt:strnlen.obj
 0001:00059aed       ?compare_equals@?$__crt_simd_traits@$00G@@SA?AT__m256i@@T2@0@Z 1005aaed f i libucrt:strnlen.obj
 0001:00059af2       ?compare_equals@?$__crt_simd_traits@$0A@E@@SA?AT__m128i@@T2@0@Z 1005aaf2 f i libucrt:strnlen.obj
 0001:00059af7       ?compare_equals@?$__crt_simd_traits@$0A@G@@SA?AT__m128i@@T2@0@Z 1005aaf7 f i libucrt:strnlen.obj
 0001:00059afc       ?compute_byte_mask@?$__crt_simd_pack_traits@$00@@SAHT__m256i@@@Z 1005aafc f i libucrt:strnlen.obj
 0001:00059b01       ?compute_byte_mask@?$__crt_simd_pack_traits@$0A@@@SAHT__m128i@@@Z 1005ab01 f i libucrt:strnlen.obj
 0001:00059b06       ?get_zero_pack@?$__crt_simd_pack_traits@$00@@SA?AT__m256i@@XZ 1005ab06 f i libucrt:strnlen.obj
 0001:00059b0b       ?get_zero_pack@?$__crt_simd_pack_traits@$0A@@@SA?AT__m128i@@XZ 1005ab0b f i libucrt:strnlen.obj
 0001:00059b0f       _strnlen                   1005ab0f f   libucrt:strnlen.obj
 0001:00059c31       _wcslen                    1005ac31 f   libucrt:strnlen.obj
 0001:00059d59       _wcsnlen                   1005ad59 f   libucrt:strnlen.obj
 0001:00059f09       ?__acrt_fp_classify@@YA?AW4__acrt_fp_class@@ABN@Z 1005af09 f i libucrt:cvt.obj
 0001:00059f6b       ?__acrt_fp_is_negative@@YA_NABN@Z 1005af6b f i libucrt:cvt.obj
 0001:0005a8fa       ?strrchr@@YAPADQADH@Z      1005b8fa f i libucrt:cvt.obj
 0001:0005a905       ___acrt_fp_format          1005b905 f   libucrt:cvt.obj
 0001:0005aa86       ?value_or@?$cached@H@__crt_cached_ptd_host@@QBEHH@Z 1005ba86 f i libucrt:wctomb.obj
 0001:0005aa9c       __wctomb_internal          1005ba9c f   libucrt:wctomb.obj
 0001:0005ac06       __wctomb_l                 1005bc06 f   libucrt:wctomb.obj
 0001:0005ac61       __wctomb_s_l               1005bc61 f   libucrt:wctomb.obj
 0001:0005ac9c       _wctomb                    1005bc9c f   libucrt:wctomb.obj
 0001:0005ace8       _wctomb_s                  1005bce8 f   libucrt:wctomb.obj
 0001:0005ad22       __mbtowc_internal          1005bd22 f   libucrt:mbtowc.obj
 0001:0005ae55       __mbtowc_l                 1005be55 f   libucrt:mbtowc.obj
 0001:0005ae8d       _mbtowc                    1005be8d f   libucrt:mbtowc.obj
 0001:0005aec4       ?lowio_handle@__crt_stdio_stream@@QBEHXZ 1005bec4 f i libucrt:fileno.obj
 0001:0005aecb       __fileno                   1005becb f   libucrt:fileno.obj
 0001:0005aef2       ??$?RPAU__crt_stdio_stream_data@@@__crt_internal_free_policy@@QBEXQBQAU__crt_stdio_stream_data@@@Z 1005bef2 f i libucrt:_file.obj
 0001:0005af04       ??0?$__crt_unique_heap_ptr@PAU__crt_stdio_stream_data@@U__crt_internal_free_policy@@@@QAE@QAPAU__crt_stdio_stream_data@@@Z 1005bf04 f i libucrt:_file.obj
 0001:0005af14       ??1?$__crt_unique_heap_ptr@PAU__crt_stdio_stream_data@@U__crt_internal_free_policy@@@@QAE@XZ 1005bf14 f i libucrt:_file.obj
 0001:0005af26       ?detach@?$__crt_unique_heap_ptr@PAU__crt_stdio_stream_data@@U__crt_internal_free_policy@@@@QAEPAPAU__crt_stdio_stream_data@@XZ 1005bf26 f i libucrt:_file.obj
 0001:0005af2c       ?release@?$__crt_unique_heap_ptr@PAU__crt_stdio_stream_data@@U__crt_internal_free_policy@@@@QAEXXZ 1005bf2c f i libucrt:_file.obj
 0001:0005af3e       ___acrt_initialize_stdio   1005bf3e f   libucrt:_file.obj
 0001:0005b006       ___acrt_iob_func           1005c006 f   libucrt:_file.obj
 0001:0005b016       ___acrt_uninitialize_stdio 1005c016 f   libucrt:_file.obj
 0001:0005b062       __get_stream_buffer_pointers 1005c062 f   libucrt:_file.obj
 0001:0005b0a8       __lock_file                1005c0a8 f   libucrt:_file.obj
 0001:0005b0bc       __unlock_file              1005c0bc f   libucrt:_file.obj
 0001:0005b0d0       __get_printf_count_output  1005c0d0 f   libucrt:printf_count_output.obj
 0001:0005b0e5       __set_printf_count_output  1005c0e5 f   libucrt:printf_count_output.obj
 0001:0005b1d3       __fputwc_nolock            1005c1d3 f   libucrt:fputwc.obj
 0001:0005b209       __fputwc_nolock_internal   1005c209 f   libucrt:fputwc.obj
 0001:0005b341       __fputwchar                1005c341 f   libucrt:fputwc.obj
 0001:0005b35b       __putwc_nolock             1005c35b f   libucrt:fputwc.obj
 0001:0005b366       _fputwc                    1005c366 f   libucrt:fputwc.obj
 0001:0005b39c       _putwc                     1005c39c f   libucrt:fputwc.obj
 0001:0005b3a7       _putwchar                  1005c3a7 f   libucrt:fputwc.obj
 0001:0005b4e6       __fputc_nolock             1005c4e6 f   libucrt:fputc.obj
 0001:0005b51a       __fputc_nolock_internal    1005c51a f   libucrt:fputc.obj
 0001:0005b547       __fputchar                 1005c547 f   libucrt:fputc.obj
 0001:0005b561       __putc_nolock              1005c561 f   libucrt:fputc.obj
 0001:0005b56c       _fputc                     1005c56c f   libucrt:fputc.obj
 0001:0005b5a0       _putc                      1005c5a0 f   libucrt:fputc.obj
 0001:0005b5ab       _putchar                   1005c5ab f   libucrt:fputc.obj
 0001:0005b5b6       ?has_any_buffer@__crt_stdio_stream@@QBE_NXZ 1005c5b6 f i libucrt:_sftbuf.obj
 0001:0005b5c5       ?has_any_of@__crt_stdio_stream@@QBE_NJ@Z 1005c5c5 f i libucrt:_sftbuf.obj
 0001:0005b5da       ?has_temporary_buffer@__crt_stdio_stream@@QBE_NXZ 1005c5da f i libucrt:_sftbuf.obj
 0001:0005b5e6       ?set_flags@__crt_stdio_stream@@QBE_NJ@Z 1005c5e6 f i libucrt:_sftbuf.obj
 0001:0005b60a       ?unset_flags@__crt_stdio_stream@@QBE_NJ@Z 1005c60a f i libucrt:_sftbuf.obj
 0001:0005b633       ___acrt_should_use_temporary_buffer 1005c633 f   libucrt:_sftbuf.obj
 0001:0005b671       ___acrt_stdio_begin_temporary_buffering_nolock 1005c671 f   libucrt:_sftbuf.obj
 0001:0005b71c       ___acrt_stdio_end_temporary_buffering_nolock 1005c71c f   libucrt:_sftbuf.obj
 0001:0005b8e2       ___acrt_initialize_lowio   1005c8e2 f   libucrt:ioinit.obj
 0001:0005b942       ___acrt_uninitialize_lowio 1005c942 f   libucrt:ioinit.obj
 0001:0005bb00       ___isascii                 1005cb00 f   libucrt:_ctype.obj
 0001:0005bb20       ___iscsym                  1005cb20 f   libucrt:_ctype.obj
 0001:0005bb90       ___iscsymf                 1005cb90 f   libucrt:_ctype.obj
 0001:0005bc30       ___toascii                 1005cc30 f   libucrt:_ctype.obj
 0001:0005bc40       __isalnum_l                1005cc40 f   libucrt:_ctype.obj
 0001:0005bd10       __isalpha_l                1005cd10 f   libucrt:_ctype.obj
 0001:0005bde0       __isblank_l                1005cde0 f   libucrt:_ctype.obj
 0001:0005bea0       __iscntrl_l                1005cea0 f   libucrt:_ctype.obj
 0001:0005bf60       __iscsym_l                 1005cf60 f   libucrt:_ctype.obj
 0001:0005c020       __iscsymf_l                1005d020 f   libucrt:_ctype.obj
 0001:0005c0e0       __isdigit_l                1005d0e0 f   libucrt:_ctype.obj
 0001:0005c1a0       __isgraph_l                1005d1a0 f   libucrt:_ctype.obj
 0001:0005c270       __islower_l                1005d270 f   libucrt:_ctype.obj
 0001:0005c330       __isprint_l                1005d330 f   libucrt:_ctype.obj
 0001:0005c400       __ispunct_l                1005d400 f   libucrt:_ctype.obj
 0001:0005c4c0       __isspace_l                1005d4c0 f   libucrt:_ctype.obj
 0001:0005c580       __isupper_l                1005d580 f   libucrt:_ctype.obj
 0001:0005c640       __isxdigit_l               1005d640 f   libucrt:_ctype.obj
 0001:0005c710       _isalnum                   1005d710 f   libucrt:_ctype.obj
 0001:0005c7a0       _isalpha                   1005d7a0 f   libucrt:_ctype.obj
 0001:0005c830       _isblank                   1005d830 f   libucrt:_ctype.obj
 0001:0005c8d0       _iscntrl                   1005d8d0 f   libucrt:_ctype.obj
 0001:0005c960       _isdigit                   1005d960 f   libucrt:_ctype.obj
 0001:0005c9f0       _isgraph                   1005d9f0 f   libucrt:_ctype.obj
 0001:0005ca80       _islower                   1005da80 f   libucrt:_ctype.obj
 0001:0005cb10       _isprint                   1005db10 f   libucrt:_ctype.obj
 0001:0005cba0       _ispunct                   1005dba0 f   libucrt:_ctype.obj
 0001:0005cc30       _isspace                   1005dc30 f   libucrt:_ctype.obj
 0001:0005ccc0       _isupper                   1005dcc0 f   libucrt:_ctype.obj
 0001:0005cd50       _isxdigit                  1005dd50 f   libucrt:_ctype.obj
 0001:0005cddb       __calloc_base              1005dddb f   libucrt:calloc_base.obj
 0001:0005ce38       ??$parse_integer_from_string@JDPAPAD@__crt_strtox@@YAJQBDQAPADHQAU__crt_locale_pointers@@@Z 1005de38 f i libucrt:strtox.obj
 0001:0005ce7f       ??$parse_integer_from_string@J_WPAPA_W@__crt_strtox@@YAJQB_WQAPA_WHQAU__crt_locale_pointers@@@Z 1005de7f f i libucrt:strtox.obj
 0001:0005cec6       ??$parse_integer_from_string@KDPAPAD@__crt_strtox@@YAKQBDQAPADHQAU__crt_locale_pointers@@@Z 1005dec6 f i libucrt:strtox.obj
 0001:0005cf0d       ??$parse_integer_from_string@K_WPAPA_W@__crt_strtox@@YAKQB_WQAPA_WHQAU__crt_locale_pointers@@@Z 1005df0d f i libucrt:strtox.obj
 0001:0005cf54       ??$parse_integer_from_string@_JDPAPAD@__crt_strtox@@YA_JQBDQAPADHQAU__crt_locale_pointers@@@Z 1005df54 f i libucrt:strtox.obj
 0001:0005cfa1       ??$parse_integer_from_string@_J_WPAPA_W@__crt_strtox@@YA_JQB_WQAPA_WHQAU__crt_locale_pointers@@@Z 1005dfa1 f i libucrt:strtox.obj
 0001:0005cfee       ??$parse_integer_from_string@_KDPAPAD@__crt_strtox@@YA_KQBDQAPADHQAU__crt_locale_pointers@@@Z 1005dfee f i libucrt:strtox.obj
 0001:0005d03b       ??$parse_integer_from_string@_K_WPAPA_W@__crt_strtox@@YA_KQB_WQAPA_WHQAU__crt_locale_pointers@@@Z 1005e03b f i libucrt:strtox.obj
 0001:0005d088       __strtoi64                 1005e088 f   libucrt:strtox.obj
 0001:0005d0d4       __strtoi64_l               1005e0d4 f   libucrt:strtox.obj
 0001:0005d121       __strtoimax_l              1005e121 f   libucrt:strtox.obj
 0001:0005d16e       __strtol_l                 1005e16e f   libucrt:strtox.obj
 0001:0005d1b5       __strtoll_l                1005e1b5 f   libucrt:strtox.obj
 0001:0005d202       __strtoui64                1005e202 f   libucrt:strtox.obj
 0001:0005d24e       __strtoui64_l              1005e24e f   libucrt:strtox.obj
 0001:0005d29b       __strtoul_l                1005e29b f   libucrt:strtox.obj
 0001:0005d2e2       __strtoull_l               1005e2e2 f   libucrt:strtox.obj
 0001:0005d32f       __strtoumax_l              1005e32f f   libucrt:strtox.obj
 0001:0005d37c       __wcstoi64                 1005e37c f   libucrt:strtox.obj
 0001:0005d3c8       __wcstoi64_l               1005e3c8 f   libucrt:strtox.obj
 0001:0005d415       __wcstoimax_l              1005e415 f   libucrt:strtox.obj
 0001:0005d462       __wcstol_l                 1005e462 f   libucrt:strtox.obj
 0001:0005d4a9       __wcstoll_l                1005e4a9 f   libucrt:strtox.obj
 0001:0005d4f6       __wcstoui64                1005e4f6 f   libucrt:strtox.obj
 0001:0005d542       __wcstoui64_l              1005e542 f   libucrt:strtox.obj
 0001:0005d58f       __wcstoul_l                1005e58f f   libucrt:strtox.obj
 0001:0005d5d6       __wcstoull_l               1005e5d6 f   libucrt:strtox.obj
 0001:0005d623       __wcstoumax_l              1005e623 f   libucrt:strtox.obj
 0001:0005d670       _strtoimax                 1005e670 f   libucrt:strtox.obj
 0001:0005d6bc       _strtol                    1005e6bc f   libucrt:strtox.obj
 0001:0005d702       _strtoll                   1005e702 f   libucrt:strtox.obj
 0001:0005d74e       _strtoul                   1005e74e f   libucrt:strtox.obj
 0001:0005d794       _strtoull                  1005e794 f   libucrt:strtox.obj
 0001:0005d7e0       _strtoumax                 1005e7e0 f   libucrt:strtox.obj
 0001:0005d82c       _wcstoimax                 1005e82c f   libucrt:strtox.obj
 0001:0005d878       _wcstol                    1005e878 f   libucrt:strtox.obj
 0001:0005d8be       _wcstoll                   1005e8be f   libucrt:strtox.obj
 0001:0005d90a       _wcstoul                   1005e90a f   libucrt:strtox.obj
 0001:0005d950       _wcstoull                  1005e950 f   libucrt:strtox.obj
 0001:0005d99c       _wcstoumax                 1005e99c f   libucrt:strtox.obj
 0001:0005d9e8       __fgetwc_nolock            1005e9e8 f   libucrt:fgetwc.obj
 0001:0005db58       __fgetwchar                1005eb58 f   libucrt:fgetwc.obj
 0001:0005db68       __getwc_nolock             1005eb68 f   libucrt:fgetwc.obj
 0001:0005db73       _fgetwc                    1005eb73 f   libucrt:fgetwc.obj
 0001:0005dbea       _getwc                     1005ebea f   libucrt:fgetwc.obj
 0001:0005dbf5       _getwchar                  1005ebf5 f   libucrt:fgetwc.obj
 0001:0005dbfa       ?has_all_of@__crt_stdio_stream@@QBE_NJ@Z 1005ebfa f i libucrt:ungetwc.obj
 0001:0005dd98       __ungetwc_nolock           1005ed98 f   libucrt:ungetwc.obj
 0001:0005de4e       _ungetwc                   1005ee4e f   libucrt:ungetwc.obj
 0001:0005decc       __fgetc_nolock             1005eecc f   libucrt:fgetc.obj
 0001:0005df08       __fgetchar                 1005ef08 f   libucrt:fgetc.obj
 0001:0005df18       __getc_nolock              1005ef18 f   libucrt:fgetc.obj
 0001:0005df23       _fgetc                     1005ef23 f   libucrt:fgetc.obj
 0001:0005e03c       _getc                      1005f03c f   libucrt:fgetc.obj
 0001:0005e047       _getchar                   1005f047 f   libucrt:fgetc.obj
 0001:0005e04c       __ungetc_nolock            1005f04c f   libucrt:ungetc.obj
 0001:0005e140       _ungetc                    1005f140 f   libucrt:ungetc.obj
 0001:0005e1b3       ___fpe_flt_rounds          1005f1b3 f   libucrt:fegetround.obj
 0001:0005e1e7       _fegetround                1005f1e7 f   libucrt:fegetround.obj
 0001:0005e1f4       ??0?$__crt_scoped_stack_ptr@_W@@QAE@U?$__crt_scoped_stack_ptr_tag@_W@@@Z 1005f1f4 f i libucrt:lcmapstringa.obj
 0001:0005e204       ??0?$__crt_scoped_stack_ptr_tag@_W@@QAE@QA_W@Z 1005f204 f i libucrt:lcmapstringa.obj
 0001:0005e214       ??1?$__crt_scoped_stack_ptr@_W@@QAE@XZ 1005f214 f i libucrt:lcmapstringa.obj
 0001:0005e21d       ??B?$__crt_scoped_stack_ptr@_W@@QBE_NXZ 1005f21d f i libucrt:lcmapstringa.obj
 0001:0005e413       ?get@?$__crt_scoped_stack_ptr@_W@@QBEPA_WXZ 1005f413 f i libucrt:lcmapstringa.obj
 0001:0005e416       ___acrt_LCMapStringA       1005f416 f   libucrt:lcmapstringa.obj
 0001:0005e60c       __close                    1005f60c f   libucrt:close.obj
 0001:0005e63c       __close_internal           1005f63c f   libucrt:close.obj
 0001:0005e6df       __close_nolock             1005f6df f   libucrt:close.obj
 0001:0005e70f       __close_nolock_internal    1005f70f f   libucrt:close.obj
 0001:0005e7af       ??$?RU__crt_stdio_stream_data@@@__crt_internal_free_policy@@QBEXQBU__crt_stdio_stream_data@@@Z 1005f7af f i libucrt:stream.obj
 0001:0005e7c1       ??0?$__crt_unique_heap_ptr@U__crt_stdio_stream_data@@U__crt_internal_free_policy@@@@QAE@QAU__crt_stdio_stream_data@@@Z 1005f7c1 f i libucrt:stream.obj
 0001:0005e7d1       ??0__crt_stdio_stream@@QAE@QAU__crt_stdio_stream_data@@@Z 1005f7d1 f i libucrt:stream.obj
 0001:0005e7e1       ??0__crt_stdio_stream@@QAE@XZ 1005f7e1 f i libucrt:stream.obj
 0001:0005e7e7       ??1?$__crt_unique_heap_ptr@U__crt_stdio_stream_data@@U__crt_internal_free_policy@@@@QAE@XZ 1005f7e7 f i libucrt:stream.obj
 0001:0005e7f9       ?__acrt_stdio_allocate_stream@@YA?AV__crt_stdio_stream@@XZ 1005f7f9 f   libucrt:stream.obj
 0001:0005e862       ?__acrt_stdio_free_stream@@YAXV__crt_stdio_stream@@@Z 1005f862 f   libucrt:stream.obj
 0001:0005e89d       ?deallocate@__crt_stdio_stream@@QAEXXZ 1005f89d f i libucrt:stream.obj
 0001:0005e8a7       ?detach@?$__crt_unique_heap_ptr@U__crt_stdio_stream_data@@U__crt_internal_free_policy@@@@QAEPAU__crt_stdio_stream_data@@XZ 1005f8a7 f i libucrt:stream.obj
 0001:0005e96f       ?lock@__crt_stdio_stream@@QBEXXZ 1005f96f f i libucrt:stream.obj
 0001:0005e978       ?release@?$__crt_unique_heap_ptr@U__crt_stdio_stream_data@@U__crt_internal_free_policy@@@@QAEXXZ 1005f978 f i libucrt:stream.obj
 0001:0005e98a       ?try_allocate@__crt_stdio_stream@@QAE_NXZ 1005f98a f i libucrt:stream.obj
 0001:0005e9aa       ?has_crt_buffer@__crt_stdio_stream@@QBE_NXZ 1005f9aa f i libucrt:_freebuf.obj
 0001:0005e9b6       ___acrt_stdio_free_buffer_nolock 1005f9b6 f   libucrt:_freebuf.obj
 0001:0005edb6       ?__acrt_stdio_reset_buffer@@YAXV__crt_stdio_stream@@@Z 1005fdb6 f i libucrt:fflush.obj
 0001:0005eee5       ___acrt_stdio_flush_nolock 1005fee5 f   libucrt:fflush.obj
 0001:0005ef4e       __fflush_nolock            1005ff4e f   libucrt:fflush.obj
 0001:0005efb3       __flushall                 1005ffb3 f   libucrt:fflush.obj
 0001:0005efbc       _fflush                    1005ffbc f   libucrt:fflush.obj
 0001:0005f00f       ??$__acrt_stdio_parse_mode@D@@YA?AU__acrt_stdio_stream_mode@@QBD@Z 1006000f f i libucrt:openfile.obj
 0001:0005f239       ??$__acrt_stdio_parse_mode@_W@@YA?AU__acrt_stdio_stream_mode@@QB_W@Z 10060239 f i libucrt:openfile.obj
 0001:0005f5aa       ??$tcsncmp@AAPBDAAY02$$CBDI@?$__crt_char_traits@D@@SAHAAPBDAAY02$$CBD$$QAI@Z 100605aa f i libucrt:openfile.obj
 0001:0005f5c6       ??$tcsncmp@AAPB_WAAY02$$CB_WI@?$__crt_char_traits@_W@@SAHAAPB_WAAY02$$CB_W$$QAI@Z 100605c6 f i libucrt:openfile.obj
 0001:0005f5e2       ??$tcsnicmp@AAPBDAAY04$$CBDI@?$__crt_char_traits@D@@SAHAAPBDAAY04$$CBD$$QAI@Z 100605e2 f i libucrt:openfile.obj
 0001:0005f5fe       ??$tcsnicmp@AAPBDAAY06$$CBDI@?$__crt_char_traits@D@@SAHAAPBDAAY06$$CBD$$QAI@Z 100605fe f i libucrt:openfile.obj
 0001:0005f61a       ??$tcsnicmp@AAPBDAAY07$$CBDI@?$__crt_char_traits@D@@SAHAAPBDAAY07$$CBD$$QAI@Z 1006061a f i libucrt:openfile.obj
 0001:0005f636       ??$tcsnicmp@AAPB_WAAY04$$CB_WI@?$__crt_char_traits@_W@@SAHAAPB_WAAY04$$CB_W$$QAI@Z 10060636 f i libucrt:openfile.obj
 0001:0005f652       ??$tcsnicmp@AAPB_WAAY06$$CB_WI@?$__crt_char_traits@_W@@SAHAAPB_WAAY06$$CB_W$$QAI@Z 10060652 f i libucrt:openfile.obj
 0001:0005f66e       ??$tcsnicmp@AAPB_WAAY07$$CB_WI@?$__crt_char_traits@_W@@SAHAAPB_WAAY07$$CB_W$$QAI@Z 1006066e f i libucrt:openfile.obj
 0001:0005f68a       ??$tsopen_s@PAHABQBDABHABHH@?$__crt_char_traits@D@@SAH$$QAPAHABQBDABH2$$QAH@Z 1006068a f i libucrt:openfile.obj
 0001:0005f6b2       ??$tsopen_s@PAHABQB_WABHABHH@?$__crt_char_traits@_W@@SAH$$QAPAHABQB_WABH2$$QAH@Z 100606b2 f i libucrt:openfile.obj
 0001:0005f6da       ?__acrt_stdio_parse_mode_D@@YA_NAAU__acrt_stdio_stream_mode@@@Z 100606da f i libucrt:openfile.obj
 0001:0005f6f5       ?__acrt_stdio_parse_mode_N@@YA_NAAU__acrt_stdio_stream_mode@@@Z 100606f5 f i libucrt:openfile.obj
 0001:0005f707       ?__acrt_stdio_parse_mode_R@@YA_NAAU__acrt_stdio_stream_mode@@AA_N@Z 10060707 f i libucrt:openfile.obj
 0001:0005f725       ?__acrt_stdio_parse_mode_S@@YA_NAAU__acrt_stdio_stream_mode@@AA_N@Z 10060725 f i libucrt:openfile.obj
 0001:0005f743       ?__acrt_stdio_parse_mode_T@@YA_NAAU__acrt_stdio_stream_mode@@@Z 10060743 f i libucrt:openfile.obj
 0001:0005f762       ?__acrt_stdio_parse_mode_b@@YA_NAAU__acrt_stdio_stream_mode@@@Z 10060762 f i libucrt:openfile.obj
 0001:0005f782       ?__acrt_stdio_parse_mode_c@@YA_NAAU__acrt_stdio_stream_mode@@AA_N@Z 10060782 f i libucrt:openfile.obj
 0001:0005f7a4       ?__acrt_stdio_parse_mode_n@@YA_NAAU__acrt_stdio_stream_mode@@AA_N@Z 100607a4 f i libucrt:openfile.obj
 0001:0005f7c6       ?__acrt_stdio_parse_mode_plus@@YA_NAAU__acrt_stdio_stream_mode@@AA_N@Z 100607c6 f i libucrt:openfile.obj
 0001:0005f7fc       ?__acrt_stdio_parse_mode_t@@YA_NAAU__acrt_stdio_stream_mode@@@Z 100607fc f i libucrt:openfile.obj
 0001:0005f81c       ?__acrt_stdio_parse_mode_x@@YA_NAAU__acrt_stdio_stream_mode@@@Z 1006081c f i libucrt:openfile.obj
 0001:0005f83c       __openfile                 1006083c f   libucrt:openfile.obj
 0001:0005f847       __wopenfile                10060847 f   libucrt:openfile.obj
 0001:0005f852       ___acrt_initialize_locks   10060852 f   libucrt:locks.obj
 0001:0005f893       ___acrt_lock               10060893 f   libucrt:locks.obj
 0001:0005f8aa       ___acrt_uninitialize_locks 100608aa f   libucrt:locks.obj
 0001:0005f8db       ___acrt_unlock             100608db f   libucrt:locks.obj
 0001:0005f8f2       __lock_locales             100608f2 f   libucrt:locks.obj
 0001:0005f900       __unlock_locales           10060900 f   libucrt:locks.obj
 0001:0005f909       ___acrt_app_verifier_enabled 10060909 f   libucrt:peb_access.obj
 0001:0005f91b       ___acrt_is_secure_process  1006091b f   libucrt:peb_access.obj
 0001:0005fac7       ___acrt_get_begin_thread_init_policy 10060ac7 f   libucrt:win_policies.obj
 0001:0005fb01       ___acrt_get_developer_information_policy 10060b01 f   libucrt:win_policies.obj
 0001:0005fb3f       ___acrt_get_process_end_policy 10060b3f f   libucrt:win_policies.obj
 0001:0005fb66       ___acrt_get_windowing_model_policy 10060b66 f   libucrt:win_policies.obj
 0001:0005fbf1       ??$__acrt_convert_wcs_mbs_cp@D_WV<lambda_62f6974d9771e494a5ea317cc32e971c>@@U__crt_win32_buffer_internal_dynamic_resizing@@@@YAHQBDAAV?$__crt_win32_buffer@_WU__crt_win32_buffer_internal_dynamic_resizing@@@@ABV<lambda_62f6974d9771e494a5ea317cc32e971c>@@I@Z 10060bf1 f i libucrt:argv_wildcards.obj
 0001:0005fca3       ??$__acrt_convert_wcs_mbs_cp@_WDV<lambda_28bda7af82a03b66c1cb3803a755f95d>@@U__crt_win32_buffer_internal_dynamic_resizing@@@@YAHQB_WAAV?$__crt_win32_buffer@DU__crt_win32_buffer_internal_dynamic_resizing@@@@ABV<lambda_28bda7af82a03b66c1cb3803a755f95d>@@I@Z 10060ca3 f i libucrt:argv_wildcards.obj
 0001:0005fd69       ??$__acrt_mbs_to_wcs_cp@U__crt_win32_buffer_internal_dynamic_resizing@@@@YAHQBDAAV?$__crt_win32_buffer@_WU__crt_win32_buffer_internal_dynamic_resizing@@@@I@Z 10060d69 f i libucrt:argv_wildcards.obj
 0001:0005fd86       ??$__acrt_wcs_to_mbs_cp@U__crt_win32_buffer_internal_dynamic_resizing@@@@YAHQB_WAAV?$__crt_win32_buffer@DU__crt_win32_buffer_internal_dynamic_resizing@@@@I@Z 10060d86 f i libucrt:argv_wildcards.obj
 0001:00060638       ??$tcslen@ABQBD@?$__crt_char_traits@D@@SAIABQBD@Z 10061638 f i libucrt:argv_wildcards.obj
 0001:00060650       ??$tcslen@ABQB_W@?$__crt_char_traits@_W@@SAIABQB_W@Z 10061650 f i libucrt:argv_wildcards.obj
 0001:0006066e       ??$tcsncpy_s@AAPADIAAPADABI@?$__crt_char_traits@D@@SAHAAPAD$$QAI0ABI@Z 1006166e f i libucrt:argv_wildcards.obj
 0001:00060691       ??$tcsncpy_s@AAPA_WIAAPA_WABI@?$__crt_char_traits@_W@@SAHAAPA_W$$QAI0ABI@Z 10061691 f i libucrt:argv_wildcards.obj
 0001:000606b4       ??$tcsncpy_s@PADABIABQBDABI@?$__crt_char_traits@D@@SAH$$QAPADABIABQBD1@Z 100616b4 f i libucrt:argv_wildcards.obj
 0001:000606d7       ??$tcsncpy_s@PADIABQBDABI@?$__crt_char_traits@D@@SAH$$QAPAD$$QAIABQBDABI@Z 100616d7 f i libucrt:argv_wildcards.obj
 0001:000606fa       ??$tcsncpy_s@PA_WABIABQB_WABI@?$__crt_char_traits@_W@@SAH$$QAPA_WABIABQB_W1@Z 100616fa f i libucrt:argv_wildcards.obj
 0001:0006071d       ??$tcsncpy_s@PA_WIABQB_WABI@?$__crt_char_traits@_W@@SAH$$QAPA_W$$QAIABQB_WABI@Z 1006171d f i libucrt:argv_wildcards.obj
 0001:00060740       ??$tcspbrk@AAPADAAY02$$CBD@?$__crt_char_traits@D@@SAPADAAPADAAY02$$CBD@Z 10061740 f i libucrt:argv_wildcards.obj
 0001:00060756       ??$tcspbrk@AAPA_WAAY02$$CB_W@?$__crt_char_traits@_W@@SAPA_WAAPA_WAAY02$$CB_W@Z 10061756 f i libucrt:argv_wildcards.obj
 0001:0006076c       ??0?$__crt_unique_handle_t@U__crt_findfile_traits@@@@QAE@QAX@Z 1006176c f i libucrt:argv_wildcards.obj
 0001:0006077c       ??0?$__crt_win32_buffer@DU__crt_win32_buffer_internal_dynamic_resizing@@@@QAE@XZ 1006177c f i libucrt:argv_wildcards.obj
 0001:00060792       ??0?$__crt_win32_buffer@_WU__crt_win32_buffer_internal_dynamic_resizing@@@@QAE@XZ 10061792 f i libucrt:argv_wildcards.obj
 0001:000607c2       ??1?$__crt_unique_handle_t@U__crt_findfile_traits@@@@QAE@XZ 100617c2 f i libucrt:argv_wildcards.obj
 0001:000607d9       ??1?$__crt_win32_buffer@DU__crt_win32_buffer_internal_dynamic_resizing@@@@QAE@XZ 100617d9 f i libucrt:argv_wildcards.obj
 0001:000607de       ??1?$__crt_win32_buffer@_WU__crt_win32_buffer_internal_dynamic_resizing@@@@QAE@XZ 100617de f i libucrt:argv_wildcards.obj
 0001:00060839       ??R<lambda_28bda7af82a03b66c1cb3803a755f95d>@@QBE@IQB_WQADI@Z 10061839 f i libucrt:argv_wildcards.obj
 0001:0006087b       ??R<lambda_62f6974d9771e494a5ea317cc32e971c>@@QBE@IQBDQA_WI@Z 1006187b f i libucrt:argv_wildcards.obj
 0001:000608f4       ?__acrt_get_utf8_acp_compatibility_codepage@@YAIXZ 100618f4 f i libucrt:argv_wildcards.obj
 0001:00060933       ?_deallocate@?$__crt_win32_buffer@DU__crt_win32_buffer_internal_dynamic_resizing@@@@AAEXXZ 10061933 f i libucrt:argv_wildcards.obj
 0001:0006094d       ?_deallocate@?$__crt_win32_buffer@_WU__crt_win32_buffer_internal_dynamic_resizing@@@@AAEXXZ 1006194d f i libucrt:argv_wildcards.obj
 0001:00060967       ?allocate@?$__crt_win32_buffer@DU__crt_win32_buffer_internal_dynamic_resizing@@@@QAEHI@Z 10061967 f i libucrt:argv_wildcards.obj
 0001:000609a3       ?allocate@?$__crt_win32_buffer@_WU__crt_win32_buffer_internal_dynamic_resizing@@@@QAEHI@Z 100619a3 f i libucrt:argv_wildcards.obj
 0001:000609e2       ?allocate@__crt_win32_buffer_internal_dynamic_resizing@@SAHQAPAXIABV__crt_win32_buffer_empty_debug_info@@@Z 100619e2 f i libucrt:argv_wildcards.obj
 0001:00060a71       ?capacity@?$__crt_win32_buffer@DU__crt_win32_buffer_internal_dynamic_resizing@@@@QBEIXZ 10061a71 f i libucrt:argv_wildcards.obj
 0001:00060a75       ?capacity@?$__crt_win32_buffer@_WU__crt_win32_buffer_internal_dynamic_resizing@@@@QBEIXZ 10061a75 f i libucrt:argv_wildcards.obj
 0001:00060a79       ?close@?$__crt_unique_handle_t@U__crt_findfile_traits@@@@QAEXXZ 10061a79 f i libucrt:argv_wildcards.obj
 0001:00060a90       ?close@__crt_findfile_traits@@SA_NPAX@Z 10061a90 f i libucrt:argv_wildcards.obj
 0001:00060aa5       ?data@?$__crt_win32_buffer@DU__crt_win32_buffer_internal_dynamic_resizing@@@@QAEPADXZ 10061aa5 f i libucrt:argv_wildcards.obj
 0001:00060aa9       ?data@?$__crt_win32_buffer@_WU__crt_win32_buffer_internal_dynamic_resizing@@@@QAEPA_WXZ 10061aa9 f i libucrt:argv_wildcards.obj
 0001:00060aad       ?deallocate@__crt_win32_buffer_internal_dynamic_resizing@@SAXQAXABV__crt_win32_buffer_empty_debug_info@@@Z 10061aad f i libucrt:argv_wildcards.obj
 0001:00060abd       ?debug_info@?$__crt_win32_buffer@DU__crt_win32_buffer_internal_dynamic_resizing@@@@QBEABV__crt_win32_buffer_empty_debug_info@@XZ 10061abd f i libucrt:argv_wildcards.obj
 0001:00060ac0       ?debug_info@?$__crt_win32_buffer@_WU__crt_win32_buffer_internal_dynamic_resizing@@@@QBEABV__crt_win32_buffer_empty_debug_info@@XZ 10061ac0 f i libucrt:argv_wildcards.obj
 0001:00060bd9       ?get@?$__crt_unique_handle_t@U__crt_findfile_traits@@@@QBEPAXXZ 10061bd9 f i libucrt:argv_wildcards.obj
 0001:00060c0f       ?get_invalid_value@__crt_findfile_traits@@SAPAXXZ 10061c0f f i libucrt:argv_wildcards.obj
 0001:00060c5e       ?set_to_nullptr@?$__crt_win32_buffer@DU__crt_win32_buffer_internal_dynamic_resizing@@@@QAEXXZ 10061c5e f i libucrt:argv_wildcards.obj
 0001:00060c75       ?set_to_nullptr@?$__crt_win32_buffer@_WU__crt_win32_buffer_internal_dynamic_resizing@@@@QAEXXZ 10061c75 f i libucrt:argv_wildcards.obj
 0001:00060c8c       ?size@?$__crt_win32_buffer@DU__crt_win32_buffer_internal_dynamic_resizing@@@@QAEXI@Z 10061c8c f i libucrt:argv_wildcards.obj
 0001:00060c9b       ?size@?$__crt_win32_buffer@_WU__crt_win32_buffer_internal_dynamic_resizing@@@@QAEXI@Z 10061c9b f i libucrt:argv_wildcards.obj
 0001:00060cbc       ?strpbrk@@YAPADQADQBD@Z    10061cbc f i libucrt:argv_wildcards.obj
 0001:00060cc7       ?wcspbrk@@YAPA_WPA_WPB_W@Z 10061cc7 f i libucrt:argv_wildcards.obj
 0001:00060cd2       ___acrt_expand_narrow_argv_wildcards 10061cd2 f   libucrt:argv_wildcards.obj
 0001:00060cdd       ___acrt_expand_wide_argv_wildcards 10061cdd f   libucrt:argv_wildcards.obj
 0001:00060ce8       ??$__acrt_convert_wcs_mbs_cp@_WDV<lambda_0fec1a7b3f42a53036604e18c2d5e07e>@@U__crt_win32_buffer_no_resizing@@@@YAHQB_WAAV?$__crt_win32_buffer@DU__crt_win32_buffer_no_resizing@@@@ABV<lambda_0fec1a7b3f42a53036604e18c2d5e07e>@@I@Z 10061ce8 f i libucrt:getmodulefilenamea.obj
 0001:00060daa       ??$__acrt_wcs_to_mbs_cp@U__crt_win32_buffer_no_resizing@@@@YAHQB_WAAV?$__crt_win32_buffer@DU__crt_win32_buffer_no_resizing@@@@I@Z 10061daa f i libucrt:getmodulefilenamea.obj
 0001:00060dc7       ??0?$__crt_win32_buffer@DU__crt_win32_buffer_no_resizing@@@@QAE@QADI@Z 10061dc7 f i libucrt:getmodulefilenamea.obj
 0001:00060deb       ??1?$__crt_win32_buffer@DU__crt_win32_buffer_no_resizing@@@@QAE@XZ 10061deb f i libucrt:getmodulefilenamea.obj
 0001:00060df6       ??R<lambda_0fec1a7b3f42a53036604e18c2d5e07e>@@QBE@IQB_WQADI@Z 10061df6 f i libucrt:getmodulefilenamea.obj
 0001:00060e1a       ?_deallocate@?$__crt_win32_buffer@DU__crt_win32_buffer_no_resizing@@@@AAEXXZ 10061e1a f i libucrt:getmodulefilenamea.obj
 0001:00060e25       ?allocate@?$__crt_win32_buffer@DU__crt_win32_buffer_no_resizing@@@@QAEHI@Z 10061e25 f i libucrt:getmodulefilenamea.obj
 0001:00060e4c       ?allocate@__crt_win32_buffer_no_resizing@@SAHQAPAXIABV__crt_win32_buffer_empty_debug_info@@@Z 10061e4c f i libucrt:getmodulefilenamea.obj
 0001:00060e59       ?capacity@?$__crt_win32_buffer@DU__crt_win32_buffer_no_resizing@@@@QBEIXZ 10061e59 f i libucrt:getmodulefilenamea.obj
 0001:00060e5d       ?data@?$__crt_win32_buffer@DU__crt_win32_buffer_no_resizing@@@@QAEPADXZ 10061e5d f i libucrt:getmodulefilenamea.obj
 0001:00060e61       ?deallocate@__crt_win32_buffer_no_resizing@@SAXQAXABV__crt_win32_buffer_empty_debug_info@@@Z 10061e61 f i libucrt:getmodulefilenamea.obj
 0001:00060e64       ?debug_info@?$__crt_win32_buffer@DU__crt_win32_buffer_no_resizing@@@@QBEABV__crt_win32_buffer_empty_debug_info@@XZ 10061e64 f i libucrt:getmodulefilenamea.obj
 0001:00060e67       ?set_to_nullptr@?$__crt_win32_buffer@DU__crt_win32_buffer_no_resizing@@@@QAEXXZ 10061e67 f i libucrt:getmodulefilenamea.obj
 0001:00060e7b       ?size@?$__crt_win32_buffer@DU__crt_win32_buffer_no_resizing@@@@QAEXI@Z 10061e7b f i libucrt:getmodulefilenamea.obj
 0001:00060e8a       ?size@?$__crt_win32_buffer@DU__crt_win32_buffer_no_resizing@@@@QBEIXZ 10061e8a f i libucrt:getmodulefilenamea.obj
 0001:00060e8e       ___acrt_GetModuleFileNameA 10061e8e f   libucrt:getmodulefilenamea.obj
 0001:00060fa2       ??$initialize_from_array@$$BY10BAA@E@?$dual_state_global@PAE@__crt_state_management@@QAAXAAY10BAA@E@Z 10061fa2 f i libucrt:mbctype.obj
 0001:00060fb1       ??$initialize_from_array@$$BY10BAB@E@?$dual_state_global@PAE@__crt_state_management@@QAAXAAY10BAB@E@Z 10061fb1 f i libucrt:mbctype.obj
 0001:000610cd       ?dangerous_get_state_array@?$dual_state_global@PAE@__crt_state_management@@QAEPAPAEXZ 100620cd f i libucrt:mbctype.obj
 0001:000610d0       ?dangerous_get_state_array@?$dual_state_global@PAU__crt_multibyte_data@@@__crt_state_management@@QAEPAPAU__crt_multibyte_data@@XZ 100620d0 f i libucrt:mbctype.obj
 0001:00061144       ?initialize@?$dual_state_global@PAU__crt_multibyte_data@@@__crt_state_management@@QAEXQAU__crt_multibyte_data@@@Z 10062144 f i libucrt:mbctype.obj
 0001:0006155d       ?value@?$dual_state_global@PAE@__crt_state_management@@QAEAAPAEXZ 1006255d f i libucrt:mbctype.obj
 0001:00061560       ___acrt_initialize_multibyte 10062560 f   libucrt:mbctype.obj
 0001:000615a8       ___acrt_update_thread_multibyte_data 100625a8 f   libucrt:mbctype.obj
 0001:000615bb       ___p__mbcasemap            100625bb f   libucrt:mbctype.obj
 0001:000615c1       ___p__mbctype              100625c1 f   libucrt:mbctype.obj
 0001:000615c7       __getmbcp                  100625c7 f   libucrt:mbctype.obj
 0001:000615fb       __setmbcp                  100625fb f   libucrt:mbctype.obj
 0001:0006161a       __setmbcp_nolock           1006261a f   libucrt:mbctype.obj
 0001:000618f0       __ismbbalnum               100628f0 f   libucrt:ismbbyte.obj
 0001:0006190b       __ismbbalnum_l             1006290b f   libucrt:ismbbyte.obj
 0001:00061927       __ismbbalpha               10062927 f   libucrt:ismbbyte.obj
 0001:00061942       __ismbbalpha_l             10062942 f   libucrt:ismbbyte.obj
 0001:0006195e       __ismbbblank               1006295e f   libucrt:ismbbyte.obj
 0001:00061981       __ismbbblank_l             10062981 f   libucrt:ismbbyte.obj
 0001:000619a5       __ismbbgraph               100629a5 f   libucrt:ismbbyte.obj
 0001:000619c0       __ismbbgraph_l             100629c0 f   libucrt:ismbbyte.obj
 0001:000619dc       __ismbbkalnum              100629dc f   libucrt:ismbbyte.obj
 0001:000619f4       __ismbbkalnum_l            100629f4 f   libucrt:ismbbyte.obj
 0001:00061a0d       __ismbbkana                10062a0d f   libucrt:ismbbyte.obj
 0001:00061a20       __ismbbkana_l              10062a20 f   libucrt:ismbbyte.obj
 0001:00061a6f       __ismbbkprint              10062a6f f   libucrt:ismbbyte.obj
 0001:00061a87       __ismbbkprint_l            10062a87 f   libucrt:ismbbyte.obj
 0001:00061aa0       __ismbbkpunct              10062aa0 f   libucrt:ismbbyte.obj
 0001:00061ab8       __ismbbkpunct_l            10062ab8 f   libucrt:ismbbyte.obj
 0001:00061ad1       __ismbblead                10062ad1 f   libucrt:ismbbyte.obj
 0001:00061ae9       __ismbblead_l              10062ae9 f   libucrt:ismbbyte.obj
 0001:00061b02       __ismbbprint               10062b02 f   libucrt:ismbbyte.obj
 0001:00061b1d       __ismbbprint_l             10062b1d f   libucrt:ismbbyte.obj
 0001:00061b39       __ismbbpunct               10062b39 f   libucrt:ismbbyte.obj
 0001:00061b51       __ismbbpunct_l             10062b51 f   libucrt:ismbbyte.obj
 0001:00061b6a       __ismbbtrail               10062b6a f   libucrt:ismbbyte.obj
 0001:00061b82       __ismbbtrail_l             10062b82 f   libucrt:ismbbyte.obj
 0001:00061b9b       ___acrt_initialize_command_line 10062b9b f   libucrt:argv_data.obj
 0001:00061bb4       ___acrt_uninitialize_command_line 10062bb4 f   libucrt:argv_data.obj
 0001:00061bb7       ___p___argc                10062bb7 f   libucrt:argv_data.obj
 0001:00061bbd       ___p___argv                10062bbd f   libucrt:argv_data.obj
 0001:00061bc3       ___p___wargv               10062bc3 f   libucrt:argv_data.obj
 0001:00061bc9       ___p__acmdln               10062bc9 f   libucrt:argv_data.obj
 0001:00061bcf       ___p__pgmptr               10062bcf f   libucrt:argv_data.obj
 0001:00061bd5       ___p__wcmdln               10062bd5 f   libucrt:argv_data.obj
 0001:00061bdb       ___p__wpgmptr              10062bdb f   libucrt:argv_data.obj
 0001:00061be1       __get_pgmptr               10062be1 f   libucrt:argv_data.obj
 0001:00061c12       __get_wpgmptr              10062c12 f   libucrt:argv_data.obj
 0001:00061ca7       _wcscpy_s                  10062ca7 f   libucrt:wcscpy_s.obj
 0001:00061da3       ___acrt_MultiByteToWideChar 10062da3 f   libucrt:multibytetowidechar.obj
 0001:00061e5d       ___acrt_WideCharToMultiByte 10062e5d f   libucrt:widechartomultibyte.obj
 0001:00061f64       ___dcrt_get_narrow_environment_from_os 10062f64 f   libucrt:get_environment_from_os.obj
 0001:00062004       ___dcrt_get_wide_environment_from_os 10063004 f   libucrt:get_environment_from_os.obj
 0001:0006278c       ??$get_or_create_environment_nolock@$$V@?$__crt_char_traits@D@@SAPAPADXZ 1006378c f i libucrt:setenv.obj
 0001:00062791       ??$get_or_create_environment_nolock@$$V@?$__crt_char_traits@_W@@SAPAPA_WXZ 10063791 f i libucrt:setenv.obj
 0001:00062796       ??$set_environment_variable@ABQADQAD@?$__crt_char_traits@D@@SAHABQAD$$QBQAD@Z 10063796 f i libucrt:setenv.obj
 0001:000627ae       ??$set_environment_variable@ABQA_WQA_W@?$__crt_char_traits@_W@@SAHABQA_W$$QBQA_W@Z 100637ae f i libucrt:setenv.obj
 0001:000627c5       ??$tcschr@ABQADD@?$__crt_char_traits@D@@SAPADABQAD$$QAD@Z 100637c5 f i libucrt:setenv.obj
 0001:000627df       ??$tcschr@ABQA_WD@?$__crt_char_traits@_W@@SAPA_WABQA_W$$QAD@Z 100637df f i libucrt:setenv.obj
 0001:000627fd       ??$tcscpy_s@AAPADABIAAPAD@?$__crt_char_traits@D@@SAHAAPADABI0@Z 100637fd f i libucrt:setenv.obj
 0001:0006281b       ??$tcscpy_s@AAPA_WABIAAPA_W@?$__crt_char_traits@_W@@SAHAAPA_WABI0@Z 1006381b f i libucrt:setenv.obj
 0001:00062839       ??$tcscpy_s@ABQADABIABQAD@?$__crt_char_traits@D@@SAHABQADABI0@Z 10063839 f i libucrt:setenv.obj
 0001:00062857       ??$tcscpy_s@ABQA_WABIABQA_W@?$__crt_char_traits@_W@@SAHABQA_WABI0@Z 10063857 f i libucrt:setenv.obj
 0001:00062875       ??$tcslen@ABQAD@?$__crt_char_traits@D@@SAIABQAD@Z 10063875 f i libucrt:setenv.obj
 0001:0006288d       ??$tcslen@ABQA_W@?$__crt_char_traits@_W@@SAIABQA_W@Z 1006388d f i libucrt:setenv.obj
 0001:000628ab       ??$tcsnicoll@ABQBDAAPADABI@?$__crt_char_traits@D@@SAHABQBDAAPADABI@Z 100638ab f i libucrt:setenv.obj
 0001:000628c9       ??$tcsnicoll@ABQB_WAAPA_WABI@?$__crt_char_traits@_W@@SAHABQB_WAAPA_WABI@Z 100638c9 f i libucrt:setenv.obj
 0001:0006290b       ?strchr@@YAPADQADH@Z       1006390b f i libucrt:setenv.obj
 0001:00062916       ?wcschr@@YAPA_WPA_W_W@Z    10063916 f i libucrt:setenv.obj
 0001:00062921       ___dcrt_set_variable_in_narrow_environment_nolock 10063921 f   libucrt:setenv.obj
 0001:0006292c       ___dcrt_set_variable_in_wide_environment_nolock 1006392c f   libucrt:setenv.obj
 0001:00062937       __recalloc                 10063937 f   libucrt:recalloc.obj
 0001:00062942       __recalloc_base            10063942 f   libucrt:recalloc.obj
 0001:000629bc       ??$?B$$A6GHPA_WKJ@Z@__crt_fast_encoded_nullptr_t@@QBEP6GHPA_WKJ@ZXZ 100639bc f i libucrt:winapi_thunks.obj
 0001:00062a64       ??$__crt_fast_decode_pointer@P6GHPA_WKJ@Z@@YAP6GHPA_WKJ@ZQ6GH0KJ@Z@Z 10063a64 f i libucrt:winapi_thunks.obj
 0001:00062a7f       ??$__crt_fast_decode_pointer@PAX@@YAPAXQAX@Z 10063a7f f i libucrt:winapi_thunks.obj
 0001:00062a9a       ??$__crt_fast_encode_pointer@P6GHPA_WKJ@Z@@YAP6GHPA_WKJ@ZQ6GH0KJ@Z@Z 10063a9a f i libucrt:winapi_thunks.obj
 0001:0006314a       _GetCurrentThreadEffectiveToken 1006414a f i libucrt:winapi_thunks.obj
 0001:0006314e       ___acrt_AppPolicyGetProcessTerminationMethodInternal@4 1006414e f   libucrt:winapi_thunks.obj
 0001:0006318e       ___acrt_AppPolicyGetShowDeveloperDiagnosticInternal@4 1006418e f   libucrt:winapi_thunks.obj
 0001:000631ce       ___acrt_AppPolicyGetThreadInitializationTypeInternal@4 100641ce f   libucrt:winapi_thunks.obj
 0001:0006320e       ___acrt_AppPolicyGetWindowingModelInternal@4 1006420e f   libucrt:winapi_thunks.obj
 0001:0006324e       ___acrt_AreFileApisANSI@0  1006424e f   libucrt:winapi_thunks.obj
 0001:0006326d       ___acrt_CompareStringEx@36 1006426d f   libucrt:winapi_thunks.obj
 0001:000632ca       ___acrt_EnumSystemLocalesEx@16 100642ca f   libucrt:winapi_thunks.obj
 0001:0006331e       ___acrt_FlsAlloc@4         1006431e f   libucrt:winapi_thunks.obj
 0001:0006335d       ___acrt_FlsFree@4          1006435d f   libucrt:winapi_thunks.obj
 0001:0006339c       ___acrt_FlsGetValue@4      1006439c f   libucrt:winapi_thunks.obj
 0001:000633db       ___acrt_FlsSetValue@8      100643db f   libucrt:winapi_thunks.obj
 0001:0006341d       ___acrt_GetDateFormatEx@28 1006441d f   libucrt:winapi_thunks.obj
 0001:00063474       ___acrt_GetEnabledXStateFeatures@0 10064474 f   libucrt:winapi_thunks.obj
 0001:000634a8       ___acrt_GetLocaleInfoEx@16 100644a8 f   libucrt:winapi_thunks.obj
 0001:000634e7       ___acrt_GetSystemTimePreciseAsFileTime@4 100644e7 f   libucrt:winapi_thunks.obj
 0001:00063526       ___acrt_GetTempPath2W@8    10064526 f   libucrt:winapi_thunks.obj
 0001:00063568       ___acrt_GetTimeFormatEx@24 10064568 f   libucrt:winapi_thunks.obj
 0001:000635ad       ___acrt_GetUserDefaultLocaleName@8 100645ad f   libucrt:winapi_thunks.obj
 0001:000635e9       ___acrt_GetXStateFeaturesMask@8 100645e9 f   libucrt:winapi_thunks.obj
 0001:00063629       ___acrt_InitializeCriticalSectionEx@12 10064629 f   libucrt:winapi_thunks.obj
 0001:00063674       ___acrt_IsValidLocaleName@4 10064674 f   libucrt:winapi_thunks.obj
 0001:000636ac       ___acrt_LCIDToLocaleName@16 100646ac f   libucrt:winapi_thunks.obj
 0001:000636eb       ___acrt_LCMapStringEx@36   100646eb f   libucrt:winapi_thunks.obj
 0001:00063748       ___acrt_LocaleNameToLCID@8 10064748 f   libucrt:winapi_thunks.obj
 0001:00063779       ___acrt_LocateXStateFeature@12 10064779 f   libucrt:winapi_thunks.obj
 0001:000637a8       ___acrt_MessageBoxA@16     100647a8 f   libucrt:winapi_thunks.obj
 0001:000637da       ___acrt_MessageBoxW@16     100647da f   libucrt:winapi_thunks.obj
 0001:0006380c       ___acrt_RoInitialize@4     1006480c f   libucrt:winapi_thunks.obj
 0001:00063847       ___acrt_RoUninitialize@0   10064847 f   libucrt:winapi_thunks.obj
 0001:00063875       ___acrt_RtlGenRandom@8     10064875 f   libucrt:winapi_thunks.obj
 0001:000638b5       ___acrt_SetThreadStackGuarantee@4 100648b5 f   libucrt:winapi_thunks.obj
 0001:000638f0       ___acrt_can_show_message_box 100648f0 f   libucrt:winapi_thunks.obj
 0001:00063917       ___acrt_can_use_vista_locale_apis 10064917 f   libucrt:winapi_thunks.obj
 0001:00063922       ___acrt_can_use_xstate_apis 10064922 f   libucrt:winapi_thunks.obj
 0001:0006392d       ___acrt_eagerly_load_locale_apis 1006492d f   libucrt:winapi_thunks.obj
 0001:00063964       ___acrt_get_parent_window  10064964 f   libucrt:winapi_thunks.obj
 0001:000639cc       ___acrt_initialize_winapi_thunks 100649cc f   libucrt:winapi_thunks.obj
 0001:000639e0       ___acrt_is_interactive     100649e0 f   libucrt:winapi_thunks.obj
 0001:00063a80       ___acrt_uninitialize_winapi_thunks 10064a80 f   libucrt:winapi_thunks.obj
 0001:00063ab6       ___acrt_getheap            10064ab6 f   libucrt:heap_handle.obj
 0001:00063abc       ___acrt_initialize_heap    10064abc f   libucrt:heap_handle.obj
 0001:00063acd       ___acrt_uninitialize_heap  10064acd f   libucrt:heap_handle.obj
 0001:00063ad7       __get_heap_handle          10064ad7 f   libucrt:heap_handle.obj
 0001:00063add       ___acrt_execute_initializers 10064add f   libucrt:shared_initialization.obj
 0001:00063b45       ___acrt_execute_uninitializers 10064b45 f   libucrt:shared_initialization.obj
 0001:00063b76       ??$?B$$A6AHI@Z@__crt_fast_encoded_nullptr_t@@QBEP6AHI@ZXZ 10064b76 f i libucrt:new_handler.obj
 0001:00063b7c       ??$__crt_fast_decode_pointer@P6AHI@Z@@YAP6AHI@ZQ6AHI@Z@Z 10064b7c f i libucrt:new_handler.obj
 0001:00063b97       ??$__crt_fast_encode_pointer@P6AHI@Z@@YAP6AHI@ZQ6AHI@Z@Z 10064b97 f i libucrt:new_handler.obj
 0001:00063bb6       ?_set_new_handler@@YAP6AHI@ZH@Z 10064bb6 f   libucrt:new_handler.obj
 0001:00063bc3       ?initialize@?$dual_state_global@P6AHI@Z@__crt_state_management@@QAEXQ6AHI@Z@Z 10064bc3 f i libucrt:new_handler.obj
 0001:00063bdf       ?value@?$dual_state_global@P6AHI@Z@__crt_state_management@@QAEAAP6AHI@ZXZ 10064bdf f i libucrt:new_handler.obj
 0001:00063be2       ___acrt_initialize_new_handler 10064be2 f   libucrt:new_handler.obj
 0001:00063bf1       __callnewh                 10064bf1 f   libucrt:new_handler.obj
 0001:00063c1d       __query_new_handler        10064c1d f   libucrt:new_handler.obj
 0001:00063c74       __set_new_handler          10064c74 f   libucrt:new_handler.obj
 0001:00063cd9       ??$?B$$A6AXH@Z@__crt_fast_encoded_nullptr_t@@QBEP6AXH@ZXZ 10064cd9 f i libucrt:signal.obj
 0001:00063d6d       ??$__crt_fast_decode_pointer@P6AXH@Z@@YAP6AXH@ZQ6AXH@Z@Z 10064d6d f i libucrt:signal.obj
 0001:00063d88       ??$__crt_fast_encode_pointer@P6AXH@Z@@YAP6AXH@ZQ6AXH@Z@Z 10064d88 f i libucrt:signal.obj
 0001:00063ee4       ?initialize@?$dual_state_global@P6AXH@Z@__crt_state_management@@QAEXQ6AXH@Z@Z 10064ee4 f i libucrt:signal.obj
 0001:00063f8e       ?value@?$dual_state_global@P6AXH@Z@__crt_state_management@@QAEAAP6AXH@ZXZ 10064f8e f i libucrt:signal.obj
 0001:00063f91       ___acrt_get_sigabrt_handler 10064f91 f   libucrt:signal.obj
 0001:00063fb8       ___acrt_initialize_signal_handlers 10064fb8 f   libucrt:signal.obj
 0001:00063fd6       ___fpecode                 10064fd6 f   libucrt:signal.obj
 0001:00063fdf       ___pxcptinfoptrs           10064fdf f   libucrt:signal.obj
 0001:00063fe8       _raise                     10064fe8 f   libucrt:signal.obj
 0001:000641da       _signal                    100651da f   libucrt:signal.obj
 0001:0006439e       ??$__crt_fast_decode_pointer@P6AHPAU_exception@@@Z@@YAP6AHPAU_exception@@@ZQ6AH0@Z@Z 1006539e f i libucrt:matherr.obj
 0001:000643b9       ??$__crt_fast_encode_pointer@P6AHPAU_exception@@@Z@@YAP6AHPAU_exception@@@ZQ6AH0@Z@Z 100653b9 f i libucrt:matherr.obj
 0001:000643d8       ?initialize@?$dual_state_global@P6AHPAU_exception@@@Z@__crt_state_management@@QAEXQ6AHPAU_exception@@@Z@Z 100653d8 f i libucrt:matherr.obj
 0001:000643f4       ?value@?$dual_state_global@P6AHPAU_exception@@@Z@__crt_state_management@@QAEAAP6AHPAU_exception@@@ZXZ 100653f4 f i libucrt:matherr.obj
 0001:000643f7       ___acrt_has_user_matherr   100653f7 f   libucrt:matherr.obj
 0001:00064414       ___acrt_initialize_user_matherr 10065414 f   libucrt:matherr.obj
 0001:00064423       ___acrt_invoke_user_matherr 10065423 f   libucrt:matherr.obj
 0001:00064459       ___setusermatherr          10065459 f   libucrt:matherr.obj
 0001:0006446e       ___acrt_add_locale_ref     1006546e f   libucrt:locale_refcounting.obj
 0001:000644eb       ___acrt_free_locale        100654eb f   libucrt:locale_refcounting.obj
 0001:00064633       ___acrt_locale_add_lc_time_reference 10065633 f   libucrt:locale_refcounting.obj
 0001:0006465c       ___acrt_locale_free_lc_time_if_unreferenced 1006565c f   libucrt:locale_refcounting.obj
 0001:0006468d       ___acrt_locale_release_lc_time_reference 1006568d f   libucrt:locale_refcounting.obj
 0001:000646b6       ___acrt_release_locale_ref 100656b6 f   libucrt:locale_refcounting.obj
 0001:00064737       ___acrt_update_thread_locale_data 10065737 f   libucrt:locale_refcounting.obj
 0001:000647b8       __updatetlocinfoEx_nolock  100657b8 f   libucrt:locale_refcounting.obj
 0001:00064808       ??$?RG@__crt_internal_free_policy@@QBEXQBG@Z 10065808 f i libucrt:initctype.obj
 0001:0006481a       ??$?RJ@__crt_internal_free_policy@@QBEXQBJ@Z 1006581a f i libucrt:initctype.obj
 0001:0006482c       ??0?$__crt_unique_heap_ptr@GU__crt_internal_free_policy@@@@QAE@QAG@Z 1006582c f i libucrt:initctype.obj
 0001:0006483c       ??0?$__crt_unique_heap_ptr@JU__crt_internal_free_policy@@@@QAE@QAJ@Z 1006583c f i libucrt:initctype.obj
 0001:0006484c       ??1?$__crt_unique_heap_ptr@GU__crt_internal_free_policy@@@@QAE@XZ 1006584c f i libucrt:initctype.obj
 0001:0006485e       ??1?$__crt_unique_heap_ptr@JU__crt_internal_free_policy@@@@QAE@XZ 1006585e f i libucrt:initctype.obj
 0001:00064870       ?detach@?$__crt_unique_heap_ptr@GU__crt_internal_free_policy@@@@QAEPAGXZ 10065870 f i libucrt:initctype.obj
 0001:00064876       ?detach@?$__crt_unique_heap_ptr@JU__crt_internal_free_policy@@@@QAEPAJXZ 10065876 f i libucrt:initctype.obj
 0001:0006487c       ?release@?$__crt_unique_heap_ptr@GU__crt_internal_free_policy@@@@QAEXXZ 1006587c f i libucrt:initctype.obj
 0001:0006488e       ?release@?$__crt_unique_heap_ptr@JU__crt_internal_free_policy@@@@QAEXXZ 1006588e f i libucrt:initctype.obj
 0001:000648a0       ____lc_codepage_func       100658a0 f   libucrt:initctype.obj
 0001:000648c5       ____lc_collate_cp_func     100658c5 f   libucrt:initctype.obj
 0001:000648ea       ____lc_locale_name_func    100658ea f   libucrt:initctype.obj
 0001:00064911       ____mb_cur_max_func        10065911 f   libucrt:initctype.obj
 0001:00064936       ____mb_cur_max_l_func      10065936 f   libucrt:initctype.obj
 0001:0006494f       ___acrt_locale_initialize_ctype 1006594f f   libucrt:initctype.obj
 0001:00064dac       ??$?RUlconv@@@__crt_internal_free_policy@@QBEXQBUlconv@@@Z 10065dac f i libucrt:initmon.obj
 0001:00064dbe       ??0?$__crt_unique_heap_ptr@Ulconv@@U__crt_internal_free_policy@@@@QAE@QAUlconv@@@Z 10065dbe f i libucrt:initmon.obj
 0001:00064dce       ??1?$__crt_unique_heap_ptr@Ulconv@@U__crt_internal_free_policy@@@@QAE@XZ 10065dce f i libucrt:initmon.obj
 0001:00064de0       ?detach@?$__crt_unique_heap_ptr@Ulconv@@U__crt_internal_free_policy@@@@QAEPAUlconv@@XZ 10065de0 f i libucrt:initmon.obj
 0001:00064de6       ?release@?$__crt_unique_heap_ptr@Ulconv@@U__crt_internal_free_policy@@@@QAEXXZ 10065de6 f i libucrt:initmon.obj
 0001:00064df8       ___acrt_locale_free_monetary 10065df8 f   libucrt:initmon.obj
 0001:00064ef6       ___acrt_locale_initialize_monetary 10065ef6 f   libucrt:initmon.obj
 0001:0006528e       ___acrt_locale_free_numeric 1006628e f   libucrt:initnum.obj
 0001:000652f7       ___acrt_locale_initialize_numeric 100662f7 f   libucrt:initnum.obj
 0001:0006554b       ??$?RU__crt_lc_time_data@@@__crt_internal_free_policy@@QBEXQBU__crt_lc_time_data@@@Z 1006654b f i libucrt:inittime.obj
 0001:000655cf       ??0?$__crt_unique_heap_ptr@U__crt_lc_time_data@@U__crt_internal_free_policy@@@@QAE@QAU__crt_lc_time_data@@@Z 100665cf f i libucrt:inittime.obj
 0001:000655df       ??1?$__crt_unique_heap_ptr@U__crt_lc_time_data@@U__crt_internal_free_policy@@@@QAE@XZ 100665df f i libucrt:inittime.obj
 0001:000655f1       ??B?$__crt_unique_heap_ptr@U__crt_lc_time_data@@U__crt_internal_free_policy@@@@QBE_NXZ 100665f1 f i libucrt:inittime.obj
 0001:000655f8       ?detach@?$__crt_unique_heap_ptr@U__crt_lc_time_data@@U__crt_internal_free_policy@@@@QAEPAU__crt_lc_time_data@@XZ 100665f8 f i libucrt:inittime.obj
 0001:00065623       ?get@?$__crt_unique_heap_ptr@U__crt_lc_time_data@@U__crt_internal_free_policy@@@@QBEPAU__crt_lc_time_data@@XZ 10066623 f i libucrt:inittime.obj
 0001:0006590e       ?is_valid@?$__crt_unique_heap_ptr@U__crt_lc_time_data@@U__crt_internal_free_policy@@@@QBE_NXZ 1006690e f i libucrt:inittime.obj
 0001:00065915       ?release@?$__crt_unique_heap_ptr@U__crt_lc_time_data@@U__crt_internal_free_policy@@@@QAEXXZ 10066915 f i libucrt:inittime.obj
 0001:00065927       ___acrt_locale_free_time   10066927 f   libucrt:inittime.obj
 0001:00065a0b       ___acrt_locale_initialize_time 10066a0b f   libucrt:inittime.obj
 0001:00065af6       _wcscat_s                  10066af6 f   libucrt:wcscat_s.obj
 0001:00065c4d       _wcsncat_s                 10066c4d f   libucrt:wcsncat_s.obj
 0001:00065d26       _wcsncpy_s                 10066d26 f   libucrt:wcsncpy_s.obj
 0001:00065d31       _wcscspn                   10066d31 f   libucrt:wcscspn.obj
 0001:00065d8a       _wcspbrk                   10066d8a f   libucrt:wcspbrk.obj
 0001:00065dd8       ___acrt_GetStringTypeA     10066dd8 f   libucrt:getstringtypea.obj
 0001:00066619       ___acrt_get_qualified_locale 10067619 f   libucrt:get_qualified_locale.obj
 0001:00066fac       ___acrt_get_qualified_locale_downlevel 10067fac f   libucrt:getqloc_downlevel.obj
 0001:0006719c       _localeconv                1006819c f   libucrt:localeconv.obj
 0001:000671c4       ___acrt_GetStringTypeW     100681c4 f   libucrt:getstringtypew.obj
 0001:000671dd       ?value@?$dual_state_global@J@__crt_state_management@@QAEAAJXZ 100681dd f i libucrt:new_mode.obj
 0001:000671e0       __query_new_mode           100681e0 f   libucrt:new_mode.obj
 0001:000671e7       __set_new_mode             100681e7 f   libucrt:new_mode.obj
 0001:000672c7       ___acrt_fp_strflt_to_string 100682c7 f   libucrt:_fptostr.obj
 0001:00068700       ??8__crt_strtox@@YA_NABUbig_integer@0@0@Z 10069700 f i libucrt:cfout.obj
 0001:00068740       ??9__crt_strtox@@YA_NABUbig_integer@0@0@Z 10069740 f i libucrt:cfout.obj
 0001:00068780       ?is_zero@__crt_strtox@@YA_NABUbig_integer@1@@Z 10069780 f i libucrt:cfout.obj
 0001:00068790       ?make_big_integer_power_of_two@__crt_strtox@@YA?AUbig_integer@1@I@Z 10069790 f i libucrt:cfout.obj
