 IntExplorer

 Timestamp is 6609b735 (Sun Mar 31 21:19:17 2024)

 Preferred load address is 10000000

 Start         Length     Name                   Class
 0001:00000000 00000070H .text$di                CODE
 0001:00000070 00077540H .text$mn                CODE
 0001:000775b0 00000570H .text$x                 CODE
 0001:00077b20 0000004aH .text$yd                CODE
 0002:00000000 00000344H .idata$5                DATA
 0002:00000344 0000000cH .00cfg                  DATA
 0002:00000350 00000004H .CRT$XCA                DATA
 0002:00000354 00000010H .CRT$XCU                DATA
 0002:00000364 00000004H .CRT$XCZ                DATA
 0002:00000368 00000004H .CRT$XIA                DATA
 0002:0000036c 00000014H .CRT$XIC                DATA
 0002:00000380 00000004H .CRT$XIZ                DATA
 0002:00000384 00000004H .CRT$XPA                DATA
 0002:00000388 00000008H .CRT$XPX                DATA
 0002:00000390 00000004H .CRT$XPXA               DATA
 0002:00000394 00000004H .CRT$XPZ                DATA
 0002:00000398 00000004H .CRT$XTA                DATA
 0002:0000039c 00000004H .CRT$XTZ                DATA
 0002:000003a0 00000000H .gfids$y                DATA
 0002:000003a0 00008520H .rdata                  DATA
 0002:000088c0 00000040H .rdata$CastGuardVftablesA DATA
 0002:00008900 00000040H .rdata$CastGuardVftablesC DATA
 0002:00008940 000002a0H .rdata$r                DATA
 0002:00008be0 00000494H .rdata$voltmd           DATA
 0002:00009074 00000398H .rdata$zzzdbg           DATA
 0002:0000940c 00000004H .rtc$IAA                DATA
 0002:00009410 00000004H .rtc$IZZ                DATA
 0002:00009414 00000004H .rtc$TAA                DATA
 0002:00009418 00000008H .rtc$TZZ                DATA
 0002:00009420 00001200H .xdata$x                DATA
 0002:0000a620 000001e4H .edata                  DATA
 0002:0000a804 00000078H .idata$2                DATA
 0002:0000a87c 00000014H .idata$3                DATA
 0002:0000a890 00000344H .idata$4                DATA
 0002:0000abd4 000015b8H .idata$6                DATA
 0003:00000000 00000b80H .data                   DATA
 0003:00000b80 00000058H .data$r                 DATA
 0003:00000bd8 000000b8H .data$rs                DATA
 0003:00000c90 00013e24H .bss                    DATA
 0004:00000000 00000060H .rsrc$01                DATA
 0004:00000060 00000180H .rsrc$02                DATA

  Address         Publics by Value              Rva+Base       Lib:Object

 0000:00000000       ___AbsoluteZero            00000000     <absolute>
 0000:00000000       ___arm64x_extra_rfe_table  00000000     <absolute>
 0000:00000000       ___arm64x_extra_rfe_table_size 00000000     <absolute>
 0000:00000000       ___arm64x_native_entrypoint 00000000     <absolute>
 0000:00000000       ___arm64x_redirection_metadata 00000000     <absolute>
 0000:00000000       ___arm64x_redirection_metadata_count 00000000     <absolute>
 0000:00000000       ___dynamic_value_reloc_table 00000000     <absolute>
 0000:00000000       ___enclave_config          00000000     <absolute>
 0000:00000000       ___guard_check_icall_a64n_fptr 00000000     <absolute>
 0000:00000000       ___guard_eh_cont_count     00000000     <absolute>
 0000:00000000       ___guard_eh_cont_table     00000000     <absolute>
 0000:00000000       ___guard_fids_count        00000000     <absolute>
 0000:00000000       ___guard_fids_table        00000000     <absolute>
 0000:00000000       ___guard_iat_count         00000000     <absolute>
 0000:00000000       ___guard_iat_table         00000000     <absolute>
 0000:00000000       ___guard_longjmp_count     00000000     <absolute>
 0000:00000000       ___guard_longjmp_table     00000000     <absolute>
 0000:00000000       ___hybrid_auxiliary_delayload_iat 00000000     <absolute>
 0000:00000000       ___hybrid_auxiliary_delayload_iat_copy 00000000     <absolute>
 0000:00000000       ___hybrid_auxiliary_iat    00000000     <absolute>
 0000:00000000       ___hybrid_auxiliary_iat_copy 00000000     <absolute>
 0000:00000000       ___hybrid_code_map         00000000     <absolute>
 0000:00000000       ___hybrid_code_map_count   00000000     <absolute>
 0000:00000000       ___hybrid_image_info_bitfield 00000000     <absolute>
 0000:00000000       ___safe_se_handler_count   00000000     <absolute>
 0000:00000000       ___safe_se_handler_table   00000000     <absolute>
 0000:00000000       ___x64_code_ranges_to_entry_points 00000000     <absolute>
 0000:00000000       ___x64_code_ranges_to_entry_points_count 00000000     <absolute>
 0000:00000000       __except_list              00000000     <absolute>
 0000:00000100       ___guard_flags             00000100     <absolute>
 0000:00000000       ___ImageBase               10000000     <linker-defined>
 0001:00000070       ??2@YAPAXI@Z               10001070 f i Bmptool.obj
 0001:00000080       ??3@YAXPAX@Z               10001080 f i Bmptool.obj
 0001:000000d0       ?GetResVal@@YAHPAEHHHHHH@Z 100010d0 f   Bmptool.obj
 0001:00000210       ?GetSumm@@YAKPAD@Z         10001210 f   Bmptool.obj
 0001:00000340       ?LoadBitmapLikeGrayscale@@YA_NPADPAH1PAPAE@Z 10001340 f   Bmptool.obj
 0001:00000440       ?ReadBMP24@@YA_NPADPAUBMPformat@@PAPAE@Z 10001440 f   Bmptool.obj
 0001:00000520       ?ReadBMP8@@YA_NPADPAUBMPformat@@PAPAE@Z 10001520 f   Bmptool.obj
 0001:00000600       ?ReadBMP8TOBPX@@YA_NPADPAPAE@Z 10001600 f   Bmptool.obj
 0001:00000710       ?SaveToBMP24@@YAXPADHHPAE@Z 10001710 f   Bmptool.obj
 0001:000007f0       ?SaveToBMP8@@YAXPADHHPAEPAUPAL3@@@Z 100017f0 f   Bmptool.obj
 0001:00000960       ??0SXP_DevScope@@QAE@XZ    10001960 f   DataXchange.obj
 0001:00000980       ??1SXP_DevScope@@QAE@XZ    10001980 f   DataXchange.obj
 0001:000009c0       ?CloseAll@SXP_DevScope@@QAEXXZ 100019c0 f   DataXchange.obj
 0001:000009f0       ?CloseRequest@SXP_DevScope@@QAEXK@Z 100019f0 f   DataXchange.obj
 0001:00000a70       ?EraseTempFiles@@YAXXZ     10001a70 f   DataXchange.obj
 0001:00000b00       ?FilterRQ2Send@@YAXPAVsicExplorer@@PAVParsedRQ@@_N@Z 10001b00 f   DataXchange.obj
 0001:00001c90       ?ForceOpenFile@@YAPAXPAD@Z 10002c90 f   DataXchange.obj
 0001:00001d50       ?GetRequestResult@SXP_DevScope@@QAEKKPAVParsedRQ@@@Z 10002d50 f   DataXchange.obj
 0001:00001e00       ?InitDevs@@YAXXZ           10002e00 f   DataXchange.obj
 0001:00001e40       ?LoadDefaults@@YAHPAPAE@Z  10002e40 f   DataXchange.obj
 0001:00001eb0       ?Process@SXP_DevScope@@QAEXXZ 10002eb0 f   DataXchange.obj
 0001:00001ee0       ?ProcessDataXchange@@YAXXZ 10002ee0 f   DataXchange.obj
 0001:000029a0       ?ProcessDownloadInternetFiles@@YAXXZ 100039a0 f   DataXchange.obj
 0001:00002b70       ?RegisterDevice@SXP_DevScope@@QAEXPAD0@Z 10003b70 f   DataXchange.obj
 0001:00002d00       ?ReportIt@@YAXPADZZ        10003d00 f   DataXchange.obj
 0001:00002dd0       ?SaveCurrentResult@@YAPADPAVOneSicWindow@@PAD@Z 10003dd0 f   DataXchange.obj
 0001:00002e40       ?SaveCurrentResultTo@@YAPADPAVOneSicWindow@@PAD@Z 10003e40 f   DataXchange.obj
 0001:00002e90       ?SendGlobalRequest@@YAKPAVsicExplorer@@PAD_N@Z 10003e90 f   DataXchange.obj
 0001:00002eb0       ?SendRecBuffer@@YAXPAEH_N@Z 10003eb0 f   DataXchange.obj
 0001:00003030       ?SendRequest@SXP_DevScope@@QAEKPAVsicExplorer@@PAD_N2@Z 10004030 f   DataXchange.obj
 0001:00003130       ?SendRequest@SXP_DevScope@@QAEKPAVsicExplorer@@PAVParsedRQ@@_N2@Z 10004130 f   DataXchange.obj
 0001:000032a0       ?Shutdown@SXP_DevScope@@QAEXXZ 100042a0 f   DataXchange.obj
 0001:00003300       ?StartDownloadInternetFile@@YAXPAD00@Z 10004300 f   DataXchange.obj
 0001:00003630       ?exec_LW_abort@@YAXHPAPADPAH@Z 10004630 f   DataXchange.obj
 0001:00003640       ?exec_LW_bonus@@YAXHPAPADPAH@Z 10004640 f   DataXchange.obj
 0001:000036b0       ?exec_LW_cfile@@YAXHPAPADPAH@Z 100046b0 f   DataXchange.obj
 0001:00003840       ?exec_LW_compose@@YAXHPAPADPAH@Z 10004840 f   DataXchange.obj
 0001:00003960       ?exec_LW_dff@@YAXHPAPADPAH@Z 10004960 f   DataXchange.obj
 0001:00003b40       ?exec_LW_dfp@@YAXHPAPADPAH@Z 10004b40 f   DataXchange.obj
 0001:00003d00       ?exec_LW_dtbl@@YAXHPAPADPAH@Z 10004d00 f   DataXchange.obj
 0001:00003e60       ?exec_LW_enb@@YAXHPAPADPAH@Z 10004e60 f   DataXchange.obj
 0001:00004030       ?exec_LW_enbbox@@YAXHPAPADPAH@Z 10005030 f   DataXchange.obj
 0001:000041c0       ?exec_LW_file@@YAXHPAPAD@Z 100051c0 f   DataXchange.obj
 0001:000046b0       ?exec_LW_gvar@@YAXHPAPADPAH@Z 100056b0 f   DataXchange.obj
 0001:00004750       ?exec_LW_key@@YAXHPAPADPAH@Z 10005750 f   DataXchange.obj
 0001:00004800       ?exec_LW_lock@@YAXHPAPADPAH@Z 10005800 f   DataXchange.obj
 0001:000049c0       ?exec_LW_lockall@@YAXHPAPADPAH@Z 100059c0 f   DataXchange.obj
 0001:00004ae0       ?exec_LW_lockbox@@YAXHPAPADPAH@Z 10005ae0 f   DataXchange.obj
 0001:00004c80       ?exec_LW_mapdata@@YAXHPAPADPAH@Z 10005c80 f   DataXchange.obj
 0001:00004d20       ?exec_LW_mem@@YAXHPAPADPAH@Z 10005d20 f   DataXchange.obj
 0001:00004d80       ?exec_LW_message@@YAXHPAPADPAH@Z 10005d80 f   DataXchange.obj
 0001:00004e00       ?exec_LW_move@@YAXHPAPADPAH@Z 10005e00 f   DataXchange.obj
 0001:00004ee0       ?exec_LW_mpclear@@YAXHPAPADPAH@Z 10005ee0 f   DataXchange.obj
 0001:00004ef0       ?exec_LW_mpt@@YAXHPAPADPAH@Z 10005ef0 f   DataXchange.obj
 0001:00005060       ?exec_LW_mupdate@@YAXHPAPADPAH@Z 10006060 f   DataXchange.obj
 0001:00005120       ?exec_LW_pfile@@YAXHPAPAD@Z 10006120 f   DataXchange.obj
 0001:000052d0       ?exec_LW_proc@@YAXHPAPADPAH@Z 100062d0 f   DataXchange.obj
 0001:000052f0       ?exec_LW_show@@YAXHPAPAD@Z 100062f0 f   DataXchange.obj
 0001:00005790       ?exec_LW_showrec@@YAXHPAPADPAH@Z 10006790 f   DataXchange.obj
 0001:00005830       ?exec_LW_tbl@@YAXHPAPADPAH@Z 10006830 f   DataXchange.obj
 0001:000059a0       ?exec_LW_time@@YAXHPAPADPAH@Z 100069a0 f   DataXchange.obj
 0001:00005a80       ?exec_LW_uprec@@YAXHPAPADPAH@Z 10006a80 f   DataXchange.obj
 0001:00005af0       ?exec_LW_vis@@YAXHPAPADPAH@Z 10006af0 f   DataXchange.obj
 0001:00005cf0       ?exec_LW_visbox@@YAXHPAPADPAH@Z 10006cf0 f   DataXchange.obj
 0001:00005ea0       ?exec_LW_xcfile@@YAXHPAPADPAH@Z 10006ea0 f   DataXchange.obj
 0001:00006040       ___local_stdio_printf_options 10007040 f i DataXchange.obj
 0001:00006050       ___local_stdio_scanf_options 10007050 f i DataXchange.obj
 0001:00006060       _fprintf                   10007060 f i DataXchange.obj
 0001:00006090       _fscanf                    10007090 f i DataXchange.obj
 0001:000060c0       _sprintf                   100070c0 f i DataXchange.obj
 0001:00006100       _sscanf                    10007100 f i DataXchange.obj
 0001:00006130       ??0OneBox@@QAE@XZ          10007130 f   Explore.obj
 0001:00006160       ??0OneInterfaceElement@@QAE@XZ 10007160 f   Explore.obj
 0001:00006180       ??0OneSicWindow@@QAE@XZ    10007180 f   Explore.obj
 0001:000061a0       ??1OneBox@@QAE@XZ          100071a0 f   Explore.obj
 0001:000061b0       ??1OneInterfaceElement@@QAE@XZ 100071b0 f i Explore.obj
 0001:000061f0       ??1OneSicWindow@@QAE@XZ    100071f0 f   Explore.obj
 0001:00006240       ??1sicExplorer@@QAE@XZ     10007240 f   Explore.obj
 0001:00006280       ?CReadX@@YAHPAPADHH@Z      10007280 f   Explore.obj
 0001:00006330       ?CReadY@@YAHPAPADHHPAVOneBox@@@Z 10007330 f   Explore.obj
 0001:00006520       ?ChangeOutput@sicExplorer@@QAEXHHHH@Z 10007520 f   Explore.obj
 0001:00006720       ?Clear@OneInterfaceElement@@QAEXXZ 10007720 f   Explore.obj
 0001:000067a0       ?ClearActive@OneInterfaceElement@@QAEXXZ 100077a0 f   Explore.obj
 0001:000067f0       ?ClearParams@OneInterfaceElement@@QAEXXZ 100077f0 f   Explore.obj
 0001:00006840       ?CreateGVar@sicExplorer@@QAEPADPADH@Z 10007840 f   Explore.obj
 0001:00006920       ?CreateSXProcess@OneSicWindow@@QAEPAXP6AXPAVsicExplorer@@PAXH@Z2H@Z 10007920 f   Explore.obj
 0001:000069c0       ?CreateSXProcess@sicExplorer@@QAEPAXP6AXPAV1@PAXH@Z2H@Z 100079c0 f   Explore.obj
 0001:000069f0       ?CreateTable@sicExplorer@@QAEPAUOneSXPTable@@PAD@Z 100079f0 f   Explore.obj
 0001:00006a70       ?CreateVar@OneSicWindow@@QAEPADPADH@Z 10007a70 f   Explore.obj
 0001:00006b80       ?CreateVar@sicExplorer@@QAEPADPADH@Z 10007b80 f   Explore.obj
 0001:00006bb0       ?DownloadRefs@OneSicWindow@@QAEXXZ 10007bb0 f   Explore.obj
 0001:00006fb0       ?Erase@OneSicWindow@@QAEXXZ 10007fb0 f   Explore.obj
 0001:000071a0       ?EraseAllDialogs@sicExplorer@@QAEXXZ 100081a0 f   Explore.obj
 0001:00007330       ?EraseSXP@@YAXXZ           10008330 f   Explore.obj
 0001:00007360       ?GETHX@@YAHD@Z             10008360 f   Explore.obj
 0001:00007390       ?GetAccessKey@@YAPADH@Z    10008390 f   Explore.obj
 0001:000073b0       ?GetFontByName@sicExplorer@@QAEPAVRLCFont@@PAD@Z 100083b0 f   Explore.obj
 0001:00007970       ?GetGPPictureIndex@sicExplorer@@QAEHPAD@Z 10008970 f   Explore.obj
 0001:00007e80       ?GetGVar@sicExplorer@@QAEPADPAD@Z 10008e80 f   Explore.obj
 0001:00007f00       ?GetHVAL@@YAKPAD@Z         10008f00 f   Explore.obj
 0001:00008040       ?GetTable@sicExplorer@@QAEPAUOneSXPTable@@PAD@Z 10009040 f   Explore.obj
 0001:000080b0       ?GetTableHash@@YAKPAUOneSXPTable@@H@Z 100090b0 f   Explore.obj
 0001:00008170       ?GetVar@OneSicWindow@@QAEPADPAD@Z 10009170 f   Explore.obj
 0001:000081f0       ?GetVar@sicExplorer@@QAEPADPAD@Z 100091f0 f   Explore.obj
 0001:00008220       ?InstallSXP_Device@@YAXPAD0@Z 10009220 f   Explore.obj
 0001:00008230       ?LoadCookies@OneSicWindow@@QAEXXZ 10009230 f   Explore.obj
 0001:000082e0       ?LoadDefaultSettings@OneSicWindow@@QAEXXZ 100092e0 f   Explore.obj
 0001:000086b0       ?NewWindow@sicExplorer@@QAEXPAD0@Z 100096b0 f   Explore.obj
 0001:00008810       ?ParseTheWholeText@OneSicWindow@@QAEHXZ 10009810 f   Explore.obj
 0001:0000b190       ?Process@OneSicWindow@@QAEXXZ 1000c190 f   Explore.obj
 0001:0000b520       ?ReParse@OneSicWindow@@QAEXXZ 1000c520 f   Explore.obj
 0001:0000b8b0       ?ReadCoordinates@@YAXPAPADAAH111PAVOneBox@@@Z 1000c8b0 f   Explore.obj
 0001:0000bbb0       ?ReadNumber@@YAHPADPAHH@Z  1000cbb0 f   Explore.obj
 0001:0000bc20       ?Refresh@sicExplorer@@QAEXXZ 1000cc20 f   Explore.obj
 0001:0000bd30       ?RegisterOutput@sicExplorer@@QAEXHHHH@Z 1000cd30 f   Explore.obj
 0001:0000bd60       ?Replace@@YAXPAPADPAD1AAH@Z 1000cd60 f   Explore.obj
 0001:0000be60       ?SaveCookies@OneSicWindow@@QAEXXZ 1000ce60 f   Explore.obj
 0001:0000bf10       ?SendTableRefresh@sicExplorer@@QAEXPAD0@Z 1000cf10 f   Explore.obj
 0001:0000c160       ?SetAccessKey@@YAXHPAD@Z   1000d160 f   Explore.obj
 0001:0000c190       ?StepBack@sicExplorer@@QAEXXZ 1000d190 f   Explore.obj
 0001:0000c1b0       ?StepForward@sicExplorer@@QAEXXZ 1000d1b0 f   Explore.obj
 0001:0000c1d0       _CloseSXP                  1000d1d0 f   Explore.obj
 0001:0000c1f0       _InitSXP                   1000d1f0 f   Explore.obj
 0001:0000c2d0       _OpenRef                   1000d2d0 f   Explore.obj
 0001:0000c330       _ProcessSXP                1000d330 f   Explore.obj
 0001:0000c900       _ResizeSXP                 1000d900 f   Explore.obj
 0001:0000c930       _RunSXP                    1000d930 f   Explore.obj
 0001:0000c9c0       _SXP_GetVar                1000d9c0 f   Explore.obj
 0001:0000ca60       _SXP_Refresh               1000da60 f   Explore.obj
 0001:0000ca80       _SXP_SetVar                1000da80 f   Explore.obj
 0001:0000cb60       _SXP_StepBack              1000db60 f   Explore.obj
 0001:0000cb80       _SXP_StepForw              1000db80 f   Explore.obj
 0001:0000cba0       ?ADI_APan@@YA_NPAVsicExplorer@@PAVDialogsSystem@@PAH222HPAPADH3PAD@Z 1000dba0 f   FnDefine.obj
 0001:0000cd80       ?ADI_AddDBTBL@@YA_NPAVsicExplorer@@PAVDialogsSystem@@PAH222HPAPADH3PAD@Z 1000dd80 f   FnDefine.obj
 0001:0000da60       ?ADI_Btn@@YA_NPAVsicExplorer@@PAVDialogsSystem@@PAH222HPAPADH3PAD@Z 1000ea60 f   FnDefine.obj
 0001:0000dc80       ?ADI_Chk@@YA_NPAVsicExplorer@@PAVDialogsSystem@@PAH222HPAPADH3PAD@Z 1000ec80 f   FnDefine.obj
 0001:0000df50       ?ADI_Combo2@@YA_NPAVsicExplorer@@PAVDialogsSystem@@PAH222HPAPADH3PAD@Z 1000ef50 f   FnDefine.obj
 0001:0000e240       ?ADI_Combo@@YA_NPAVsicExplorer@@PAVDialogsSystem@@PAH222HPAPADH3PAD@Z 1000f240 f   FnDefine.obj
 0001:0000e490       ?ADI_Edit@@YA_NPAVsicExplorer@@PAVDialogsSystem@@PAH222HPAPADH3PAD@Z 1000f490 f   FnDefine.obj
 0001:0000e550       ?ADI_FBrowse@@YA_NPAVsicExplorer@@PAVDialogsSystem@@PAH222HPAPADH3PAD@Z 1000f550 f   FnDefine.obj
 0001:0000e8f0       ?ADI_Hint@@YA_NPAVsicExplorer@@PAVDialogsSystem@@PAH222HPAPADH3PAD@Z 1000f8f0 f   FnDefine.obj
 0001:0000ea50       ?ADI_HintParam@@YA_NPAVsicExplorer@@PAVDialogsSystem@@PAH222HPAPADH3PAD@Z 1000fa50 f   FnDefine.obj
 0001:0000eb00       ?ADI_Label@@YA_NPAVsicExplorer@@PAVDialogsSystem@@PAH222HPAPADH3PAD@Z 1000fb00 f   FnDefine.obj
 0001:0000ed20       ?ADI_Map@@YA_NPAVsicExplorer@@PAVDialogsSystem@@PAH222HPAPADH3PAD@Z 1000fd20 f   FnDefine.obj
 0001:0000ee40       ?ADI_NewFont@@YA_NPAVsicExplorer@@PAVDialogsSystem@@PAH222HPAPADH3PAD@Z 1000fe40 f   FnDefine.obj
 0001:0000f080       ?ADI_Pan@@YA_NPAVsicExplorer@@PAVDialogsSystem@@PAH222HPAPADH3PAD@Z 10010080 f   FnDefine.obj
 0001:0000f180       ?ADI_Ping@@YA_NPAVsicExplorer@@PAVDialogsSystem@@PAH222HPAPADH3PAD@Z 10010180 f   FnDefine.obj
 0001:0000f200       ?ADI_Pix@@YA_NPAVsicExplorer@@PAVDialogsSystem@@PAH222HPAPADH3PAD@Z 10010200 f   FnDefine.obj
 0001:0000f310       ?ADI_Poly@@YA_NPAVsicExplorer@@PAVDialogsSystem@@PAH222HPAPADH3PAD@Z 10010310 f   FnDefine.obj
 0001:0000f420       ?ADI_Rad@@YA_NPAVsicExplorer@@PAVDialogsSystem@@PAH222HPAPADH3PAD@Z 10010420 f   FnDefine.obj
 0001:0000f710       ?ADI_SBtn@@YA_NPAVsicExplorer@@PAVDialogsSystem@@PAH222HPAPADH3PAD@Z 10010710 f   FnDefine.obj
 0001:0000f8c0       ?ADI_Sort@@YA_NPAVsicExplorer@@PAVDialogsSystem@@PAH222HPAPADH3PAD@Z 100108c0 f   FnDefine.obj
 0001:0000fb60       ?ADI_Stbl@@YA_NPAVsicExplorer@@PAVDialogsSystem@@PAH222HPAPADH3PAD@Z 10010b60 f   FnDefine.obj
 0001:000102a0       ?ADI_Time@@YA_NPAVsicExplorer@@PAVDialogsSystem@@PAH222HPAPADH3PAD@Z 100112a0 f   FnDefine.obj
 0001:00010370       ?ADI_Txt@@YA_NPAVsicExplorer@@PAVDialogsSystem@@PAH222HPAPADH3PAD@Z 10011370 f   FnDefine.obj
 0001:00010d10       ?ADI_Ubtn@@YA_NPAVsicExplorer@@PAVDialogsSystem@@PAH222HPAPADH3PAD@Z 10011d10 f   FnDefine.obj
 0001:00010e80       ?ADI_def_gp_btn@@YA_NPAVsicExplorer@@PAVDialogsSystem@@PAH222HPAPADH3PAD@Z 10011e80 f   FnDefine.obj
 0001:00010f40       ?ADI_ftxt@@YA_NPAVsicExplorer@@PAVDialogsSystem@@PAH222HPAPADH3PAD@Z 10011f40 f   FnDefine.obj
 0001:00011080       ?ADI_getf@@YA_NPAVsicExplorer@@PAVDialogsSystem@@PAH222HPAPADH3PAD@Z 10012080 f   FnDefine.obj
 0001:000110b0       ?ADI_gpBtn@@YA_NPAVsicExplorer@@PAVDialogsSystem@@PAH222HPAPADH3PAD@Z 100120b0 f   FnDefine.obj
 0001:00011260       ?ADI_if@@YA_NPAVsicExplorer@@PAVDialogsSystem@@PAH222HPAPADH3PAD@Z 10012260 f   FnDefine.obj
 0001:00011270       ?ADI_murl@@YA_NPAVsicExplorer@@PAVDialogsSystem@@PAH222HPAPADH3PAD@Z 10012270 f   FnDefine.obj
 0001:000112d0       ?ADI_uurl@@YA_NPAVsicExplorer@@PAVDialogsSystem@@PAH222HPAPADH3PAD@Z 100122d0 f   FnDefine.obj
 0001:000113a0       ?BrowseChDisk@@YAXPAVsicExplorer@@PAXH@Z 100123a0 f   FnDefine.obj
 0001:00011430       ?CBB_Close2@@YAXPAVsicExplorer@@PAXH@Z 10012430 f   FnDefine.obj
 0001:00011490       ?CBB_Process2@@YAXPAVsicExplorer@@PAXH@Z 10012490 f   FnDefine.obj
 0001:00011520       ?CBB_Process@@YAXPAVsicExplorer@@PAXH@Z 10012520 f   FnDefine.obj
 0001:000115e0       ?CHK_Process@@YAXPAVsicExplorer@@PAXH@Z 100125e0 f   FnDefine.obj
 0001:000116c0       ?CheckCondition@@YA_NPAD@Z 100126c0 f   FnDefine.obj
 0001:000116d0       ?Close_DBTBL@@YAXPAVsicExplorer@@PAXH@Z 100126d0 f   FnDefine.obj
 0001:000116e0       ?DrawMap@@YAXHHHHHEH@Z     100126e0 f   FnDefine.obj
 0001:00011710       ?Draw_DBTBL@@YAXHHHHHEH@Z  10012710 f   FnDefine.obj
 0001:00011a30       ?EnumFilesInDirectory@@YAXPADPAPADH00@Z 10012a30 f   FnDefine.obj
 0001:00011f60       ?FileClickProc@@YAXPAPADH@Z 10012f60 f   FnDefine.obj
 0001:000121c0       ?InitIFNS@@YAXXZ           100131c0 f   FnDefine.obj
 0001:00012ff0       ?LimitString@@YAXPADPAVRLCFont@@H@Z 10013ff0 f   FnDefine.obj
 0001:00013030       ?MapClick@@YA_NPAVSimpleDialog@@@Z 10014030 f   FnDefine.obj
 0001:00013180       ?ProcPing@@YAXPAVsicExplorer@@PAXH@Z 10014180 f   FnDefine.obj
 0001:000131b0       ?Process_DBTBL@@YAXPAVsicExplorer@@PAXH@Z 100141b0 f   FnDefine.obj
 0001:000138a0       ?SOR_Process@@YAXPAVsicExplorer@@PAXH@Z 100148a0 f   FnDefine.obj
 0001:00013920       ?SendSmartRequest@@YAXPAVsicExplorer@@PAD@Z 10014920 f   FnDefine.obj
 0001:00013f10       ?SendToServer@@YA_NPAVSimpleDialog@@@Z 10014f10 f   FnDefine.obj
 0001:00013f60       ?ShowPixProcess@@YAXPAVsicExplorer@@PAXH@Z 10014f60 f   FnDefine.obj
 0001:00013fd0       ?ShowPixString@@YAXPAVsicExplorer@@HHHHPAVRLCFont@@PAD_N@Z 10014fd0 f   FnDefine.obj
 0001:000141f0       ?ShowVar@@YAXPAVsicExplorer@@PAXH@Z 100151f0 f   FnDefine.obj
 0001:000142a0       ?SortStrings@@YAXPAPADH@Z  100152a0 f   FnDefine.obj
 0001:00014320       ?sgetFile@@YAXPAVsicExplorer@@PAD@Z 10015320 f   FnDefine.obj
 0001:000143a0       ??0OneMap@@QAE@XZ          100153a0 f   GameOnMap.obj
 0001:000143c0       ??1OneMap@@QAE@XZ          100153c0 f   GameOnMap.obj
 0001:00014400       ?AddMapPicture@OneMap@@QAEXPADHHHHH@Z 10015400 f   GameOnMap.obj
 0001:00014620       ?ApplyColorsToScaleLayer@OneMap@@QAEXH@Z 10015620 f   GameOnMap.obj
 0001:00014730       ?ChangeScale@OneMap@@QAEXH@Z 10015730 f   GameOnMap.obj
 0001:00014750       ?ClearAll@OneMap@@QAEXXZ   10015750 f   GameOnMap.obj
 0001:00014810       ?ClearMapPictures@OneMap@@QAEXXZ 10015810 f   GameOnMap.obj
 0001:00014820       ?LoadMapData@OneMap@@QAEXPAVsicExplorer@@@Z 10015820 f   GameOnMap.obj
 0001:00015060       ?NormalizeCoordinates@OneMap@@QAEXXZ 10016060 f   GameOnMap.obj
 0001:00015200       ?ReadWinStringF@@YA_NPAU_iobuf@@PADH@Z 10016200 f   GameOnMap.obj
 0001:00015260       ?RelativeMove@OneMap@@QAEXHH@Z 10016260 f   GameOnMap.obj
 0001:000152b0       ?SetCenterCoor@OneMap@@QAEXHH@Z 100162b0 f   GameOnMap.obj
 0001:000152d0       ?ShowMapPart@OneMap@@QAEXXZ 100162d0 f   GameOnMap.obj
 0001:000156a0       ?UpdateMapData@OneMap@@QAEXPAE@Z 100166a0 f   GameOnMap.obj
 0001:00015810       _DllMain@12                10016810 f   IntExplorer.obj
 0001:00015850       ??0ParsedRQ@@QAE@XZ        10016850 f   ParseRQ.obj
 0001:00015860       ??1ParsedRQ@@QAE@XZ        10016860 f   ParseRQ.obj
 0001:000158a0       ?AddComm@ParsedRQ@@QAEXPAD@Z 100168a0 f   ParseRQ.obj
 0001:00015940       ?AddIntParam@ParsedRQ@@QAEXH@Z 10016940 f   ParseRQ.obj
 0001:000159a0       ?AddParam@ParsedRQ@@QAEXPADH@Z 100169a0 f   ParseRQ.obj
 0001:00015a30       ?AddParamToCom@ParsedRQ@@QAEXHPADH@Z 10016a30 f   ParseRQ.obj
 0001:00015ac0       ?Clear@ParsedRQ@@QAEXXZ    10016ac0 f   ParseRQ.obj
 0001:00015b70       ?Compact@ParsedRQ@@QAEHPADH@Z 10016b70 f   ParseRQ.obj
 0001:00015d80       ?DelComm@ParsedRQ@@QAEXH@Z 10016d80 f   ParseRQ.obj
 0001:00015e30       ?Extract@ParsedRQ@@QAEXPADH@Z 10016e30 f   ParseRQ.obj
 0001:00015f30       ?GetHVal@@YAHD@Z           10016f30 f   ParseRQ.obj
 0001:00015f60       ?Parse@ParsedRQ@@QAEXPAD@Z 10016f60 f   ParseRQ.obj
 0001:00016160       ?UnParse@ParsedRQ@@QAEHPADH@Z 10017160 f   ParseRQ.obj
 0001:000163f0       ??0PingEngine@@QAE@XZ      100173f0 f   PingEngine.obj
 0001:00016400       ??1PingEngine@@QAE@XZ      10017400 f   PingEngine.obj
 0001:00016410       ?GETPING@@YAHK@Z           10017410 f   PingEngine.obj
 0001:00016440       ?GetPing@PingEngine@@QAEHK@Z 10017440 f   PingEngine.obj
 0001:000164f0       ?Process@PingEngine@@QAEXXZ 100174f0 f   PingEngine.obj
 0001:000166d0       ?SendPingToIP@PingEngine@@QAE_NK@Z 100176d0 f   PingEngine.obj
 0001:000167a0       ?Setup@PingEngine@@QAEXXZ  100177a0 f   PingEngine.obj
 0001:00016880       ?checksum@@YAGPAGH@Z       10017880 f   PingEngine.obj
 0001:000168d0       ?decode_resp@@YA_NPADHPAUsockaddr_in@@PAH@Z 100178d0 f   PingEngine.obj
 0001:00016910       ?fill_icmp_data@@YAXPADH@Z 10017910 f   PingEngine.obj
 0001:00016948       _ioctlsocket@12            10017948 f   wsock32:WSOCK32.dll
 0001:0001694e       _recvfrom@24               1001794e f   wsock32:WSOCK32.dll
 0001:00016954       _sendto@24                 10017954 f   wsock32:WSOCK32.dll
 0001:0001695a       _setsockopt@20             1001795a f   wsock32:WSOCK32.dll
 0001:00016960       _WSAStartup@8              10017960 f   wsock32:WSOCK32.dll
 0001:00016966       _WSASocketA@24             10017966 f   ws2_32:WS2_32.dll
 0001:0001696c       _CreateDirectoryA@8        1001796c f   kernel32:KERNEL32.dll
 0001:00016972       _DeleteFileA@4             10017972 f   kernel32:KERNEL32.dll
 0001:00016978       _FindClose@4               10017978 f   kernel32:KERNEL32.dll
 0001:0001697e       _FindFirstFileA@8          1001797e f   kernel32:KERNEL32.dll
 0001:00016984       _FindNextFileA@8           10017984 f   kernel32:KERNEL32.dll
 0001:0001698a       _ExitProcess@4             1001798a f   kernel32:KERNEL32.dll
 0001:00016990       _GetSystemTime@4           10017990 f   kernel32:KERNEL32.dll
 0001:00016996       _GetTickCount@0            10017996 f   kernel32:KERNEL32.dll
 0001:0001699c       _FreeLibrary@4             1001799c f   kernel32:KERNEL32.dll
 0001:000169a2       _GetProcAddress@8          100179a2 f   kernel32:KERNEL32.dll
 0001:000169a8       _LoadLibraryA@4            100179a8 f   kernel32:KERNEL32.dll
 0001:000169ae       _GetCurrentDirectoryA@8    100179ae f   kernel32:KERNEL32.dll
 0001:000169b4       _GetLogicalDriveStringsA@8 100179b4 f   kernel32:KERNEL32.dll
 0001:000169ba       _GetCurrentProcessId@0     100179ba f   kernel32:KERNEL32.dll
 0001:000169c0       _GetCursorPos@4            100179c0 f   user32:USER32.dll
 0001:000169c6       _ShellExecuteA@24          100179c6 f   shell32:SHELL32.dll
 0001:000169cc       ?RReset@@YAPAXPBD@Z        100179cc f   dmcr:dmcr.exe
 0001:000169d2       ?RRewrite@@YAPAXPBD@Z      100179d2 f   dmcr:dmcr.exe
 0001:000169d8       ?RFileSize@@YAKPAX@Z       100179d8 f   dmcr:dmcr.exe
 0001:000169de       ?RSeek@@YAKPAXH@Z          100179de f   dmcr:dmcr.exe
 0001:000169e4       ?RBlockRead@@YAKPAX0K@Z    100179e4 f   dmcr:dmcr.exe
 0001:000169ea       ?RBlockWrite@@YAKPAX0K@Z   100179ea f   dmcr:dmcr.exe
 0001:000169f0       ?RClose@@YAXPAX@Z          100179f0 f   dmcr:dmcr.exe
 0001:000169f6       ?_ExMalloc@@YAPAXH@Z       100179f6 f   dmcr:dmcr.exe
 0001:000169fc       ?_ExFree@@YAXPAX@Z         100179fc f   dmcr:dmcr.exe
 0001:00016a02       ?_ExRealloc@@YAPAXPAXH@Z   10017a02 f   dmcr:dmcr.exe
 0001:00016a08       ?SetExComm@@YAXPADH@Z      10017a08 f   dmcr:dmcr.exe
 0001:00016a0e       ?SetCurPtr@@YAXH@Z         10017a0e f   dmcr:dmcr.exe
 0001:00016a14       ?SetGameID@@YAXPAD@Z       10017a14 f   dmcr:dmcr.exe
 0001:00016a1a       ?PlayRecfile@@YAXPAD@Z     10017a1a f   dmcr:dmcr.exe
 0001:00016a20       ?PreLoadGPImage@GP_System@@QAEHPAD@Z 10017a20 f   dmcr:dmcr.exe
 0001:00016a26       ??0DialogsSystem@@QAE@XZ   10017a26 f   dmcr:dmcr.exe
 0001:00016a2c       ??1DialogsSystem@@QAE@XZ   10017a2c f   dmcr:dmcr.exe
 0001:00016a32       ?ProcessDialogs@DialogsSystem@@QAEXXZ 10017a32 f   dmcr:dmcr.exe
 0001:00016a38       ?CloseDialogs@DialogsSystem@@QAEXXZ 10017a38 f   dmcr:dmcr.exe
 0001:00016a3e       ?addNewGP_VScrollBar@DialogsSystem@@QAEPAVVScrollBar@@PAVSimpleDialog@@HHHHHHH@Z 10017a3e f   dmcr:dmcr.exe
 0001:00016a44       ?addCustomBorder@DialogsSystem@@QAEPAVCustomBorder@@HHHHHPAH0HH@Z 10017a44 f   dmcr:dmcr.exe
 0001:00016a4a       ?addClipper@DialogsSystem@@QAEPAVSimpleDialog@@HHHH@Z 10017a4a f   dmcr:dmcr.exe
 0001:00016a50       ?ProcessMessages@@YA_NXZ   10017a50 f   dmcr:dmcr.exe
 0001:00016a56       ?SetChatWState@@YAXHH@Z    10017a56 f   dmcr:dmcr.exe
 0001:00016a5c       ?SetGPIndex@RLCFont@@QAEXH@Z 10017a5c f   dmcr:dmcr.exe
 0001:00016a62       ?SetColorTable@RLCFont@@QAEXH@Z 10017a62 f   dmcr:dmcr.exe
 0001:00016a68       ?GetRLCHeight@@YAHPAUxRLCTable@@E@Z 10017a68 f   dmcr:dmcr.exe
 0001:00016a6e       ?GetRLCStrWidth@@YAHPADPAVRLCFont@@@Z 10017a6e f   dmcr:dmcr.exe
 0001:00016a74       ?GetRLCWidthUNICODE@@YAHPAUxRLCTable@@PAEPAH@Z 10017a74 f   dmcr:dmcr.exe
 0001:00016a7a       ?LoadGP@GP_System@@QAE_NH@Z 10017a7a f   dmcr:dmcr.exe
 0001:00016a80       ?GetGPWidth@GP_System@@QAEHHH@Z 10017a80 f   dmcr:dmcr.exe
 0001:00016a86       ?GetGPHeight@GP_System@@QAEHHH@Z 10017a86 f   dmcr:dmcr.exe
 0001:00016a8c       ?ShowGP@GP_System@@QAEXHHHHE@Z 10017a8c f   dmcr:dmcr.exe
 0001:00016a92       ?AddLine@Canvas@@QAEXHHHHE@Z 10017a92 f   dmcr:dmcr.exe
 0001:00016a98       ?AssignScroll@ComboBox@@QAEXPAVDialogsSystem@@PAPAVVScrollBar@@HHH@Z 10017a98 f   dmcr:dmcr.exe
 0001:00016a9e       ?AddLine@ComboBox@@QAEXPAD@Z 10017a9e f   dmcr:dmcr.exe
 0001:00016aa4       ?Clear@ComboBox@@QAEXXZ    10017aa4 f   dmcr:dmcr.exe
 0001:00016aaa       ?addGPPicture@DialogsSystem@@QAEPAVGPPicture@@PAVSimpleDialog@@HHHH@Z 10017aaa f   dmcr:dmcr.exe
 0001:00016ab0       ?addTextButton@DialogsSystem@@QAEPAVTextButton@@PAVSimpleDialog@@HHPADPAVRLCFont@@22E@Z 10017ab0 f   dmcr:dmcr.exe
 0001:00016ab6       ?addGP_TextButton@DialogsSystem@@QAEPAVGP_TextButton@@PAVSimpleDialog@@HHPADHHPAVRLCFont@@2@Z 10017ab6 f   dmcr:dmcr.exe
 0001:00016abc       ?addGP_TextButtonLimited@DialogsSystem@@QAEPAVGP_TextButton@@PAVSimpleDialog@@HHPADHHHHPAVRLCFont@@2@Z 10017abc f   dmcr:dmcr.exe
 0001:00016ac2       ?addGP_Button@DialogsSystem@@QAEPAVGP_Button@@PAVSimpleDialog@@HHHHH@Z 10017ac2 f   dmcr:dmcr.exe
 0001:00016ac8       ?addComplexBox@DialogsSystem@@QAEPAVComplexBox@@HHHHP6AXHHHHHEH@ZHH@Z 10017ac8 f   dmcr:dmcr.exe
 0001:00016ace       ?addCustomBox@DialogsSystem@@QAEPAVCustomBox@@HHHHP6AXHHHHHEH@Z@Z 10017ace f   dmcr:dmcr.exe
 0001:00016ad4       ?addInputBox@DialogsSystem@@QAEPAVInputBox@@PAVSimpleDialog@@HHPADHHHPAVRLCFont@@2@Z 10017ad4 f   dmcr:dmcr.exe
 0001:00016ada       ?addGP_CheckBox@DialogsSystem@@QAEPAVCheckBox@@PAVSimpleDialog@@HHPADPAVRLCFont@@2H_NHHHH@Z 10017ada f   dmcr:dmcr.exe
 0001:00016ae0       ?addTextViewer@DialogsSystem@@QAEPAVTextViewer@@PAVSimpleDialog@@HHHHPADPAVRLCFont@@@Z 10017ae0 f   dmcr:dmcr.exe
 0001:00016ae6       ?addGP_ComboBoxDLX@DialogsSystem@@QAEPAVComboBox@@PAVSimpleDialog@@HHHHHHHPAVRLCFont@@1PAD@Z 10017ae6 f   dmcr:dmcr.exe
 0001:00016aec       ?addStdGP_TextButton@DialogsSystem@@QAEPAVGP_TextButton@@HHHPADHHPAVRLCFont@@1@Z 10017aec f   dmcr:dmcr.exe
 0001:00016af2       ?AddCanvas@DialogsSystem@@QAEPAVCanvas@@HHHH@Z 10017af2 f   dmcr:dmcr.exe
 0001:00016af8       ?GetPaletteColor@@YAEHHH@Z 10017af8 f   dmcr:dmcr.exe
 0001:00016afe       ?DrawFilledRect3@@YAXHHHHPAUCorners@@HHH@Z 10017afe f   dmcr:dmcr.exe
 0001:00016b04       ?CheckGP_Inside@@YA_NHHHH@Z 10017b04 f   dmcr:dmcr.exe
 0001:00016b0a       ?PushWindow@@YAXPAUTempWindow@@@Z 10017b0a f   dmcr:dmcr.exe
 0001:00016b10       ?PopWindow@@YAXPAUTempWindow@@@Z 10017b10 f   dmcr:dmcr.exe
 0001:00016b16       ?IntersectWindows@@YAXHHHH@Z 10017b16 f   dmcr:dmcr.exe
 0001:00016b1c       ?ShowCharUNICODE@@YAXHHPAEPAVRLCFont@@@Z 10017b1c f   dmcr:dmcr.exe
 0001:00016b22       ?ShowString@@YAXHHPBDPAVRLCFont@@@Z 10017b22 f   dmcr:dmcr.exe
 0001:00016b28       ?GetPalColor@@YAXEPAE00@Z  10017b28 f   dmcr:dmcr.exe
 0001:00016b2e       @__security_check_cookie@4 10017b2e f   LIBCMT:secchk.obj
 0001:00016b3c       ?configure_argv@__scrt_narrow_argv_policy@@SAHXZ 10017b3c f i LIBCMT:utility.obj
 0001:00016b8d       ?initialize_environment@__scrt_narrow_environment_policy@@SAHXZ 10017b8d f i LIBCMT:utility.obj
 0001:00016bc5       _NtCurrentTeb              10017bc5 f i LIBCMT:utility.obj
 0001:00016bcc       ___scrt_acquire_startup_lock 10017bcc f   LIBCMT:utility.obj
 0001:00016bfe       ___scrt_dllmain_after_initialize_c 10017bfe f   LIBCMT:utility.obj
 0001:00016c29       ___scrt_dllmain_before_initialize_c 10017c29 f   LIBCMT:utility.obj
 0001:00016c37       ___scrt_dllmain_crt_thread_attach 10017c37 f   LIBCMT:utility.obj
 0001:00016c56       ___scrt_dllmain_crt_thread_detach 10017c56 f   LIBCMT:utility.obj
 0001:00016c63       ___scrt_dllmain_exception_filter 10017c63 f   LIBCMT:utility.obj
 0001:00016c97       ___scrt_dllmain_uninitialize_c 10017c97 f   LIBCMT:utility.obj
 0001:00016cba       ___scrt_dllmain_uninitialize_critical 10017cba f   LIBCMT:utility.obj
 0001:00016cc7       ___scrt_initialize_crt     10017cc7 f   LIBCMT:utility.obj
 0001:00016d00       ___scrt_initialize_onexit_tables 10017d00 f   LIBCMT:utility.obj
 0001:00016d87       ___scrt_is_nonwritable_in_current_image 10017d87 f   LIBCMT:utility.obj
 0001:00016e1b       ___scrt_release_startup_lock 10017e1b f   LIBCMT:utility.obj
 0001:00016e38       ___scrt_uninitialize_crt   10017e38 f   LIBCMT:utility.obj
 0001:00016e60       __onexit                   10017e60 f   LIBCMT:utility.obj
 0001:00016e8d       _at_quick_exit             10017e8d f   LIBCMT:utility.obj
 0001:00016eb0       _atexit                    10017eb0 f   LIBCMT:utility.obj
 0001:00016ec5       ___raise_securityfailure   10017ec5 f   LIBCMT:gs_report.obj
 0001:00016eed       ___report_gsfailure        10017eed f   LIBCMT:gs_report.obj
 0001:00016fe7       ___report_rangecheckfailure 10017fe7 f   LIBCMT:gs_report.obj
 0001:00016ff3       ___report_securityfailure  10017ff3 f   LIBCMT:gs_report.obj
 0001:000170c2       ___report_securityfailureEx 100180c2 f   LIBCMT:gs_report.obj
 0001:000171e0       __alloca_probe             100181e0 f   LIBCMT:chkstk.obj
 0001:000171e0       __chkstk                   100181e0 f   LIBCMT:chkstk.obj
 0001:0001720b       ??_M@YGXPAXIHP6EX0@Z@Z     1001820b f   LIBCMT:ehvecdtr.obj
 0001:00017210       ??_M@YGXPAXIIP6EX0@Z@Z     10018210 f   LIBCMT:ehvecdtr.obj
 0001:000172c4       ?__ArrayUnwind@@YGXPAXIIP6EX0@Z@Z 100182c4 f   LIBCMT:ehvecdtr.obj
 0001:00017354       ??_U@YAPAXI@Z              10018354 f   LIBCMT:new_array.obj
 0001:0001769d       __CRT_INIT@12              1001869d f   LIBCMT:dll_dllmain.obj
 0001:000176a6       __DllMainCRTStartup@12     100186a6 f   LIBCMT:dll_dllmain.obj
 0001:000176c9       ___isa_available_init      100186c9 f   LIBCMT:cpu_disp.obj
 0001:0001789d       __get_startup_argv_mode    1001889d f   LIBCMT:argv_mode.obj
 0001:000178a1       ___scrt_is_ucrt_dll_in_use 100188a1 f   LIBCMT:ucrt_detection.obj
 0001:000178ad       ___scrt_fastfail           100188ad f   LIBCMT:utility_desktop.obj
 0001:000179c2       ___scrt_get_show_window_mode 100189c2 f   LIBCMT:utility_desktop.obj
 0001:000179f3       ___scrt_initialize_mta     100189f3 f   LIBCMT:utility_desktop.obj
 0001:000179f8       ___scrt_initialize_winrt   100189f8 f   LIBCMT:utility_desktop.obj
 0001:000179fb       ___scrt_is_managed_app     100189fb f   LIBCMT:utility_desktop.obj
 0001:00017a3d       ___scrt_set_unhandled_exception_filter 10018a3d f   LIBCMT:utility_desktop.obj
 0001:00017a49       ___scrt_exe_initialize_mta 10018a49 f   LIBCMT:utility_desktop.obj
 0001:00017a49       ___scrt_stub_for_initialize_mta 10018a49 f   LIBCMT:utility_desktop.obj
 0001:00017a4c       ___scrt_unhandled_exception_filter@4 10018a4c f   LIBCMT:utility_desktop.obj
 0001:00017aa2       __crt_debugger_hook        10018aa2 f   LIBCMT:utility_desktop.obj
 0001:00017ab0       __SEH_prolog4              10018ab0 f   LIBCMT:sehprolg4.obj
 0001:00017b00       __SEH_epilog4              10018b00 f   LIBCMT:sehprolg4.obj
 0001:00017b14       @_guard_check_icall_nop@4  10018b14 f i LIBCMT:guard_support.obj
 0001:00017b17       _ReadNoFence               10018b17 f i LIBCMT:guard_support.obj
 0001:00017b21       _ReadPointerNoFence        10018b21 f i LIBCMT:guard_support.obj
 0001:00017b2b       __InlineInterlockedExchangePointer 10018b2b f i LIBCMT:guard_support.obj
 0001:00017b38       ___castguard_check_failure_debugbreak 10018b38 f i LIBCMT:guard_support.obj
 0001:00017b53       ___castguard_check_failure_fastfail 10018b53 f i LIBCMT:guard_support.obj
 0001:00017b72       ___castguard_check_failure_nop 10018b72 f i LIBCMT:guard_support.obj
 0001:00017b75       ___castguard_check_failure_os_handled 10018b75 f i LIBCMT:guard_support.obj
 0001:00017bac       ___castguard_check_failure_user_handled 10018bac f i LIBCMT:guard_support.obj
 0001:00017c1a       ___castguard_set_user_handler 10018c1a f i LIBCMT:guard_support.obj
 0001:00017c29       ___castguard_slow_path_check_debugbreak 10018c29 f i LIBCMT:guard_support.obj
 0001:00017c56       ___castguard_slow_path_check_fastfail 10018c56 f i LIBCMT:guard_support.obj
 0001:00017c87       ___castguard_slow_path_check_nop 10018c87 f i LIBCMT:guard_support.obj
 0001:00017c8a       ___castguard_slow_path_check_os_handled 10018c8a f i LIBCMT:guard_support.obj
 0001:00017cc6       ___castguard_slow_path_check_user_handled 10018cc6 f i LIBCMT:guard_support.obj
 0001:00017d27       __guard_icall_checks_enforced 10018d27 f i LIBCMT:guard_support.obj
 0001:00017d86       ___security_init_cookie    10018d86 f   LIBCMT:gs_support.obj
 0001:00017dd1       ?__scrt_initialize_type_info@@YAXXZ 10018dd1 f   LIBCMT:tncleanup.obj
 0001:00017ddd       ?__scrt_uninitialize_type_info@@YAXXZ 10018ddd f   LIBCMT:tncleanup.obj
 0001:00017de9       ___scrt_initialize_default_local_stdio_options 10018de9 f   LIBCMT:default_local_stdio_options.obj
 0001:00017e06       ___scrt_get_dyn_tls_init_callback 10018e06 f   LIBCMT:dyn_tls_init.obj
 0001:00017e0c       __RTC_Initialize           10018e0c f   LIBCMT:initsect.obj
 0001:00017e38       __RTC_Terminate            10018e38 f   LIBCMT:initsect.obj
 0001:00017e64       ??$?0AAViterator@TryBlockMap@__FrameHandler3@@AAV012@$0A@@?$pair@Viterator@TryBlockMap@__FrameHandler3@@V123@@std@@QAE@AAViterator@TryBlockMap@__FrameHandler3@@0@Z 10018e64 f i libvcruntime:trnsctrl.obj
 0001:00017e88       ??$forward@AAViterator@TryBlockMap@__FrameHandler3@@@std@@YAAAViterator@TryBlockMap@__FrameHandler3@@AAV123@@Z 10018e88 f i libvcruntime:trnsctrl.obj
 0001:00017e90       ??0iterator@TryBlockMap@__FrameHandler3@@QAE@AAV12@I@Z 10018e90 f i libvcruntime:trnsctrl.obj
 0001:00017ea4       ?GetRangeOfTrysToCheck@__FrameHandler3@@SA?AU?$pair@Viterator@TryBlockMap@__FrameHandler3@@V123@@std@@AAVTryBlockMap@1@HPAXPBU_s_FuncInfo@@H@Z 10018ea4 f   libvcruntime:trnsctrl.obj
 0001:00017f13       ?_CallCatchBlock2@@YAPAXPAUEHRegistrationNode@@PBU_s_FuncInfo@@PAXHK@Z 10018f13 f   libvcruntime:trnsctrl.obj
 0001:00017f70       ?_CallSETranslator@@YAHPAUEHExceptionRecord@@PAUEHRegistrationNode@@PAX2PBU_s_FuncInfo@@H1@Z 10018f70 f   libvcruntime:trnsctrl.obj
 0001:00018060       ?_JumpToContinuation@@YGXPAXPAUEHRegistrationNode@@@Z 10019060 f   libvcruntime:trnsctrl.obj
 0001:00018090       ?_UnwindNestedFrames@@YGXPAUEHRegistrationNode@@PAUEHExceptionRecord@@@Z 10019090 f   libvcruntime:trnsctrl.obj
 0001:000180e3       __CatchGuardHandler        100190e3 f   libvcruntime:trnsctrl.obj
 0001:00018114       __CreateFrameInfo          10019114 f   libvcruntime:trnsctrl.obj
 0001:00018138       __FindAndUnlinkFrame       10019138 f   libvcruntime:trnsctrl.obj
 0001:00018180       __TranslatorGuardHandler   10019180 f   libvcruntime:trnsctrl.obj
 0001:0001821d       ___CxxFrameHandler         1001921d f   libvcruntime:trnsctrl.obj
 0001:00018253       ___CxxFrameHandler2        10019253 f   libvcruntime:trnsctrl.obj
 0001:00018289       ___CxxFrameHandler3        10019289 f   libvcruntime:trnsctrl.obj
 0001:000182bf       ___CxxLongjmpUnwind@4      100192bf f   libvcruntime:trnsctrl.obj
 0001:000182f0       _strchr                    100192f0 f   libvcruntime:strchr.obj
 0001:0001835e       ___from_strstr_to_strchr   1001935e     libvcruntime:strchr.obj
 0001:00018420       _strstr                    10019420 f   libvcruntime:strstr.obj
 0001:00018690       _memcpy                    10019690 f   libvcruntime:memcpy.obj
 0001:00018c10       _memmove                   10019c10 f   libvcruntime:memmove.obj
 0001:00019190       _memset                    1001a190 f   libvcruntime:memset.obj
 0001:000192ea       ___DestructExceptionObject 1001a2ea f   libvcruntime:ehhelpers.obj
 0001:0001938b       ?_CallMemberFunction0@@YGXQAX0@Z 1001a38b f i libvcruntime:ehhelpers.obj
 0001:000193f0       ?raw_name@type_info@@QBEPBDXZ 1001a3f0 f i libvcruntime:ehhelpers.obj
 0001:000193f4       __IsExceptionObjectToBeDestroyed 1001a3f4 f   libvcruntime:ehhelpers.obj
 0001:0001941a       __SetWinRTOutOfMemoryExceptionCallback 1001a41a f   libvcruntime:ehhelpers.obj
 0001:00019427       ___AdjustPointer           1001a427 f   libvcruntime:ehhelpers.obj
 0001:0001944c       ___FrameUnwindFilter       1001a44c f   libvcruntime:ehhelpers.obj
 0001:000194a2       ___GetPlatformExceptionInfo 1001a4a2 f   libvcruntime:ehhelpers.obj
 0001:000194ee       ___current_exception       1001a4ee f   libvcruntime:ehhelpers.obj
 0001:000194f7       ___current_exception_context 1001a4f7 f   libvcruntime:ehhelpers.obj
 0001:00019500       ___processing_throw        1001a500 f   libvcruntime:ehhelpers.obj
 0001:00019509       ___std_terminate           1001a509 f   libvcruntime:ehhelpers.obj
 0001:0001950e       __is_exception_typeof      1001a50e f   libvcruntime:ehhelpers.obj
 0001:000195b2       ___vcrt_initialize         1001a5b2 f   libvcruntime:initialization.obj
 0001:000195d1       ___vcrt_thread_attach      1001a5d1 f   libvcruntime:initialization.obj
 0001:000195dc       ___vcrt_thread_detach      1001a5dc f   libvcruntime:initialization.obj
 0001:000195e4       ___vcrt_uninitialize       1001a5e4 f   libvcruntime:initialization.obj
 0001:000195fb       ___vcrt_uninitialize_critical 1001a5fb f   libvcruntime:initialization.obj
 0001:00019650       __except_handler4          1001a650 f   libvcruntime:chandler4.obj
 0001:000197bc       ??$?RD@__crt_internal_free_policy@@QBEXQBD@Z 1001a7bc f i libvcruntime:std_type_info.obj
 0001:000197cc       ??$?RX@__crt_internal_free_policy@@QBEXQBX@Z 1001a7cc f i libvcruntime:std_type_info.obj
 0001:000197dc       ??$__crt_interlocked_compare_exchange_pointer@$$CBDPAD$$T@@YAPBDPDSBDQAD$$T@Z 1001a7dc f i libvcruntime:std_type_info.obj
 0001:000197ee       ??$__crt_interlocked_read_pointer@$$CBD@@YAPBDPDSBD@Z 1001a7ee f i libvcruntime:std_type_info.obj
 0001:000197f9       ??0?$__crt_unique_heap_ptr@DU__crt_internal_free_policy@@@@QAE@QAD@Z 1001a7f9 f i libvcruntime:std_type_info.obj
 0001:00019807       ??0?$__crt_unique_heap_ptr@XU__crt_internal_free_policy@@@@QAE@QAX@Z 1001a807 f i libvcruntime:std_type_info.obj
 0001:00019815       ??1?$__crt_unique_heap_ptr@DU__crt_internal_free_policy@@@@QAE@XZ 1001a815 f i libvcruntime:std_type_info.obj
 0001:00019825       ??1?$__crt_unique_heap_ptr@XU__crt_internal_free_policy@@@@QAE@XZ 1001a825 f i libvcruntime:std_type_info.obj
 0001:00019835       ??B?$__crt_unique_heap_ptr@DU__crt_internal_free_policy@@@@QBE_NXZ 1001a835 f i libvcruntime:std_type_info.obj
 0001:0001983c       ??B?$__crt_unique_heap_ptr@XU__crt_internal_free_policy@@@@QBE_NXZ 1001a83c f i libvcruntime:std_type_info.obj
 0001:00019863       ?__crt_interlocked_read_32@@YAHPDH@Z 1001a863 f i libvcruntime:std_type_info.obj
 0001:0001986e       ?detach@?$__crt_unique_heap_ptr@XU__crt_internal_free_policy@@@@QAEPAXXZ 1001a86e f i libvcruntime:std_type_info.obj
 0001:00019874       ?get@?$__crt_unique_heap_ptr@DU__crt_internal_free_policy@@@@QBEPADXZ 1001a874 f i libvcruntime:std_type_info.obj
 0001:00019877       ?get@?$__crt_unique_heap_ptr@XU__crt_internal_free_policy@@@@QBEPAXXZ 1001a877 f i libvcruntime:std_type_info.obj
 0001:0001987a       ?is_valid@?$__crt_unique_heap_ptr@DU__crt_internal_free_policy@@@@QBE_NXZ 1001a87a f i libvcruntime:std_type_info.obj
 0001:00019881       ?is_valid@?$__crt_unique_heap_ptr@XU__crt_internal_free_policy@@@@QBE_NXZ 1001a881 f i libvcruntime:std_type_info.obj
 0001:00019888       ?release@?$__crt_unique_heap_ptr@DU__crt_internal_free_policy@@@@QAEXXZ 1001a888 f i libvcruntime:std_type_info.obj
 0001:00019898       ?release@?$__crt_unique_heap_ptr@XU__crt_internal_free_policy@@@@QAEXXZ 1001a898 f i libvcruntime:std_type_info.obj
 0001:000198a8       ___std_type_info_compare   1001a8a8 f   libvcruntime:std_type_info.obj
 0001:000198e4       ___std_type_info_destroy_list 1001a8e4 f   libvcruntime:std_type_info.obj
 0001:00019907       ___std_type_info_hash      1001a907 f   libvcruntime:std_type_info.obj
 0001:0001992d       ___std_type_info_name      1001a92d f   libvcruntime:std_type_info.obj
 0001:000199f3       ??$?RU__vcrt_ptd@@@__crt_internal_free_policy@@QBEXQBU__vcrt_ptd@@@Z 1001a9f3 f i libvcruntime:per_thread_data.obj
 0001:00019a03       ??0?$__crt_unique_heap_ptr@U__vcrt_ptd@@U__crt_internal_free_policy@@@@QAE@QAU__vcrt_ptd@@@Z 1001aa03 f i libvcruntime:per_thread_data.obj
 0001:00019a20       ??1?$__crt_unique_heap_ptr@U__vcrt_ptd@@U__crt_internal_free_policy@@@@QAE@XZ 1001aa20 f i libvcruntime:per_thread_data.obj
 0001:00019a39       ??B?$__crt_unique_heap_ptr@U__vcrt_ptd@@U__crt_internal_free_policy@@@@QBE_NXZ 1001aa39 f i libvcruntime:per_thread_data.obj
 0001:00019a40       ?detach@?$__crt_unique_heap_ptr@U__vcrt_ptd@@U__crt_internal_free_policy@@@@QAEPAU__vcrt_ptd@@XZ 1001aa40 f i libvcruntime:per_thread_data.obj
 0001:00019a46       ?get@?$__crt_unique_heap_ptr@U__vcrt_ptd@@U__crt_internal_free_policy@@@@QBEPAU__vcrt_ptd@@XZ 1001aa46 f i libvcruntime:per_thread_data.obj
 0001:00019a49       ?is_valid@?$__crt_unique_heap_ptr@U__vcrt_ptd@@U__crt_internal_free_policy@@@@QBE_NXZ 1001aa49 f i libvcruntime:per_thread_data.obj
 0001:00019a50       ?release@?$__crt_unique_heap_ptr@U__vcrt_ptd@@U__crt_internal_free_policy@@@@QAEXXZ 1001aa50 f i libvcruntime:per_thread_data.obj
 0001:00019a7a       ___vcrt_freefls@4          1001aa7a f   libvcruntime:per_thread_data.obj
 0001:00019a96       ___vcrt_freeptd_for_this_thread 1001aa96 f   libvcruntime:per_thread_data.obj
 0001:00019ac1       ___vcrt_getptd             1001aac1 f   libvcruntime:per_thread_data.obj
 0001:00019acf       ___vcrt_getptd_noexit      1001aacf f   libvcruntime:per_thread_data.obj
 0001:00019b61       ___vcrt_getptd_noinit      1001ab61 f   libvcruntime:per_thread_data.obj
 0001:00019b98       ___vcrt_initialize_ptd     1001ab98 f   libvcruntime:per_thread_data.obj
 0001:00019bcb       ___vcrt_uninitialize_ptd   1001abcb f   libvcruntime:per_thread_data.obj
 0001:0001a318       ??$TypeMatchHelper@V__FrameHandler3@@@@YAHPBU_s_HandlerType@@PBU_s_CatchableType@@PBU_s_ThrowInfo@@@Z 1001b318 f i libvcruntime:frame.obj
 0001:0001a3a6       ??$__InternalCxxFrameHandler@V__FrameHandler3@@@@YA?AW4_EXCEPTION_DISPOSITION@@PAUEHExceptionRecord@@PAUEHRegistrationNode@@PAU_CONTEXT@@PAXPBU_s_FuncInfo@@H1E@Z 1001b3a6 f i libvcruntime:frame.obj
 0001:0001a4a8       ??$__InternalCxxFrameHandlerWrapper@V__FrameHandler3@@@@YA?AW4_EXCEPTION_DISPOSITION@@PAUEHExceptionRecord@@PAUEHRegistrationNode@@PAU_CONTEXT@@PAXPBU_s_FuncInfo@@H1E@Z 1001b4a8 f i libvcruntime:frame.obj
 0001:0001a4b1       ??0HandlerMap@__FrameHandler3@@QAE@PBU_s_TryBlockMapEntry@@II@Z 1001b4b1 f i libvcruntime:frame.obj
 0001:0001a4c8       ??0TryBlockMap@__FrameHandler3@@QAE@PBU_s_FuncInfo@@I@Z 1001b4c8 f i libvcruntime:frame.obj
 0001:0001a4dc       ??0bad_exception@std@@QAE@ABV01@@Z 1001b4dc f i libvcruntime:frame.obj
 0001:0001a4f7       ??0bad_exception@std@@QAE@XZ 1001b4f7 f i libvcruntime:frame.obj
 0001:0001a50f       ??0exception@std@@QAE@ABV01@@Z 1001b50f f i libvcruntime:frame.obj
 0001:0001a53b       ??0exception@std@@QAE@QBDH@Z 1001b53b f i libvcruntime:frame.obj
 0001:0001a558       ??0iterator@HandlerMap@__FrameHandler3@@QAE@AAV12@I@Z 1001b558 f i libvcruntime:frame.obj
 0001:0001a56c       ??1bad_exception@std@@UAE@XZ 1001b56c f i libvcruntime:frame.obj
 0001:0001a57d       ??1exception@std@@UAE@XZ   1001b57d f i libvcruntime:frame.obj
 0001:0001a58e       ??8iterator@HandlerMap@__FrameHandler3@@QBE_NABV012@@Z 1001b58e f i libvcruntime:frame.obj
 0001:0001a5a1       ??8type_info@@QBE_NABV0@@Z 1001b5a1 f i libvcruntime:frame.obj
 0001:0001a5c0       ??9iterator@HandlerMap@__FrameHandler3@@QBE_NABV012@@Z 1001b5c0 f i libvcruntime:frame.obj
 0001:0001a5d3       ??Diterator@HandlerMap@__FrameHandler3@@QAE?BU_s_HandlerType@@XZ 1001b5d3 f i libvcruntime:frame.obj
 0001:0001a5f2       ??Diterator@TryBlockMap@__FrameHandler3@@QAE?BU_s_TryBlockMapEntry@@XZ 1001b5f2 f i libvcruntime:frame.obj
 0001:0001a614       ??Eiterator@HandlerMap@__FrameHandler3@@QAEAAV012@XZ 1001b614 f i libvcruntime:frame.obj
 0001:0001a61a       ??Eiterator@TryBlockMap@__FrameHandler3@@QAEAAV012@XZ 1001b61a f i libvcruntime:frame.obj
 0001:0001a620       ??Miterator@TryBlockMap@__FrameHandler3@@QBE_NABV012@@Z 1001b620 f i libvcruntime:frame.obj
 0001:0001a633       ??_Ebad_exception@std@@UAEPAXI@Z 1001b633 f i libvcruntime:frame.obj
 0001:0001a633       ??_Gbad_exception@std@@UAEPAXI@Z 1001b633 f i libvcruntime:frame.obj
 0001:0001a660       ??_Eexception@std@@UAEPAXI@Z 1001b660 f i libvcruntime:frame.obj
 0001:0001a660       ??_Gexception@std@@UAEPAXI@Z 1001b660 f i libvcruntime:frame.obj
 0001:0001a68d       ?BuildCatchObject@__FrameHandler3@@SAXPAUEHExceptionRecord@@PAXPBU_s_HandlerType@@PBU_s_CatchableType@@@Z 1001b68d f   libvcruntime:frame.obj
 0001:0001a692       ?BuildCatchObjectHelper@__FrameHandler3@@SAHPAUEHExceptionRecord@@PAXPBU_s_HandlerType@@PBU_s_CatchableType@@@Z 1001b692 f   libvcruntime:frame.obj
 0001:0001a8f3       ?FrameUnwindToEmptyState@__FrameHandler3@@SAXPAUEHRegistrationNode@@PAXPBU_s_FuncInfo@@@Z 1001b8f3 f   libvcruntime:frame.obj
 0001:0001a90b       ?FrameUnwindToState@__FrameHandler3@@SAXPAUEHRegistrationNode@@PAXPBU_s_FuncInfo@@H@Z 1001b90b f   libvcruntime:frame.obj
 0001:0001a9f3       ?GetMaxState@__FrameHandler3@@SAHPAXPBU_s_FuncInfo@@@Z 1001b9f3 f i libvcruntime:frame.obj
 0001:0001aad1       ?TypeMatch@__FrameHandler3@@SAHPBU_s_HandlerType@@PBU_s_CatchableType@@PBU_s_ThrowInfo@@@Z 1001bad1 f   libvcruntime:frame.obj
 0001:0001aada       ?_CallMemberFunction1@@YGXQAX00@Z 1001bada f i libvcruntime:frame.obj
 0001:0001aaea       ?_CallMemberFunction2@@YGXQAX00H@Z 1001baea f i libvcruntime:frame.obj
 0001:0001aafd       ?begin@HandlerMap@__FrameHandler3@@QAE?AViterator@12@XZ 1001bafd f i libvcruntime:frame.obj
 0001:0001ab0d       ?end@HandlerMap@__FrameHandler3@@QAE?AViterator@12@XZ 1001bb0d f i libvcruntime:frame.obj
 0001:0001ab1e       ?getESTypes@__FrameHandler3@@SAPBU_s_ESTypeList@@PBU_s_FuncInfo@@@Z 1001bb1e f i libvcruntime:frame.obj
 0001:0001ab29       ?getLastEntry@HandlerMap@__FrameHandler3@@QAEPBU_s_HandlerType@@XZ 1001bb29 f i libvcruntime:frame.obj
 0001:0001ab37       ?getMagicNum@__FrameHandler3@@SAIPBU_s_FuncInfo@@@Z 1001bb37 f i libvcruntime:frame.obj
 0001:0001ab46       ?getNumTryBlocks@TryBlockMap@__FrameHandler3@@QAEIXZ 1001bb46 f i libvcruntime:frame.obj
 0001:0001ab4c       ?isEHs@__FrameHandler3@@SA_NPBU_s_FuncInfo@@@Z 1001bb4c f i libvcruntime:frame.obj
 0001:0001ab59       ?isNoExcept@__FrameHandler3@@SA_NPBU_s_FuncInfo@@@Z 1001bb59 f i libvcruntime:frame.obj
 0001:0001ab69       ?what@exception@std@@UBEPBDXZ 1001bb69 f i libvcruntime:frame.obj
 0001:0001ab76       ___BuildCatchObject        1001bb76 f   libvcruntime:frame.obj
 0001:0001ab7b       ___BuildCatchObjectHelper  1001bb7b f   libvcruntime:frame.obj
 0001:0001ab84       ___TypeMatch               1001bb84 f   libvcruntime:frame.obj
 0001:0001ab8d       ___vcrt_EncodePointer      1001bb8d f i libvcruntime:frame.obj
 0001:0001aba0       __CallSettingFrame@12      1001bba0 f   libvcruntime:lowhelpr.obj
 0001:0001abc7       __NLG_Return               1001bbc7     libvcruntime:lowhelpr.obj
 0001:0001abf7       ___except_validate_context_record 1001bbf7 f   libvcruntime:jbcxrval.obj
 0001:0001ac27       ___except_validate_jump_buffer 1001bc27 f   libvcruntime:jbcxrval.obj
 0001:0001ac54       ___except_validate_jump_buffer_common 1001bc54 f i libvcruntime:jbcxrval.obj
 0001:0001ac8d       ___vcrt_initialize_locks   1001bc8d f   libvcruntime:locks.obj
 0001:0001acc9       ___vcrt_lock               1001bcc9 f   libvcruntime:locks.obj
 0001:0001acde       ___vcrt_uninitialize_locks 1001bcde f   libvcruntime:locks.obj
 0001:0001ad0d       ___vcrt_unlock             1001bd0d f   libvcruntime:locks.obj
 0001:0001ad30       __local_unwind4            1001bd30 f   libvcruntime:exsup4.obj
 0001:0001ae20       __seh_longjmp_unwind4@4    1001be20 f   libvcruntime:exsup4.obj
 0001:0001ae50       @_EH4_CallFilterFunc@8     1001be50 f   libvcruntime:exsup4.obj
 0001:0001ae70       @_EH4_TransferToHandler@8  1001be70 f   libvcruntime:exsup4.obj
 0001:0001ae90       @_EH4_GlobalUnwind2@8      1001be90 f   libvcruntime:exsup4.obj
 0001:0001aeb0       @_EH4_LocalUnwind@16       1001beb0 f   libvcruntime:exsup4.obj
 0001:0001aec7       ??$?0$00@DName@@QAE@PBDU?$StringLifeSelector@$00@@@Z 1001bec7 f i libvcruntime:undname.obj
 0001:0001aefa       ??$?0$00@pcharNode@@QAE@PBDHU?$StringLifeSelector@$00@@@Z 1001befa f i libvcruntime:undname.obj
 0001:0001af15       ??$?0$01@DName@@QAE@PBDU?$StringLifeSelector@$01@@@Z 1001bf15 f i libvcruntime:undname.obj
 0001:0001af48       ??$?0$01@pcharNode@@QAE@PBDHU?$StringLifeSelector@$01@@@Z 1001bf48 f i libvcruntime:undname.obj
 0001:0001af88       ??$?0$0A@@DName@@QAE@PBDU?$StringLifeSelector@$0A@@@@Z 1001bf88 f i libvcruntime:undname.obj
 0001:0001afbb       ??$?0$0A@@pcharNode@@QAE@PBDHU?$StringLifeSelector@$0A@@@@Z 1001bfbb f i libvcruntime:undname.obj
 0001:0001affb       ??$?0_K$0A@@?$optional@_K@std@@QAE@$$QA_K@Z 1001bffb f i libvcruntime:undname.obj
 0001:0001b015       ??$?0_K@?$_Optional_construct_base@_K@std@@QAE@Uin_place_t@1@$$QA_K@Z 1001c015 f i libvcruntime:undname.obj
 0001:0001b02f       ??$?0_K@?$_Optional_destruct_base@_K$00@std@@QAE@Uin_place_t@1@$$QA_K@Z 1001c02f f i libvcruntime:undname.obj
 0001:0001b049       ??$append@VDNameNode@@@DName@@AAEXPBVDNameNode@@@Z 1001c049 f i libvcruntime:undname.obj
 0001:0001b08a       ??$append@VDNameStatusNode@@@DName@@AAEXPBVDNameStatusNode@@@Z 1001c08a f i libvcruntime:undname.obj
 0001:0001b0cb       ??$append@VcharNode@@@DName@@AAEXPBVcharNode@@@Z 1001c0cb f i libvcruntime:undname.obj
 0001:0001b10c       ??$append@VpDNameNode@@@DName@@AAEXPBVpDNameNode@@@Z 1001c10c f i libvcruntime:undname.obj
 0001:0001b14d       ??$append@VpcharNode@@@DName@@AAEXPBVpcharNode@@@Z 1001c14d f i libvcruntime:undname.obj
 0001:0001b18e       ??$doPchar@$00@DName@@AAEXPBDH@Z 1001c18e f i libvcruntime:undname.obj
 0001:0001b1fa       ??$doPchar@$01@DName@@AAEXPBDH@Z 1001c1fa f i libvcruntime:undname.obj
 0001:0001b26b       ??$doPchar@$0A@@DName@@AAEXPBDH@Z 1001c26b f i libvcruntime:undname.obj
 0001:0001b2dc       ??$forward@_K@std@@YA$$QA_KAA_K@Z 1001c2dc f i libvcruntime:undname.obj
 0001:0001b3a0       ??$size@D$04@std@@YAIAAY04$$CBD@Z 1001c3a0 f i libvcruntime:undname.obj
 0001:0001b3a4       ??0?$_Optional_construct_base@_K@std@@QAE@XZ 1001c3a4 f i libvcruntime:undname.obj
 0001:0001b3ab       ??0?$_Optional_destruct_base@_K$00@std@@QAE@XZ 1001c3ab f i libvcruntime:undname.obj
 0001:0001b3b2       ??0?$optional@_K@std@@QAE@XZ 1001c3b2 f i libvcruntime:undname.obj
 0001:0001b3b9       ??0Block@_HeapManager@@QAE@XZ 1001c3b9 f i libvcruntime:undname.obj
 0001:0001b3bf       ??0DName@@QAE@AAPBDD@Z     1001c3bf f   libvcruntime:undname.obj
 0001:0001b448       ??0DName@@QAE@ABUStringLiteral@@@Z 1001c448 f   libvcruntime:undname.obj
 0001:0001b46f       ??0DName@@QAE@ABV0@@Z      1001c46f f i libvcruntime:undname.obj
 0001:0001b485       ??0DName@@QAE@D@Z          1001c485 f   libvcruntime:undname.obj
 0001:0001b4a1       ??0DName@@QAE@PAV0@@Z      1001c4a1 f   libvcruntime:undname.obj
 0001:0001b4e8       ??0DName@@QAE@W4DNameStatus@@@Z 1001c4e8 f   libvcruntime:undname.obj
 0001:0001b528       ??0DName@@QAE@XZ           1001c528 f i libvcruntime:undname.obj
 0001:0001b532       ??0DName@@QAE@_J@Z         1001c532 f   libvcruntime:undname.obj
 0001:0001b5bc       ??0DName@@QAE@_K@Z         1001c5bc f   libvcruntime:undname.obj
 0001:0001b620       ??0DNameNode@@IAE@XZ       1001c620 f i libvcruntime:undname.obj
 0001:0001b629       ??0Replicator@@QAE@XZ      1001c629 f i libvcruntime:undname.obj
 0001:0001b646       ??0UnDecorator@@QAE@PBDP6APADJ@ZK@Z 1001c646 f i libvcruntime:undname.obj
 0001:0001b6aa       ??0_Nontrivial_dummy_type@std@@QAE@XZ 1001c6aa f i libvcruntime:undname.obj
 0001:0001b6ad       ??0charNode@@QAE@D@Z       1001c6ad f i libvcruntime:undname.obj
 0001:0001b6c2       ??0pDNameNode@@QAE@PAVDName@@@Z 1001c6c2 f   libvcruntime:undname.obj
 0001:0001b6ea       ??0pairNode@@QAE@PBVDNameNode@@0@Z 1001c6ea f i libvcruntime:undname.obj
 0001:0001b710       ??2@YAPAXIAAV_HeapManager@@H@Z 1001c710 f   libvcruntime:undname.obj
 0001:0001b72f       ??4DName@@QAEAAV0@ABUStringLiteral@@@Z 1001c72f f   libvcruntime:undname.obj
 0001:0001b750       ??4DName@@QAEAAV0@ABV0@@Z  1001c750 f   libvcruntime:undname.obj
 0001:0001b766       ??4DName@@QAEAAV0@D@Z      1001c766 f i libvcruntime:undname.obj
 0001:0001b782       ??4DName@@QAEAAV0@PAV0@@Z  1001c782 f   libvcruntime:undname.obj
 0001:0001b7c5       ??4DName@@QAEAAV0@W4DNameStatus@@@Z 1001c7c5 f   libvcruntime:undname.obj
 0001:0001b7f7       ??AReplicator@@QBE?AVDName@@H@Z 1001c7f7 f   libvcruntime:undname.obj
 0001:0001b833       ??B?$optional@_K@std@@QBE_NXZ 1001c833 f i libvcruntime:undname.obj
 0001:0001b837       ??D?$_Optional_construct_base@_K@std@@QGAEAA_KXZ 1001c837 f i libvcruntime:undname.obj
 0001:0001b83a       ??H@YA?AVDName@@ABUStringLiteral@@ABV0@@Z 1001c83a f i libvcruntime:undname.obj
 0001:0001b85c       ??H@YA?AVDName@@DABV0@@Z   1001c85c f i libvcruntime:undname.obj
 0001:0001b887       ??H@YA?AVDName@@W4DNameStatus@@ABV0@@Z 1001c887 f i libvcruntime:undname.obj
 0001:0001b8a9       ??HDName@@QBE?AV0@ABUStringLiteral@@@Z 1001c8a9 f   libvcruntime:undname.obj
 0001:0001b8cb       ??HDName@@QBE?AV0@ABV0@@Z  1001c8cb f   libvcruntime:undname.obj
 0001:0001b8ed       ??HDName@@QBE?AV0@D@Z      1001c8ed f   libvcruntime:undname.obj
 0001:0001b90f       ??HDName@@QBE?AV0@PAV0@@Z  1001c90f f   libvcruntime:undname.obj
 0001:0001b931       ??HDName@@QBE?AV0@W4DNameStatus@@@Z 1001c931 f   libvcruntime:undname.obj
 0001:0001b953       ??HStringLiteral@@QBE?AU0@H@Z 1001c953 f i libvcruntime:undname.obj
 0001:0001b96d       ??YDName@@QAEAAV0@ABUStringLiteral@@@Z 1001c96d f   libvcruntime:undname.obj
 0001:0001b9c5       ??YDName@@QAEAAV0@ABV0@@Z  1001c9c5 f   libvcruntime:undname.obj
 0001:0001ba1c       ??YDName@@QAEAAV0@D@Z      1001ca1c f   libvcruntime:undname.obj
 0001:0001ba71       ??YDName@@QAEAAV0@PAV0@@Z  1001ca71 f   libvcruntime:undname.obj
 0001:0001bad5       ??YDName@@QAEAAV0@W4DNameStatus@@@Z 1001cad5 f   libvcruntime:undname.obj
 0001:0001bb15       ??YReplicator@@QAEAAV0@ABVDName@@@Z 1001cb15 f   libvcruntime:undname.obj
 0001:0001bb55       ??_5DName@@QAEAAV0@ABV0@@Z 1001cb55 f   libvcruntime:undname.obj
 0001:0001bb74       ??__K_l@@YA?AUStringLiteral@@PBDI@Z 1001cb74 f i libvcruntime:undname.obj
 0001:0001bb7f       ?Constructor@_HeapManager@@QAEXP6APAXI@ZP6AXPAX@Z@Z 1001cb7f f i libvcruntime:undname.obj
 0001:0001bb9c       ?Destructor@_HeapManager@@QAEXXZ 1001cb9c f i libvcruntime:undname.obj
 0001:0001bbe0       ?UScore@UnDecorator@@SA?AUStringLiteral@@W4Tokens@@@Z 1001cbe0 f   libvcruntime:undname.obj
 0001:0001bc07       ?composeDeclaration@UnDecorator@@CA?AVDName@@ABV2@@Z 1001cc07 f i libvcruntime:undname.obj
 0001:0001c998       ?doAccessSpecifiers@UnDecorator@@SAHXZ 1001d998 f i libvcruntime:undname.obj
 0001:0001c9a6       ?doAllocationLanguage@UnDecorator@@SAHXZ 1001d9a6 f i libvcruntime:undname.obj
 0001:0001c9b4       ?doAllocationModel@UnDecorator@@SAHXZ 1001d9b4 f i libvcruntime:undname.obj
 0001:0001c9c2       ?doEcsu@UnDecorator@@SAHXZ 1001d9c2 f i libvcruntime:undname.obj
 0001:0001c9d0       ?doEllipsis@UnDecorator@@SAHXZ 1001d9d0 f i libvcruntime:undname.obj
 0001:0001c9de       ?doFunctionReturns@UnDecorator@@SAHXZ 1001d9de f i libvcruntime:undname.obj
 0001:0001c9ec       ?doMSKeywords@UnDecorator@@SAHXZ 1001d9ec f i libvcruntime:undname.obj
 0001:0001c9f9       ?doMemberTypes@UnDecorator@@SAHXZ 1001d9f9 f i libvcruntime:undname.obj
 0001:0001ca07       ?doNameOnly@UnDecorator@@SAHXZ 1001da07 f i libvcruntime:undname.obj
 0001:0001ca12       ?doNoIdentCharCheck@UnDecorator@@SAHXZ 1001da12 f i libvcruntime:undname.obj
 0001:0001ca1d       ?doPchar@DName@@AAEXD@Z    1001da1d f   libvcruntime:undname.obj
 0001:0001ca55       ?doPtr64@UnDecorator@@SAHXZ 1001da55 f i libvcruntime:undname.obj
 0001:0001ca63       ?doRestrictionSpec@UnDecorator@@SAHXZ 1001da63 f i libvcruntime:undname.obj
 0001:0001ca71       ?doThisTypes@UnDecorator@@SAHXZ 1001da71 f i libvcruntime:undname.obj
 0001:0001ca83       ?doThrowTypes@UnDecorator@@SAHXZ 1001da83 f i libvcruntime:undname.obj
 0001:0001ca91       ?doTypeOnly@UnDecorator@@SAHXZ 1001da91 f i libvcruntime:undname.obj
 0001:0001ca9c       ?doUnderScore@UnDecorator@@SAHXZ 1001da9c f i libvcruntime:undname.obj
 0001:0001caa7       ?getAddressOf@UnDecorator@@CA?AVDName@@XZ 1001daa7 f   libvcruntime:undname.obj
 0001:0001cb0f       ?getArgumentList@UnDecorator@@CA?AVDName@@XZ 1001db0f f   libvcruntime:undname.obj
 0001:0001cc1c       ?getArgumentTypes@UnDecorator@@CA?AVDName@@XZ 1001dc1c f   libvcruntime:undname.obj
 0001:0001cd24       ?getArrayAccess@UnDecorator@@CA?AVDName@@XZ 1001dd24 f   libvcruntime:undname.obj
 0001:0001cd98       ?getArrayObject@UnDecorator@@CA?AVDName@@XZ 1001dd98 f   libvcruntime:undname.obj
 0001:0001ce36       ?getArrayType@UnDecorator@@CA?AVDName@@ABV2@@Z 1001de36 f i libvcruntime:undname.obj
 0001:0001cfd3       ?getBasedType@UnDecorator@@CA?AVDName@@XZ 1001dfd3 f   libvcruntime:undname.obj
 0001:0001d082       ?getBasicDataType@UnDecorator@@CA?AVDName@@ABV2@@Z 1001e082 f   libvcruntime:undname.obj
 0001:0001d5de       ?getCHPEName@UnDecorator@@QAEPADPADH@Z 1001e5de f i libvcruntime:undname.obj
 0001:0001d6bb       ?getCallIndex@UnDecorator@@CA?AVDName@@XZ 1001e6bb f i libvcruntime:undname.obj
 0001:0001d6cf       ?getCallingConvention@UnDecorator@@CA?AVDName@@XZ 1001e6cf f   libvcruntime:undname.obj
 0001:0001d799       ?getDataIndirectType@UnDecorator@@CA?AVDName@@ABV2@W4IndirectionKind@@0H@Z 1001e799 f   libvcruntime:undname.obj
 0001:0001df1f       ?getDataIndirectType@UnDecorator@@CA?AVDName@@XZ 1001ef1f f i libvcruntime:undname.obj
 0001:0001df4d       ?getDataType@UnDecorator@@CA?AVDName@@PAV2@@Z 1001ef4d f   libvcruntime:undname.obj
 0001:0001e024       ?getDecoratedName@UnDecorator@@CA?AVDName@@XZ 1001f024 f   libvcruntime:undname.obj
 0001:0001e278       ?getDimension@UnDecorator@@CA?AVDName@@_N@Z 1001f278 f   libvcruntime:undname.obj
 0001:0001e38f       ?getDispatchTarget@UnDecorator@@CA?AVDName@@XZ 1001f38f f   libvcruntime:undname.obj
 0001:0001e3e0       ?getDisplacement@UnDecorator@@CA?AVDName@@XZ 1001f3e0 f i libvcruntime:undname.obj
 0001:0001e3f4       ?getECSUDataType@UnDecorator@@CA?AVDName@@XZ 1001f3f4 f   libvcruntime:undname.obj
 0001:0001e59e       ?getECSUName@UnDecorator@@CA?AVDName@@XZ 1001f59e f i libvcruntime:undname.obj
 0001:0001e5af       ?getEnumType@UnDecorator@@CA?AVDName@@XZ 1001f5af f i libvcruntime:undname.obj
 0001:0001e6c3       ?getExtendedDataIndirectType@UnDecorator@@CA?AVDName@@AAW4IndirectionKind@@AA_NH@Z 1001f6c3 f   libvcruntime:undname.obj
 0001:0001e8c6       ?getExternalDataType@UnDecorator@@CA?AVDName@@ABV2@@Z 1001f8c6 f i libvcruntime:undname.obj
 0001:0001e92b       ?getFloatingPoint@UnDecorator@@CA?AVDName@@H@Z 1001f92b f   libvcruntime:undname.obj
 0001:0001e9ee       ?getFunctionIndirectType@UnDecorator@@CA?AVDName@@ABV2@@Z 1001f9ee f   libvcruntime:undname.obj
 0001:0001ed98       ?getGuardNumber@UnDecorator@@CA?AVDName@@XZ 1001fd98 f i libvcruntime:undname.obj
 0001:0001edac       ?getLastChar@DName@@QBEDXZ 1001fdac f i libvcruntime:undname.obj
 0001:0001edcc       ?getLastChar@DNameStatusNode@@UBEDXZ 1001fdcc f i libvcruntime:undname.obj
 0001:0001edd8       ?getLastChar@charNode@@UBEDXZ 1001fdd8 f i libvcruntime:undname.obj
 0001:0001eddc       ?getLastChar@pDNameNode@@UBEDXZ 1001fddc f i libvcruntime:undname.obj
 0001:0001edea       ?getLastChar@pairNode@@UBEDXZ 1001fdea f i libvcruntime:undname.obj
 0001:0001ee1f       ?getLastChar@pcharNode@@UBEDXZ 1001fe1f f i libvcruntime:undname.obj
 0001:0001ee31       ?getLexicalFrame@UnDecorator@@CA?AVDName@@XZ 1001fe31 f i libvcruntime:undname.obj
 0001:0001ee62       ?getMemberAccess@UnDecorator@@CA?AVDName@@XZ 1001fe62 f   libvcruntime:undname.obj
 0001:0001eed2       ?getMemoryWithBuffer@_HeapManager@@QAEPAXI@Z 1001fed2 f   libvcruntime:undname.obj
 0001:0001ef3c       ?getMemoryWithoutBuffer@_HeapManager@@QAEPAXI@Z 1001ff3c f   libvcruntime:undname.obj
 0001:0001ef5c       ?getNoexcept@UnDecorator@@CA?AVDName@@XZ 1001ff5c f   libvcruntime:undname.obj
 0001:0001efa4       ?getNumberOfDimensions@UnDecorator@@CAHXZ 1001ffa4 f   libvcruntime:undname.obj
 0001:0001effe       ?getOperatorName@UnDecorator@@CA?AVDName@@_NPA_N@Z 1001fffe f i libvcruntime:undname.obj
 0001:0001f8c4       ?getPointerToMember@UnDecorator@@CA?AVDName@@XZ 100208c4 f   libvcruntime:undname.obj
 0001:0001f980       ?getPointerType@UnDecorator@@CA?AVDName@@ABV2@0@Z 10020980 f i libvcruntime:undname.obj
 0001:0001f99b       ?getPointerTypeArray@UnDecorator@@CA?AVDName@@ABV2@0@Z 1002099b f i libvcruntime:undname.obj
 0001:0001f9b6       ?getPrimaryDataType@UnDecorator@@CA?AVDName@@ABV2@@Z 100209b6 f   libvcruntime:undname.obj
 0001:0001fc04       ?getPtrRefDataType@UnDecorator@@CA?AVDName@@ABV2@H@Z 10020c04 f   libvcruntime:undname.obj
 0001:0001fd71       ?getPtrRefType@UnDecorator@@CA?AVDName@@ABV2@0W4IndirectionKind@@@Z 10020d71 f   libvcruntime:undname.obj
 0001:0001fe82       ?getReferenceType@UnDecorator@@CA?AVDName@@ABV2@0W4IndirectionKind@@@Z 10020e82 f i libvcruntime:undname.obj
 0001:0001fe9e       ?getRestrictionSpec@UnDecorator@@CA?AVDName@@XZ 10020e9e f   libvcruntime:undname.obj
 0001:0001ffb7       ?getReturnType@UnDecorator@@CA?AVDName@@PAV2@@Z 10020fb7 f   libvcruntime:undname.obj
 0001:0001ffe6       ?getScope@UnDecorator@@CA?AVDName@@XZ 10020fe6 f   libvcruntime:undname.obj
 0001:000203a4       ?getScopedName@UnDecorator@@CA?AVDName@@XZ 100213a4 f   libvcruntime:undname.obj
 0001:00020499       ?getSignedDimension@UnDecorator@@CA?AVDName@@XZ 10021499 f   libvcruntime:undname.obj
 0001:000204ea       ?getStorageConvention@UnDecorator@@CA?AVDName@@XZ 100214ea f i libvcruntime:undname.obj
 0001:000204fb       ?getString@DName@@QBEPADPAD0@Z 100214fb f i libvcruntime:undname.obj
 0001:00020528       ?getString@DName@@QBEPADPADH@Z 10021528 f i libvcruntime:undname.obj
 0001:0002057d       ?getString@DNameStatusNode@@UBEPADPAD0@Z 1002157d f i libvcruntime:undname.obj
 0001:000205c4       ?getString@charNode@@UBEPADPAD0@Z 100215c4 f i libvcruntime:undname.obj
 0001:000205d9       ?getString@pDNameNode@@UBEPADPAD0@Z 100215d9 f i libvcruntime:undname.obj
 0001:000205f0       ?getString@pairNode@@UBEPADPAD0@Z 100215f0 f i libvcruntime:undname.obj
 0001:00020636       ?getString@pcharNode@@UBEPADPAD0@Z 10021636 f i libvcruntime:undname.obj
 0001:00020651       ?getStringEncoding@UnDecorator@@CA?AVDName@@W4PrefixKind@@H@Z 10021651 f   libvcruntime:undname.obj
 0001:000206e4       ?getStringHelper@@YAPADPADPBD1H@Z 100216e4 f i libvcruntime:undname.obj
 0001:0002070e       ?getStringObject@UnDecorator@@CA?AVDName@@XZ 1002170e f   libvcruntime:undname.obj
 0001:0002077a       ?getSymbolName@UnDecorator@@CA?AVDName@@XZ 1002177a f i libvcruntime:undname.obj
 0001:000207c2       ?getTemplateArgumentList@UnDecorator@@CA?AVDName@@XZ 100217c2 f   libvcruntime:undname.obj
 0001:00020972       ?getTemplateName@UnDecorator@@CA?AVDName@@_N@Z 10021972 f   libvcruntime:undname.obj
 0001:00020aed       ?getTemplateNonTypeArgument@UnDecorator@@CA?AVDName@@XZ 10021aed f   libvcruntime:undname.obj
 0001:00020eb5       ?getTemplateTypeArgument@UnDecorator@@CA?AVDName@@XZ 10021eb5 f   libvcruntime:undname.obj
 0001:00020fc6       ?getThisType@UnDecorator@@CA?AVDName@@XZ 10021fc6 f i libvcruntime:undname.obj
 0001:00020ff5       ?getThrowTypes@UnDecorator@@CA?AVDName@@XZ 10021ff5 f   libvcruntime:undname.obj
 0001:00021014       ?getTypeEncoding@UnDecorator@@CAHXZ 10022014 f i libvcruntime:undname.obj
 0001:00021350       ?getUndecoratedName@UnDecorator@@QAEPADPADH@Z 10022350 f i libvcruntime:undname.obj
 0001:0002146f       ?getUnionObject@UnDecorator@@CA?AVDName@@XZ 1002246f f   libvcruntime:undname.obj
 0001:00021516       ?getVCallThunkType@UnDecorator@@CA?AVDName@@XZ 10022516 f i libvcruntime:undname.obj
 0001:00021560       ?getValue@UnDecorator@@CA?AV?$optional@_K@std@@XZ 10022560 f   libvcruntime:undname.obj
 0001:000215b0       ?getValueObject@UnDecorator@@CA?AVDName@@XZ 100225b0 f   libvcruntime:undname.obj
 0001:000216dc       ?getVbTableType@UnDecorator@@CA?AVDName@@ABV2@@Z 100226dc f i libvcruntime:undname.obj
 0001:000216f1       ?getVdispMapType@UnDecorator@@CA?AVDName@@ABV2@@Z 100226f1 f i libvcruntime:undname.obj
 0001:00021752       ?getVfTableType@UnDecorator@@CA?AVDName@@ABV2@@Z 10022752 f i libvcruntime:undname.obj
 0001:000218a6       ?getZName@UnDecorator@@CA?AVDName@@_N0@Z 100228a6 f   libvcruntime:undname.obj
 0001:00021abf       ?get_current_character_and_increment_buffer@UnDecorator@@CADXZ 10022abf f i libvcruntime:undname.obj
 0001:00021ad3       ?haveTemplateParameters@UnDecorator@@SAHXZ 10022ad3 f i libvcruntime:undname.obj
 0001:00021ade       ?increment_buffer@UnDecorator@@CA_NI@Z 10022ade f i libvcruntime:undname.obj
 0001:00021b06       ?increment_buffer_no_check@UnDecorator@@CAXI@Z 10022b06 f i libvcruntime:undname.obj
 0001:00021b14       ?increment_buffer_no_check@UnDecorator@@CAXXZ 10022b14 f i libvcruntime:undname.obj
 0001:00021b1b       ?isArray@DName@@QBEHXZ     10022b1b f i libvcruntime:undname.obj
 0001:00021b25       ?isComArray@DName@@QBEHXZ  10022b25 f i libvcruntime:undname.obj
 0001:00021b2f       ?isEmpty@DName@@QBEHXZ     10022b2f f i libvcruntime:undname.obj
 0001:00021b37       ?isFull@Replicator@@QBEHXZ 10022b37 f i libvcruntime:undname.obj
 0001:00021b40       ?isNoTE@DName@@QBEHXZ      10022b40 f i libvcruntime:undname.obj
 0001:00021b4a       ?isPinPtr@DName@@QBEHXZ    10022b4a f i libvcruntime:undname.obj
 0001:00021b54       ?isPtrRef@DName@@QBEHXZ    10022b54 f i libvcruntime:undname.obj
 0001:00021b5e       ?isUDC@DName@@QBEHXZ       10022b5e f i libvcruntime:undname.obj
 0001:00021b6f       ?isUDTThunk@DName@@QBEHXZ  10022b6f f i libvcruntime:undname.obj
 0001:00021b80       ?isVCallThunk@DName@@QBEHXZ 10022b80 f i libvcruntime:undname.obj
 0001:00021b8a       ?isValid@DName@@QBEHXZ     10022b8a f i libvcruntime:undname.obj
 0001:00021b94       ?length@DName@@QBEHXZ      10022b94 f i libvcruntime:undname.obj
 0001:00021bb3       ?length@DNameStatusNode@@UBEHXZ 10022bb3 f i libvcruntime:undname.obj
 0001:00021bb7       ?length@charNode@@UBEHXZ   10022bb7 f i libvcruntime:undname.obj
 0001:00021bbb       ?length@pDNameNode@@UBEHXZ 10022bbb f i libvcruntime:undname.obj
 0001:00021bc9       ?length@pairNode@@UBEHXZ   10022bc9 f i libvcruntime:undname.obj
 0001:00021c12       ?length@pcharNode@@UBEHXZ  10022c12 f i libvcruntime:undname.obj
 0001:00021c16       ?make@DNameStatusNode@@SAPBV1@W4DNameStatus@@@Z 10022c16 f i libvcruntime:undname.obj
 0001:00021c32       ?parseDecoratedName@UnDecorator@@CA?AVDName@@XZ 10022c32 f   libvcruntime:undname.obj
 0001:00021d2d       ?raw_length@DNameStatusNode@@UBEHXZ 10022d2d f i libvcruntime:undname.obj
 0001:00021d31       ?raw_length@charNode@@UBEHXZ 10022d31 f i libvcruntime:undname.obj
 0001:00021d35       ?raw_length@pDNameNode@@UBEHXZ 10022d35 f i libvcruntime:undname.obj
 0001:00021d39       ?raw_length@pairNode@@UBEHXZ 10022d39 f i libvcruntime:undname.obj
 0001:00021d3d       ?raw_length@pcharNode@@UBEHXZ 10022d3d f i libvcruntime:undname.obj
 0001:00021d41       ?setIsArray@DName@@QAEXXZ  10022d41 f i libvcruntime:undname.obj
 0001:00021d49       ?setIsComArray@DName@@QAEXXZ 10022d49 f i libvcruntime:undname.obj
 0001:00021d51       ?setIsNoTE@DName@@QAEXXZ   10022d51 f i libvcruntime:undname.obj
 0001:00021d59       ?setIsPinPtr@DName@@QAEXXZ 10022d59 f i libvcruntime:undname.obj
 0001:00021d61       ?setIsUDC@DName@@QAEXXZ    10022d61 f i libvcruntime:undname.obj
 0001:00021d6e       ?setIsVCallThunk@DName@@QAEXXZ 10022d6e f i libvcruntime:undname.obj
 0001:00021d76       ?setPtrRef@DName@@QAEAAV1@XZ 10022d76 f i libvcruntime:undname.obj
 0001:00021d80       ?status@DName@@QBE?AW4DNameStatus@@XZ 10022d80 f i libvcruntime:undname.obj
 0001:00021dec       ___unDName                 10022dec f   libvcruntime:undname.obj
 0001:00021e0f       ___unDNameEx               10022e0f f   libvcruntime:undname.obj
 0001:00021eae       __vsprintf_s_l             10022eae f i libvcruntime:undname.obj
 0001:00021edb       _snprintf                  10022edb f i libvcruntime:undname.obj
 0001:00021ef5       _sprintf_s                 10022ef5 f i libvcruntime:undname.obj
 0001:00021f11       _unDNameGenerateCHPE       10022f11 f   libvcruntime:undname.obj
 0001:00021fae       _vsnprintf                 10022fae f i libvcruntime:undname.obj
 0001:00021fde       ??$__crt_interlocked_exchange_pointer@UHINSTANCE__@@PAU1@@@YAPAUHINSTANCE__@@PDSAU0@QAU0@@Z 10022fde f i libvcruntime:winapi_downlevel.obj
 0001:00021feb       ??$__crt_interlocked_exchange_pointer@UHINSTANCE__@@PAX@@YAPAUHINSTANCE__@@PDSAU0@QAX@Z 10022feb f i libvcruntime:winapi_downlevel.obj
 0001:00021ff8       ??$__crt_interlocked_exchange_pointer@XPAX@@YAPAXPDSAXQAX@Z 10022ff8 f i libvcruntime:winapi_downlevel.obj
 0001:00022005       ??$__crt_interlocked_read_pointer@UHINSTANCE__@@@@YAPAUHINSTANCE__@@PDSAU0@@Z 10023005 f i libvcruntime:winapi_downlevel.obj
 0001:00022010       ??$__crt_interlocked_read_pointer@X@@YAPAXPDSAX@Z 10023010 f i libvcruntime:winapi_downlevel.obj
 0001:0002229c       ___vcrt_FlsAlloc           1002329c f   libvcruntime:winapi_downlevel.obj
 0001:000222d7       ___vcrt_FlsFree            100232d7 f   libvcruntime:winapi_downlevel.obj
 0001:00022312       ___vcrt_FlsGetValue        10023312 f   libvcruntime:winapi_downlevel.obj
 0001:0002234d       ___vcrt_FlsSetValue        1002334d f   libvcruntime:winapi_downlevel.obj
 0001:0002238b       ___vcrt_InitializeCriticalSectionEx 1002338b f   libvcruntime:winapi_downlevel.obj
 0001:000223e6       __get_unexpected           100233e6 f   libvcruntime:unexpected.obj
 0001:000223f8       _set_unexpected            100233f8 f   libvcruntime:unexpected.obj
 0001:00022416       _unexpected                10023416 f   libvcruntime:unexpected.obj
 0001:00022433       ?GetCurrentState@__FrameHandler3@@SAHPAUEHRegistrationNode@@PAXPBU_s_FuncInfo@@@Z 10023433 f   libvcruntime:ehstate.obj
 0001:00022450       ?SetState@__FrameHandler3@@SAXPAUEHRegistrationNode@@PBU_s_FuncInfo@@H@Z 10023450 f   libvcruntime:ehstate.obj
 0001:0002245e       ??$?RD@__crt_public_free_policy@@QBEXQBD@Z 1002345e f i libvcruntime:std_exception.obj
 0001:0002246e       ??0?$__crt_unique_heap_ptr@DU__crt_public_free_policy@@@@QAE@QAD@Z 1002346e f i libvcruntime:std_exception.obj
 0001:0002247c       ??1?$__crt_unique_heap_ptr@DU__crt_public_free_policy@@@@QAE@XZ 1002347c f i libvcruntime:std_exception.obj
 0001:0002248c       ??B?$__crt_unique_heap_ptr@DU__crt_public_free_policy@@@@QBE_NXZ 1002348c f i libvcruntime:std_exception.obj
 0001:00022493       ?detach@?$__crt_unique_heap_ptr@DU__crt_public_free_policy@@@@QAEPADXZ 10023493 f i libvcruntime:std_exception.obj
 0001:00022499       ?get@?$__crt_unique_heap_ptr@DU__crt_public_free_policy@@@@QBEPADXZ 10023499 f i libvcruntime:std_exception.obj
 0001:0002249c       ?is_valid@?$__crt_unique_heap_ptr@DU__crt_public_free_policy@@@@QBE_NXZ 1002349c f i libvcruntime:std_exception.obj
 0001:000224a3       ?release@?$__crt_unique_heap_ptr@DU__crt_public_free_policy@@@@QAEXXZ 100234a3 f i libvcruntime:std_exception.obj
 0001:000224b3       ___std_exception_copy      100234b3 f   libvcruntime:std_exception.obj
 0001:00022516       ___std_exception_destroy   10023516 f   libvcruntime:std_exception.obj
 0001:00022535       __CxxThrowException@8      10023535 f   libvcruntime:throw.obj
 0001:000225b0       __global_unwind2           100235b0 f   libvcruntime:exsup.obj
 0001:00022630       __local_unwind2            10023630 f   libvcruntime:exsup.obj
 0001:000226d0       __abnormal_termination     100236d0 f   libvcruntime:exsup.obj
 0001:00022700       __NLG_Notify1              10023700 f   libvcruntime:exsup.obj
 0001:00022710       __NLG_Notify               10023710 f   libvcruntime:exsup.obj
 0001:00022727       __NLG_Dispatch             10023727     libvcruntime:exsup.obj
 0001:00022727       __NLG_Dispatch2            10023727     libvcruntime:exsup.obj
 0001:00022730       __NLG_Call                 10023730 f   libvcruntime:exsup.obj
 0001:00022732       __NLG_Return2              10023732     libvcruntime:exsup.obj
 0001:00022733       ??$__crt_interlocked_exchange_pointer@$$A6AXXZP6AXXZ@@YAP6AXXZPDS6AXXZQ6AXXZ@Z 10023733 f i libvcruntime:purevirt.obj
 0001:00022740       ??$__crt_interlocked_read_pointer@$$A6AXXZ@@YAP6AXXZPDS6AXXZ@Z 10023740 f i libvcruntime:purevirt.obj
 0001:0002274b       __get_purecall_handler     1002374b f   libvcruntime:purevirt.obj
 0001:00022752       __purecall                 10023752 f   libvcruntime:purevirt.obj
 0001:0002276e       __set_purecall_handler     1002376e f   libvcruntime:purevirt.obj
 0001:00022ce1       ??$futime@AAHABQAU__utimbuf32@@@?$__crt_integer_traits@J@@SAHAAHABQAU__utimbuf32@@@Z 10023ce1 f i libucrt:utime.obj
 0001:00022cfa       ??$futime@AAHABQAU__utimbuf64@@@?$__crt_integer_traits@_J@@SAHAAHABQAU__utimbuf64@@@Z 10023cfa f i libucrt:utime.obj
 0001:00022d13       ??$localtime_s@PAUtm@@PAJ@?$__crt_integer_traits@J@@SAH$$QAPAUtm@@$$QAPAJ@Z 10023d13 f i libucrt:utime.obj
 0001:00022d2b       ??$localtime_s@PAUtm@@PA_J@?$__crt_integer_traits@_J@@SAH$$QAPAUtm@@$$QAPA_J@Z 10023d2b f i libucrt:utime.obj
 0001:00022d43       ??$time@PAJ@?$__crt_integer_traits@J@@SAJ$$QAPAJ@Z 10023d43 f i libucrt:utime.obj
 0001:00022d55       ??$time@PA_J@?$__crt_integer_traits@_J@@SA_J$$QAPA_J@Z 10023d55 f i libucrt:utime.obj
 0001:00022d67       ??$tsopen_s@PAHABQBDHHH@?$__crt_char_traits@D@@SAH$$QAPAHABQBD$$QAH22@Z 10023d67 f i libucrt:utime.obj
 0001:00022d8f       ??$tsopen_s@PAHABQB_WHHH@?$__crt_char_traits@_W@@SAH$$QAPAHABQB_W$$QAH22@Z 10023d8f f i libucrt:utime.obj
 0001:00022db7       __futime32                 10023db7 f   libucrt:utime.obj
 0001:00022dc2       __futime64                 10023dc2 f   libucrt:utime.obj
 0001:00022dcd       __utime32                  10023dcd f   libucrt:utime.obj
 0001:00022dd8       __utime64                  10023dd8 f   libucrt:utime.obj
 0001:00022de3       __wutime32                 10023de3 f   libucrt:utime.obj
 0001:00022dee       __wutime64                 10023dee f   libucrt:utime.obj
 0001:00022e00       _strncpy                   10023e00 f   libucrt:strncpy.obj
 0001:00022f24       ??$is_overflow_condition@K@__crt_strtox@@YA_NIK@Z 10023f24 f i libucrt:atox.obj
 0001:00022f58       ??$is_overflow_condition@_K@__crt_strtox@@YA_NI_K@Z 10023f58 f i libucrt:atox.obj
 0001:00022f99       ??$make_c_string_character_source@D$$T@__crt_strtox@@YA?AV?$c_string_character_source@D@0@QBD$$T@Z 10023f99 f i libucrt:atox.obj
 0001:00022fb4       ??$make_c_string_character_source@_W$$T@__crt_strtox@@YA?AV?$c_string_character_source@_W@0@QB_W$$T@Z 10023fb4 f i libucrt:atox.obj
 0001:00022fcf       ??$parse_integer@KV?$c_string_character_source@D@__crt_strtox@@$00@__crt_strtox@@YAKAAV__crt_cached_ptd_host@@V?$c_string_character_source@D@0@H_N@Z 10023fcf f i libucrt:atox.obj
 0001:00023216       ??$parse_integer@KV?$c_string_character_source@_W@__crt_strtox@@$00@__crt_strtox@@YAKAAV__crt_cached_ptd_host@@V?$c_string_character_source@_W@0@H_N@Z 10024216 f i libucrt:atox.obj
 0001:00023824       ??$parse_integer@_KV?$c_string_character_source@D@__crt_strtox@@$00@__crt_strtox@@YA_KAAV__crt_cached_ptd_host@@V?$c_string_character_source@D@0@H_N@Z 10024824 f i libucrt:atox.obj
 0001:00023aec       ??$parse_integer@_KV?$c_string_character_source@_W@__crt_strtox@@$00@__crt_strtox@@YA_KAAV__crt_cached_ptd_host@@V?$c_string_character_source@_W@0@H_N@Z 10024aec f i libucrt:atox.obj
 0001:00024172       ??$parse_integer_from_string@JD$$T@__crt_strtox@@YAJQBD$$THQAU__crt_locale_pointers@@@Z 10025172 f i libucrt:atox.obj
 0001:000241b9       ??$parse_integer_from_string@J_W$$T@__crt_strtox@@YAJQB_W$$THQAU__crt_locale_pointers@@@Z 100251b9 f i libucrt:atox.obj
 0001:00024200       ??$parse_integer_from_string@_JD$$T@__crt_strtox@@YA_JQBD$$THQAU__crt_locale_pointers@@@Z 10025200 f i libucrt:atox.obj
 0001:0002424d       ??$parse_integer_from_string@_J_W$$T@__crt_strtox@@YA_JQB_W$$THQAU__crt_locale_pointers@@@Z 1002524d f i libucrt:atox.obj
 0001:0002429a       ??0?$c_string_character_source@D@__crt_strtox@@QAE@QBDQAPBD@Z 1002529a f i libucrt:atox.obj
 0001:000242b6       ??0?$c_string_character_source@_W@__crt_strtox@@QAE@QB_WQAPB_W@Z 100252b6 f i libucrt:atox.obj
 0001:000242d2       ??0?$cached@H@__crt_cached_ptd_host@@QAE@XZ 100252d2 f i libucrt:atox.obj
 0001:000242d9       ??0?$cached@K@__crt_cached_ptd_host@@QAE@XZ 100252d9 f i libucrt:atox.obj
 0001:000242e0       ??0__crt_cached_ptd_host@@QAE@QAU__crt_locale_pointers@@@Z 100252e0 f i libucrt:atox.obj
 0001:0002433d       ??0__crt_scoped_get_last_error_reset@@QAE@XZ 1002533d f i libucrt:atox.obj
 0001:0002434e       ??1?$c_string_character_source@D@__crt_strtox@@QAE@XZ 1002534e f i libucrt:atox.obj
 0001:0002435a       ??1?$c_string_character_source@_W@__crt_strtox@@QAE@XZ 1002535a f i libucrt:atox.obj
 0001:00024370       ??1__crt_cached_ptd_host@@QAE@XZ 10025370 f i libucrt:atox.obj
 0001:000243ac       ??1__crt_scoped_get_last_error_reset@@QAE@XZ 100253ac f i libucrt:atox.obj
 0001:000243c0       ?check_synchronize_global_state_index@__crt_cached_ptd_host@@AAEIABV__crt_scoped_get_last_error_reset@@@Z 100253c0 f i libucrt:atox.obj
 0001:000243e0       ?check_synchronize_per_thread_data@__crt_cached_ptd_host@@AAEPAU__acrt_ptd@@XZ 100253e0 f i libucrt:atox.obj
 0001:00024440       ?force_synchronize_global_state_index@__crt_cached_ptd_host@@AAEIABV__crt_scoped_get_last_error_reset@@@Z 10025440 f i libucrt:atox.obj
 0001:00024450       ?force_synchronize_per_thread_data@__crt_cached_ptd_host@@AAEPAU__acrt_ptd@@XZ 10025450 f i libucrt:atox.obj
 0001:0002449d       ?get@?$c_string_character_source@D@__crt_strtox@@QAEDXZ 1002549d f i libucrt:atox.obj
 0001:000244a5       ?get@?$c_string_character_source@_W@__crt_strtox@@QAE_WXZ 100254a5 f i libucrt:atox.obj
 0001:000244b0       ?get_current_state_index@__crt_state_management@@YAIABV__crt_scoped_get_last_error_reset@@@Z 100254b0 f i libucrt:atox.obj
 0001:000244c0       ?get_errno@__crt_cached_ptd_host@@QAE@XZ 100254c0 f i libucrt:atox.obj
 0001:000244d0       ?get_locale@__crt_cached_ptd_host@@QAEPAU__crt_locale_pointers@@XZ 100254d0 f i libucrt:atox.obj
 0001:000244f0       ?get_raw_ptd@__crt_cached_ptd_host@@QAEPAU__acrt_ptd@@XZ 100254f0 f i libucrt:atox.obj
 0001:0002454c       ?is_space@__crt_strtox@@YA_NDQAU__crt_locale_pointers@@@Z 1002554c f i libucrt:atox.obj
 0001:0002456a       ?is_space@__crt_strtox@@YA_N_WPAU__crt_locale_pointers@@@Z 1002556a f i libucrt:atox.obj
 0001:00024582       ?maximum_signed_value@__crt_strtox@@YAJK@Z 10025582 f i libucrt:atox.obj
 0001:00024588       ?maximum_signed_value@__crt_strtox@@YA_J_K@Z 10025588 f i libucrt:atox.obj
 0001:00024591       ?minimum_signed_value@__crt_strtox@@YAJK@Z 10025591 f i libucrt:atox.obj
 0001:00024597       ?minimum_signed_value@__crt_strtox@@YA_J_K@Z 10025597 f i libucrt:atox.obj
 0001:0002459f       ?parse_digit@__crt_strtox@@YAID@Z 1002559f f i libucrt:atox.obj
 0001:000245d9       ?parse_digit@__crt_strtox@@YAI_W@Z 100255d9 f i libucrt:atox.obj
 0001:000247a1       ?restore_state@?$c_string_character_source@D@__crt_strtox@@QAE_NQBD@Z 100257a1 f i libucrt:atox.obj
 0001:000247b1       ?restore_state@?$c_string_character_source@_W@__crt_strtox@@QAE_NQB_W@Z 100257b1 f i libucrt:atox.obj
 0001:000247c1       ?save_state@?$c_string_character_source@D@__crt_strtox@@QBEPBDXZ 100257c1 f i libucrt:atox.obj
 0001:000247c4       ?save_state@?$c_string_character_source@_W@__crt_strtox@@QBEPB_WXZ 100257c4 f i libucrt:atox.obj
 0001:000247c7       ?set@?$cached@H@__crt_cached_ptd_host@@QAEHH@Z 100257c7 f i libucrt:atox.obj
 0001:000247d9       ?unget@?$c_string_character_source@D@__crt_strtox@@QAEXD@Z 100257d9 f i libucrt:atox.obj
 0001:00024802       ?unget@?$c_string_character_source@_W@__crt_strtox@@QAEX_W@Z 10025802 f i libucrt:atox.obj
 0001:00024830       ?unsafe_value@?$cached@H@__crt_cached_ptd_host@@QAEHXZ 10025830 f i libucrt:atox.obj
 0001:00024833       ?unsafe_value@?$cached@K@__crt_cached_ptd_host@@QAEKXZ 10025833 f i libucrt:atox.obj
 0001:00024840       ?update_locale@__crt_cached_ptd_host@@AAEXXZ 10025840 f i libucrt:atox.obj
 0001:00024850       ?update_locale_slow@__crt_cached_ptd_host@@AAEXXZ 10025850 f i libucrt:atox.obj
 0001:000248ab       ?valid@?$cached@H@__crt_cached_ptd_host@@QBE_NXZ 100258ab f i libucrt:atox.obj
 0001:000248af       ?valid@?$cached@K@__crt_cached_ptd_host@@QBE_NXZ 100258af f i libucrt:atox.obj
 0001:000248b3       ?validate@?$c_string_character_source@D@__crt_strtox@@QBE_NXZ 100258b3 f i libucrt:atox.obj
 0001:000248ce       ?validate@?$c_string_character_source@_W@__crt_strtox@@QBE_NXZ 100258ce f i libucrt:atox.obj
 0001:000248e9       ?wide_character_to_digit@__crt_strtox@@YAH_W@Z 100258e9 f i libucrt:atox.obj
 0001:00024a8a       ___acrt_disable_global_locale_sync 10025a8a f i libucrt:atox.obj
 0001:00024a9d       ___acrt_enable_global_locale_sync 10025a9d f i libucrt:atox.obj
 0001:00024ab2       ___acrt_get_locale_data_prefix 10025ab2 f i libucrt:atox.obj
 0001:00024abe       ___acrt_locale_changed     10025abe f i libucrt:atox.obj
 0001:00024ac9       ___acrt_locale_get_ctype_array_value 10025ac9 f i libucrt:atox.obj
 0001:00024aeb       ___ascii_iswalpha          10025aeb f i libucrt:atox.obj
 0001:00024b0e       ___ascii_toupper           10025b0e f i libucrt:atox.obj
 0001:00024b25       ___ascii_towupper          10025b25 f i libucrt:atox.obj
 0001:00024b3c       __atoi64                   10025b3c f   libucrt:atox.obj
 0001:00024b81       __atoi64_l                 10025b81 f   libucrt:atox.obj
 0001:00024bc7       __atoi_l                   10025bc7 f   libucrt:atox.obj
 0001:00024c07       __atol_l                   10025c07 f   libucrt:atox.obj
 0001:00024c47       __atoll_l                  10025c47 f   libucrt:atox.obj
 0001:00024c8d       __chvalidchk_l             10025c8d f i libucrt:atox.obj
 0001:00024cb5       __ischartype_l             10025cb5 f i libucrt:atox.obj
 0001:00024d0c       __wtoi                     10025d0c f   libucrt:atox.obj
 0001:00024d4b       __wtoi64                   10025d4b f   libucrt:atox.obj
 0001:00024d90       __wtoi64_l                 10025d90 f   libucrt:atox.obj
 0001:00024dd6       __wtoi_l                   10025dd6 f   libucrt:atox.obj
 0001:00024e16       __wtol                     10025e16 f   libucrt:atox.obj
 0001:00024e55       __wtol_l                   10025e55 f   libucrt:atox.obj
 0001:00024e95       __wtoll                    10025e95 f   libucrt:atox.obj
 0001:00024eda       __wtoll_l                  10025eda f   libucrt:atox.obj
 0001:00024f20       _atoi                      10025f20 f   libucrt:atox.obj
 0001:00024f5f       _atol                      10025f5f f   libucrt:atox.obj
 0001:00024f9e       _atoll                     10025f9e f   libucrt:atox.obj
 0001:00024fe3       ??$__crt_interlocked_read@J@@YAJPDJ@Z 10025fe3 f i libucrt:fclose.obj
 0001:00024ff0       ??0__crt_stdio_stream@@QAE@QAU_iobuf@@@Z 10025ff0 f i libucrt:fclose.obj
 0001:00025000       ??C__crt_stdio_stream@@QBEPAU__crt_stdio_stream_data@@XZ 10026000 f i libucrt:fclose.obj
 0001:00025128       ?get_flags@__crt_stdio_stream@@QBEJXZ 10026128 f i libucrt:fclose.obj
 0001:0002512f       ?is_in_use@__crt_stdio_stream@@QBE_NXZ 1002612f f i libucrt:fclose.obj
 0001:0002513b       ?is_string_backed@__crt_stdio_stream@@QBE_NXZ 1002613b f i libucrt:fclose.obj
 0001:00025147       ?public_stream@__crt_stdio_stream@@QBEPAU_iobuf@@XZ 10026147 f i libucrt:fclose.obj
 0001:0002514a       ?valid@__crt_stdio_stream@@QBE_NXZ 1002614a f i libucrt:fclose.obj
 0001:00025151       __fclose_nolock            10026151 f   libucrt:fclose.obj
 0001:00025181       _fclose                    10026181 f   libucrt:fclose.obj
 0001:000253ac       ??$open_file@ABQBDABQBDABHPAU_iobuf@@@?$__crt_char_traits@D@@SAPAU_iobuf@@ABQBD0ABH$$QAPAU1@@Z 100263ac f i libucrt:fopen.obj
 0001:000253cf       ??$open_file@ABQB_WABQB_WABHPAU_iobuf@@@?$__crt_char_traits@_W@@SAPAU_iobuf@@ABQB_W0ABH$$QAPAU1@@Z 100263cf f i libucrt:fopen.obj
 0001:000253f2       ?unlock@__crt_stdio_stream@@QBEXXZ 100263f2 f i libucrt:fopen.obj
 0001:000253fb       __fsopen                   100263fb f   libucrt:fopen.obj
 0001:00025406       __wfopen                   10026406 f   libucrt:fopen.obj
 0001:0002541d       __wfopen_s                 1002641d f   libucrt:fopen.obj
 0001:00025464       __wfsopen                  10026464 f   libucrt:fopen.obj
 0001:0002546f       _fopen                     1002646f f   libucrt:fopen.obj
 0001:00025486       _fopen_s                   10026486 f   libucrt:fopen.obj
 0001:0002559a       ??0__acrt_stdio_temporary_buffering_guard@@QAE@QAU_iobuf@@AAV__crt_cached_ptd_host@@@Z 1002659a f i libucrt:fwrite.obj
 0001:000255be       ??1__acrt_stdio_temporary_buffering_guard@@QAE@XZ 100265be f i libucrt:fwrite.obj
 0001:0002562f       ?has_any_buffer@__crt_stdio_stream@@QBE_NXZ 1002662f f i libucrt:fwrite.obj
 0001:0002563e       ?has_any_of@__crt_stdio_stream@@QBE_NJ@Z 1002663e f i libucrt:fwrite.obj
 0001:00025653       ?has_big_buffer@__crt_stdio_stream@@QBE_NXZ 10026653 f i libucrt:fwrite.obj
 0001:0002565f       ?set_flags@__crt_stdio_stream@@QBE_NJ@Z 1002665f f i libucrt:fwrite.obj
 0001:00025683       __fwrite_internal          10026683 f   libucrt:fwrite.obj
 0001:000256fa       __fwrite_nolock            100266fa f   libucrt:fwrite.obj
 0001:00025734       __fwrite_nolock_internal   10026734 f   libucrt:fwrite.obj
 0001:000258db       _fwrite                    100268db f   libucrt:fwrite.obj
 0001:00025915       ??$__acrt_convert_wcs_mbs_cp@D_WV<lambda_62f6974d9771e494a5ea317cc32e971c>@@U__crt_win32_buffer_internal_dynamic_resizing@@@@YAHQBDAAV?$__crt_win32_buffer@_WU__crt_win32_buffer_internal_dynamic_resizing@@@@ABV<lambda_62f6974d9771e494a5ea317cc32e971c>@@I@Z 10026915 f i libucrt:unlink.obj
 0001:000259c7       ??$__acrt_mbs_to_wcs_cp@U__crt_win32_buffer_internal_dynamic_resizing@@@@YAHQBDAAV?$__crt_win32_buffer@_WU__crt_win32_buffer_internal_dynamic_resizing@@@@I@Z 100269c7 f i libucrt:unlink.obj
 0001:000259e4       ??0?$__crt_win32_buffer@_WU__crt_win32_buffer_internal_dynamic_resizing@@@@QAE@XZ 100269e4 f i libucrt:unlink.obj
 0001:000259fa       ??0_LocaleUpdate@@QAE@QAU__crt_locale_pointers@@@Z 100269fa f i libucrt:unlink.obj
 0001:00025a7c       ??1?$__crt_win32_buffer@_WU__crt_win32_buffer_internal_dynamic_resizing@@@@QAE@XZ 10026a7c f i libucrt:unlink.obj
 0001:00025a81       ??1_LocaleUpdate@@QAE@XZ   10026a81 f i libucrt:unlink.obj
 0001:00025a91       ??R<lambda_62f6974d9771e494a5ea317cc32e971c>@@QBE@IQBDQA_WI@Z 10026a91 f i libucrt:unlink.obj
 0001:00025ab2       ?GetLocaleT@_LocaleUpdate@@QAEPAU__crt_locale_pointers@@XZ 10026ab2 f i libucrt:unlink.obj
 0001:00025ab6       ?__acrt_get_utf8_acp_compatibility_codepage@@YAIXZ 10026ab6 f i libucrt:unlink.obj
 0001:00025af5       ?_deallocate@?$__crt_win32_buffer@_WU__crt_win32_buffer_internal_dynamic_resizing@@@@AAEXXZ 10026af5 f i libucrt:unlink.obj
 0001:00025b0f       ?allocate@?$__crt_win32_buffer@_WU__crt_win32_buffer_internal_dynamic_resizing@@@@QAEHI@Z 10026b0f f i libucrt:unlink.obj
 0001:00025b4e       ?allocate@__crt_win32_buffer_internal_dynamic_resizing@@SAHQAPAXIABV__crt_win32_buffer_empty_debug_info@@@Z 10026b4e f i libucrt:unlink.obj
 0001:00025b6d       ?capacity@?$__crt_win32_buffer@_WU__crt_win32_buffer_internal_dynamic_resizing@@@@QBEIXZ 10026b6d f i libucrt:unlink.obj
 0001:00025b71       ?data@?$__crt_win32_buffer@_WU__crt_win32_buffer_internal_dynamic_resizing@@@@QAEPA_WXZ 10026b71 f i libucrt:unlink.obj
 0001:00025b75       ?deallocate@__crt_win32_buffer_internal_dynamic_resizing@@SAXQAXABV__crt_win32_buffer_empty_debug_info@@@Z 10026b75 f i libucrt:unlink.obj
 0001:00025b85       ?debug_info@?$__crt_win32_buffer@_WU__crt_win32_buffer_internal_dynamic_resizing@@@@QBEABV__crt_win32_buffer_empty_debug_info@@XZ 10026b85 f i libucrt:unlink.obj
 0001:00025b88       ?set_to_nullptr@?$__crt_win32_buffer@_WU__crt_win32_buffer_internal_dynamic_resizing@@@@QAEXXZ 10026b88 f i libucrt:unlink.obj
 0001:00025b9f       ?size@?$__crt_win32_buffer@_WU__crt_win32_buffer_internal_dynamic_resizing@@@@QAEXI@Z 10026b9f f i libucrt:unlink.obj
 0001:00025bae       __unlink                   10026bae f   libucrt:unlink.obj
 0001:00025bb9       _remove                    10026bb9 f   libucrt:unlink.obj
 0001:00025c23       _rename                    10026c23 f   libucrt:rename.obj
 0001:00025cd1       ??$?0ABV?$stream_output_adapter@D@__crt_stdio_output@@AB_KABQBDAAV__crt_cached_ptd_host@@ABQAD@?$format_validation_base@DV?$stream_output_adapter@D@__crt_stdio_output@@@__crt_stdio_output@@IAE@ABV?$stream_output_adapter@D@1@AB_KABQBDAAV__crt_cached_ptd_host@@ABQAD@Z 10026cd1 f i libucrt:output.obj
 0001:00025cf4       ??$?0ABV?$stream_output_adapter@D@__crt_stdio_output@@AB_KABQBDAAV__crt_cached_ptd_host@@ABQAD@?$positional_parameter_base@DV?$stream_output_adapter@D@__crt_stdio_output@@@__crt_stdio_output@@IAE@ABV?$stream_output_adapter@D@1@AB_KABQBDAAV__crt_cached_ptd_host@@ABQAD@Z 10026cf4 f i libucrt:output.obj
 0001:00025d3c       ??$?0ABV?$stream_output_adapter@D@__crt_stdio_output@@AB_KABQBDAAV__crt_cached_ptd_host@@ABQAD@?$standard_base@DV?$stream_output_adapter@D@__crt_stdio_output@@@__crt_stdio_output@@IAE@ABV?$stream_output_adapter@D@1@AB_KABQBDAAV__crt_cached_ptd_host@@ABQAD@Z 10026d3c f i libucrt:output.obj
 0001:00025d6f       ??$?0ABV?$stream_output_adapter@_W@__crt_stdio_output@@AB_KABQB_WAAV__crt_cached_ptd_host@@ABQAD@?$format_validation_base@_WV?$stream_output_adapter@_W@__crt_stdio_output@@@__crt_stdio_output@@IAE@ABV?$stream_output_adapter@_W@1@AB_KABQB_WAAV__crt_cached_ptd_host@@ABQAD@Z 10026d6f f i libucrt:output.obj
 0001:00025d92       ??$?0ABV?$stream_output_adapter@_W@__crt_stdio_output@@AB_KABQB_WAAV__crt_cached_ptd_host@@ABQAD@?$positional_parameter_base@_WV?$stream_output_adapter@_W@__crt_stdio_output@@@__crt_stdio_output@@IAE@ABV?$stream_output_adapter@_W@1@AB_KABQB_WAAV__crt_cached_ptd_host@@ABQAD@Z 10026d92 f i libucrt:output.obj
 0001:00025dda       ??$?0ABV?$stream_output_adapter@_W@__crt_stdio_output@@AB_KABQB_WAAV__crt_cached_ptd_host@@ABQAD@?$standard_base@_WV?$stream_output_adapter@_W@__crt_stdio_output@@@__crt_stdio_output@@IAE@ABV?$stream_output_adapter@_W@1@AB_KABQB_WAAV__crt_cached_ptd_host@@ABQAD@Z 10026dda f i libucrt:output.obj
 0001:00025e0d       ??$?0ABV?$string_output_adapter@D@__crt_stdio_output@@AB_KABQBDAAV__crt_cached_ptd_host@@ABQAD@?$format_validation_base@DV?$string_output_adapter@D@__crt_stdio_output@@@__crt_stdio_output@@IAE@ABV?$string_output_adapter@D@1@AB_KABQBDAAV__crt_cached_ptd_host@@ABQAD@Z 10026e0d f i libucrt:output.obj
 0001:00025e30       ??$?0ABV?$string_output_adapter@D@__crt_stdio_output@@AB_KABQBDAAV__crt_cached_ptd_host@@ABQAD@?$positional_parameter_base@DV?$string_output_adapter@D@__crt_stdio_output@@@__crt_stdio_output@@IAE@ABV?$string_output_adapter@D@1@AB_KABQBDAAV__crt_cached_ptd_host@@ABQAD@Z 10026e30 f i libucrt:output.obj
 0001:00025e78       ??$?0ABV?$string_output_adapter@D@__crt_stdio_output@@AB_KABQBDAAV__crt_cached_ptd_host@@ABQAD@?$standard_base@DV?$string_output_adapter@D@__crt_stdio_output@@@__crt_stdio_output@@IAE@ABV?$string_output_adapter@D@1@AB_KABQBDAAV__crt_cached_ptd_host@@ABQAD@Z 10026e78 f i libucrt:output.obj
 0001:00025eab       ??$?0ABV?$string_output_adapter@_W@__crt_stdio_output@@AB_KABQB_WAAV__crt_cached_ptd_host@@ABQAD@?$format_validation_base@_WV?$string_output_adapter@_W@__crt_stdio_output@@@__crt_stdio_output@@IAE@ABV?$string_output_adapter@_W@1@AB_KABQB_WAAV__crt_cached_ptd_host@@ABQAD@Z 10026eab f i libucrt:output.obj
 0001:00025ece       ??$?0ABV?$string_output_adapter@_W@__crt_stdio_output@@AB_KABQB_WAAV__crt_cached_ptd_host@@ABQAD@?$positional_parameter_base@_WV?$string_output_adapter@_W@__crt_stdio_output@@@__crt_stdio_output@@IAE@ABV?$string_output_adapter@_W@1@AB_KABQB_WAAV__crt_cached_ptd_host@@ABQAD@Z 10026ece f i libucrt:output.obj
 0001:00025f16       ??$?0ABV?$string_output_adapter@_W@__crt_stdio_output@@AB_KABQB_WAAV__crt_cached_ptd_host@@ABQAD@?$standard_base@_WV?$string_output_adapter@_W@__crt_stdio_output@@@__crt_stdio_output@@IAE@ABV?$string_output_adapter@_W@1@AB_KABQB_WAAV__crt_cached_ptd_host@@ABQAD@Z 10026f16 f i libucrt:output.obj
 0001:0002624f       ??$_tcstol_internal@DPAPAD$0A@@@YAJAAV__crt_cached_ptd_host@@QBDQAPADH@Z 1002724f f i libucrt:output.obj
 0001:0002627a       ??$_tcstol_internal@_WPAPA_W$0A@@@YAJAAV__crt_cached_ptd_host@@QB_WQAPA_WH@Z 1002727a f i libucrt:output.obj
 0001:000271d4       ??$count@D@formatting_buffer@__crt_stdio_output@@QBEIXZ 100281d4 f i libucrt:output.obj
 0001:000271ec       ??$count@_W@formatting_buffer@__crt_stdio_output@@QBEIXZ 100281ec f i libucrt:output.obj
 0001:00027205       ??$data@D@formatting_buffer@__crt_stdio_output@@QAEPADXZ 10028205 f i libucrt:output.obj
 0001:00027212       ??$data@_W@formatting_buffer@__crt_stdio_output@@QAEPA_WXZ 10028212 f i libucrt:output.obj
 0001:0002721f       ??$ensure_buffer_is_big_enough@D@formatting_buffer@__crt_stdio_output@@QAE_NIAAV__crt_cached_ptd_host@@@Z 1002821f f i libucrt:output.obj
 0001:000272a0       ??$ensure_buffer_is_big_enough@_W@formatting_buffer@__crt_stdio_output@@QAE_NIAAV__crt_cached_ptd_host@@@Z 100282a0 f i libucrt:output.obj
 0001:00027322       ??$extract_argument_from_va_list@C_J@?$positional_parameter_base@DV?$stream_output_adapter@D@__crt_stdio_output@@@__crt_stdio_output@@IAE_NAA_J@Z 10028322 f i libucrt:output.obj
 0001:000273b1       ??$extract_argument_from_va_list@C_J@?$positional_parameter_base@DV?$string_output_adapter@D@__crt_stdio_output@@@__crt_stdio_output@@IAE_NAA_J@Z 100283b1 f i libucrt:output.obj
 0001:00027440       ??$extract_argument_from_va_list@C_J@?$positional_parameter_base@_WV?$stream_output_adapter@_W@__crt_stdio_output@@@__crt_stdio_output@@IAE_NAA_J@Z 10028440 f i libucrt:output.obj
 0001:000274d0       ??$extract_argument_from_va_list@C_J@?$positional_parameter_base@_WV?$string_output_adapter@_W@__crt_stdio_output@@@__crt_stdio_output@@IAE_NAA_J@Z 100284d0 f i libucrt:output.obj
 0001:00027560       ??$extract_argument_from_va_list@C_J@?$standard_base@DV?$stream_output_adapter@D@__crt_stdio_output@@@__crt_stdio_output@@IAE_NAA_J@Z 10028560 f i libucrt:output.obj
 0001:00027580       ??$extract_argument_from_va_list@C_J@?$standard_base@DV?$string_output_adapter@D@__crt_stdio_output@@@__crt_stdio_output@@IAE_NAA_J@Z 10028580 f i libucrt:output.obj
 0001:000275a0       ??$extract_argument_from_va_list@C_J@?$standard_base@_WV?$stream_output_adapter@_W@__crt_stdio_output@@@__crt_stdio_output@@IAE_NAA_J@Z 100285a0 f i libucrt:output.obj
 0001:000275c0       ??$extract_argument_from_va_list@C_J@?$standard_base@_WV?$string_output_adapter@_W@__crt_stdio_output@@@__crt_stdio_output@@IAE_NAA_J@Z 100285c0 f i libucrt:output.obj
 0001:000275e0       ??$extract_argument_from_va_list@E_J@?$positional_parameter_base@DV?$stream_output_adapter@D@__crt_stdio_output@@@__crt_stdio_output@@IAE_NAA_J@Z 100285e0 f i libucrt:output.obj
 0001:0002766f       ??$extract_argument_from_va_list@E_J@?$positional_parameter_base@DV?$string_output_adapter@D@__crt_stdio_output@@@__crt_stdio_output@@IAE_NAA_J@Z 1002866f f i libucrt:output.obj
 0001:000276fe       ??$extract_argument_from_va_list@E_J@?$positional_parameter_base@_WV?$stream_output_adapter@_W@__crt_stdio_output@@@__crt_stdio_output@@IAE_NAA_J@Z 100286fe f i libucrt:output.obj
 0001:0002778e       ??$extract_argument_from_va_list@E_J@?$positional_parameter_base@_WV?$string_output_adapter@_W@__crt_stdio_output@@@__crt_stdio_output@@IAE_NAA_J@Z 1002878e f i libucrt:output.obj
 0001:0002781e       ??$extract_argument_from_va_list@E_J@?$standard_base@DV?$stream_output_adapter@D@__crt_stdio_output@@@__crt_stdio_output@@IAE_NAA_J@Z 1002881e f i libucrt:output.obj
 0001:0002783e       ??$extract_argument_from_va_list@E_J@?$standard_base@DV?$string_output_adapter@D@__crt_stdio_output@@@__crt_stdio_output@@IAE_NAA_J@Z 1002883e f i libucrt:output.obj
 0001:0002785e       ??$extract_argument_from_va_list@E_J@?$standard_base@_WV?$stream_output_adapter@_W@__crt_stdio_output@@@__crt_stdio_output@@IAE_NAA_J@Z 1002885e f i libucrt:output.obj
 0001:0002787e       ??$extract_argument_from_va_list@E_J@?$standard_base@_WV?$string_output_adapter@_W@__crt_stdio_output@@@__crt_stdio_output@@IAE_NAA_J@Z 1002887e f i libucrt:output.obj
 0001:0002789e       ??$extract_argument_from_va_list@F_J@?$positional_parameter_base@DV?$stream_output_adapter@D@__crt_stdio_output@@@__crt_stdio_output@@IAE_NAA_J@Z 1002889e f i libucrt:output.obj
 0001:0002792d       ??$extract_argument_from_va_list@F_J@?$positional_parameter_base@DV?$string_output_adapter@D@__crt_stdio_output@@@__crt_stdio_output@@IAE_NAA_J@Z 1002892d f i libucrt:output.obj
 0001:000279bc       ??$extract_argument_from_va_list@F_J@?$positional_parameter_base@_WV?$stream_output_adapter@_W@__crt_stdio_output@@@__crt_stdio_output@@IAE_NAA_J@Z 100289bc f i libucrt:output.obj
 0001:00027a4c       ??$extract_argument_from_va_list@F_J@?$positional_parameter_base@_WV?$string_output_adapter@_W@__crt_stdio_output@@@__crt_stdio_output@@IAE_NAA_J@Z 10028a4c f i libucrt:output.obj
 0001:00027adc       ??$extract_argument_from_va_list@F_J@?$standard_base@DV?$stream_output_adapter@D@__crt_stdio_output@@@__crt_stdio_output@@IAE_NAA_J@Z 10028adc f i libucrt:output.obj
 0001:00027afc       ??$extract_argument_from_va_list@F_J@?$standard_base@DV?$string_output_adapter@D@__crt_stdio_output@@@__crt_stdio_output@@IAE_NAA_J@Z 10028afc f i libucrt:output.obj
 0001:00027b1c       ??$extract_argument_from_va_list@F_J@?$standard_base@_WV?$stream_output_adapter@_W@__crt_stdio_output@@@__crt_stdio_output@@IAE_NAA_J@Z 10028b1c f i libucrt:output.obj
 0001:00027b3c       ??$extract_argument_from_va_list@F_J@?$standard_base@_WV?$string_output_adapter@_W@__crt_stdio_output@@@__crt_stdio_output@@IAE_NAA_J@Z 10028b3c f i libucrt:output.obj
 0001:00027b5c       ??$extract_argument_from_va_list@GD@?$positional_parameter_base@DV?$stream_output_adapter@D@__crt_stdio_output@@@__crt_stdio_output@@IAE_NAAD@Z 10028b5c f i libucrt:output.obj
 0001:00027bea       ??$extract_argument_from_va_list@GD@?$positional_parameter_base@DV?$string_output_adapter@D@__crt_stdio_output@@@__crt_stdio_output@@IAE_NAAD@Z 10028bea f i libucrt:output.obj
 0001:00027c78       ??$extract_argument_from_va_list@GD@?$standard_base@DV?$stream_output_adapter@D@__crt_stdio_output@@@__crt_stdio_output@@IAE_NAAD@Z 10028c78 f i libucrt:output.obj
 0001:00027c93       ??$extract_argument_from_va_list@GD@?$standard_base@DV?$string_output_adapter@D@__crt_stdio_output@@@__crt_stdio_output@@IAE_NAAD@Z 10028c93 f i libucrt:output.obj
 0001:00027cae       ??$extract_argument_from_va_list@G_J@?$positional_parameter_base@DV?$stream_output_adapter@D@__crt_stdio_output@@@__crt_stdio_output@@IAE_NAA_J@Z 10028cae f i libucrt:output.obj
 0001:00027d3d       ??$extract_argument_from_va_list@G_J@?$positional_parameter_base@DV?$string_output_adapter@D@__crt_stdio_output@@@__crt_stdio_output@@IAE_NAA_J@Z 10028d3d f i libucrt:output.obj
 0001:00027dcc       ??$extract_argument_from_va_list@G_J@?$positional_parameter_base@_WV?$stream_output_adapter@_W@__crt_stdio_output@@@__crt_stdio_output@@IAE_NAA_J@Z 10028dcc f i libucrt:output.obj
 0001:00027e5c       ??$extract_argument_from_va_list@G_J@?$positional_parameter_base@_WV?$string_output_adapter@_W@__crt_stdio_output@@@__crt_stdio_output@@IAE_NAA_J@Z 10028e5c f i libucrt:output.obj
 0001:00027eec       ??$extract_argument_from_va_list@G_J@?$standard_base@DV?$stream_output_adapter@D@__crt_stdio_output@@@__crt_stdio_output@@IAE_NAA_J@Z 10028eec f i libucrt:output.obj
 0001:00027f0c       ??$extract_argument_from_va_list@G_J@?$standard_base@DV?$string_output_adapter@D@__crt_stdio_output@@@__crt_stdio_output@@IAE_NAA_J@Z 10028f0c f i libucrt:output.obj
 0001:00027f2c       ??$extract_argument_from_va_list@G_J@?$standard_base@_WV?$stream_output_adapter@_W@__crt_stdio_output@@@__crt_stdio_output@@IAE_NAA_J@Z 10028f2c f i libucrt:output.obj
 0001:00027f4c       ??$extract_argument_from_va_list@G_J@?$standard_base@_WV?$string_output_adapter@_W@__crt_stdio_output@@@__crt_stdio_output@@IAE_NAA_J@Z 10028f4c f i libucrt:output.obj
 0001:00027f6c       ??$extract_argument_from_va_list@H_J@?$positional_parameter_base@DV?$stream_output_adapter@D@__crt_stdio_output@@@__crt_stdio_output@@IAE_NAA_J@Z 10028f6c f i libucrt:output.obj
 0001:00027ff5       ??$extract_argument_from_va_list@H_J@?$positional_parameter_base@DV?$string_output_adapter@D@__crt_stdio_output@@@__crt_stdio_output@@IAE_NAA_J@Z 10028ff5 f i libucrt:output.obj
 0001:0002807e       ??$extract_argument_from_va_list@H_J@?$positional_parameter_base@_WV?$stream_output_adapter@_W@__crt_stdio_output@@@__crt_stdio_output@@IAE_NAA_J@Z 1002907e f i libucrt:output.obj
 0001:00028108       ??$extract_argument_from_va_list@H_J@?$positional_parameter_base@_WV?$string_output_adapter@_W@__crt_stdio_output@@@__crt_stdio_output@@IAE_NAA_J@Z 10029108 f i libucrt:output.obj
 0001:00028192       ??$extract_argument_from_va_list@H_J@?$standard_base@DV?$stream_output_adapter@D@__crt_stdio_output@@@__crt_stdio_output@@IAE_NAA_J@Z 10029192 f i libucrt:output.obj
 0001:000281b1       ??$extract_argument_from_va_list@H_J@?$standard_base@DV?$string_output_adapter@D@__crt_stdio_output@@@__crt_stdio_output@@IAE_NAA_J@Z 100291b1 f i libucrt:output.obj
 0001:000281d0       ??$extract_argument_from_va_list@H_J@?$standard_base@_WV?$stream_output_adapter@_W@__crt_stdio_output@@@__crt_stdio_output@@IAE_NAA_J@Z 100291d0 f i libucrt:output.obj
 0001:000281ef       ??$extract_argument_from_va_list@H_J@?$standard_base@_WV?$string_output_adapter@_W@__crt_stdio_output@@@__crt_stdio_output@@IAE_NAA_J@Z 100291ef f i libucrt:output.obj
 0001:0002820e       ??$extract_argument_from_va_list@I_J@?$positional_parameter_base@DV?$stream_output_adapter@D@__crt_stdio_output@@@__crt_stdio_output@@IAE_NAA_J@Z 1002920e f i libucrt:output.obj
 0001:000282a4       ??$extract_argument_from_va_list@I_J@?$positional_parameter_base@DV?$string_output_adapter@D@__crt_stdio_output@@@__crt_stdio_output@@IAE_NAA_J@Z 100292a4 f i libucrt:output.obj
 0001:0002833a       ??$extract_argument_from_va_list@I_J@?$positional_parameter_base@_WV?$stream_output_adapter@_W@__crt_stdio_output@@@__crt_stdio_output@@IAE_NAA_J@Z 1002933a f i libucrt:output.obj
 0001:000283d1       ??$extract_argument_from_va_list@I_J@?$positional_parameter_base@_WV?$string_output_adapter@_W@__crt_stdio_output@@@__crt_stdio_output@@IAE_NAA_J@Z 100293d1 f i libucrt:output.obj
 0001:00028468       ??$extract_argument_from_va_list@I_J@?$standard_base@DV?$stream_output_adapter@D@__crt_stdio_output@@@__crt_stdio_output@@IAE_NAA_J@Z 10029468 f i libucrt:output.obj
 0001:00028487       ??$extract_argument_from_va_list@I_J@?$standard_base@DV?$string_output_adapter@D@__crt_stdio_output@@@__crt_stdio_output@@IAE_NAA_J@Z 10029487 f i libucrt:output.obj
 0001:000284a6       ??$extract_argument_from_va_list@I_J@?$standard_base@_WV?$stream_output_adapter@_W@__crt_stdio_output@@@__crt_stdio_output@@IAE_NAA_J@Z 100294a6 f i libucrt:output.obj
 0001:000284c5       ??$extract_argument_from_va_list@I_J@?$standard_base@_WV?$string_output_adapter@_W@__crt_stdio_output@@@__crt_stdio_output@@IAE_NAA_J@Z 100294c5 f i libucrt:output.obj
 0001:000284e4       ??$extract_argument_from_va_list@PADPAD@?$positional_parameter_base@DV?$stream_output_adapter@D@__crt_stdio_output@@@__crt_stdio_output@@IAE_NAAPAD@Z 100294e4 f i libucrt:output.obj
 0001:00028572       ??$extract_argument_from_va_list@PADPAD@?$positional_parameter_base@DV?$string_output_adapter@D@__crt_stdio_output@@@__crt_stdio_output@@IAE_NAAPAD@Z 10029572 f i libucrt:output.obj
 0001:00028600       ??$extract_argument_from_va_list@PADPAD@?$positional_parameter_base@_WV?$stream_output_adapter@_W@__crt_stdio_output@@@__crt_stdio_output@@IAE_NAAPAD@Z 10029600 f i libucrt:output.obj
 0001:0002868f       ??$extract_argument_from_va_list@PADPAD@?$positional_parameter_base@_WV?$string_output_adapter@_W@__crt_stdio_output@@@__crt_stdio_output@@IAE_NAAPAD@Z 1002968f f i libucrt:output.obj
 0001:0002871e       ??$extract_argument_from_va_list@PADPAD@?$standard_base@DV?$stream_output_adapter@D@__crt_stdio_output@@@__crt_stdio_output@@IAE_NAAPAD@Z 1002971e f i libucrt:output.obj
 0001:0002873b       ??$extract_argument_from_va_list@PADPAD@?$standard_base@DV?$string_output_adapter@D@__crt_stdio_output@@@__crt_stdio_output@@IAE_NAAPAD@Z 1002973b f i libucrt:output.obj
 0001:00028758       ??$extract_argument_from_va_list@PADPAD@?$standard_base@_WV?$stream_output_adapter@_W@__crt_stdio_output@@@__crt_stdio_output@@IAE_NAAPAD@Z 10029758 f i libucrt:output.obj
 0001:00028775       ??$extract_argument_from_va_list@PADPAD@?$standard_base@_WV?$string_output_adapter@_W@__crt_stdio_output@@@__crt_stdio_output@@IAE_NAAPAD@Z 10029775 f i libucrt:output.obj
 0001:00028792       ??$extract_argument_from_va_list@PAUansi_string@?1??type_case_Z@?$output_processor@DV?$stream_output_adapter@D@__crt_stdio_output@@V?$format_validation_base@DV?$stream_output_adapter@D@__crt_stdio_output@@@2@@__crt_stdio_output@@AAE_NXZ@PAU1?1??234@AAE_NXZ@@?$standard_base@DV?$stream_output_adapter@D@__crt_stdio_output@@@__crt_stdio_output@@IAE_NAAPAUansi_string@?1??type_case_Z@?$output_processor@DV?$stream_output_adapter@D@__crt_stdio_output@@V?$format_validation_base@DV?$stream_output_adapter@D@__crt_stdio_output@@@2@@1@AAE_NXZ@@Z 10029792 f i libucrt:output.obj
 0001:000287af       ??$extract_argument_from_va_list@PAUansi_string@?1??type_case_Z@?$output_processor@DV?$stream_output_adapter@D@__crt_stdio_output@@V?$positional_parameter_base@DV?$stream_output_adapter@D@__crt_stdio_output@@@2@@__crt_stdio_output@@AAE_NXZ@PAU1?1??234@AAE_NXZ@@?$positional_parameter_base@DV?$stream_output_adapter@D@__crt_stdio_output@@@__crt_stdio_output@@IAE_NAAPAUansi_string@?1??type_case_Z@?$output_processor@DV?$stream_output_adapter@D@__crt_stdio_output@@V?$positional_parameter_base@DV?$stream_output_adapter@D@__crt_stdio_output@@@2@@1@AAE_NXZ@@Z 100297af f i libucrt:output.obj
 0001:0002883d       ??$extract_argument_from_va_list@PAUansi_string@?1??type_case_Z@?$output_processor@DV?$stream_output_adapter@D@__crt_stdio_output@@V?$positional_parameter_base@DV?$stream_output_adapter@D@__crt_stdio_output@@@2@@__crt_stdio_output@@AAE_NXZ@PAU1?1??234@AAE_NXZ@@?$standard_base@DV?$stream_output_adapter@D@__crt_stdio_output@@@__crt_stdio_output@@IAE_NAAPAUansi_string@?1??type_case_Z@?$output_processor@DV?$stream_output_adapter@D@__crt_stdio_output@@V?$positional_parameter_base@DV?$stream_output_adapter@D@__crt_stdio_output@@@2@@1@AAE_NXZ@@Z 1002983d f i libucrt:output.obj
 0001:0002885a       ??$extract_argument_from_va_list@PAUansi_string@?1??type_case_Z@?$output_processor@DV?$stream_output_adapter@D@__crt_stdio_output@@V?$standard_base@DV?$stream_output_adapter@D@__crt_stdio_output@@@2@@__crt_stdio_output@@AAE_NXZ@PAU1?1??234@AAE_NXZ@@?$standard_base@DV?$stream_output_adapter@D@__crt_stdio_output@@@__crt_stdio_output@@IAE_NAAPAUansi_string@?1??type_case_Z@?$output_processor@DV?$stream_output_adapter@D@__crt_stdio_output@@V?$standard_base@DV?$stream_output_adapter@D@__crt_stdio_output@@@2@@1@AAE_NXZ@@Z 1002985a f i libucrt:output.obj
 0001:00028877       ??$extract_argument_from_va_list@PAUansi_string@?1??type_case_Z@?$output_processor@DV?$string_output_adapter@D@__crt_stdio_output@@V?$format_validation_base@DV?$string_output_adapter@D@__crt_stdio_output@@@2@@__crt_stdio_output@@AAE_NXZ@PAU1?1??234@AAE_NXZ@@?$standard_base@DV?$string_output_adapter@D@__crt_stdio_output@@@__crt_stdio_output@@IAE_NAAPAUansi_string@?1??type_case_Z@?$output_processor@DV?$string_output_adapter@D@__crt_stdio_output@@V?$format_validation_base@DV?$string_output_adapter@D@__crt_stdio_output@@@2@@1@AAE_NXZ@@Z 10029877 f i libucrt:output.obj
 0001:00028894       ??$extract_argument_from_va_list@PAUansi_string@?1??type_case_Z@?$output_processor@DV?$string_output_adapter@D@__crt_stdio_output@@V?$positional_parameter_base@DV?$string_output_adapter@D@__crt_stdio_output@@@2@@__crt_stdio_output@@AAE_NXZ@PAU1?1??234@AAE_NXZ@@?$positional_parameter_base@DV?$string_output_adapter@D@__crt_stdio_output@@@__crt_stdio_output@@IAE_NAAPAUansi_string@?1??type_case_Z@?$output_processor@DV?$string_output_adapter@D@__crt_stdio_output@@V?$positional_parameter_base@DV?$string_output_adapter@D@__crt_stdio_output@@@2@@1@AAE_NXZ@@Z 10029894 f i libucrt:output.obj
 0001:00028922       ??$extract_argument_from_va_list@PAUansi_string@?1??type_case_Z@?$output_processor@DV?$string_output_adapter@D@__crt_stdio_output@@V?$positional_parameter_base@DV?$string_output_adapter@D@__crt_stdio_output@@@2@@__crt_stdio_output@@AAE_NXZ@PAU1?1??234@AAE_NXZ@@?$standard_base@DV?$string_output_adapter@D@__crt_stdio_output@@@__crt_stdio_output@@IAE_NAAPAUansi_string@?1??type_case_Z@?$output_processor@DV?$string_output_adapter@D@__crt_stdio_output@@V?$positional_parameter_base@DV?$string_output_adapter@D@__crt_stdio_output@@@2@@1@AAE_NXZ@@Z 10029922 f i libucrt:output.obj
 0001:0002893f       ??$extract_argument_from_va_list@PAUansi_string@?1??type_case_Z@?$output_processor@DV?$string_output_adapter@D@__crt_stdio_output@@V?$standard_base@DV?$string_output_adapter@D@__crt_stdio_output@@@2@@__crt_stdio_output@@AAE_NXZ@PAU1?1??234@AAE_NXZ@@?$standard_base@DV?$string_output_adapter@D@__crt_stdio_output@@@__crt_stdio_output@@IAE_NAAPAUansi_string@?1??type_case_Z@?$output_processor@DV?$string_output_adapter@D@__crt_stdio_output@@V?$standard_base@DV?$string_output_adapter@D@__crt_stdio_output@@@2@@1@AAE_NXZ@@Z 1002993f f i libucrt:output.obj
 0001:0002895c       ??$extract_argument_from_va_list@PAUansi_string@?1??type_case_Z@?$output_processor@_WV?$stream_output_adapter@_W@__crt_stdio_output@@V?$format_validation_base@_WV?$stream_output_adapter@_W@__crt_stdio_output@@@2@@__crt_stdio_output@@AAE_NXZ@PAU1?1??234@AAE_NXZ@@?$standard_base@_WV?$stream_output_adapter@_W@__crt_stdio_output@@@__crt_stdio_output@@IAE_NAAPAUansi_string@?1??type_case_Z@?$output_processor@_WV?$stream_output_adapter@_W@__crt_stdio_output@@V?$format_validation_base@_WV?$stream_output_adapter@_W@__crt_stdio_output@@@2@@1@AAE_NXZ@@Z 1002995c f i libucrt:output.obj
 0001:00028979       ??$extract_argument_from_va_list@PAUansi_string@?1??type_case_Z@?$output_processor@_WV?$stream_output_adapter@_W@__crt_stdio_output@@V?$positional_parameter_base@_WV?$stream_output_adapter@_W@__crt_stdio_output@@@2@@__crt_stdio_output@@AAE_NXZ@PAU1?1??234@AAE_NXZ@@?$positional_parameter_base@_WV?$stream_output_adapter@_W@__crt_stdio_output@@@__crt_stdio_output@@IAE_NAAPAUansi_string@?1??type_case_Z@?$output_processor@_WV?$stream_output_adapter@_W@__crt_stdio_output@@V?$positional_parameter_base@_WV?$stream_output_adapter@_W@__crt_stdio_output@@@2@@1@AAE_NXZ@@Z 10029979 f i libucrt:output.obj
 0001:00028a08       ??$extract_argument_from_va_list@PAUansi_string@?1??type_case_Z@?$output_processor@_WV?$stream_output_adapter@_W@__crt_stdio_output@@V?$positional_parameter_base@_WV?$stream_output_adapter@_W@__crt_stdio_output@@@2@@__crt_stdio_output@@AAE_NXZ@PAU1?1??234@AAE_NXZ@@?$standard_base@_WV?$stream_output_adapter@_W@__crt_stdio_output@@@__crt_stdio_output@@IAE_NAAPAUansi_string@?1??type_case_Z@?$output_processor@_WV?$stream_output_adapter@_W@__crt_stdio_output@@V?$positional_parameter_base@_WV?$stream_output_adapter@_W@__crt_stdio_output@@@2@@1@AAE_NXZ@@Z 10029a08 f i libucrt:output.obj
 0001:00028a25       ??$extract_argument_from_va_list@PAUansi_string@?1??type_case_Z@?$output_processor@_WV?$stream_output_adapter@_W@__crt_stdio_output@@V?$standard_base@_WV?$stream_output_adapter@_W@__crt_stdio_output@@@2@@__crt_stdio_output@@AAE_NXZ@PAU1?1??234@AAE_NXZ@@?$standard_base@_WV?$stream_output_adapter@_W@__crt_stdio_output@@@__crt_stdio_output@@IAE_NAAPAUansi_string@?1??type_case_Z@?$output_processor@_WV?$stream_output_adapter@_W@__crt_stdio_output@@V?$standard_base@_WV?$stream_output_adapter@_W@__crt_stdio_output@@@2@@1@AAE_NXZ@@Z 10029a25 f i libucrt:output.obj
 0001:00028a42       ??$extract_argument_from_va_list@PAUansi_string@?1??type_case_Z@?$output_processor@_WV?$string_output_adapter@_W@__crt_stdio_output@@V?$format_validation_base@_WV?$string_output_adapter@_W@__crt_stdio_output@@@2@@__crt_stdio_output@@AAE_NXZ@PAU1?1??234@AAE_NXZ@@?$standard_base@_WV?$string_output_adapter@_W@__crt_stdio_output@@@__crt_stdio_output@@IAE_NAAPAUansi_string@?1??type_case_Z@?$output_processor@_WV?$string_output_adapter@_W@__crt_stdio_output@@V?$format_validation_base@_WV?$string_output_adapter@_W@__crt_stdio_output@@@2@@1@AAE_NXZ@@Z 10029a42 f i libucrt:output.obj
 0001:00028a5f       ??$extract_argument_from_va_list@PAUansi_string@?1??type_case_Z@?$output_processor@_WV?$string_output_adapter@_W@__crt_stdio_output@@V?$positional_parameter_base@_WV?$string_output_adapter@_W@__crt_stdio_output@@@2@@__crt_stdio_output@@AAE_NXZ@PAU1?1??234@AAE_NXZ@@?$positional_parameter_base@_WV?$string_output_adapter@_W@__crt_stdio_output@@@__crt_stdio_output@@IAE_NAAPAUansi_string@?1??type_case_Z@?$output_processor@_WV?$string_output_adapter@_W@__crt_stdio_output@@V?$positional_parameter_base@_WV?$string_output_adapter@_W@__crt_stdio_output@@@2@@1@AAE_NXZ@@Z 10029a5f f i libucrt:output.obj
 0001:00028aee       ??$extract_argument_from_va_list@PAUansi_string@?1??type_case_Z@?$output_processor@_WV?$string_output_adapter@_W@__crt_stdio_output@@V?$positional_parameter_base@_WV?$string_output_adapter@_W@__crt_stdio_output@@@2@@__crt_stdio_output@@AAE_NXZ@PAU1?1??234@AAE_NXZ@@?$standard_base@_WV?$string_output_adapter@_W@__crt_stdio_output@@@__crt_stdio_output@@IAE_NAAPAUansi_string@?1??type_case_Z@?$output_processor@_WV?$string_output_adapter@_W@__crt_stdio_output@@V?$positional_parameter_base@_WV?$string_output_adapter@_W@__crt_stdio_output@@@2@@1@AAE_NXZ@@Z 10029aee f i libucrt:output.obj
 0001:00028b0b       ??$extract_argument_from_va_list@PAUansi_string@?1??type_case_Z@?$output_processor@_WV?$string_output_adapter@_W@__crt_stdio_output@@V?$standard_base@_WV?$string_output_adapter@_W@__crt_stdio_output@@@2@@__crt_stdio_output@@AAE_NXZ@PAU1?1??234@AAE_NXZ@@?$standard_base@_WV?$string_output_adapter@_W@__crt_stdio_output@@@__crt_stdio_output@@IAE_NAAPAUansi_string@?1??type_case_Z@?$output_processor@_WV?$string_output_adapter@_W@__crt_stdio_output@@V?$standard_base@_WV?$string_output_adapter@_W@__crt_stdio_output@@@2@@1@AAE_NXZ@@Z 10029b0b f i libucrt:output.obj
 0001:00028b28       ??$extract_argument_from_va_list@PAXPAX@?$positional_parameter_base@DV?$stream_output_adapter@D@__crt_stdio_output@@@__crt_stdio_output@@IAE_NAAPAX@Z 10029b28 f i libucrt:output.obj
 0001:00028bb6       ??$extract_argument_from_va_list@PAXPAX@?$positional_parameter_base@DV?$string_output_adapter@D@__crt_stdio_output@@@__crt_stdio_output@@IAE_NAAPAX@Z 10029bb6 f i libucrt:output.obj
 0001:00028c44       ??$extract_argument_from_va_list@PAXPAX@?$positional_parameter_base@_WV?$stream_output_adapter@_W@__crt_stdio_output@@@__crt_stdio_output@@IAE_NAAPAX@Z 10029c44 f i libucrt:output.obj
 0001:00028cd3       ??$extract_argument_from_va_list@PAXPAX@?$positional_parameter_base@_WV?$string_output_adapter@_W@__crt_stdio_output@@@__crt_stdio_output@@IAE_NAAPAX@Z 10029cd3 f i libucrt:output.obj
 0001:00028d62       ??$extract_argument_from_va_list@PAXPAX@?$standard_base@DV?$stream_output_adapter@D@__crt_stdio_output@@@__crt_stdio_output@@IAE_NAAPAX@Z 10029d62 f i libucrt:output.obj
 0001:00028d7f       ??$extract_argument_from_va_list@PAXPAX@?$standard_base@DV?$string_output_adapter@D@__crt_stdio_output@@@__crt_stdio_output@@IAE_NAAPAX@Z 10029d7f f i libucrt:output.obj
 0001:00028d9c       ??$extract_argument_from_va_list@PAXPAX@?$standard_base@_WV?$stream_output_adapter@_W@__crt_stdio_output@@@__crt_stdio_output@@IAE_NAAPAX@Z 10029d9c f i libucrt:output.obj
 0001:00028db9       ??$extract_argument_from_va_list@PAXPAX@?$standard_base@_WV?$string_output_adapter@_W@__crt_stdio_output@@@__crt_stdio_output@@IAE_NAAPAX@Z 10029db9 f i libucrt:output.obj
 0001:00028dd6       ??$extract_argument_from_va_list@U_CRT_DOUBLE@@U1@@?$positional_parameter_base@DV?$stream_output_adapter@D@__crt_stdio_output@@@__crt_stdio_output@@IAE_NAAU_CRT_DOUBLE@@@Z 10029dd6 f i libucrt:output.obj
 0001:00028e6c       ??$extract_argument_from_va_list@U_CRT_DOUBLE@@U1@@?$positional_parameter_base@DV?$string_output_adapter@D@__crt_stdio_output@@@__crt_stdio_output@@IAE_NAAU_CRT_DOUBLE@@@Z 10029e6c f i libucrt:output.obj
 0001:00028f02       ??$extract_argument_from_va_list@U_CRT_DOUBLE@@U1@@?$positional_parameter_base@_WV?$stream_output_adapter@_W@__crt_stdio_output@@@__crt_stdio_output@@IAE_NAAU_CRT_DOUBLE@@@Z 10029f02 f i libucrt:output.obj
 0001:00028f99       ??$extract_argument_from_va_list@U_CRT_DOUBLE@@U1@@?$positional_parameter_base@_WV?$string_output_adapter@_W@__crt_stdio_output@@@__crt_stdio_output@@IAE_NAAU_CRT_DOUBLE@@@Z 10029f99 f i libucrt:output.obj
 0001:00029030       ??$extract_argument_from_va_list@U_CRT_DOUBLE@@U1@@?$standard_base@DV?$stream_output_adapter@D@__crt_stdio_output@@@__crt_stdio_output@@IAE_NAAU_CRT_DOUBLE@@@Z 1002a030 f i libucrt:output.obj
 0001:00029051       ??$extract_argument_from_va_list@U_CRT_DOUBLE@@U1@@?$standard_base@DV?$string_output_adapter@D@__crt_stdio_output@@@__crt_stdio_output@@IAE_NAAU_CRT_DOUBLE@@@Z 1002a051 f i libucrt:output.obj
 0001:00029072       ??$extract_argument_from_va_list@U_CRT_DOUBLE@@U1@@?$standard_base@_WV?$stream_output_adapter@_W@__crt_stdio_output@@@__crt_stdio_output@@IAE_NAAU_CRT_DOUBLE@@@Z 1002a072 f i libucrt:output.obj
 0001:00029093       ??$extract_argument_from_va_list@U_CRT_DOUBLE@@U1@@?$standard_base@_WV?$string_output_adapter@_W@__crt_stdio_output@@@__crt_stdio_output@@IAE_NAAU_CRT_DOUBLE@@@Z 1002a093 f i libucrt:output.obj
 0001:000290b4       ??$extract_argument_from_va_list@_J_J@?$positional_parameter_base@DV?$stream_output_adapter@D@__crt_stdio_output@@@__crt_stdio_output@@IAE_NAA_J@Z 1002a0b4 f i libucrt:output.obj
 0001:0002914e       ??$extract_argument_from_va_list@_J_J@?$positional_parameter_base@DV?$string_output_adapter@D@__crt_stdio_output@@@__crt_stdio_output@@IAE_NAA_J@Z 1002a14e f i libucrt:output.obj
 0001:000291e8       ??$extract_argument_from_va_list@_J_J@?$positional_parameter_base@_WV?$stream_output_adapter@_W@__crt_stdio_output@@@__crt_stdio_output@@IAE_NAA_J@Z 1002a1e8 f i libucrt:output.obj
 0001:00029283       ??$extract_argument_from_va_list@_J_J@?$positional_parameter_base@_WV?$string_output_adapter@_W@__crt_stdio_output@@@__crt_stdio_output@@IAE_NAA_J@Z 1002a283 f i libucrt:output.obj
 0001:0002931e       ??$extract_argument_from_va_list@_J_J@?$standard_base@DV?$stream_output_adapter@D@__crt_stdio_output@@@__crt_stdio_output@@IAE_NAA_J@Z 1002a31e f i libucrt:output.obj
 0001:0002933f       ??$extract_argument_from_va_list@_J_J@?$standard_base@DV?$string_output_adapter@D@__crt_stdio_output@@@__crt_stdio_output@@IAE_NAA_J@Z 1002a33f f i libucrt:output.obj
 0001:00029360       ??$extract_argument_from_va_list@_J_J@?$standard_base@_WV?$stream_output_adapter@_W@__crt_stdio_output@@@__crt_stdio_output@@IAE_NAA_J@Z 1002a360 f i libucrt:output.obj
 0001:00029381       ??$extract_argument_from_va_list@_J_J@?$standard_base@_WV?$string_output_adapter@_W@__crt_stdio_output@@@__crt_stdio_output@@IAE_NAA_J@Z 1002a381 f i libucrt:output.obj
 0001:000293a2       ??$extract_argument_from_va_list@_K_J@?$positional_parameter_base@DV?$stream_output_adapter@D@__crt_stdio_output@@@__crt_stdio_output@@IAE_NAA_J@Z 1002a3a2 f i libucrt:output.obj
 0001:0002943c       ??$extract_argument_from_va_list@_K_J@?$positional_parameter_base@DV?$string_output_adapter@D@__crt_stdio_output@@@__crt_stdio_output@@IAE_NAA_J@Z 1002a43c f i libucrt:output.obj
 0001:000294d6       ??$extract_argument_from_va_list@_K_J@?$positional_parameter_base@_WV?$stream_output_adapter@_W@__crt_stdio_output@@@__crt_stdio_output@@IAE_NAA_J@Z 1002a4d6 f i libucrt:output.obj
 0001:00029571       ??$extract_argument_from_va_list@_K_J@?$positional_parameter_base@_WV?$string_output_adapter@_W@__crt_stdio_output@@@__crt_stdio_output@@IAE_NAA_J@Z 1002a571 f i libucrt:output.obj
 0001:0002960c       ??$extract_argument_from_va_list@_K_J@?$standard_base@DV?$stream_output_adapter@D@__crt_stdio_output@@@__crt_stdio_output@@IAE_NAA_J@Z 1002a60c f i libucrt:output.obj
 0001:0002962d       ??$extract_argument_from_va_list@_K_J@?$standard_base@DV?$string_output_adapter@D@__crt_stdio_output@@@__crt_stdio_output@@IAE_NAA_J@Z 1002a62d f i libucrt:output.obj
 0001:0002964e       ??$extract_argument_from_va_list@_K_J@?$standard_base@_WV?$stream_output_adapter@_W@__crt_stdio_output@@@__crt_stdio_output@@IAE_NAA_J@Z 1002a64e f i libucrt:output.obj
 0001:0002966f       ??$extract_argument_from_va_list@_K_J@?$standard_base@_WV?$string_output_adapter@_W@__crt_stdio_output@@@__crt_stdio_output@@IAE_NAA_J@Z 1002a66f f i libucrt:output.obj
 0001:00029690       ??$extract_argument_from_va_list@_W_W@?$positional_parameter_base@DV?$stream_output_adapter@D@__crt_stdio_output@@@__crt_stdio_output@@IAE_NAA_W@Z 1002a690 f i libucrt:output.obj
 0001:00029722       ??$extract_argument_from_va_list@_W_W@?$positional_parameter_base@DV?$string_output_adapter@D@__crt_stdio_output@@@__crt_stdio_output@@IAE_NAA_W@Z 1002a722 f i libucrt:output.obj
 0001:000297b4       ??$extract_argument_from_va_list@_W_W@?$positional_parameter_base@_WV?$stream_output_adapter@_W@__crt_stdio_output@@@__crt_stdio_output@@IAE_NAA_W@Z 1002a7b4 f i libucrt:output.obj
 0001:00029847       ??$extract_argument_from_va_list@_W_W@?$positional_parameter_base@_WV?$string_output_adapter@_W@__crt_stdio_output@@@__crt_stdio_output@@IAE_NAA_W@Z 1002a847 f i libucrt:output.obj
 0001:000298da       ??$extract_argument_from_va_list@_W_W@?$standard_base@DV?$stream_output_adapter@D@__crt_stdio_output@@@__crt_stdio_output@@IAE_NAA_W@Z 1002a8da f i libucrt:output.obj
 0001:000298f7       ??$extract_argument_from_va_list@_W_W@?$standard_base@DV?$string_output_adapter@D@__crt_stdio_output@@@__crt_stdio_output@@IAE_NAA_W@Z 1002a8f7 f i libucrt:output.obj
 0001:00029914       ??$extract_argument_from_va_list@_W_W@?$standard_base@_WV?$stream_output_adapter@_W@__crt_stdio_output@@@__crt_stdio_output@@IAE_NAA_W@Z 1002a914 f i libucrt:output.obj
 0001:00029931       ??$extract_argument_from_va_list@_W_W@?$standard_base@_WV?$string_output_adapter@_W@__crt_stdio_output@@@__crt_stdio_output@@IAE_NAA_W@Z 1002a931 f i libucrt:output.obj
 0001:0002994e       ??$get_parameter_type@D@?$positional_parameter_base@DV?$stream_output_adapter@D@__crt_stdio_output@@@__crt_stdio_output@@CA?AW4parameter_type@01@PAD@Z 1002a94e f i libucrt:output.obj
 0001:00029952       ??$get_parameter_type@D@?$positional_parameter_base@DV?$string_output_adapter@D@__crt_stdio_output@@@__crt_stdio_output@@CA?AW4parameter_type@01@PAD@Z 1002a952 f i libucrt:output.obj
 0001:00029956       ??$get_parameter_type@D@?$positional_parameter_base@_WV?$stream_output_adapter@_W@__crt_stdio_output@@@__crt_stdio_output@@CA?AW4parameter_type@01@PAD@Z 1002a956 f i libucrt:output.obj
 0001:0002995a       ??$get_parameter_type@D@?$positional_parameter_base@_WV?$string_output_adapter@_W@__crt_stdio_output@@@__crt_stdio_output@@CA?AW4parameter_type@01@PAD@Z 1002a95a f i libucrt:output.obj
 0001:0002995e       ??$get_parameter_type@Uansi_string@?1??type_case_Z@?$output_processor@DV?$stream_output_adapter@D@__crt_stdio_output@@V?$positional_parameter_base@DV?$stream_output_adapter@D@__crt_stdio_output@@@2@@__crt_stdio_output@@AAE_NXZ@@?$positional_parameter_base@DV?$stream_output_adapter@D@__crt_stdio_output@@@__crt_stdio_output@@CA?AW4parameter_type@01@PAUansi_string@?1??type_case_Z@?$output_processor@DV?$stream_output_adapter@D@__crt_stdio_output@@V?$positional_parameter_base@DV?$stream_output_adapter@D@__crt_stdio_output@@@2@@1@AAE_NXZ@@Z 1002a95e f i libucrt:output.obj
 0001:00029962       ??$get_parameter_type@Uansi_string@?1??type_case_Z@?$output_processor@DV?$string_output_adapter@D@__crt_stdio_output@@V?$positional_parameter_base@DV?$string_output_adapter@D@__crt_stdio_output@@@2@@__crt_stdio_output@@AAE_NXZ@@?$positional_parameter_base@DV?$string_output_adapter@D@__crt_stdio_output@@@__crt_stdio_output@@CA?AW4parameter_type@01@PAUansi_string@?1??type_case_Z@?$output_processor@DV?$string_output_adapter@D@__crt_stdio_output@@V?$positional_parameter_base@DV?$string_output_adapter@D@__crt_stdio_output@@@2@@1@AAE_NXZ@@Z 1002a962 f i libucrt:output.obj
 0001:00029966       ??$get_parameter_type@Uansi_string@?1??type_case_Z@?$output_processor@_WV?$stream_output_adapter@_W@__crt_stdio_output@@V?$positional_parameter_base@_WV?$stream_output_adapter@_W@__crt_stdio_output@@@2@@__crt_stdio_output@@AAE_NXZ@@?$positional_parameter_base@_WV?$stream_output_adapter@_W@__crt_stdio_output@@@__crt_stdio_output@@CA?AW4parameter_type@01@PAUansi_string@?1??type_case_Z@?$output_processor@_WV?$stream_output_adapter@_W@__crt_stdio_output@@V?$positional_parameter_base@_WV?$stream_output_adapter@_W@__crt_stdio_output@@@2@@1@AAE_NXZ@@Z 1002a966 f i libucrt:output.obj
 0001:0002996a       ??$get_parameter_type@Uansi_string@?1??type_case_Z@?$output_processor@_WV?$string_output_adapter@_W@__crt_stdio_output@@V?$positional_parameter_base@_WV?$string_output_adapter@_W@__crt_stdio_output@@@2@@__crt_stdio_output@@AAE_NXZ@@?$positional_parameter_base@_WV?$string_output_adapter@_W@__crt_stdio_output@@@__crt_stdio_output@@CA?AW4parameter_type@01@PAUansi_string@?1??type_case_Z@?$output_processor@_WV?$string_output_adapter@_W@__crt_stdio_output@@V?$positional_parameter_base@_WV?$string_output_adapter@_W@__crt_stdio_output@@@2@@1@AAE_NXZ@@Z 1002a96a f i libucrt:output.obj
 0001:0002996e       ??$get_parameter_type@X@?$positional_parameter_base@DV?$stream_output_adapter@D@__crt_stdio_output@@@__crt_stdio_output@@CA?AW4parameter_type@01@PAX@Z 1002a96e f i libucrt:output.obj
 0001:00029972       ??$get_parameter_type@X@?$positional_parameter_base@DV?$string_output_adapter@D@__crt_stdio_output@@@__crt_stdio_output@@CA?AW4parameter_type@01@PAX@Z 1002a972 f i libucrt:output.obj
 0001:00029976       ??$get_parameter_type@X@?$positional_parameter_base@_WV?$stream_output_adapter@_W@__crt_stdio_output@@@__crt_stdio_output@@CA?AW4parameter_type@01@PAX@Z 1002a976 f i libucrt:output.obj
 0001:0002997a       ??$get_parameter_type@X@?$positional_parameter_base@_WV?$string_output_adapter@_W@__crt_stdio_output@@@__crt_stdio_output@@CA?AW4parameter_type@01@PAX@Z 1002a97a f i libucrt:output.obj
 0001:0002997e       ??$is_character_specifier@D@?$positional_parameter_base@DV?$stream_output_adapter@D@__crt_stdio_output@@@__crt_stdio_output@@CA_ND@Z 1002a97e f i libucrt:output.obj
 0001:00029996       ??$is_character_specifier@D@?$positional_parameter_base@DV?$string_output_adapter@D@__crt_stdio_output@@@__crt_stdio_output@@CA_ND@Z 1002a996 f i libucrt:output.obj
 0001:000299ae       ??$is_character_specifier@_W@?$positional_parameter_base@_WV?$stream_output_adapter@_W@__crt_stdio_output@@@__crt_stdio_output@@CA_N_W@Z 1002a9ae f i libucrt:output.obj
 0001:000299c9       ??$is_character_specifier@_W@?$positional_parameter_base@_WV?$string_output_adapter@_W@__crt_stdio_output@@@__crt_stdio_output@@CA_N_W@Z 1002a9c9 f i libucrt:output.obj
 0001:000299e4       ??$is_integral_specifier@D@?$positional_parameter_base@DV?$stream_output_adapter@D@__crt_stdio_output@@@__crt_stdio_output@@CA_ND@Z 1002a9e4 f i libucrt:output.obj
 0001:00029a10       ??$is_integral_specifier@D@?$positional_parameter_base@DV?$string_output_adapter@D@__crt_stdio_output@@@__crt_stdio_output@@CA_ND@Z 1002aa10 f i libucrt:output.obj
 0001:00029a3c       ??$is_integral_specifier@_W@?$positional_parameter_base@_WV?$stream_output_adapter@_W@__crt_stdio_output@@@__crt_stdio_output@@CA_N_W@Z 1002aa3c f i libucrt:output.obj
 0001:00029a77       ??$is_integral_specifier@_W@?$positional_parameter_base@_WV?$string_output_adapter@_W@__crt_stdio_output@@@__crt_stdio_output@@CA_N_W@Z 1002aa77 f i libucrt:output.obj
 0001:00029ab2       ??$is_pointer_specifier@D@?$positional_parameter_base@DV?$stream_output_adapter@D@__crt_stdio_output@@@__crt_stdio_output@@CA_ND@Z 1002aab2 f i libucrt:output.obj
 0001:00029ac0       ??$is_pointer_specifier@D@?$positional_parameter_base@DV?$string_output_adapter@D@__crt_stdio_output@@@__crt_stdio_output@@CA_ND@Z 1002aac0 f i libucrt:output.obj
 0001:00029ace       ??$is_pointer_specifier@_W@?$positional_parameter_base@_WV?$stream_output_adapter@_W@__crt_stdio_output@@@__crt_stdio_output@@CA_N_W@Z 1002aace f i libucrt:output.obj
 0001:00029add       ??$is_pointer_specifier@_W@?$positional_parameter_base@_WV?$string_output_adapter@_W@__crt_stdio_output@@@__crt_stdio_output@@CA_N_W@Z 1002aadd f i libucrt:output.obj
 0001:00029aec       ??$is_string_specifier@D@?$positional_parameter_base@DV?$stream_output_adapter@D@__crt_stdio_output@@@__crt_stdio_output@@CA_ND@Z 1002aaec f i libucrt:output.obj
 0001:00029b04       ??$is_string_specifier@D@?$positional_parameter_base@DV?$string_output_adapter@D@__crt_stdio_output@@@__crt_stdio_output@@CA_ND@Z 1002ab04 f i libucrt:output.obj
 0001:00029b1c       ??$is_string_specifier@_W@?$positional_parameter_base@_WV?$stream_output_adapter@_W@__crt_stdio_output@@@__crt_stdio_output@@CA_N_W@Z 1002ab1c f i libucrt:output.obj
 0001:00029b37       ??$is_string_specifier@_W@?$positional_parameter_base@_WV?$string_output_adapter@_W@__crt_stdio_output@@@__crt_stdio_output@@CA_N_W@Z 1002ab37 f i libucrt:output.obj
 0001:00029b52       ??$is_wide_character_specifier@D@__crt_stdio_output@@YA_N_KDW4length_modifier@0@@Z 1002ab52 f i libucrt:output.obj
 0001:00029b83       ??$is_wide_character_specifier@_W@__crt_stdio_output@@YA_N_K_WW4length_modifier@0@@Z 1002ab83 f i libucrt:output.obj
 0001:00029bd1       ??$make_c_string_character_source@DPAPAD@__crt_strtox@@YA?AV?$c_string_character_source@D@0@QBDQAPAD@Z 1002abd1 f i libucrt:output.obj
 0001:00029bec       ??$make_c_string_character_source@_WPAPA_W@__crt_strtox@@YA?AV?$c_string_character_source@_W@0@QB_WQAPA_W@Z 1002abec f i libucrt:output.obj
 0001:00029c07       ??$parse_integer@KV?$c_string_character_source@D@__crt_strtox@@$0A@@__crt_strtox@@YAKAAV__crt_cached_ptd_host@@V?$c_string_character_source@D@0@H_N@Z 1002ac07 f i libucrt:output.obj
 0001:00029e16       ??$parse_integer@KV?$c_string_character_source@_W@__crt_strtox@@$0A@@__crt_strtox@@YAKAAV__crt_cached_ptd_host@@V?$c_string_character_source@_W@0@H_N@Z 1002ae16 f i libucrt:output.obj
 0001:0002a3e9       ??$peek_va_arg@C@__crt_stdio_output@@YACPAD@Z 1002b3e9 f i libucrt:output.obj
 0001:0002a3f5       ??$peek_va_arg@E@__crt_stdio_output@@YAEPAD@Z 1002b3f5 f i libucrt:output.obj
 0001:0002a401       ??$peek_va_arg@F@__crt_stdio_output@@YAFPAD@Z 1002b401 f i libucrt:output.obj
 0001:0002a40e       ??$peek_va_arg@G@__crt_stdio_output@@YAGPAD@Z 1002b40e f i libucrt:output.obj
 0001:0002a41b       ??$peek_va_arg@H@__crt_stdio_output@@YAHPAD@Z 1002b41b f i libucrt:output.obj
 0001:0002a427       ??$peek_va_arg@I@__crt_stdio_output@@YAIPAD@Z 1002b427 f i libucrt:output.obj
 0001:0002a433       ??$peek_va_arg@PAD@__crt_stdio_output@@YAPADPAD@Z 1002b433 f i libucrt:output.obj
 0001:0002a43f       ??$peek_va_arg@PAUansi_string@?1??type_case_Z@?$output_processor@DV?$stream_output_adapter@D@__crt_stdio_output@@V?$positional_parameter_base@DV?$stream_output_adapter@D@__crt_stdio_output@@@2@@__crt_stdio_output@@AAE_NXZ@@__crt_stdio_output@@YAPAUansi_string@?1??type_case_Z@?$output_processor@DV?$stream_output_adapter@D@__crt_stdio_output@@V?$positional_parameter_base@DV?$stream_output_adapter@D@__crt_stdio_output@@@2@@0@AAE_NXZ@PAD@Z 1002b43f f i libucrt:output.obj
 0001:0002a44b       ??$peek_va_arg@PAUansi_string@?1??type_case_Z@?$output_processor@DV?$string_output_adapter@D@__crt_stdio_output@@V?$positional_parameter_base@DV?$string_output_adapter@D@__crt_stdio_output@@@2@@__crt_stdio_output@@AAE_NXZ@@__crt_stdio_output@@YAPAUansi_string@?1??type_case_Z@?$output_processor@DV?$string_output_adapter@D@__crt_stdio_output@@V?$positional_parameter_base@DV?$string_output_adapter@D@__crt_stdio_output@@@2@@0@AAE_NXZ@PAD@Z 1002b44b f i libucrt:output.obj
 0001:0002a457       ??$peek_va_arg@PAUansi_string@?1??type_case_Z@?$output_processor@_WV?$stream_output_adapter@_W@__crt_stdio_output@@V?$positional_parameter_base@_WV?$stream_output_adapter@_W@__crt_stdio_output@@@2@@__crt_stdio_output@@AAE_NXZ@@__crt_stdio_output@@YAPAUansi_string@?1??type_case_Z@?$output_processor@_WV?$stream_output_adapter@_W@__crt_stdio_output@@V?$positional_parameter_base@_WV?$stream_output_adapter@_W@__crt_stdio_output@@@2@@0@AAE_NXZ@PAD@Z 1002b457 f i libucrt:output.obj
 0001:0002a463       ??$peek_va_arg@PAUansi_string@?1??type_case_Z@?$output_processor@_WV?$string_output_adapter@_W@__crt_stdio_output@@V?$positional_parameter_base@_WV?$string_output_adapter@_W@__crt_stdio_output@@@2@@__crt_stdio_output@@AAE_NXZ@@__crt_stdio_output@@YAPAUansi_string@?1??type_case_Z@?$output_processor@_WV?$string_output_adapter@_W@__crt_stdio_output@@V?$positional_parameter_base@_WV?$string_output_adapter@_W@__crt_stdio_output@@@2@@0@AAE_NXZ@PAD@Z 1002b463 f i libucrt:output.obj
 0001:0002a46f       ??$peek_va_arg@PAX@__crt_stdio_output@@YAPAXPAD@Z 1002b46f f i libucrt:output.obj
 0001:0002a47b       ??$peek_va_arg@U_CRT_DOUBLE@@@__crt_stdio_output@@YA?AU_CRT_DOUBLE@@PAD@Z 1002b47b f i libucrt:output.obj
 0001:0002a48a       ??$peek_va_arg@_J@__crt_stdio_output@@YA_JPAD@Z 1002b48a f i libucrt:output.obj
 0001:0002a499       ??$peek_va_arg@_K@__crt_stdio_output@@YA_KPAD@Z 1002b499 f i libucrt:output.obj
 0001:0002a4a8       ??$peek_va_arg@_W@__crt_stdio_output@@YA_WPAD@Z 1002b4a8 f i libucrt:output.obj
 0001:0002a4b5       ??$puttc_nolock_internal@ABDPAU_iobuf@@AAV__crt_cached_ptd_host@@@?$__crt_char_traits@D@@SAHABD$$QAPAU_iobuf@@AAV__crt_cached_ptd_host@@@Z 1002b4b5 f i libucrt:output.obj
 0001:0002a4d3       ??$puttc_nolock_internal@AB_WPAU_iobuf@@AAV__crt_cached_ptd_host@@@?$__crt_char_traits@_W@@SAGAB_W$$QAPAU_iobuf@@AAV__crt_cached_ptd_host@@@Z 1002b4d3 f i libucrt:output.obj
 0001:0002a4f1       ??$read_va_arg@C@__crt_stdio_output@@YACAAPAD@Z 1002b4f1 f i libucrt:output.obj
 0001:0002a504       ??$read_va_arg@E@__crt_stdio_output@@YAEAAPAD@Z 1002b504 f i libucrt:output.obj
 0001:0002a517       ??$read_va_arg@F@__crt_stdio_output@@YAFAAPAD@Z 1002b517 f i libucrt:output.obj
 0001:0002a52b       ??$read_va_arg@G@__crt_stdio_output@@YAGAAPAD@Z 1002b52b f i libucrt:output.obj
 0001:0002a53f       ??$read_va_arg@H@__crt_stdio_output@@YAHAAPAD@Z 1002b53f f i libucrt:output.obj
 0001:0002a552       ??$read_va_arg@I@__crt_stdio_output@@YAIAAPAD@Z 1002b552 f i libucrt:output.obj
 0001:0002a565       ??$read_va_arg@PAD@__crt_stdio_output@@YAPADAAPAD@Z 1002b565 f i libucrt:output.obj
 0001:0002a578       ??$read_va_arg@PAUansi_string@?1??type_case_Z@?$output_processor@DV?$stream_output_adapter@D@__crt_stdio_output@@V?$format_validation_base@DV?$stream_output_adapter@D@__crt_stdio_output@@@2@@__crt_stdio_output@@AAE_NXZ@@__crt_stdio_output@@YAPAUansi_string@?1??type_case_Z@?$output_processor@DV?$stream_output_adapter@D@__crt_stdio_output@@V?$format_validation_base@DV?$stream_output_adapter@D@__crt_stdio_output@@@2@@0@AAE_NXZ@AAPAD@Z 1002b578 f i libucrt:output.obj
 0001:0002a58b       ??$read_va_arg@PAUansi_string@?1??type_case_Z@?$output_processor@DV?$stream_output_adapter@D@__crt_stdio_output@@V?$positional_parameter_base@DV?$stream_output_adapter@D@__crt_stdio_output@@@2@@__crt_stdio_output@@AAE_NXZ@@__crt_stdio_output@@YAPAUansi_string@?1??type_case_Z@?$output_processor@DV?$stream_output_adapter@D@__crt_stdio_output@@V?$positional_parameter_base@DV?$stream_output_adapter@D@__crt_stdio_output@@@2@@0@AAE_NXZ@AAPAD@Z 1002b58b f i libucrt:output.obj
 0001:0002a59e       ??$read_va_arg@PAUansi_string@?1??type_case_Z@?$output_processor@DV?$stream_output_adapter@D@__crt_stdio_output@@V?$standard_base@DV?$stream_output_adapter@D@__crt_stdio_output@@@2@@__crt_stdio_output@@AAE_NXZ@@__crt_stdio_output@@YAPAUansi_string@?1??type_case_Z@?$output_processor@DV?$stream_output_adapter@D@__crt_stdio_output@@V?$standard_base@DV?$stream_output_adapter@D@__crt_stdio_output@@@2@@0@AAE_NXZ@AAPAD@Z 1002b59e f i libucrt:output.obj
 0001:0002a5b1       ??$read_va_arg@PAUansi_string@?1??type_case_Z@?$output_processor@DV?$string_output_adapter@D@__crt_stdio_output@@V?$format_validation_base@DV?$string_output_adapter@D@__crt_stdio_output@@@2@@__crt_stdio_output@@AAE_NXZ@@__crt_stdio_output@@YAPAUansi_string@?1??type_case_Z@?$output_processor@DV?$string_output_adapter@D@__crt_stdio_output@@V?$format_validation_base@DV?$string_output_adapter@D@__crt_stdio_output@@@2@@0@AAE_NXZ@AAPAD@Z 1002b5b1 f i libucrt:output.obj
 0001:0002a5c4       ??$read_va_arg@PAUansi_string@?1??type_case_Z@?$output_processor@DV?$string_output_adapter@D@__crt_stdio_output@@V?$positional_parameter_base@DV?$string_output_adapter@D@__crt_stdio_output@@@2@@__crt_stdio_output@@AAE_NXZ@@__crt_stdio_output@@YAPAUansi_string@?1??type_case_Z@?$output_processor@DV?$string_output_adapter@D@__crt_stdio_output@@V?$positional_parameter_base@DV?$string_output_adapter@D@__crt_stdio_output@@@2@@0@AAE_NXZ@AAPAD@Z 1002b5c4 f i libucrt:output.obj
 0001:0002a5d7       ??$read_va_arg@PAUansi_string@?1??type_case_Z@?$output_processor@DV?$string_output_adapter@D@__crt_stdio_output@@V?$standard_base@DV?$string_output_adapter@D@__crt_stdio_output@@@2@@__crt_stdio_output@@AAE_NXZ@@__crt_stdio_output@@YAPAUansi_string@?1??type_case_Z@?$output_processor@DV?$string_output_adapter@D@__crt_stdio_output@@V?$standard_base@DV?$string_output_adapter@D@__crt_stdio_output@@@2@@0@AAE_NXZ@AAPAD@Z 1002b5d7 f i libucrt:output.obj
 0001:0002a5ea       ??$read_va_arg@PAUansi_string@?1??type_case_Z@?$output_processor@_WV?$stream_output_adapter@_W@__crt_stdio_output@@V?$format_validation_base@_WV?$stream_output_adapter@_W@__crt_stdio_output@@@2@@__crt_stdio_output@@AAE_NXZ@@__crt_stdio_output@@YAPAUansi_string@?1??type_case_Z@?$output_processor@_WV?$stream_output_adapter@_W@__crt_stdio_output@@V?$format_validation_base@_WV?$stream_output_adapter@_W@__crt_stdio_output@@@2@@0@AAE_NXZ@AAPAD@Z 1002b5ea f i libucrt:output.obj
 0001:0002a5fd       ??$read_va_arg@PAUansi_string@?1??type_case_Z@?$output_processor@_WV?$stream_output_adapter@_W@__crt_stdio_output@@V?$positional_parameter_base@_WV?$stream_output_adapter@_W@__crt_stdio_output@@@2@@__crt_stdio_output@@AAE_NXZ@@__crt_stdio_output@@YAPAUansi_string@?1??type_case_Z@?$output_processor@_WV?$stream_output_adapter@_W@__crt_stdio_output@@V?$positional_parameter_base@_WV?$stream_output_adapter@_W@__crt_stdio_output@@@2@@0@AAE_NXZ@AAPAD@Z 1002b5fd f i libucrt:output.obj
 0001:0002a610       ??$read_va_arg@PAUansi_string@?1??type_case_Z@?$output_processor@_WV?$stream_output_adapter@_W@__crt_stdio_output@@V?$standard_base@_WV?$stream_output_adapter@_W@__crt_stdio_output@@@2@@__crt_stdio_output@@AAE_NXZ@@__crt_stdio_output@@YAPAUansi_string@?1??type_case_Z@?$output_processor@_WV?$stream_output_adapter@_W@__crt_stdio_output@@V?$standard_base@_WV?$stream_output_adapter@_W@__crt_stdio_output@@@2@@0@AAE_NXZ@AAPAD@Z 1002b610 f i libucrt:output.obj
 0001:0002a623       ??$read_va_arg@PAUansi_string@?1??type_case_Z@?$output_processor@_WV?$string_output_adapter@_W@__crt_stdio_output@@V?$format_validation_base@_WV?$string_output_adapter@_W@__crt_stdio_output@@@2@@__crt_stdio_output@@AAE_NXZ@@__crt_stdio_output@@YAPAUansi_string@?1??type_case_Z@?$output_processor@_WV?$string_output_adapter@_W@__crt_stdio_output@@V?$format_validation_base@_WV?$string_output_adapter@_W@__crt_stdio_output@@@2@@0@AAE_NXZ@AAPAD@Z 1002b623 f i libucrt:output.obj
 0001:0002a636       ??$read_va_arg@PAUansi_string@?1??type_case_Z@?$output_processor@_WV?$string_output_adapter@_W@__crt_stdio_output@@V?$positional_parameter_base@_WV?$string_output_adapter@_W@__crt_stdio_output@@@2@@__crt_stdio_output@@AAE_NXZ@@__crt_stdio_output@@YAPAUansi_string@?1??type_case_Z@?$output_processor@_WV?$string_output_adapter@_W@__crt_stdio_output@@V?$positional_parameter_base@_WV?$string_output_adapter@_W@__crt_stdio_output@@@2@@0@AAE_NXZ@AAPAD@Z 1002b636 f i libucrt:output.obj
 0001:0002a649       ??$read_va_arg@PAUansi_string@?1??type_case_Z@?$output_processor@_WV?$string_output_adapter@_W@__crt_stdio_output@@V?$standard_base@_WV?$string_output_adapter@_W@__crt_stdio_output@@@2@@__crt_stdio_output@@AAE_NXZ@@__crt_stdio_output@@YAPAUansi_string@?1??type_case_Z@?$output_processor@_WV?$string_output_adapter@_W@__crt_stdio_output@@V?$standard_base@_WV?$string_output_adapter@_W@__crt_stdio_output@@@2@@0@AAE_NXZ@AAPAD@Z 1002b649 f i libucrt:output.obj
 0001:0002a65c       ??$read_va_arg@PAX@__crt_stdio_output@@YAPAXAAPAD@Z 1002b65c f i libucrt:output.obj
 0001:0002a66f       ??$read_va_arg@U_CRT_DOUBLE@@@__crt_stdio_output@@YA?AU_CRT_DOUBLE@@AAPAD@Z 1002b66f f i libucrt:output.obj
 0001:0002a685       ??$read_va_arg@_J@__crt_stdio_output@@YA_JAAPAD@Z 1002b685 f i libucrt:output.obj
 0001:0002a69b       ??$read_va_arg@_K@__crt_stdio_output@@YA_KAAPAD@Z 1002b69b f i libucrt:output.obj
 0001:0002a6b1       ??$read_va_arg@_W@__crt_stdio_output@@YA_WAAPAD@Z 1002b6b1 f i libucrt:output.obj
 0001:0002a6c5       ??$scratch_count@D@formatting_buffer@__crt_stdio_output@@QBEIXZ 1002b6c5 f i libucrt:output.obj
 0001:0002a6ca       ??$scratch_data@D@formatting_buffer@__crt_stdio_output@@QAEPADXZ 1002b6ca f i libucrt:output.obj
 0001:0002a6e8       ??$type_case_integer@$07@?$output_processor@DV?$stream_output_adapter@D@__crt_stdio_output@@V?$format_validation_base@DV?$stream_output_adapter@D@__crt_stdio_output@@@2@@__crt_stdio_output@@AAE_N_N@Z 1002b6e8 f i libucrt:output.obj
 0001:0002a875       ??$type_case_integer@$07@?$output_processor@DV?$stream_output_adapter@D@__crt_stdio_output@@V?$positional_parameter_base@DV?$stream_output_adapter@D@__crt_stdio_output@@@2@@__crt_stdio_output@@AAE_N_N@Z 1002b875 f i libucrt:output.obj
 0001:0002aa11       ??$type_case_integer@$07@?$output_processor@DV?$stream_output_adapter@D@__crt_stdio_output@@V?$standard_base@DV?$stream_output_adapter@D@__crt_stdio_output@@@2@@__crt_stdio_output@@AAE_N_N@Z 1002ba11 f i libucrt:output.obj
 0001:0002ab9e       ??$type_case_integer@$07@?$output_processor@DV?$string_output_adapter@D@__crt_stdio_output@@V?$format_validation_base@DV?$string_output_adapter@D@__crt_stdio_output@@@2@@__crt_stdio_output@@AAE_N_N@Z 1002bb9e f i libucrt:output.obj
 0001:0002ad2b       ??$type_case_integer@$07@?$output_processor@DV?$string_output_adapter@D@__crt_stdio_output@@V?$positional_parameter_base@DV?$string_output_adapter@D@__crt_stdio_output@@@2@@__crt_stdio_output@@AAE_N_N@Z 1002bd2b f i libucrt:output.obj
 0001:0002aec7       ??$type_case_integer@$07@?$output_processor@DV?$string_output_adapter@D@__crt_stdio_output@@V?$standard_base@DV?$string_output_adapter@D@__crt_stdio_output@@@2@@__crt_stdio_output@@AAE_N_N@Z 1002bec7 f i libucrt:output.obj
 0001:0002b054       ??$type_case_integer@$07@?$output_processor@_WV?$stream_output_adapter@_W@__crt_stdio_output@@V?$format_validation_base@_WV?$stream_output_adapter@_W@__crt_stdio_output@@@2@@__crt_stdio_output@@AAE_N_N@Z 1002c054 f i libucrt:output.obj
 0001:0002b1e6       ??$type_case_integer@$07@?$output_processor@_WV?$stream_output_adapter@_W@__crt_stdio_output@@V?$positional_parameter_base@_WV?$stream_output_adapter@_W@__crt_stdio_output@@@2@@__crt_stdio_output@@AAE_N_N@Z 1002c1e6 f i libucrt:output.obj
 0001:0002b386       ??$type_case_integer@$07@?$output_processor@_WV?$stream_output_adapter@_W@__crt_stdio_output@@V?$standard_base@_WV?$stream_output_adapter@_W@__crt_stdio_output@@@2@@__crt_stdio_output@@AAE_N_N@Z 1002c386 f i libucrt:output.obj
 0001:0002b518       ??$type_case_integer@$07@?$output_processor@_WV?$string_output_adapter@_W@__crt_stdio_output@@V?$format_validation_base@_WV?$string_output_adapter@_W@__crt_stdio_output@@@2@@__crt_stdio_output@@AAE_N_N@Z 1002c518 f i libucrt:output.obj
 0001:0002b6aa       ??$type_case_integer@$07@?$output_processor@_WV?$string_output_adapter@_W@__crt_stdio_output@@V?$positional_parameter_base@_WV?$string_output_adapter@_W@__crt_stdio_output@@@2@@__crt_stdio_output@@AAE_N_N@Z 1002c6aa f i libucrt:output.obj
 0001:0002b84a       ??$type_case_integer@$07@?$output_processor@_WV?$string_output_adapter@_W@__crt_stdio_output@@V?$standard_base@_WV?$string_output_adapter@_W@__crt_stdio_output@@@2@@__crt_stdio_output@@AAE_N_N@Z 1002c84a f i libucrt:output.obj
 0001:0002b9dc       ??$type_case_integer@$09@?$output_processor@DV?$stream_output_adapter@D@__crt_stdio_output@@V?$format_validation_base@DV?$stream_output_adapter@D@__crt_stdio_output@@@2@@__crt_stdio_output@@AAE_N_N@Z 1002c9dc f i libucrt:output.obj
 0001:0002bb69       ??$type_case_integer@$09@?$output_processor@DV?$stream_output_adapter@D@__crt_stdio_output@@V?$positional_parameter_base@DV?$stream_output_adapter@D@__crt_stdio_output@@@2@@__crt_stdio_output@@AAE_N_N@Z 1002cb69 f i libucrt:output.obj
 0001:0002bd05       ??$type_case_integer@$09@?$output_processor@DV?$stream_output_adapter@D@__crt_stdio_output@@V?$standard_base@DV?$stream_output_adapter@D@__crt_stdio_output@@@2@@__crt_stdio_output@@AAE_N_N@Z 1002cd05 f i libucrt:output.obj
 0001:0002be92       ??$type_case_integer@$09@?$output_processor@DV?$string_output_adapter@D@__crt_stdio_output@@V?$format_validation_base@DV?$string_output_adapter@D@__crt_stdio_output@@@2@@__crt_stdio_output@@AAE_N_N@Z 1002ce92 f i libucrt:output.obj
 0001:0002c01f       ??$type_case_integer@$09@?$output_processor@DV?$string_output_adapter@D@__crt_stdio_output@@V?$positional_parameter_base@DV?$string_output_adapter@D@__crt_stdio_output@@@2@@__crt_stdio_output@@AAE_N_N@Z 1002d01f f i libucrt:output.obj
 0001:0002c1bb       ??$type_case_integer@$09@?$output_processor@DV?$string_output_adapter@D@__crt_stdio_output@@V?$standard_base@DV?$string_output_adapter@D@__crt_stdio_output@@@2@@__crt_stdio_output@@AAE_N_N@Z 1002d1bb f i libucrt:output.obj
 0001:0002c348       ??$type_case_integer@$09@?$output_processor@_WV?$stream_output_adapter@_W@__crt_stdio_output@@V?$format_validation_base@_WV?$stream_output_adapter@_W@__crt_stdio_output@@@2@@__crt_stdio_output@@AAE_N_N@Z 1002d348 f i libucrt:output.obj
 0001:0002c4da       ??$type_case_integer@$09@?$output_processor@_WV?$stream_output_adapter@_W@__crt_stdio_output@@V?$positional_parameter_base@_WV?$stream_output_adapter@_W@__crt_stdio_output@@@2@@__crt_stdio_output@@AAE_N_N@Z 1002d4da f i libucrt:output.obj
 0001:0002c67a       ??$type_case_integer@$09@?$output_processor@_WV?$stream_output_adapter@_W@__crt_stdio_output@@V?$standard_base@_WV?$stream_output_adapter@_W@__crt_stdio_output@@@2@@__crt_stdio_output@@AAE_N_N@Z 1002d67a f i libucrt:output.obj
 0001:0002c80c       ??$type_case_integer@$09@?$output_processor@_WV?$string_output_adapter@_W@__crt_stdio_output@@V?$format_validation_base@_WV?$string_output_adapter@_W@__crt_stdio_output@@@2@@__crt_stdio_output@@AAE_N_N@Z 1002d80c f i libucrt:output.obj
 0001:0002c99e       ??$type_case_integer@$09@?$output_processor@_WV?$string_output_adapter@_W@__crt_stdio_output@@V?$positional_parameter_base@_WV?$string_output_adapter@_W@__crt_stdio_output@@@2@@__crt_stdio_output@@AAE_N_N@Z 1002d99e f i libucrt:output.obj
 0001:0002cb3e       ??$type_case_integer@$09@?$output_processor@_WV?$string_output_adapter@_W@__crt_stdio_output@@V?$standard_base@_WV?$string_output_adapter@_W@__crt_stdio_output@@@2@@__crt_stdio_output@@AAE_N_N@Z 1002db3e f i libucrt:output.obj
 0001:0002ccd0       ??$type_case_integer@$0BA@@?$output_processor@DV?$stream_output_adapter@D@__crt_stdio_output@@V?$format_validation_base@DV?$stream_output_adapter@D@__crt_stdio_output@@@2@@__crt_stdio_output@@AAE_N_N@Z 1002dcd0 f i libucrt:output.obj
 0001:0002ce5d       ??$type_case_integer@$0BA@@?$output_processor@DV?$stream_output_adapter@D@__crt_stdio_output@@V?$positional_parameter_base@DV?$stream_output_adapter@D@__crt_stdio_output@@@2@@__crt_stdio_output@@AAE_N_N@Z 1002de5d f i libucrt:output.obj
 0001:0002cff9       ??$type_case_integer@$0BA@@?$output_processor@DV?$stream_output_adapter@D@__crt_stdio_output@@V?$standard_base@DV?$stream_output_adapter@D@__crt_stdio_output@@@2@@__crt_stdio_output@@AAE_N_N@Z 1002dff9 f i libucrt:output.obj
 0001:0002d186       ??$type_case_integer@$0BA@@?$output_processor@DV?$string_output_adapter@D@__crt_stdio_output@@V?$format_validation_base@DV?$string_output_adapter@D@__crt_stdio_output@@@2@@__crt_stdio_output@@AAE_N_N@Z 1002e186 f i libucrt:output.obj
 0001:0002d313       ??$type_case_integer@$0BA@@?$output_processor@DV?$string_output_adapter@D@__crt_stdio_output@@V?$positional_parameter_base@DV?$string_output_adapter@D@__crt_stdio_output@@@2@@__crt_stdio_output@@AAE_N_N@Z 1002e313 f i libucrt:output.obj
 0001:0002d4af       ??$type_case_integer@$0BA@@?$output_processor@DV?$string_output_adapter@D@__crt_stdio_output@@V?$standard_base@DV?$string_output_adapter@D@__crt_stdio_output@@@2@@__crt_stdio_output@@AAE_N_N@Z 1002e4af f i libucrt:output.obj
 0001:0002d63c       ??$type_case_integer@$0BA@@?$output_processor@_WV?$stream_output_adapter@_W@__crt_stdio_output@@V?$format_validation_base@_WV?$stream_output_adapter@_W@__crt_stdio_output@@@2@@__crt_stdio_output@@AAE_N_N@Z 1002e63c f i libucrt:output.obj
 0001:0002d7ce       ??$type_case_integer@$0BA@@?$output_processor@_WV?$stream_output_adapter@_W@__crt_stdio_output@@V?$positional_parameter_base@_WV?$stream_output_adapter@_W@__crt_stdio_output@@@2@@__crt_stdio_output@@AAE_N_N@Z 1002e7ce f i libucrt:output.obj
 0001:0002d96e       ??$type_case_integer@$0BA@@?$output_processor@_WV?$stream_output_adapter@_W@__crt_stdio_output@@V?$standard_base@_WV?$stream_output_adapter@_W@__crt_stdio_output@@@2@@__crt_stdio_output@@AAE_N_N@Z 1002e96e f i libucrt:output.obj
 0001:0002db00       ??$type_case_integer@$0BA@@?$output_processor@_WV?$string_output_adapter@_W@__crt_stdio_output@@V?$format_validation_base@_WV?$string_output_adapter@_W@__crt_stdio_output@@@2@@__crt_stdio_output@@AAE_N_N@Z 1002eb00 f i libucrt:output.obj
 0001:0002dc92       ??$type_case_integer@$0BA@@?$output_processor@_WV?$string_output_adapter@_W@__crt_stdio_output@@V?$positional_parameter_base@_WV?$string_output_adapter@_W@__crt_stdio_output@@@2@@__crt_stdio_output@@AAE_N_N@Z 1002ec92 f i libucrt:output.obj
 0001:0002de32       ??$type_case_integer@$0BA@@?$output_processor@_WV?$string_output_adapter@_W@__crt_stdio_output@@V?$standard_base@_WV?$string_output_adapter@_W@__crt_stdio_output@@@2@@__crt_stdio_output@@AAE_N_N@Z 1002ee32 f i libucrt:output.obj
 0001:0002dfc4       ??$type_case_integer_parse_into_buffer@I$07@?$output_processor@DV?$stream_output_adapter@D@__crt_stdio_output@@V?$format_validation_base@DV?$stream_output_adapter@D@__crt_stdio_output@@@2@@__crt_stdio_output@@AAEXI_N@Z 1002efc4 f i libucrt:output.obj
 0001:0002e027       ??$type_case_integer_parse_into_buffer@I$07@?$output_processor@DV?$stream_output_adapter@D@__crt_stdio_output@@V?$positional_parameter_base@DV?$stream_output_adapter@D@__crt_stdio_output@@@2@@__crt_stdio_output@@AAEXI_N@Z 1002f027 f i libucrt:output.obj
 0001:0002e08a       ??$type_case_integer_parse_into_buffer@I$07@?$output_processor@DV?$stream_output_adapter@D@__crt_stdio_output@@V?$standard_base@DV?$stream_output_adapter@D@__crt_stdio_output@@@2@@__crt_stdio_output@@AAEXI_N@Z 1002f08a f i libucrt:output.obj
 0001:0002e0ed       ??$type_case_integer_parse_into_buffer@I$07@?$output_processor@DV?$string_output_adapter@D@__crt_stdio_output@@V?$format_validation_base@DV?$string_output_adapter@D@__crt_stdio_output@@@2@@__crt_stdio_output@@AAEXI_N@Z 1002f0ed f i libucrt:output.obj
 0001:0002e150       ??$type_case_integer_parse_into_buffer@I$07@?$output_processor@DV?$string_output_adapter@D@__crt_stdio_output@@V?$positional_parameter_base@DV?$string_output_adapter@D@__crt_stdio_output@@@2@@__crt_stdio_output@@AAEXI_N@Z 1002f150 f i libucrt:output.obj
 0001:0002e1b3       ??$type_case_integer_parse_into_buffer@I$07@?$output_processor@DV?$string_output_adapter@D@__crt_stdio_output@@V?$standard_base@DV?$string_output_adapter@D@__crt_stdio_output@@@2@@__crt_stdio_output@@AAEXI_N@Z 1002f1b3 f i libucrt:output.obj
 0001:0002e216       ??$type_case_integer_parse_into_buffer@I$07@?$output_processor@_WV?$stream_output_adapter@_W@__crt_stdio_output@@V?$format_validation_base@_WV?$stream_output_adapter@_W@__crt_stdio_output@@@2@@__crt_stdio_output@@AAEXI_N@Z 1002f216 f i libucrt:output.obj
 0001:0002e289       ??$type_case_integer_parse_into_buffer@I$07@?$output_processor@_WV?$stream_output_adapter@_W@__crt_stdio_output@@V?$positional_parameter_base@_WV?$stream_output_adapter@_W@__crt_stdio_output@@@2@@__crt_stdio_output@@AAEXI_N@Z 1002f289 f i libucrt:output.obj
 0001:0002e2fc       ??$type_case_integer_parse_into_buffer@I$07@?$output_processor@_WV?$stream_output_adapter@_W@__crt_stdio_output@@V?$standard_base@_WV?$stream_output_adapter@_W@__crt_stdio_output@@@2@@__crt_stdio_output@@AAEXI_N@Z 1002f2fc f i libucrt:output.obj
 0001:0002e36f       ??$type_case_integer_parse_into_buffer@I$07@?$output_processor@_WV?$string_output_adapter@_W@__crt_stdio_output@@V?$format_validation_base@_WV?$string_output_adapter@_W@__crt_stdio_output@@@2@@__crt_stdio_output@@AAEXI_N@Z 1002f36f f i libucrt:output.obj
 0001:0002e3e2       ??$type_case_integer_parse_into_buffer@I$07@?$output_processor@_WV?$string_output_adapter@_W@__crt_stdio_output@@V?$positional_parameter_base@_WV?$string_output_adapter@_W@__crt_stdio_output@@@2@@__crt_stdio_output@@AAEXI_N@Z 1002f3e2 f i libucrt:output.obj
 0001:0002e455       ??$type_case_integer_parse_into_buffer@I$07@?$output_processor@_WV?$string_output_adapter@_W@__crt_stdio_output@@V?$standard_base@_WV?$string_output_adapter@_W@__crt_stdio_output@@@2@@__crt_stdio_output@@AAEXI_N@Z 1002f455 f i libucrt:output.obj
 0001:0002e4c8       ??$type_case_integer_parse_into_buffer@I$09@?$output_processor@DV?$stream_output_adapter@D@__crt_stdio_output@@V?$format_validation_base@DV?$stream_output_adapter@D@__crt_stdio_output@@@2@@__crt_stdio_output@@AAEXI_N@Z 1002f4c8 f i libucrt:output.obj
 0001:0002e54f       ??$type_case_integer_parse_into_buffer@I$09@?$output_processor@DV?$stream_output_adapter@D@__crt_stdio_output@@V?$positional_parameter_base@DV?$stream_output_adapter@D@__crt_stdio_output@@@2@@__crt_stdio_output@@AAEXI_N@Z 1002f54f f i libucrt:output.obj
 0001:0002e5d6       ??$type_case_integer_parse_into_buffer@I$09@?$output_processor@DV?$stream_output_adapter@D@__crt_stdio_output@@V?$standard_base@DV?$stream_output_adapter@D@__crt_stdio_output@@@2@@__crt_stdio_output@@AAEXI_N@Z 1002f5d6 f i libucrt:output.obj
 0001:0002e65d       ??$type_case_integer_parse_into_buffer@I$09@?$output_processor@DV?$string_output_adapter@D@__crt_stdio_output@@V?$format_validation_base@DV?$string_output_adapter@D@__crt_stdio_output@@@2@@__crt_stdio_output@@AAEXI_N@Z 1002f65d f i libucrt:output.obj
 0001:0002e6e4       ??$type_case_integer_parse_into_buffer@I$09@?$output_processor@DV?$string_output_adapter@D@__crt_stdio_output@@V?$positional_parameter_base@DV?$string_output_adapter@D@__crt_stdio_output@@@2@@__crt_stdio_output@@AAEXI_N@Z 1002f6e4 f i libucrt:output.obj
 0001:0002e76b       ??$type_case_integer_parse_into_buffer@I$09@?$output_processor@DV?$string_output_adapter@D@__crt_stdio_output@@V?$standard_base@DV?$string_output_adapter@D@__crt_stdio_output@@@2@@__crt_stdio_output@@AAEXI_N@Z 1002f76b f i libucrt:output.obj
 0001:0002e7f2       ??$type_case_integer_parse_into_buffer@I$09@?$output_processor@_WV?$stream_output_adapter@_W@__crt_stdio_output@@V?$format_validation_base@_WV?$stream_output_adapter@_W@__crt_stdio_output@@@2@@__crt_stdio_output@@AAEXI_N@Z 1002f7f2 f i libucrt:output.obj
 0001:0002e88e       ??$type_case_integer_parse_into_buffer@I$09@?$output_processor@_WV?$stream_output_adapter@_W@__crt_stdio_output@@V?$positional_parameter_base@_WV?$stream_output_adapter@_W@__crt_stdio_output@@@2@@__crt_stdio_output@@AAEXI_N@Z 1002f88e f i libucrt:output.obj
 0001:0002e92a       ??$type_case_integer_parse_into_buffer@I$09@?$output_processor@_WV?$stream_output_adapter@_W@__crt_stdio_output@@V?$standard_base@_WV?$stream_output_adapter@_W@__crt_stdio_output@@@2@@__crt_stdio_output@@AAEXI_N@Z 1002f92a f i libucrt:output.obj
 0001:0002e9c6       ??$type_case_integer_parse_into_buffer@I$09@?$output_processor@_WV?$string_output_adapter@_W@__crt_stdio_output@@V?$format_validation_base@_WV?$string_output_adapter@_W@__crt_stdio_output@@@2@@__crt_stdio_output@@AAEXI_N@Z 1002f9c6 f i libucrt:output.obj
 0001:0002ea62       ??$type_case_integer_parse_into_buffer@I$09@?$output_processor@_WV?$string_output_adapter@_W@__crt_stdio_output@@V?$positional_parameter_base@_WV?$string_output_adapter@_W@__crt_stdio_output@@@2@@__crt_stdio_output@@AAEXI_N@Z 1002fa62 f i libucrt:output.obj
 0001:0002eafe       ??$type_case_integer_parse_into_buffer@I$09@?$output_processor@_WV?$string_output_adapter@_W@__crt_stdio_output@@V?$standard_base@_WV?$string_output_adapter@_W@__crt_stdio_output@@@2@@__crt_stdio_output@@AAEXI_N@Z 1002fafe f i libucrt:output.obj
 0001:0002eb9a       ??$type_case_integer_parse_into_buffer@I$0BA@@?$output_processor@DV?$stream_output_adapter@D@__crt_stdio_output@@V?$format_validation_base@DV?$stream_output_adapter@D@__crt_stdio_output@@@2@@__crt_stdio_output@@AAEXI_N@Z 1002fb9a f i libucrt:output.obj
 0001:0002ec17       ??$type_case_integer_parse_into_buffer@I$0BA@@?$output_processor@DV?$stream_output_adapter@D@__crt_stdio_output@@V?$positional_parameter_base@DV?$stream_output_adapter@D@__crt_stdio_output@@@2@@__crt_stdio_output@@AAEXI_N@Z 1002fc17 f i libucrt:output.obj
 0001:0002ec94       ??$type_case_integer_parse_into_buffer@I$0BA@@?$output_processor@DV?$stream_output_adapter@D@__crt_stdio_output@@V?$standard_base@DV?$stream_output_adapter@D@__crt_stdio_output@@@2@@__crt_stdio_output@@AAEXI_N@Z 1002fc94 f i libucrt:output.obj
 0001:0002ed11       ??$type_case_integer_parse_into_buffer@I$0BA@@?$output_processor@DV?$string_output_adapter@D@__crt_stdio_output@@V?$format_validation_base@DV?$string_output_adapter@D@__crt_stdio_output@@@2@@__crt_stdio_output@@AAEXI_N@Z 1002fd11 f i libucrt:output.obj
 0001:0002ed8e       ??$type_case_integer_parse_into_buffer@I$0BA@@?$output_processor@DV?$string_output_adapter@D@__crt_stdio_output@@V?$positional_parameter_base@DV?$string_output_adapter@D@__crt_stdio_output@@@2@@__crt_stdio_output@@AAEXI_N@Z 1002fd8e f i libucrt:output.obj
 0001:0002ee0b       ??$type_case_integer_parse_into_buffer@I$0BA@@?$output_processor@DV?$string_output_adapter@D@__crt_stdio_output@@V?$standard_base@DV?$string_output_adapter@D@__crt_stdio_output@@@2@@__crt_stdio_output@@AAEXI_N@Z 1002fe0b f i libucrt:output.obj
 0001:0002ee88       ??$type_case_integer_parse_into_buffer@I$0BA@@?$output_processor@_WV?$stream_output_adapter@_W@__crt_stdio_output@@V?$format_validation_base@_WV?$stream_output_adapter@_W@__crt_stdio_output@@@2@@__crt_stdio_output@@AAEXI_N@Z 1002fe88 f i libucrt:output.obj
 0001:0002ef12       ??$type_case_integer_parse_into_buffer@I$0BA@@?$output_processor@_WV?$stream_output_adapter@_W@__crt_stdio_output@@V?$positional_parameter_base@_WV?$stream_output_adapter@_W@__crt_stdio_output@@@2@@__crt_stdio_output@@AAEXI_N@Z 1002ff12 f i libucrt:output.obj
 0001:0002ef9c       ??$type_case_integer_parse_into_buffer@I$0BA@@?$output_processor@_WV?$stream_output_adapter@_W@__crt_stdio_output@@V?$standard_base@_WV?$stream_output_adapter@_W@__crt_stdio_output@@@2@@__crt_stdio_output@@AAEXI_N@Z 1002ff9c f i libucrt:output.obj
 0001:0002f026       ??$type_case_integer_parse_into_buffer@I$0BA@@?$output_processor@_WV?$string_output_adapter@_W@__crt_stdio_output@@V?$format_validation_base@_WV?$string_output_adapter@_W@__crt_stdio_output@@@2@@__crt_stdio_output@@AAEXI_N@Z 10030026 f i libucrt:output.obj
 0001:0002f0b0       ??$type_case_integer_parse_into_buffer@I$0BA@@?$output_processor@_WV?$string_output_adapter@_W@__crt_stdio_output@@V?$positional_parameter_base@_WV?$string_output_adapter@_W@__crt_stdio_output@@@2@@__crt_stdio_output@@AAEXI_N@Z 100300b0 f i libucrt:output.obj
 0001:0002f13a       ??$type_case_integer_parse_into_buffer@I$0BA@@?$output_processor@_WV?$string_output_adapter@_W@__crt_stdio_output@@V?$standard_base@_WV?$string_output_adapter@_W@__crt_stdio_output@@@2@@__crt_stdio_output@@AAEXI_N@Z 1003013a f i libucrt:output.obj
 0001:0002f1c4       ??$type_case_integer_parse_into_buffer@_K$07@?$output_processor@DV?$stream_output_adapter@D@__crt_stdio_output@@V?$format_validation_base@DV?$stream_output_adapter@D@__crt_stdio_output@@@2@@__crt_stdio_output@@AAEX_K_N@Z 100301c4 f i libucrt:output.obj
 0001:0002f23c       ??$type_case_integer_parse_into_buffer@_K$07@?$output_processor@DV?$stream_output_adapter@D@__crt_stdio_output@@V?$positional_parameter_base@DV?$stream_output_adapter@D@__crt_stdio_output@@@2@@__crt_stdio_output@@AAEX_K_N@Z 1003023c f i libucrt:output.obj
 0001:0002f2b4       ??$type_case_integer_parse_into_buffer@_K$07@?$output_processor@DV?$stream_output_adapter@D@__crt_stdio_output@@V?$standard_base@DV?$stream_output_adapter@D@__crt_stdio_output@@@2@@__crt_stdio_output@@AAEX_K_N@Z 100302b4 f i libucrt:output.obj
 0001:0002f32c       ??$type_case_integer_parse_into_buffer@_K$07@?$output_processor@DV?$string_output_adapter@D@__crt_stdio_output@@V?$format_validation_base@DV?$string_output_adapter@D@__crt_stdio_output@@@2@@__crt_stdio_output@@AAEX_K_N@Z 1003032c f i libucrt:output.obj
 0001:0002f3a4       ??$type_case_integer_parse_into_buffer@_K$07@?$output_processor@DV?$string_output_adapter@D@__crt_stdio_output@@V?$positional_parameter_base@DV?$string_output_adapter@D@__crt_stdio_output@@@2@@__crt_stdio_output@@AAEX_K_N@Z 100303a4 f i libucrt:output.obj
 0001:0002f41c       ??$type_case_integer_parse_into_buffer@_K$07@?$output_processor@DV?$string_output_adapter@D@__crt_stdio_output@@V?$standard_base@DV?$string_output_adapter@D@__crt_stdio_output@@@2@@__crt_stdio_output@@AAEX_K_N@Z 1003041c f i libucrt:output.obj
 0001:0002f494       ??$type_case_integer_parse_into_buffer@_K$07@?$output_processor@_WV?$stream_output_adapter@_W@__crt_stdio_output@@V?$format_validation_base@_WV?$stream_output_adapter@_W@__crt_stdio_output@@@2@@__crt_stdio_output@@AAEX_K_N@Z 10030494 f i libucrt:output.obj
 0001:0002f51b       ??$type_case_integer_parse_into_buffer@_K$07@?$output_processor@_WV?$stream_output_adapter@_W@__crt_stdio_output@@V?$positional_parameter_base@_WV?$stream_output_adapter@_W@__crt_stdio_output@@@2@@__crt_stdio_output@@AAEX_K_N@Z 1003051b f i libucrt:output.obj
 0001:0002f5a2       ??$type_case_integer_parse_into_buffer@_K$07@?$output_processor@_WV?$stream_output_adapter@_W@__crt_stdio_output@@V?$standard_base@_WV?$stream_output_adapter@_W@__crt_stdio_output@@@2@@__crt_stdio_output@@AAEX_K_N@Z 100305a2 f i libucrt:output.obj
 0001:0002f629       ??$type_case_integer_parse_into_buffer@_K$07@?$output_processor@_WV?$string_output_adapter@_W@__crt_stdio_output@@V?$format_validation_base@_WV?$string_output_adapter@_W@__crt_stdio_output@@@2@@__crt_stdio_output@@AAEX_K_N@Z 10030629 f i libucrt:output.obj
 0001:0002f6b0       ??$type_case_integer_parse_into_buffer@_K$07@?$output_processor@_WV?$string_output_adapter@_W@__crt_stdio_output@@V?$positional_parameter_base@_WV?$string_output_adapter@_W@__crt_stdio_output@@@2@@__crt_stdio_output@@AAEX_K_N@Z 100306b0 f i libucrt:output.obj
 0001:0002f737       ??$type_case_integer_parse_into_buffer@_K$07@?$output_processor@_WV?$string_output_adapter@_W@__crt_stdio_output@@V?$standard_base@_WV?$string_output_adapter@_W@__crt_stdio_output@@@2@@__crt_stdio_output@@AAEX_K_N@Z 10030737 f i libucrt:output.obj
 0001:0002f7be       ??$type_case_integer_parse_into_buffer@_K$09@?$output_processor@DV?$stream_output_adapter@D@__crt_stdio_output@@V?$format_validation_base@DV?$stream_output_adapter@D@__crt_stdio_output@@@2@@__crt_stdio_output@@AAEX_K_N@Z 100307be f i libucrt:output.obj
 0001:0002f865       ??$type_case_integer_parse_into_buffer@_K$09@?$output_processor@DV?$stream_output_adapter@D@__crt_stdio_output@@V?$positional_parameter_base@DV?$stream_output_adapter@D@__crt_stdio_output@@@2@@__crt_stdio_output@@AAEX_K_N@Z 10030865 f i libucrt:output.obj
 0001:0002f90c       ??$type_case_integer_parse_into_buffer@_K$09@?$output_processor@DV?$stream_output_adapter@D@__crt_stdio_output@@V?$standard_base@DV?$stream_output_adapter@D@__crt_stdio_output@@@2@@__crt_stdio_output@@AAEX_K_N@Z 1003090c f i libucrt:output.obj
 0001:0002f9b3       ??$type_case_integer_parse_into_buffer@_K$09@?$output_processor@DV?$string_output_adapter@D@__crt_stdio_output@@V?$format_validation_base@DV?$string_output_adapter@D@__crt_stdio_output@@@2@@__crt_stdio_output@@AAEX_K_N@Z 100309b3 f i libucrt:output.obj
 0001:0002fa5a       ??$type_case_integer_parse_into_buffer@_K$09@?$output_processor@DV?$string_output_adapter@D@__crt_stdio_output@@V?$positional_parameter_base@DV?$string_output_adapter@D@__crt_stdio_output@@@2@@__crt_stdio_output@@AAEX_K_N@Z 10030a5a f i libucrt:output.obj
 0001:0002fb01       ??$type_case_integer_parse_into_buffer@_K$09@?$output_processor@DV?$string_output_adapter@D@__crt_stdio_output@@V?$standard_base@DV?$string_output_adapter@D@__crt_stdio_output@@@2@@__crt_stdio_output@@AAEX_K_N@Z 10030b01 f i libucrt:output.obj
 0001:0002fba8       ??$type_case_integer_parse_into_buffer@_K$09@?$output_processor@_WV?$stream_output_adapter@_W@__crt_stdio_output@@V?$format_validation_base@_WV?$stream_output_adapter@_W@__crt_stdio_output@@@2@@__crt_stdio_output@@AAEX_K_N@Z 10030ba8 f i libucrt:output.obj
 0001:0002fc65       ??$type_case_integer_parse_into_buffer@_K$09@?$output_processor@_WV?$stream_output_adapter@_W@__crt_stdio_output@@V?$positional_parameter_base@_WV?$stream_output_adapter@_W@__crt_stdio_output@@@2@@__crt_stdio_output@@AAEX_K_N@Z 10030c65 f i libucrt:output.obj
 0001:0002fd22       ??$type_case_integer_parse_into_buffer@_K$09@?$output_processor@_WV?$stream_output_adapter@_W@__crt_stdio_output@@V?$standard_base@_WV?$stream_output_adapter@_W@__crt_stdio_output@@@2@@__crt_stdio_output@@AAEX_K_N@Z 10030d22 f i libucrt:output.obj
 0001:0002fddf       ??$type_case_integer_parse_into_buffer@_K$09@?$output_processor@_WV?$string_output_adapter@_W@__crt_stdio_output@@V?$format_validation_base@_WV?$string_output_adapter@_W@__crt_stdio_output@@@2@@__crt_stdio_output@@AAEX_K_N@Z 10030ddf f i libucrt:output.obj
 0001:0002fe9c       ??$type_case_integer_parse_into_buffer@_K$09@?$output_processor@_WV?$string_output_adapter@_W@__crt_stdio_output@@V?$positional_parameter_base@_WV?$string_output_adapter@_W@__crt_stdio_output@@@2@@__crt_stdio_output@@AAEX_K_N@Z 10030e9c f i libucrt:output.obj
 0001:0002ff59       ??$type_case_integer_parse_into_buffer@_K$09@?$output_processor@_WV?$string_output_adapter@_W@__crt_stdio_output@@V?$standard_base@_WV?$string_output_adapter@_W@__crt_stdio_output@@@2@@__crt_stdio_output@@AAEX_K_N@Z 10030f59 f i libucrt:output.obj
 0001:00030016       ??$type_case_integer_parse_into_buffer@_K$0BA@@?$output_processor@DV?$stream_output_adapter@D@__crt_stdio_output@@V?$format_validation_base@DV?$stream_output_adapter@D@__crt_stdio_output@@@2@@__crt_stdio_output@@AAEX_K_N@Z 10031016 f i libucrt:output.obj
 0001:000300a0       ??$type_case_integer_parse_into_buffer@_K$0BA@@?$output_processor@DV?$stream_output_adapter@D@__crt_stdio_output@@V?$positional_parameter_base@DV?$stream_output_adapter@D@__crt_stdio_output@@@2@@__crt_stdio_output@@AAEX_K_N@Z 100310a0 f i libucrt:output.obj
 0001:0003012a       ??$type_case_integer_parse_into_buffer@_K$0BA@@?$output_processor@DV?$stream_output_adapter@D@__crt_stdio_output@@V?$standard_base@DV?$stream_output_adapter@D@__crt_stdio_output@@@2@@__crt_stdio_output@@AAEX_K_N@Z 1003112a f i libucrt:output.obj
 0001:000301b4       ??$type_case_integer_parse_into_buffer@_K$0BA@@?$output_processor@DV?$string_output_adapter@D@__crt_stdio_output@@V?$format_validation_base@DV?$string_output_adapter@D@__crt_stdio_output@@@2@@__crt_stdio_output@@AAEX_K_N@Z 100311b4 f i libucrt:output.obj
 0001:0003023e       ??$type_case_integer_parse_into_buffer@_K$0BA@@?$output_processor@DV?$string_output_adapter@D@__crt_stdio_output@@V?$positional_parameter_base@DV?$string_output_adapter@D@__crt_stdio_output@@@2@@__crt_stdio_output@@AAEX_K_N@Z 1003123e f i libucrt:output.obj
 0001:000302c8       ??$type_case_integer_parse_into_buffer@_K$0BA@@?$output_processor@DV?$string_output_adapter@D@__crt_stdio_output@@V?$standard_base@DV?$string_output_adapter@D@__crt_stdio_output@@@2@@__crt_stdio_output@@AAEX_K_N@Z 100312c8 f i libucrt:output.obj
 0001:00030352       ??$type_case_integer_parse_into_buffer@_K$0BA@@?$output_processor@_WV?$stream_output_adapter@_W@__crt_stdio_output@@V?$format_validation_base@_WV?$stream_output_adapter@_W@__crt_stdio_output@@@2@@__crt_stdio_output@@AAEX_K_N@Z 10031352 f i libucrt:output.obj
 0001:000303e8       ??$type_case_integer_parse_into_buffer@_K$0BA@@?$output_processor@_WV?$stream_output_adapter@_W@__crt_stdio_output@@V?$positional_parameter_base@_WV?$stream_output_adapter@_W@__crt_stdio_output@@@2@@__crt_stdio_output@@AAEX_K_N@Z 100313e8 f i libucrt:output.obj
 0001:0003047e       ??$type_case_integer_parse_into_buffer@_K$0BA@@?$output_processor@_WV?$stream_output_adapter@_W@__crt_stdio_output@@V?$standard_base@_WV?$stream_output_adapter@_W@__crt_stdio_output@@@2@@__crt_stdio_output@@AAEX_K_N@Z 1003147e f i libucrt:output.obj
 0001:00030514       ??$type_case_integer_parse_into_buffer@_K$0BA@@?$output_processor@_WV?$string_output_adapter@_W@__crt_stdio_output@@V?$format_validation_base@_WV?$string_output_adapter@_W@__crt_stdio_output@@@2@@__crt_stdio_output@@AAEX_K_N@Z 10031514 f i libucrt:output.obj
 0001:000305aa       ??$type_case_integer_parse_into_buffer@_K$0BA@@?$output_processor@_WV?$string_output_adapter@_W@__crt_stdio_output@@V?$positional_parameter_base@_WV?$string_output_adapter@_W@__crt_stdio_output@@@2@@__crt_stdio_output@@AAEX_K_N@Z 100315aa f i libucrt:output.obj
 0001:00030640       ??$type_case_integer_parse_into_buffer@_K$0BA@@?$output_processor@_WV?$string_output_adapter@_W@__crt_stdio_output@@V?$standard_base@_WV?$string_output_adapter@_W@__crt_stdio_output@@@2@@__crt_stdio_output@@AAEX_K_N@Z 10031640 f i libucrt:output.obj
 0001:000306d6       ??$write_multiple_characters@V?$stream_output_adapter@D@__crt_stdio_output@@D@__crt_stdio_output@@YAXABV?$stream_output_adapter@D@0@DHQAHAAV__crt_cached_ptd_host@@@Z 100316d6 f i libucrt:output.obj
 0001:00030705       ??$write_multiple_characters@V?$stream_output_adapter@_W@__crt_stdio_output@@D@__crt_stdio_output@@YAXABV?$stream_output_adapter@_W@0@DHQAHAAV__crt_cached_ptd_host@@@Z 10031705 f i libucrt:output.obj
 0001:00030739       ??$write_multiple_characters@V?$string_output_adapter@D@__crt_stdio_output@@D@__crt_stdio_output@@YAXABV?$string_output_adapter@D@0@DHQAHAAV__crt_cached_ptd_host@@@Z 10031739 f i libucrt:output.obj
 0001:0003079c       ??$write_multiple_characters@V?$string_output_adapter@_W@__crt_stdio_output@@D@__crt_stdio_output@@YAXABV?$string_output_adapter@_W@0@DHQAHAAV__crt_cached_ptd_host@@@Z 1003179c f i libucrt:output.obj
 0001:000309cb       ??0?$common_data@D@__crt_stdio_output@@IAE@AAV__crt_cached_ptd_host@@@Z 100319cb f i libucrt:output.obj
 0001:00030a12       ??0?$common_data@_W@__crt_stdio_output@@IAE@AAV__crt_cached_ptd_host@@@Z 10031a12 f i libucrt:output.obj
 0001:00030a5e       ??0?$output_adapter_data@DV?$stream_output_adapter@D@__crt_stdio_output@@@__crt_stdio_output@@IAE@ABV?$stream_output_adapter@D@1@_KQBDAAV__crt_cached_ptd_host@@QAD@Z 10031a5e f i libucrt:output.obj
 0001:00030ac5       ??0?$output_adapter_data@DV?$string_output_adapter@D@__crt_stdio_output@@@__crt_stdio_output@@IAE@ABV?$string_output_adapter@D@1@_KQBDAAV__crt_cached_ptd_host@@QAD@Z 10031ac5 f i libucrt:output.obj
 0001:00030b2c       ??0?$output_adapter_data@_WV?$stream_output_adapter@_W@__crt_stdio_output@@@__crt_stdio_output@@IAE@ABV?$stream_output_adapter@_W@1@_KQB_WAAV__crt_cached_ptd_host@@QAD@Z 10031b2c f i libucrt:output.obj
 0001:00030b98       ??0?$output_adapter_data@_WV?$string_output_adapter@_W@__crt_stdio_output@@@__crt_stdio_output@@IAE@ABV?$string_output_adapter@_W@1@_KQB_WAAV__crt_cached_ptd_host@@QAD@Z 10031b98 f i libucrt:output.obj
 0001:00030c04       ??0?$output_processor@DV?$stream_output_adapter@D@__crt_stdio_output@@V?$format_validation_base@DV?$stream_output_adapter@D@__crt_stdio_output@@@2@@__crt_stdio_output@@QAE@ABV?$stream_output_adapter@D@1@_KQBDAAV__crt_cached_ptd_host@@QAD@Z 10031c04 f i libucrt:output.obj
 0001:00030c31       ??0?$output_processor@DV?$stream_output_adapter@D@__crt_stdio_output@@V?$positional_parameter_base@DV?$stream_output_adapter@D@__crt_stdio_output@@@2@@__crt_stdio_output@@QAE@ABV?$stream_output_adapter@D@1@_KQBDAAV__crt_cached_ptd_host@@QAD@Z 10031c31 f i libucrt:output.obj
 0001:00030c57       ??0?$output_processor@DV?$stream_output_adapter@D@__crt_stdio_output@@V?$standard_base@DV?$stream_output_adapter@D@__crt_stdio_output@@@2@@__crt_stdio_output@@QAE@ABV?$stream_output_adapter@D@1@_KQBDAAV__crt_cached_ptd_host@@QAD@Z 10031c57 f i libucrt:output.obj
 0001:00030c84       ??0?$output_processor@DV?$string_output_adapter@D@__crt_stdio_output@@V?$format_validation_base@DV?$string_output_adapter@D@__crt_stdio_output@@@2@@__crt_stdio_output@@QAE@ABV?$string_output_adapter@D@1@_KQBDAAV__crt_cached_ptd_host@@QAD@Z 10031c84 f i libucrt:output.obj
 0001:00030cb1       ??0?$output_processor@DV?$string_output_adapter@D@__crt_stdio_output@@V?$positional_parameter_base@DV?$string_output_adapter@D@__crt_stdio_output@@@2@@__crt_stdio_output@@QAE@ABV?$string_output_adapter@D@1@_KQBDAAV__crt_cached_ptd_host@@QAD@Z 10031cb1 f i libucrt:output.obj
 0001:00030cd7       ??0?$output_processor@DV?$string_output_adapter@D@__crt_stdio_output@@V?$standard_base@DV?$string_output_adapter@D@__crt_stdio_output@@@2@@__crt_stdio_output@@QAE@ABV?$string_output_adapter@D@1@_KQBDAAV__crt_cached_ptd_host@@QAD@Z 10031cd7 f i libucrt:output.obj
 0001:00030d04       ??0?$output_processor@_WV?$stream_output_adapter@_W@__crt_stdio_output@@V?$format_validation_base@_WV?$stream_output_adapter@_W@__crt_stdio_output@@@2@@__crt_stdio_output@@QAE@ABV?$stream_output_adapter@_W@1@_KQB_WAAV__crt_cached_ptd_host@@QAD@Z 10031d04 f i libucrt:output.obj
 0001:00030d31       ??0?$output_processor@_WV?$stream_output_adapter@_W@__crt_stdio_output@@V?$positional_parameter_base@_WV?$stream_output_adapter@_W@__crt_stdio_output@@@2@@__crt_stdio_output@@QAE@ABV?$stream_output_adapter@_W@1@_KQB_WAAV__crt_cached_ptd_host@@QAD@Z 10031d31 f i libucrt:output.obj
 0001:00030d57       ??0?$output_processor@_WV?$stream_output_adapter@_W@__crt_stdio_output@@V?$standard_base@_WV?$stream_output_adapter@_W@__crt_stdio_output@@@2@@__crt_stdio_output@@QAE@ABV?$stream_output_adapter@_W@1@_KQB_WAAV__crt_cached_ptd_host@@QAD@Z 10031d57 f i libucrt:output.obj
 0001:00030d84       ??0?$output_processor@_WV?$string_output_adapter@_W@__crt_stdio_output@@V?$format_validation_base@_WV?$string_output_adapter@_W@__crt_stdio_output@@@2@@__crt_stdio_output@@QAE@ABV?$string_output_adapter@_W@1@_KQB_WAAV__crt_cached_ptd_host@@QAD@Z 10031d84 f i libucrt:output.obj
 0001:00030db1       ??0?$output_processor@_WV?$string_output_adapter@_W@__crt_stdio_output@@V?$positional_parameter_base@_WV?$string_output_adapter@_W@__crt_stdio_output@@@2@@__crt_stdio_output@@QAE@ABV?$string_output_adapter@_W@1@_KQB_WAAV__crt_cached_ptd_host@@QAD@Z 10031db1 f i libucrt:output.obj
 0001:00030dd7       ??0?$output_processor@_WV?$string_output_adapter@_W@__crt_stdio_output@@V?$standard_base@_WV?$string_output_adapter@_W@__crt_stdio_output@@@2@@__crt_stdio_output@@QAE@ABV?$string_output_adapter@_W@1@_KQB_WAAV__crt_cached_ptd_host@@QAD@Z 10031dd7 f i libucrt:output.obj
 0001:00030e04       ??0?$stream_output_adapter@D@__crt_stdio_output@@QAE@QAU_iobuf@@@Z 10031e04 f i libucrt:output.obj
 0001:00030e14       ??0?$stream_output_adapter@_W@__crt_stdio_output@@QAE@QAU_iobuf@@@Z 10031e14 f i libucrt:output.obj
 0001:00030e24       ??0?$string_output_adapter@D@__crt_stdio_output@@QAE@QAU?$string_output_adapter_context@D@1@@Z 10031e24 f i libucrt:output.obj
 0001:00030e34       ??0?$string_output_adapter@_W@__crt_stdio_output@@QAE@QAU?$string_output_adapter_context@_W@1@@Z 10031e34 f i libucrt:output.obj
 0001:00030e44       ??0formatting_buffer@__crt_stdio_output@@QAE@XZ 10031e44 f i libucrt:output.obj
 0001:00030e55       ??0guard@?$cached@H@__crt_cached_ptd_host@@QAE@AAU12@@Z 10031e55 f i libucrt:output.obj
 0001:00030e74       ??1?$common_data@D@__crt_stdio_output@@QAE@XZ 10031e74 f i libucrt:output.obj
 0001:00030e7c       ??1?$common_data@_W@__crt_stdio_output@@QAE@XZ 10031e7c f i libucrt:output.obj
 0001:00030e84       ??1?$format_validation_base@DV?$stream_output_adapter@D@__crt_stdio_output@@@__crt_stdio_output@@QAE@XZ 10031e84 f i libucrt:output.obj
 0001:00030e8c       ??1?$format_validation_base@DV?$string_output_adapter@D@__crt_stdio_output@@@__crt_stdio_output@@QAE@XZ 10031e8c f i libucrt:output.obj
 0001:00030e94       ??1?$format_validation_base@_WV?$stream_output_adapter@_W@__crt_stdio_output@@@__crt_stdio_output@@QAE@XZ 10031e94 f i libucrt:output.obj
 0001:00030e9c       ??1?$format_validation_base@_WV?$string_output_adapter@_W@__crt_stdio_output@@@__crt_stdio_output@@QAE@XZ 10031e9c f i libucrt:output.obj
 0001:00030ea4       ??1?$output_adapter_data@DV?$stream_output_adapter@D@__crt_stdio_output@@@__crt_stdio_output@@QAE@XZ 10031ea4 f i libucrt:output.obj
 0001:00030eac       ??1?$output_adapter_data@DV?$string_output_adapter@D@__crt_stdio_output@@@__crt_stdio_output@@QAE@XZ 10031eac f i libucrt:output.obj
 0001:00030eb4       ??1?$output_adapter_data@_WV?$stream_output_adapter@_W@__crt_stdio_output@@@__crt_stdio_output@@QAE@XZ 10031eb4 f i libucrt:output.obj
 0001:00030ebc       ??1?$output_adapter_data@_WV?$string_output_adapter@_W@__crt_stdio_output@@@__crt_stdio_output@@QAE@XZ 10031ebc f i libucrt:output.obj
 0001:00030ec4       ??1?$output_processor@DV?$stream_output_adapter@D@__crt_stdio_output@@V?$format_validation_base@DV?$stream_output_adapter@D@__crt_stdio_output@@@2@@__crt_stdio_output@@QAE@XZ 10031ec4 f i libucrt:output.obj
 0001:00030ecc       ??1?$output_processor@DV?$stream_output_adapter@D@__crt_stdio_output@@V?$positional_parameter_base@DV?$stream_output_adapter@D@__crt_stdio_output@@@2@@__crt_stdio_output@@QAE@XZ 10031ecc f i libucrt:output.obj
 0001:00030ed4       ??1?$output_processor@DV?$stream_output_adapter@D@__crt_stdio_output@@V?$standard_base@DV?$stream_output_adapter@D@__crt_stdio_output@@@2@@__crt_stdio_output@@QAE@XZ 10031ed4 f i libucrt:output.obj
 0001:00030edc       ??1?$output_processor@DV?$string_output_adapter@D@__crt_stdio_output@@V?$format_validation_base@DV?$string_output_adapter@D@__crt_stdio_output@@@2@@__crt_stdio_output@@QAE@XZ 10031edc f i libucrt:output.obj
 0001:00030ee4       ??1?$output_processor@DV?$string_output_adapter@D@__crt_stdio_output@@V?$positional_parameter_base@DV?$string_output_adapter@D@__crt_stdio_output@@@2@@__crt_stdio_output@@QAE@XZ 10031ee4 f i libucrt:output.obj
 0001:00030eec       ??1?$output_processor@DV?$string_output_adapter@D@__crt_stdio_output@@V?$standard_base@DV?$string_output_adapter@D@__crt_stdio_output@@@2@@__crt_stdio_output@@QAE@XZ 10031eec f i libucrt:output.obj
 0001:00030ef4       ??1?$output_processor@_WV?$stream_output_adapter@_W@__crt_stdio_output@@V?$format_validation_base@_WV?$stream_output_adapter@_W@__crt_stdio_output@@@2@@__crt_stdio_output@@QAE@XZ 10031ef4 f i libucrt:output.obj
 0001:00030efc       ??1?$output_processor@_WV?$stream_output_adapter@_W@__crt_stdio_output@@V?$positional_parameter_base@_WV?$stream_output_adapter@_W@__crt_stdio_output@@@2@@__crt_stdio_output@@QAE@XZ 10031efc f i libucrt:output.obj
 0001:00030f04       ??1?$output_processor@_WV?$stream_output_adapter@_W@__crt_stdio_output@@V?$standard_base@_WV?$stream_output_adapter@_W@__crt_stdio_output@@@2@@__crt_stdio_output@@QAE@XZ 10031f04 f i libucrt:output.obj
 0001:00030f0c       ??1?$output_processor@_WV?$string_output_adapter@_W@__crt_stdio_output@@V?$format_validation_base@_WV?$string_output_adapter@_W@__crt_stdio_output@@@2@@__crt_stdio_output@@QAE@XZ 10031f0c f i libucrt:output.obj
 0001:00030f14       ??1?$output_processor@_WV?$string_output_adapter@_W@__crt_stdio_output@@V?$positional_parameter_base@_WV?$string_output_adapter@_W@__crt_stdio_output@@@2@@__crt_stdio_output@@QAE@XZ 10031f14 f i libucrt:output.obj
 0001:00030f1c       ??1?$output_processor@_WV?$string_output_adapter@_W@__crt_stdio_output@@V?$standard_base@_WV?$string_output_adapter@_W@__crt_stdio_output@@@2@@__crt_stdio_output@@QAE@XZ 10031f1c f i libucrt:output.obj
 0001:00030f24       ??1?$positional_parameter_base@DV?$stream_output_adapter@D@__crt_stdio_output@@@__crt_stdio_output@@QAE@XZ 10031f24 f i libucrt:output.obj
 0001:00030f2c       ??1?$positional_parameter_base@DV?$string_output_adapter@D@__crt_stdio_output@@@__crt_stdio_output@@QAE@XZ 10031f2c f i libucrt:output.obj
 0001:00030f34       ??1?$positional_parameter_base@_WV?$stream_output_adapter@_W@__crt_stdio_output@@@__crt_stdio_output@@QAE@XZ 10031f34 f i libucrt:output.obj
 0001:00030f3c       ??1?$positional_parameter_base@_WV?$string_output_adapter@_W@__crt_stdio_output@@@__crt_stdio_output@@QAE@XZ 10031f3c f i libucrt:output.obj
 0001:00030f44       ??1?$standard_base@DV?$stream_output_adapter@D@__crt_stdio_output@@@__crt_stdio_output@@QAE@XZ 10031f44 f i libucrt:output.obj
 0001:00030f4c       ??1?$standard_base@DV?$string_output_adapter@D@__crt_stdio_output@@@__crt_stdio_output@@QAE@XZ 10031f4c f i libucrt:output.obj
 0001:00030f54       ??1?$standard_base@_WV?$stream_output_adapter@_W@__crt_stdio_output@@@__crt_stdio_output@@QAE@XZ 10031f54 f i libucrt:output.obj
 0001:00030f5c       ??1?$standard_base@_WV?$string_output_adapter@_W@__crt_stdio_output@@@__crt_stdio_output@@QAE@XZ 10031f5c f i libucrt:output.obj
 0001:00030f64       ??1formatting_buffer@__crt_stdio_output@@QAE@XZ 10031f64 f i libucrt:output.obj
 0001:00030f7e       ??1guard@?$cached@H@__crt_cached_ptd_host@@QAE@XZ 10031f7e f i libucrt:output.obj
 0001:00030f94       ??4?$__crt_unique_heap_ptr@DU__crt_internal_free_policy@@@@QAEAAV0@$$QAV0@@Z 10031f94 f i libucrt:output.obj
 0001:00030fb8       ??A?$spectre_mitigated_lookup_table@Ustate_transition_pair@__crt_stdio_output@@$0IA@@__crt_stdio_output@@QBEABUstate_transition_pair@1@I@Z 10031fb8 f i libucrt:output.obj
 0001:00031430       ?adjust_hexit@?$output_processor@DV?$stream_output_adapter@D@__crt_stdio_output@@V?$format_validation_base@DV?$stream_output_adapter@D@__crt_stdio_output@@@2@@__crt_stdio_output@@CADH_N@Z 10032430 f i libucrt:output.obj
 0001:00031444       ?adjust_hexit@?$output_processor@DV?$stream_output_adapter@D@__crt_stdio_output@@V?$positional_parameter_base@DV?$stream_output_adapter@D@__crt_stdio_output@@@2@@__crt_stdio_output@@CADH_N@Z 10032444 f i libucrt:output.obj
 0001:00031458       ?adjust_hexit@?$output_processor@DV?$stream_output_adapter@D@__crt_stdio_output@@V?$standard_base@DV?$stream_output_adapter@D@__crt_stdio_output@@@2@@__crt_stdio_output@@CADH_N@Z 10032458 f i libucrt:output.obj
 0001:0003146c       ?adjust_hexit@?$output_processor@DV?$string_output_adapter@D@__crt_stdio_output@@V?$format_validation_base@DV?$string_output_adapter@D@__crt_stdio_output@@@2@@__crt_stdio_output@@CADH_N@Z 1003246c f i libucrt:output.obj
 0001:00031480       ?adjust_hexit@?$output_processor@DV?$string_output_adapter@D@__crt_stdio_output@@V?$positional_parameter_base@DV?$string_output_adapter@D@__crt_stdio_output@@@2@@__crt_stdio_output@@CADH_N@Z 10032480 f i libucrt:output.obj
 0001:00031494       ?adjust_hexit@?$output_processor@DV?$string_output_adapter@D@__crt_stdio_output@@V?$standard_base@DV?$string_output_adapter@D@__crt_stdio_output@@@2@@__crt_stdio_output@@CADH_N@Z 10032494 f i libucrt:output.obj
 0001:000314a8       ?adjust_hexit@?$output_processor@_WV?$stream_output_adapter@_W@__crt_stdio_output@@V?$format_validation_base@_WV?$stream_output_adapter@_W@__crt_stdio_output@@@2@@__crt_stdio_output@@CADH_N@Z 100324a8 f i libucrt:output.obj
 0001:000314bc       ?adjust_hexit@?$output_processor@_WV?$stream_output_adapter@_W@__crt_stdio_output@@V?$positional_parameter_base@_WV?$stream_output_adapter@_W@__crt_stdio_output@@@2@@__crt_stdio_output@@CADH_N@Z 100324bc f i libucrt:output.obj
 0001:000314d0       ?adjust_hexit@?$output_processor@_WV?$stream_output_adapter@_W@__crt_stdio_output@@V?$standard_base@_WV?$stream_output_adapter@_W@__crt_stdio_output@@@2@@__crt_stdio_output@@CADH_N@Z 100324d0 f i libucrt:output.obj
 0001:000314e4       ?adjust_hexit@?$output_processor@_WV?$string_output_adapter@_W@__crt_stdio_output@@V?$format_validation_base@_WV?$string_output_adapter@_W@__crt_stdio_output@@@2@@__crt_stdio_output@@CADH_N@Z 100324e4 f i libucrt:output.obj
 0001:000314f8       ?adjust_hexit@?$output_processor@_WV?$string_output_adapter@_W@__crt_stdio_output@@V?$positional_parameter_base@_WV?$string_output_adapter@_W@__crt_stdio_output@@@2@@__crt_stdio_output@@CADH_N@Z 100324f8 f i libucrt:output.obj
 0001:0003150c       ?adjust_hexit@?$output_processor@_WV?$string_output_adapter@_W@__crt_stdio_output@@V?$standard_base@_WV?$string_output_adapter@_W@__crt_stdio_output@@@2@@__crt_stdio_output@@CADH_N@Z 1003250c f i libucrt:output.obj
 0001:00031520       ?advance_to_next_pass@?$positional_parameter_base@DV?$stream_output_adapter@D@__crt_stdio_output@@@__crt_stdio_output@@IAE_NXZ 10032520 f i libucrt:output.obj
 0001:0003156e       ?advance_to_next_pass@?$positional_parameter_base@DV?$string_output_adapter@D@__crt_stdio_output@@@__crt_stdio_output@@IAE_NXZ 1003256e f i libucrt:output.obj
 0001:000315bc       ?advance_to_next_pass@?$positional_parameter_base@_WV?$stream_output_adapter@_W@__crt_stdio_output@@@__crt_stdio_output@@IAE_NXZ 100325bc f i libucrt:output.obj
 0001:0003160a       ?advance_to_next_pass@?$positional_parameter_base@_WV?$string_output_adapter@_W@__crt_stdio_output@@@__crt_stdio_output@@IAE_NXZ 1003260a f i libucrt:output.obj
 0001:00031658       ?advance_to_next_pass@?$standard_base@DV?$stream_output_adapter@D@__crt_stdio_output@@@__crt_stdio_output@@IAE_NXZ 10032658 f i libucrt:output.obj
 0001:00031669       ?advance_to_next_pass@?$standard_base@DV?$string_output_adapter@D@__crt_stdio_output@@@__crt_stdio_output@@IAE_NXZ 10032669 f i libucrt:output.obj
 0001:0003167a       ?advance_to_next_pass@?$standard_base@_WV?$stream_output_adapter@_W@__crt_stdio_output@@@__crt_stdio_output@@IAE_NXZ 1003267a f i libucrt:output.obj
 0001:0003168b       ?advance_to_next_pass@?$standard_base@_WV?$string_output_adapter@_W@__crt_stdio_output@@@__crt_stdio_output@@IAE_NXZ 1003268b f i libucrt:output.obj
 0001:0003169c       ?check@?$cached@H@__crt_cached_ptd_host@@QBE_NH@Z 1003269c f i libucrt:output.obj
 0001:000316b8       ?create_guard@?$cached@H@__crt_cached_ptd_host@@QAE?AVguard@12@XZ 100326b8 f i libucrt:output.obj
 0001:000316d5       ?crop_zeroes@__crt_stdio_output@@YAXPADQAU__crt_locale_pointers@@@Z 100326d5 f i libucrt:output.obj
 0001:00031735       ?disable@guard@?$cached@H@__crt_cached_ptd_host@@QAEXXZ 10032735 f i libucrt:output.obj
 0001:0003173a       ?enable@guard@?$cached@H@__crt_cached_ptd_host@@QAEXXZ 1003273a f i libucrt:output.obj
 0001:0003173f       ?find_next_state@?$output_processor@DV?$stream_output_adapter@D@__crt_stdio_output@@V?$format_validation_base@DV?$stream_output_adapter@D@__crt_stdio_output@@@2@@__crt_stdio_output@@ABE?AW4state@2@DW432@@Z 1003273f f i libucrt:output.obj
 0001:0003177c       ?find_next_state@?$output_processor@DV?$stream_output_adapter@D@__crt_stdio_output@@V?$positional_parameter_base@DV?$stream_output_adapter@D@__crt_stdio_output@@@2@@__crt_stdio_output@@ABE?AW4state@2@DW432@@Z 1003277c f i libucrt:output.obj
 0001:000317b9       ?find_next_state@?$output_processor@DV?$stream_output_adapter@D@__crt_stdio_output@@V?$standard_base@DV?$stream_output_adapter@D@__crt_stdio_output@@@2@@__crt_stdio_output@@ABE?AW4state@2@DW432@@Z 100327b9 f i libucrt:output.obj
 0001:000317f4       ?find_next_state@?$output_processor@DV?$string_output_adapter@D@__crt_stdio_output@@V?$format_validation_base@DV?$string_output_adapter@D@__crt_stdio_output@@@2@@__crt_stdio_output@@ABE?AW4state@2@DW432@@Z 100327f4 f i libucrt:output.obj
 0001:00031831       ?find_next_state@?$output_processor@DV?$string_output_adapter@D@__crt_stdio_output@@V?$positional_parameter_base@DV?$string_output_adapter@D@__crt_stdio_output@@@2@@__crt_stdio_output@@ABE?AW4state@2@DW432@@Z 10032831 f i libucrt:output.obj
 0001:0003186e       ?find_next_state@?$output_processor@DV?$string_output_adapter@D@__crt_stdio_output@@V?$standard_base@DV?$string_output_adapter@D@__crt_stdio_output@@@2@@__crt_stdio_output@@ABE?AW4state@2@DW432@@Z 1003286e f i libucrt:output.obj
 0001:000318a9       ?find_next_state@?$output_processor@_WV?$stream_output_adapter@_W@__crt_stdio_output@@V?$format_validation_base@_WV?$stream_output_adapter@_W@__crt_stdio_output@@@2@@__crt_stdio_output@@ABE?AW4state@2@_WW432@@Z 100328a9 f i libucrt:output.obj
 0001:000318e5       ?find_next_state@?$output_processor@_WV?$stream_output_adapter@_W@__crt_stdio_output@@V?$positional_parameter_base@_WV?$stream_output_adapter@_W@__crt_stdio_output@@@2@@__crt_stdio_output@@ABE?AW4state@2@_WW432@@Z 100328e5 f i libucrt:output.obj
 0001:00031921       ?find_next_state@?$output_processor@_WV?$stream_output_adapter@_W@__crt_stdio_output@@V?$standard_base@_WV?$stream_output_adapter@_W@__crt_stdio_output@@@2@@__crt_stdio_output@@ABE?AW4state@2@_WW432@@Z 10032921 f i libucrt:output.obj
 0001:0003195b       ?find_next_state@?$output_processor@_WV?$string_output_adapter@_W@__crt_stdio_output@@V?$format_validation_base@_WV?$string_output_adapter@_W@__crt_stdio_output@@@2@@__crt_stdio_output@@ABE?AW4state@2@_WW432@@Z 1003295b f i libucrt:output.obj
 0001:00031997       ?find_next_state@?$output_processor@_WV?$string_output_adapter@_W@__crt_stdio_output@@V?$positional_parameter_base@_WV?$string_output_adapter@_W@__crt_stdio_output@@@2@@__crt_stdio_output@@ABE?AW4state@2@_WW432@@Z 10032997 f i libucrt:output.obj
 0001:000319d3       ?find_next_state@?$output_processor@_WV?$string_output_adapter@_W@__crt_stdio_output@@V?$standard_base@_WV?$string_output_adapter@_W@__crt_stdio_output@@@2@@__crt_stdio_output@@ABE?AW4state@2@_WW432@@Z 100329d3 f i libucrt:output.obj
 0001:00031a0d       ?force_decimal_point@__crt_stdio_output@@YAXPADQAU__crt_locale_pointers@@@Z 10032a0d f i libucrt:output.obj
 0001:00031a69       ?get_parameter_type@?$positional_parameter_base@DV?$stream_output_adapter@D@__crt_stdio_output@@@__crt_stdio_output@@CA?AW4parameter_type@12@F@Z 10032a69 f i libucrt:output.obj
 0001:00031a6d       ?get_parameter_type@?$positional_parameter_base@DV?$stream_output_adapter@D@__crt_stdio_output@@@__crt_stdio_output@@CA?AW4parameter_type@12@G@Z 10032a6d f i libucrt:output.obj
 0001:00031a71       ?get_parameter_type@?$positional_parameter_base@DV?$stream_output_adapter@D@__crt_stdio_output@@@__crt_stdio_output@@CA?AW4parameter_type@12@H@Z 10032a71 f i libucrt:output.obj
 0001:00031a75       ?get_parameter_type@?$positional_parameter_base@DV?$stream_output_adapter@D@__crt_stdio_output@@@__crt_stdio_output@@CA?AW4parameter_type@12@I@Z 10032a75 f i libucrt:output.obj
 0001:00031a79       ?get_parameter_type@?$positional_parameter_base@DV?$stream_output_adapter@D@__crt_stdio_output@@@__crt_stdio_output@@CA?AW4parameter_type@12@U_CRT_DOUBLE@@@Z 10032a79 f i libucrt:output.obj
 0001:00031a7d       ?get_parameter_type@?$positional_parameter_base@DV?$stream_output_adapter@D@__crt_stdio_output@@@__crt_stdio_output@@CA?AW4parameter_type@12@_J@Z 10032a7d f i libucrt:output.obj
 0001:00031a81       ?get_parameter_type@?$positional_parameter_base@DV?$stream_output_adapter@D@__crt_stdio_output@@@__crt_stdio_output@@CA?AW4parameter_type@12@_K@Z 10032a81 f i libucrt:output.obj
 0001:00031a85       ?get_parameter_type@?$positional_parameter_base@DV?$stream_output_adapter@D@__crt_stdio_output@@@__crt_stdio_output@@CA?AW4parameter_type@12@_W@Z 10032a85 f i libucrt:output.obj
 0001:00031a89       ?get_parameter_type@?$positional_parameter_base@DV?$string_output_adapter@D@__crt_stdio_output@@@__crt_stdio_output@@CA?AW4parameter_type@12@F@Z 10032a89 f i libucrt:output.obj
 0001:00031a8d       ?get_parameter_type@?$positional_parameter_base@DV?$string_output_adapter@D@__crt_stdio_output@@@__crt_stdio_output@@CA?AW4parameter_type@12@G@Z 10032a8d f i libucrt:output.obj
 0001:00031a91       ?get_parameter_type@?$positional_parameter_base@DV?$string_output_adapter@D@__crt_stdio_output@@@__crt_stdio_output@@CA?AW4parameter_type@12@H@Z 10032a91 f i libucrt:output.obj
 0001:00031a95       ?get_parameter_type@?$positional_parameter_base@DV?$string_output_adapter@D@__crt_stdio_output@@@__crt_stdio_output@@CA?AW4parameter_type@12@I@Z 10032a95 f i libucrt:output.obj
 0001:00031a99       ?get_parameter_type@?$positional_parameter_base@DV?$string_output_adapter@D@__crt_stdio_output@@@__crt_stdio_output@@CA?AW4parameter_type@12@U_CRT_DOUBLE@@@Z 10032a99 f i libucrt:output.obj
 0001:00031a9d       ?get_parameter_type@?$positional_parameter_base@DV?$string_output_adapter@D@__crt_stdio_output@@@__crt_stdio_output@@CA?AW4parameter_type@12@_J@Z 10032a9d f i libucrt:output.obj
 0001:00031aa1       ?get_parameter_type@?$positional_parameter_base@DV?$string_output_adapter@D@__crt_stdio_output@@@__crt_stdio_output@@CA?AW4parameter_type@12@_K@Z 10032aa1 f i libucrt:output.obj
 0001:00031aa5       ?get_parameter_type@?$positional_parameter_base@DV?$string_output_adapter@D@__crt_stdio_output@@@__crt_stdio_output@@CA?AW4parameter_type@12@_W@Z 10032aa5 f i libucrt:output.obj
 0001:00031aa9       ?get_parameter_type@?$positional_parameter_base@_WV?$stream_output_adapter@_W@__crt_stdio_output@@@__crt_stdio_output@@CA?AW4parameter_type@12@F@Z 10032aa9 f i libucrt:output.obj
 0001:00031aad       ?get_parameter_type@?$positional_parameter_base@_WV?$stream_output_adapter@_W@__crt_stdio_output@@@__crt_stdio_output@@CA?AW4parameter_type@12@G@Z 10032aad f i libucrt:output.obj
 0001:00031ab1       ?get_parameter_type@?$positional_parameter_base@_WV?$stream_output_adapter@_W@__crt_stdio_output@@@__crt_stdio_output@@CA?AW4parameter_type@12@H@Z 10032ab1 f i libucrt:output.obj
 0001:00031ab5       ?get_parameter_type@?$positional_parameter_base@_WV?$stream_output_adapter@_W@__crt_stdio_output@@@__crt_stdio_output@@CA?AW4parameter_type@12@I@Z 10032ab5 f i libucrt:output.obj
 0001:00031ab9       ?get_parameter_type@?$positional_parameter_base@_WV?$stream_output_adapter@_W@__crt_stdio_output@@@__crt_stdio_output@@CA?AW4parameter_type@12@U_CRT_DOUBLE@@@Z 10032ab9 f i libucrt:output.obj
 0001:00031abd       ?get_parameter_type@?$positional_parameter_base@_WV?$stream_output_adapter@_W@__crt_stdio_output@@@__crt_stdio_output@@CA?AW4parameter_type@12@_J@Z 10032abd f i libucrt:output.obj
 0001:00031ac1       ?get_parameter_type@?$positional_parameter_base@_WV?$stream_output_adapter@_W@__crt_stdio_output@@@__crt_stdio_output@@CA?AW4parameter_type@12@_K@Z 10032ac1 f i libucrt:output.obj
 0001:00031ac5       ?get_parameter_type@?$positional_parameter_base@_WV?$stream_output_adapter@_W@__crt_stdio_output@@@__crt_stdio_output@@CA?AW4parameter_type@12@_W@Z 10032ac5 f i libucrt:output.obj
 0001:00031ac9       ?get_parameter_type@?$positional_parameter_base@_WV?$string_output_adapter@_W@__crt_stdio_output@@@__crt_stdio_output@@CA?AW4parameter_type@12@F@Z 10032ac9 f i libucrt:output.obj
 0001:00031acd       ?get_parameter_type@?$positional_parameter_base@_WV?$string_output_adapter@_W@__crt_stdio_output@@@__crt_stdio_output@@CA?AW4parameter_type@12@G@Z 10032acd f i libucrt:output.obj
 0001:00031ad1       ?get_parameter_type@?$positional_parameter_base@_WV?$string_output_adapter@_W@__crt_stdio_output@@@__crt_stdio_output@@CA?AW4parameter_type@12@H@Z 10032ad1 f i libucrt:output.obj
 0001:00031ad5       ?get_parameter_type@?$positional_parameter_base@_WV?$string_output_adapter@_W@__crt_stdio_output@@@__crt_stdio_output@@CA?AW4parameter_type@12@I@Z 10032ad5 f i libucrt:output.obj
 0001:00031ad9       ?get_parameter_type@?$positional_parameter_base@_WV?$string_output_adapter@_W@__crt_stdio_output@@@__crt_stdio_output@@CA?AW4parameter_type@12@U_CRT_DOUBLE@@@Z 10032ad9 f i libucrt:output.obj
 0001:00031add       ?get_parameter_type@?$positional_parameter_base@_WV?$string_output_adapter@_W@__crt_stdio_output@@@__crt_stdio_output@@CA?AW4parameter_type@12@_J@Z 10032add f i libucrt:output.obj
 0001:00031ae1       ?get_parameter_type@?$positional_parameter_base@_WV?$string_output_adapter@_W@__crt_stdio_output@@@__crt_stdio_output@@CA?AW4parameter_type@12@_K@Z 10032ae1 f i libucrt:output.obj
 0001:00031ae5       ?get_parameter_type@?$positional_parameter_base@_WV?$string_output_adapter@_W@__crt_stdio_output@@@__crt_stdio_output@@CA?AW4parameter_type@12@_W@Z 10032ae5 f i libucrt:output.obj
 0001:00031ae9       ?has_flag@?$output_processor@DV?$stream_output_adapter@D@__crt_stdio_output@@V?$format_validation_base@DV?$stream_output_adapter@D@__crt_stdio_output@@@2@@__crt_stdio_output@@ABE_NI@Z 10032ae9 f i libucrt:output.obj
 0001:00031afb       ?has_flag@?$output_processor@DV?$stream_output_adapter@D@__crt_stdio_output@@V?$positional_parameter_base@DV?$stream_output_adapter@D@__crt_stdio_output@@@2@@__crt_stdio_output@@ABE_NI@Z 10032afb f i libucrt:output.obj
 0001:00031b0d       ?has_flag@?$output_processor@DV?$stream_output_adapter@D@__crt_stdio_output@@V?$standard_base@DV?$stream_output_adapter@D@__crt_stdio_output@@@2@@__crt_stdio_output@@ABE_NI@Z 10032b0d f i libucrt:output.obj
 0001:00031b1f       ?has_flag@?$output_processor@DV?$string_output_adapter@D@__crt_stdio_output@@V?$format_validation_base@DV?$string_output_adapter@D@__crt_stdio_output@@@2@@__crt_stdio_output@@ABE_NI@Z 10032b1f f i libucrt:output.obj
 0001:00031b31       ?has_flag@?$output_processor@DV?$string_output_adapter@D@__crt_stdio_output@@V?$positional_parameter_base@DV?$string_output_adapter@D@__crt_stdio_output@@@2@@__crt_stdio_output@@ABE_NI@Z 10032b31 f i libucrt:output.obj
 0001:00031b43       ?has_flag@?$output_processor@DV?$string_output_adapter@D@__crt_stdio_output@@V?$standard_base@DV?$string_output_adapter@D@__crt_stdio_output@@@2@@__crt_stdio_output@@ABE_NI@Z 10032b43 f i libucrt:output.obj
 0001:00031b55       ?has_flag@?$output_processor@_WV?$stream_output_adapter@_W@__crt_stdio_output@@V?$format_validation_base@_WV?$stream_output_adapter@_W@__crt_stdio_output@@@2@@__crt_stdio_output@@ABE_NI@Z 10032b55 f i libucrt:output.obj
 0001:00031b67       ?has_flag@?$output_processor@_WV?$stream_output_adapter@_W@__crt_stdio_output@@V?$positional_parameter_base@_WV?$stream_output_adapter@_W@__crt_stdio_output@@@2@@__crt_stdio_output@@ABE_NI@Z 10032b67 f i libucrt:output.obj
 0001:00031b79       ?has_flag@?$output_processor@_WV?$stream_output_adapter@_W@__crt_stdio_output@@V?$standard_base@_WV?$stream_output_adapter@_W@__crt_stdio_output@@@2@@__crt_stdio_output@@ABE_NI@Z 10032b79 f i libucrt:output.obj
 0001:00031b8b       ?has_flag@?$output_processor@_WV?$string_output_adapter@_W@__crt_stdio_output@@V?$format_validation_base@_WV?$string_output_adapter@_W@__crt_stdio_output@@@2@@__crt_stdio_output@@ABE_NI@Z 10032b8b f i libucrt:output.obj
 0001:00031b9d       ?has_flag@?$output_processor@_WV?$string_output_adapter@_W@__crt_stdio_output@@V?$positional_parameter_base@_WV?$string_output_adapter@_W@__crt_stdio_output@@@2@@__crt_stdio_output@@ABE_NI@Z 10032b9d f i libucrt:output.obj
 0001:00031baf       ?has_flag@?$output_processor@_WV?$string_output_adapter@_W@__crt_stdio_output@@V?$standard_base@_WV?$string_output_adapter@_W@__crt_stdio_output@@@2@@__crt_stdio_output@@ABE_NI@Z 10032baf f i libucrt:output.obj
 0001:00031bc1       ?is_positional_parameter_reappearance_consistent@?$positional_parameter_base@DV?$stream_output_adapter@D@__crt_stdio_output@@@__crt_stdio_output@@AAE_NABUparameter_data@12@W4parameter_type@12@DW4length_modifier@2@@Z 10032bc1 f i libucrt:output.obj
 0001:00031cdb       ?is_positional_parameter_reappearance_consistent@?$positional_parameter_base@DV?$string_output_adapter@D@__crt_stdio_output@@@__crt_stdio_output@@AAE_NABUparameter_data@12@W4parameter_type@12@DW4length_modifier@2@@Z 10032cdb f i libucrt:output.obj
 0001:00031df5       ?is_positional_parameter_reappearance_consistent@?$positional_parameter_base@_WV?$stream_output_adapter@_W@__crt_stdio_output@@@__crt_stdio_output@@AAE_NABUparameter_data@12@W4parameter_type@12@_WW4length_modifier@2@@Z 10032df5 f i libucrt:output.obj
 0001:00031f10       ?is_positional_parameter_reappearance_consistent@?$positional_parameter_base@_WV?$string_output_adapter@_W@__crt_stdio_output@@@__crt_stdio_output@@AAE_NABUparameter_data@12@W4parameter_type@12@_WW4length_modifier@2@@Z 10032f10 f i libucrt:output.obj
 0001:0003202b       ?narrow_null_string@?$output_processor@DV?$stream_output_adapter@D@__crt_stdio_output@@V?$format_validation_base@DV?$stream_output_adapter@D@__crt_stdio_output@@@2@@__crt_stdio_output@@CAPADXZ 1003302b f i libucrt:output.obj
 0001:00032031       ?narrow_null_string@?$output_processor@DV?$stream_output_adapter@D@__crt_stdio_output@@V?$positional_parameter_base@DV?$stream_output_adapter@D@__crt_stdio_output@@@2@@__crt_stdio_output@@CAPADXZ 10033031 f i libucrt:output.obj
 0001:00032037       ?narrow_null_string@?$output_processor@DV?$stream_output_adapter@D@__crt_stdio_output@@V?$standard_base@DV?$stream_output_adapter@D@__crt_stdio_output@@@2@@__crt_stdio_output@@CAPADXZ 10033037 f i libucrt:output.obj
 0001:0003203d       ?narrow_null_string@?$output_processor@DV?$string_output_adapter@D@__crt_stdio_output@@V?$format_validation_base@DV?$string_output_adapter@D@__crt_stdio_output@@@2@@__crt_stdio_output@@CAPADXZ 1003303d f i libucrt:output.obj
 0001:00032043       ?narrow_null_string@?$output_processor@DV?$string_output_adapter@D@__crt_stdio_output@@V?$positional_parameter_base@DV?$string_output_adapter@D@__crt_stdio_output@@@2@@__crt_stdio_output@@CAPADXZ 10033043 f i libucrt:output.obj
 0001:00032049       ?narrow_null_string@?$output_processor@DV?$string_output_adapter@D@__crt_stdio_output@@V?$standard_base@DV?$string_output_adapter@D@__crt_stdio_output@@@2@@__crt_stdio_output@@CAPADXZ 10033049 f i libucrt:output.obj
 0001:0003204f       ?narrow_null_string@?$output_processor@_WV?$stream_output_adapter@_W@__crt_stdio_output@@V?$format_validation_base@_WV?$stream_output_adapter@_W@__crt_stdio_output@@@2@@__crt_stdio_output@@CAPADXZ 1003304f f i libucrt:output.obj
 0001:00032055       ?narrow_null_string@?$output_processor@_WV?$stream_output_adapter@_W@__crt_stdio_output@@V?$positional_parameter_base@_WV?$stream_output_adapter@_W@__crt_stdio_output@@@2@@__crt_stdio_output@@CAPADXZ 10033055 f i libucrt:output.obj
 0001:0003205b       ?narrow_null_string@?$output_processor@_WV?$stream_output_adapter@_W@__crt_stdio_output@@V?$standard_base@_WV?$stream_output_adapter@_W@__crt_stdio_output@@@2@@__crt_stdio_output@@CAPADXZ 1003305b f i libucrt:output.obj
 0001:00032061       ?narrow_null_string@?$output_processor@_WV?$string_output_adapter@_W@__crt_stdio_output@@V?$format_validation_base@_WV?$string_output_adapter@_W@__crt_stdio_output@@@2@@__crt_stdio_output@@CAPADXZ 10033061 f i libucrt:output.obj
 0001:00032067       ?narrow_null_string@?$output_processor@_WV?$string_output_adapter@_W@__crt_stdio_output@@V?$positional_parameter_base@_WV?$string_output_adapter@_W@__crt_stdio_output@@@2@@__crt_stdio_output@@CAPADXZ 10033067 f i libucrt:output.obj
 0001:0003206d       ?narrow_null_string@?$output_processor@_WV?$string_output_adapter@_W@__crt_stdio_output@@V?$standard_base@_WV?$string_output_adapter@_W@__crt_stdio_output@@@2@@__crt_stdio_output@@CAPADXZ 1003306d f i libucrt:output.obj
 0001:00032073       ?parse_int_from_format_string@?$output_processor@DV?$stream_output_adapter@D@__crt_stdio_output@@V?$format_validation_base@DV?$stream_output_adapter@D@__crt_stdio_output@@@2@@__crt_stdio_output@@AAE_NQAH@Z 10033073 f i libucrt:output.obj
 0001:000320eb       ?parse_int_from_format_string@?$output_processor@DV?$stream_output_adapter@D@__crt_stdio_output@@V?$positional_parameter_base@DV?$stream_output_adapter@D@__crt_stdio_output@@@2@@__crt_stdio_output@@AAE_NQAH@Z 100330eb f i libucrt:output.obj
 0001:00032163       ?parse_int_from_format_string@?$output_processor@DV?$stream_output_adapter@D@__crt_stdio_output@@V?$standard_base@DV?$stream_output_adapter@D@__crt_stdio_output@@@2@@__crt_stdio_output@@AAE_NQAH@Z 10033163 f i libucrt:output.obj
 0001:000321db       ?parse_int_from_format_string@?$output_processor@DV?$string_output_adapter@D@__crt_stdio_output@@V?$format_validation_base@DV?$string_output_adapter@D@__crt_stdio_output@@@2@@__crt_stdio_output@@AAE_NQAH@Z 100331db f i libucrt:output.obj
 0001:00032253       ?parse_int_from_format_string@?$output_processor@DV?$string_output_adapter@D@__crt_stdio_output@@V?$positional_parameter_base@DV?$string_output_adapter@D@__crt_stdio_output@@@2@@__crt_stdio_output@@AAE_NQAH@Z 10033253 f i libucrt:output.obj
 0001:000322cb       ?parse_int_from_format_string@?$output_processor@DV?$string_output_adapter@D@__crt_stdio_output@@V?$standard_base@DV?$string_output_adapter@D@__crt_stdio_output@@@2@@__crt_stdio_output@@AAE_NQAH@Z 100332cb f i libucrt:output.obj
 0001:00032343       ?parse_int_from_format_string@?$output_processor@_WV?$stream_output_adapter@_W@__crt_stdio_output@@V?$format_validation_base@_WV?$stream_output_adapter@_W@__crt_stdio_output@@@2@@__crt_stdio_output@@AAE_NQAH@Z 10033343 f i libucrt:output.obj
 0001:000323bd       ?parse_int_from_format_string@?$output_processor@_WV?$stream_output_adapter@_W@__crt_stdio_output@@V?$positional_parameter_base@_WV?$stream_output_adapter@_W@__crt_stdio_output@@@2@@__crt_stdio_output@@AAE_NQAH@Z 100333bd f i libucrt:output.obj
 0001:00032437       ?parse_int_from_format_string@?$output_processor@_WV?$stream_output_adapter@_W@__crt_stdio_output@@V?$standard_base@_WV?$stream_output_adapter@_W@__crt_stdio_output@@@2@@__crt_stdio_output@@AAE_NQAH@Z 10033437 f i libucrt:output.obj
 0001:000324b1       ?parse_int_from_format_string@?$output_processor@_WV?$string_output_adapter@_W@__crt_stdio_output@@V?$format_validation_base@_WV?$string_output_adapter@_W@__crt_stdio_output@@@2@@__crt_stdio_output@@AAE_NQAH@Z 100334b1 f i libucrt:output.obj
 0001:0003252b       ?parse_int_from_format_string@?$output_processor@_WV?$string_output_adapter@_W@__crt_stdio_output@@V?$positional_parameter_base@_WV?$string_output_adapter@_W@__crt_stdio_output@@@2@@__crt_stdio_output@@AAE_NQAH@Z 1003352b f i libucrt:output.obj
 0001:000325a5       ?parse_int_from_format_string@?$output_processor@_WV?$string_output_adapter@_W@__crt_stdio_output@@V?$standard_base@_WV?$string_output_adapter@_W@__crt_stdio_output@@@2@@__crt_stdio_output@@AAE_NQAH@Z 100335a5 f i libucrt:output.obj
 0001:0003261f       ?process@?$output_processor@DV?$stream_output_adapter@D@__crt_stdio_output@@V?$format_validation_base@DV?$stream_output_adapter@D@__crt_stdio_output@@@2@@__crt_stdio_output@@QAEHXZ 1003361f f i libucrt:output.obj
 0001:000328df       ?process@?$output_processor@DV?$stream_output_adapter@D@__crt_stdio_output@@V?$positional_parameter_base@DV?$stream_output_adapter@D@__crt_stdio_output@@@2@@__crt_stdio_output@@QAEHXZ 100338df f i libucrt:output.obj
 0001:00032bb3       ?process@?$output_processor@DV?$stream_output_adapter@D@__crt_stdio_output@@V?$standard_base@DV?$stream_output_adapter@D@__crt_stdio_output@@@2@@__crt_stdio_output@@QAEHXZ 10033bb3 f i libucrt:output.obj
 0001:00032e63       ?process@?$output_processor@DV?$string_output_adapter@D@__crt_stdio_output@@V?$format_validation_base@DV?$string_output_adapter@D@__crt_stdio_output@@@2@@__crt_stdio_output@@QAEHXZ 10033e63 f i libucrt:output.obj
 0001:00033147       ?process@?$output_processor@DV?$string_output_adapter@D@__crt_stdio_output@@V?$positional_parameter_base@DV?$string_output_adapter@D@__crt_stdio_output@@@2@@__crt_stdio_output@@QAEHXZ 10034147 f i libucrt:output.obj
 0001:00033447       ?process@?$output_processor@DV?$string_output_adapter@D@__crt_stdio_output@@V?$standard_base@DV?$string_output_adapter@D@__crt_stdio_output@@@2@@__crt_stdio_output@@QAEHXZ 10034447 f i libucrt:output.obj
 0001:0003371b       ?process@?$output_processor@_WV?$stream_output_adapter@_W@__crt_stdio_output@@V?$format_validation_base@_WV?$stream_output_adapter@_W@__crt_stdio_output@@@2@@__crt_stdio_output@@QAEHXZ 1003471b f i libucrt:output.obj
 0001:00033937       ?process@?$output_processor@_WV?$stream_output_adapter@_W@__crt_stdio_output@@V?$positional_parameter_base@_WV?$stream_output_adapter@_W@__crt_stdio_output@@@2@@__crt_stdio_output@@QAEHXZ 10034937 f i libucrt:output.obj
 0001:00033b8b       ?process@?$output_processor@_WV?$stream_output_adapter@_W@__crt_stdio_output@@V?$standard_base@_WV?$stream_output_adapter@_W@__crt_stdio_output@@@2@@__crt_stdio_output@@QAEHXZ 10034b8b f i libucrt:output.obj
 0001:00033d9b       ?process@?$output_processor@_WV?$string_output_adapter@_W@__crt_stdio_output@@V?$format_validation_base@_WV?$string_output_adapter@_W@__crt_stdio_output@@@2@@__crt_stdio_output@@QAEHXZ 10034d9b f i libucrt:output.obj
 0001:00033fdb       ?process@?$output_processor@_WV?$string_output_adapter@_W@__crt_stdio_output@@V?$positional_parameter_base@_WV?$string_output_adapter@_W@__crt_stdio_output@@@2@@__crt_stdio_output@@QAEHXZ 10034fdb f i libucrt:output.obj
 0001:00034243       ?process@?$output_processor@_WV?$string_output_adapter@_W@__crt_stdio_output@@V?$standard_base@_WV?$string_output_adapter@_W@__crt_stdio_output@@@2@@__crt_stdio_output@@QAEHXZ 10035243 f i libucrt:output.obj
 0001:0003447f       ?set_flag@?$output_processor@DV?$stream_output_adapter@D@__crt_stdio_output@@V?$format_validation_base@DV?$stream_output_adapter@D@__crt_stdio_output@@@2@@__crt_stdio_output@@AAEXI@Z 1003547f f i libucrt:output.obj
 0001:0003448e       ?set_flag@?$output_processor@DV?$stream_output_adapter@D@__crt_stdio_output@@V?$positional_parameter_base@DV?$stream_output_adapter@D@__crt_stdio_output@@@2@@__crt_stdio_output@@AAEXI@Z 1003548e f i libucrt:output.obj
 0001:0003449d       ?set_flag@?$output_processor@DV?$stream_output_adapter@D@__crt_stdio_output@@V?$standard_base@DV?$stream_output_adapter@D@__crt_stdio_output@@@2@@__crt_stdio_output@@AAEXI@Z 1003549d f i libucrt:output.obj
 0001:000344ac       ?set_flag@?$output_processor@DV?$string_output_adapter@D@__crt_stdio_output@@V?$format_validation_base@DV?$string_output_adapter@D@__crt_stdio_output@@@2@@__crt_stdio_output@@AAEXI@Z 100354ac f i libucrt:output.obj
 0001:000344bb       ?set_flag@?$output_processor@DV?$string_output_adapter@D@__crt_stdio_output@@V?$positional_parameter_base@DV?$string_output_adapter@D@__crt_stdio_output@@@2@@__crt_stdio_output@@AAEXI@Z 100354bb f i libucrt:output.obj
 0001:000344ca       ?set_flag@?$output_processor@DV?$string_output_adapter@D@__crt_stdio_output@@V?$standard_base@DV?$string_output_adapter@D@__crt_stdio_output@@@2@@__crt_stdio_output@@AAEXI@Z 100354ca f i libucrt:output.obj
 0001:000344d9       ?set_flag@?$output_processor@_WV?$stream_output_adapter@_W@__crt_stdio_output@@V?$format_validation_base@_WV?$stream_output_adapter@_W@__crt_stdio_output@@@2@@__crt_stdio_output@@AAEXI@Z 100354d9 f i libucrt:output.obj
 0001:000344e8       ?set_flag@?$output_processor@_WV?$stream_output_adapter@_W@__crt_stdio_output@@V?$positional_parameter_base@_WV?$stream_output_adapter@_W@__crt_stdio_output@@@2@@__crt_stdio_output@@AAEXI@Z 100354e8 f i libucrt:output.obj
 0001:000344f7       ?set_flag@?$output_processor@_WV?$stream_output_adapter@_W@__crt_stdio_output@@V?$standard_base@_WV?$stream_output_adapter@_W@__crt_stdio_output@@@2@@__crt_stdio_output@@AAEXI@Z 100354f7 f i libucrt:output.obj
 0001:00034506       ?set_flag@?$output_processor@_WV?$string_output_adapter@_W@__crt_stdio_output@@V?$format_validation_base@_WV?$string_output_adapter@_W@__crt_stdio_output@@@2@@__crt_stdio_output@@AAEXI@Z 10035506 f i libucrt:output.obj
 0001:00034515       ?set_flag@?$output_processor@_WV?$string_output_adapter@_W@__crt_stdio_output@@V?$positional_parameter_base@_WV?$string_output_adapter@_W@__crt_stdio_output@@@2@@__crt_stdio_output@@AAEXI@Z 10035515 f i libucrt:output.obj
 0001:00034524       ?set_flag@?$output_processor@_WV?$string_output_adapter@_W@__crt_stdio_output@@V?$standard_base@_WV?$string_output_adapter@_W@__crt_stdio_output@@@2@@__crt_stdio_output@@AAEXI@Z 10035524 f i libucrt:output.obj
 0001:00034533       ?should_format@?$positional_parameter_base@DV?$stream_output_adapter@D@__crt_stdio_output@@@__crt_stdio_output@@IAE_NXZ 10035533 f i libucrt:output.obj
 0001:00034549       ?should_format@?$positional_parameter_base@DV?$string_output_adapter@D@__crt_stdio_output@@@__crt_stdio_output@@IAE_NXZ 10035549 f i libucrt:output.obj
 0001:0003455f       ?should_format@?$positional_parameter_base@_WV?$stream_output_adapter@_W@__crt_stdio_output@@@__crt_stdio_output@@IAE_NXZ 1003555f f i libucrt:output.obj
 0001:00034575       ?should_format@?$positional_parameter_base@_WV?$string_output_adapter@_W@__crt_stdio_output@@@__crt_stdio_output@@IAE_NXZ 10035575 f i libucrt:output.obj
 0001:0003458b       ?should_format@?$standard_base@DV?$stream_output_adapter@D@__crt_stdio_output@@@__crt_stdio_output@@IAE_NXZ 1003558b f i libucrt:output.obj
 0001:0003458e       ?should_format@?$standard_base@DV?$string_output_adapter@D@__crt_stdio_output@@@__crt_stdio_output@@IAE_NXZ 1003558e f i libucrt:output.obj
 0001:00034591       ?should_format@?$standard_base@_WV?$stream_output_adapter@_W@__crt_stdio_output@@@__crt_stdio_output@@IAE_NXZ 10035591 f i libucrt:output.obj
 0001:00034594       ?should_format@?$standard_base@_WV?$string_output_adapter@_W@__crt_stdio_output@@@__crt_stdio_output@@IAE_NXZ 10035594 f i libucrt:output.obj
 0001:00034597       ?should_skip_normal_state_processing@?$positional_parameter_base@DV?$stream_output_adapter@D@__crt_stdio_output@@@__crt_stdio_output@@IAE_NXZ 10035597 f i libucrt:output.obj
 0001:000345c1       ?should_skip_normal_state_processing@?$positional_parameter_base@DV?$string_output_adapter@D@__crt_stdio_output@@@__crt_stdio_output@@IAE_NXZ 100355c1 f i libucrt:output.obj
 0001:000345eb       ?should_skip_normal_state_processing@?$positional_parameter_base@_WV?$stream_output_adapter@_W@__crt_stdio_output@@@__crt_stdio_output@@IAE_NXZ 100355eb f i libucrt:output.obj
 0001:00034615       ?should_skip_normal_state_processing@?$positional_parameter_base@_WV?$string_output_adapter@_W@__crt_stdio_output@@@__crt_stdio_output@@IAE_NXZ 10035615 f i libucrt:output.obj
 0001:0003463f       ?should_skip_normal_state_processing@?$standard_base@DV?$stream_output_adapter@D@__crt_stdio_output@@@__crt_stdio_output@@IAE_NXZ 1003563f f i libucrt:output.obj
 0001:00034642       ?should_skip_normal_state_processing@?$standard_base@DV?$string_output_adapter@D@__crt_stdio_output@@@__crt_stdio_output@@IAE_NXZ 10035642 f i libucrt:output.obj
 0001:00034645       ?should_skip_normal_state_processing@?$standard_base@_WV?$stream_output_adapter@_W@__crt_stdio_output@@@__crt_stdio_output@@IAE_NXZ 10035645 f i libucrt:output.obj
 0001:00034648       ?should_skip_normal_state_processing@?$standard_base@_WV?$string_output_adapter@_W@__crt_stdio_output@@@__crt_stdio_output@@IAE_NXZ 10035648 f i libucrt:output.obj
 0001:0003464b       ?should_skip_type_state_output@?$positional_parameter_base@DV?$stream_output_adapter@D@__crt_stdio_output@@@__crt_stdio_output@@IBE_NXZ 1003564b f i libucrt:output.obj
 0001:00034662       ?should_skip_type_state_output@?$positional_parameter_base@DV?$string_output_adapter@D@__crt_stdio_output@@@__crt_stdio_output@@IBE_NXZ 10035662 f i libucrt:output.obj
 0001:00034679       ?should_skip_type_state_output@?$positional_parameter_base@_WV?$stream_output_adapter@_W@__crt_stdio_output@@@__crt_stdio_output@@IBE_NXZ 10035679 f i libucrt:output.obj
 0001:00034690       ?should_skip_type_state_output@?$positional_parameter_base@_WV?$string_output_adapter@_W@__crt_stdio_output@@@__crt_stdio_output@@IBE_NXZ 10035690 f i libucrt:output.obj
 0001:000346a7       ?should_skip_type_state_output@?$standard_base@DV?$stream_output_adapter@D@__crt_stdio_output@@@__crt_stdio_output@@IBE_NXZ 100356a7 f i libucrt:output.obj
 0001:000346aa       ?should_skip_type_state_output@?$standard_base@DV?$string_output_adapter@D@__crt_stdio_output@@@__crt_stdio_output@@IBE_NXZ 100356aa f i libucrt:output.obj
 0001:000346ad       ?should_skip_type_state_output@?$standard_base@_WV?$stream_output_adapter@_W@__crt_stdio_output@@@__crt_stdio_output@@IBE_NXZ 100356ad f i libucrt:output.obj
 0001:000346b0       ?should_skip_type_state_output@?$standard_base@_WV?$string_output_adapter@_W@__crt_stdio_output@@@__crt_stdio_output@@IBE_NXZ 100356b0 f i libucrt:output.obj
 0001:000346b3       ?state_case_dot@?$output_processor@DV?$stream_output_adapter@D@__crt_stdio_output@@V?$format_validation_base@DV?$stream_output_adapter@D@__crt_stdio_output@@@2@@__crt_stdio_output@@AAE_NXZ 100356b3 f i libucrt:output.obj
 0001:000346ba       ?state_case_dot@?$output_processor@DV?$stream_output_adapter@D@__crt_stdio_output@@V?$positional_parameter_base@DV?$stream_output_adapter@D@__crt_stdio_output@@@2@@__crt_stdio_output@@AAE_NXZ 100356ba f i libucrt:output.obj
 0001:000346c1       ?state_case_dot@?$output_processor@DV?$stream_output_adapter@D@__crt_stdio_output@@V?$standard_base@DV?$stream_output_adapter@D@__crt_stdio_output@@@2@@__crt_stdio_output@@AAE_NXZ 100356c1 f i libucrt:output.obj
 0001:000346c8       ?state_case_dot@?$output_processor@DV?$string_output_adapter@D@__crt_stdio_output@@V?$format_validation_base@DV?$string_output_adapter@D@__crt_stdio_output@@@2@@__crt_stdio_output@@AAE_NXZ 100356c8 f i libucrt:output.obj
 0001:000346cf       ?state_case_dot@?$output_processor@DV?$string_output_adapter@D@__crt_stdio_output@@V?$positional_parameter_base@DV?$string_output_adapter@D@__crt_stdio_output@@@2@@__crt_stdio_output@@AAE_NXZ 100356cf f i libucrt:output.obj
 0001:000346d6       ?state_case_dot@?$output_processor@DV?$string_output_adapter@D@__crt_stdio_output@@V?$standard_base@DV?$string_output_adapter@D@__crt_stdio_output@@@2@@__crt_stdio_output@@AAE_NXZ 100356d6 f i libucrt:output.obj
 0001:000346dd       ?state_case_dot@?$output_processor@_WV?$stream_output_adapter@_W@__crt_stdio_output@@V?$format_validation_base@_WV?$stream_output_adapter@_W@__crt_stdio_output@@@2@@__crt_stdio_output@@AAE_NXZ 100356dd f i libucrt:output.obj
 0001:000346e4       ?state_case_dot@?$output_processor@_WV?$stream_output_adapter@_W@__crt_stdio_output@@V?$positional_parameter_base@_WV?$stream_output_adapter@_W@__crt_stdio_output@@@2@@__crt_stdio_output@@AAE_NXZ 100356e4 f i libucrt:output.obj
 0001:000346eb       ?state_case_dot@?$output_processor@_WV?$stream_output_adapter@_W@__crt_stdio_output@@V?$standard_base@_WV?$stream_output_adapter@_W@__crt_stdio_output@@@2@@__crt_stdio_output@@AAE_NXZ 100356eb f i libucrt:output.obj
 0001:000346f2       ?state_case_dot@?$output_processor@_WV?$string_output_adapter@_W@__crt_stdio_output@@V?$format_validation_base@_WV?$string_output_adapter@_W@__crt_stdio_output@@@2@@__crt_stdio_output@@AAE_NXZ 100356f2 f i libucrt:output.obj
 0001:000346f9       ?state_case_dot@?$output_processor@_WV?$string_output_adapter@_W@__crt_stdio_output@@V?$positional_parameter_base@_WV?$string_output_adapter@_W@__crt_stdio_output@@@2@@__crt_stdio_output@@AAE_NXZ 100356f9 f i libucrt:output.obj
 0001:00034700       ?state_case_dot@?$output_processor@_WV?$string_output_adapter@_W@__crt_stdio_output@@V?$standard_base@_WV?$string_output_adapter@_W@__crt_stdio_output@@@2@@__crt_stdio_output@@AAE_NXZ 10035700 f i libucrt:output.obj
 0001:00034707       ?state_case_flag@?$output_processor@DV?$stream_output_adapter@D@__crt_stdio_output@@V?$format_validation_base@DV?$stream_output_adapter@D@__crt_stdio_output@@@2@@__crt_stdio_output@@AAE_NXZ 10035707 f i libucrt:output.obj
 0001:00034744       ?state_case_flag@?$output_processor@DV?$stream_output_adapter@D@__crt_stdio_output@@V?$positional_parameter_base@DV?$stream_output_adapter@D@__crt_stdio_output@@@2@@__crt_stdio_output@@AAE_NXZ 10035744 f i libucrt:output.obj
 0001:00034781       ?state_case_flag@?$output_processor@DV?$stream_output_adapter@D@__crt_stdio_output@@V?$standard_base@DV?$stream_output_adapter@D@__crt_stdio_output@@@2@@__crt_stdio_output@@AAE_NXZ 10035781 f i libucrt:output.obj
 0001:000347be       ?state_case_flag@?$output_processor@DV?$string_output_adapter@D@__crt_stdio_output@@V?$format_validation_base@DV?$string_output_adapter@D@__crt_stdio_output@@@2@@__crt_stdio_output@@AAE_NXZ 100357be f i libucrt:output.obj
 0001:000347fb       ?state_case_flag@?$output_processor@DV?$string_output_adapter@D@__crt_stdio_output@@V?$positional_parameter_base@DV?$string_output_adapter@D@__crt_stdio_output@@@2@@__crt_stdio_output@@AAE_NXZ 100357fb f i libucrt:output.obj
 0001:00034838       ?state_case_flag@?$output_processor@DV?$string_output_adapter@D@__crt_stdio_output@@V?$standard_base@DV?$string_output_adapter@D@__crt_stdio_output@@@2@@__crt_stdio_output@@AAE_NXZ 10035838 f i libucrt:output.obj
 0001:00034875       ?state_case_flag@?$output_processor@_WV?$stream_output_adapter@_W@__crt_stdio_output@@V?$format_validation_base@_WV?$stream_output_adapter@_W@__crt_stdio_output@@@2@@__crt_stdio_output@@AAE_NXZ 10035875 f i libucrt:output.obj
 0001:000348b2       ?state_case_flag@?$output_processor@_WV?$stream_output_adapter@_W@__crt_stdio_output@@V?$positional_parameter_base@_WV?$stream_output_adapter@_W@__crt_stdio_output@@@2@@__crt_stdio_output@@AAE_NXZ 100358b2 f i libucrt:output.obj
 0001:000348ef       ?state_case_flag@?$output_processor@_WV?$stream_output_adapter@_W@__crt_stdio_output@@V?$standard_base@_WV?$stream_output_adapter@_W@__crt_stdio_output@@@2@@__crt_stdio_output@@AAE_NXZ 100358ef f i libucrt:output.obj
 0001:0003492c       ?state_case_flag@?$output_processor@_WV?$string_output_adapter@_W@__crt_stdio_output@@V?$format_validation_base@_WV?$string_output_adapter@_W@__crt_stdio_output@@@2@@__crt_stdio_output@@AAE_NXZ 1003592c f i libucrt:output.obj
 0001:00034969       ?state_case_flag@?$output_processor@_WV?$string_output_adapter@_W@__crt_stdio_output@@V?$positional_parameter_base@_WV?$string_output_adapter@_W@__crt_stdio_output@@@2@@__crt_stdio_output@@AAE_NXZ 10035969 f i libucrt:output.obj
 0001:000349a6       ?state_case_flag@?$output_processor@_WV?$string_output_adapter@_W@__crt_stdio_output@@V?$standard_base@_WV?$string_output_adapter@_W@__crt_stdio_output@@@2@@__crt_stdio_output@@AAE_NXZ 100359a6 f i libucrt:output.obj
 0001:000349e3       ?state_case_normal@?$output_processor@DV?$stream_output_adapter@D@__crt_stdio_output@@V?$format_validation_base@DV?$stream_output_adapter@D@__crt_stdio_output@@@2@@__crt_stdio_output@@AAE_NXZ 100359e3 f i libucrt:output.obj
 0001:00034aa0       ?state_case_normal@?$output_processor@DV?$stream_output_adapter@D@__crt_stdio_output@@V?$positional_parameter_base@DV?$stream_output_adapter@D@__crt_stdio_output@@@2@@__crt_stdio_output@@AAE_NXZ 10035aa0 f i libucrt:output.obj
 0001:00034b68       ?state_case_normal@?$output_processor@DV?$stream_output_adapter@D@__crt_stdio_output@@V?$standard_base@DV?$stream_output_adapter@D@__crt_stdio_output@@@2@@__crt_stdio_output@@AAE_NXZ 10035b68 f i libucrt:output.obj
 0001:00034c25       ?state_case_normal@?$output_processor@DV?$string_output_adapter@D@__crt_stdio_output@@V?$format_validation_base@DV?$string_output_adapter@D@__crt_stdio_output@@@2@@__crt_stdio_output@@AAE_NXZ 10035c25 f i libucrt:output.obj
 0001:00034d21       ?state_case_normal@?$output_processor@DV?$string_output_adapter@D@__crt_stdio_output@@V?$positional_parameter_base@DV?$string_output_adapter@D@__crt_stdio_output@@@2@@__crt_stdio_output@@AAE_NXZ 10035d21 f i libucrt:output.obj
 0001:00034e28       ?state_case_normal@?$output_processor@DV?$string_output_adapter@D@__crt_stdio_output@@V?$standard_base@DV?$string_output_adapter@D@__crt_stdio_output@@@2@@__crt_stdio_output@@AAE_NXZ 10035e28 f i libucrt:output.obj
 0001:00034f24       ?state_case_normal@?$output_processor@_WV?$stream_output_adapter@_W@__crt_stdio_output@@V?$format_validation_base@_WV?$stream_output_adapter@_W@__crt_stdio_output@@@2@@__crt_stdio_output@@AAE_NXZ 10035f24 f i libucrt:output.obj
 0001:00034f42       ?state_case_normal@?$output_processor@_WV?$stream_output_adapter@_W@__crt_stdio_output@@V?$positional_parameter_base@_WV?$stream_output_adapter@_W@__crt_stdio_output@@@2@@__crt_stdio_output@@AAE_NXZ 10035f42 f i libucrt:output.obj
 0001:00034f6f       ?state_case_normal@?$output_processor@_WV?$stream_output_adapter@_W@__crt_stdio_output@@V?$standard_base@_WV?$stream_output_adapter@_W@__crt_stdio_output@@@2@@__crt_stdio_output@@AAE_NXZ 10035f6f f i libucrt:output.obj
 0001:00034f8d       ?state_case_normal@?$output_processor@_WV?$string_output_adapter@_W@__crt_stdio_output@@V?$format_validation_base@_WV?$string_output_adapter@_W@__crt_stdio_output@@@2@@__crt_stdio_output@@AAE_NXZ 10035f8d f i libucrt:output.obj
 0001:00034fd5       ?state_case_normal@?$output_processor@_WV?$string_output_adapter@_W@__crt_stdio_output@@V?$positional_parameter_base@_WV?$string_output_adapter@_W@__crt_stdio_output@@@2@@__crt_stdio_output@@AAE_NXZ 10035fd5 f i libucrt:output.obj
 0001:00035028       ?state_case_normal@?$output_processor@_WV?$string_output_adapter@_W@__crt_stdio_output@@V?$standard_base@_WV?$string_output_adapter@_W@__crt_stdio_output@@@2@@__crt_stdio_output@@AAE_NXZ 10036028 f i libucrt:output.obj
 0001:00035070       ?state_case_normal_common@?$output_processor@DV?$stream_output_adapter@D@__crt_stdio_output@@V?$format_validation_base@DV?$stream_output_adapter@D@__crt_stdio_output@@@2@@__crt_stdio_output@@AAE_NXZ 10036070 f i libucrt:output.obj
 0001:00035108       ?state_case_normal_common@?$output_processor@DV?$stream_output_adapter@D@__crt_stdio_output@@V?$positional_parameter_base@DV?$stream_output_adapter@D@__crt_stdio_output@@@2@@__crt_stdio_output@@AAE_NXZ 10036108 f i libucrt:output.obj
 0001:000351a0       ?state_case_normal_common@?$output_processor@DV?$stream_output_adapter@D@__crt_stdio_output@@V?$standard_base@DV?$stream_output_adapter@D@__crt_stdio_output@@@2@@__crt_stdio_output@@AAE_NXZ 100361a0 f i libucrt:output.obj
 0001:00035238       ?state_case_normal_common@?$output_processor@DV?$string_output_adapter@D@__crt_stdio_output@@V?$format_validation_base@DV?$string_output_adapter@D@__crt_stdio_output@@@2@@__crt_stdio_output@@AAE_NXZ 10036238 f i libucrt:output.obj
 0001:00035318       ?state_case_normal_common@?$output_processor@DV?$string_output_adapter@D@__crt_stdio_output@@V?$positional_parameter_base@DV?$string_output_adapter@D@__crt_stdio_output@@@2@@__crt_stdio_output@@AAE_NXZ 10036318 f i libucrt:output.obj
 0001:000353f8       ?state_case_normal_common@?$output_processor@DV?$string_output_adapter@D@__crt_stdio_output@@V?$standard_base@DV?$string_output_adapter@D@__crt_stdio_output@@@2@@__crt_stdio_output@@AAE_NXZ 100363f8 f i libucrt:output.obj
 0001:000354d8       ?state_case_normal_common@?$output_processor@_WV?$stream_output_adapter@_W@__crt_stdio_output@@V?$format_validation_base@_WV?$stream_output_adapter@_W@__crt_stdio_output@@@2@@__crt_stdio_output@@AAE_NXZ 100364d8 f i libucrt:output.obj
 0001:000354f6       ?state_case_normal_common@?$output_processor@_WV?$stream_output_adapter@_W@__crt_stdio_output@@V?$positional_parameter_base@_WV?$stream_output_adapter@_W@__crt_stdio_output@@@2@@__crt_stdio_output@@AAE_NXZ 100364f6 f i libucrt:output.obj
 0001:00035514       ?state_case_normal_common@?$output_processor@_WV?$stream_output_adapter@_W@__crt_stdio_output@@V?$standard_base@_WV?$stream_output_adapter@_W@__crt_stdio_output@@@2@@__crt_stdio_output@@AAE_NXZ 10036514 f i libucrt:output.obj
 0001:00035532       ?state_case_normal_common@?$output_processor@_WV?$string_output_adapter@_W@__crt_stdio_output@@V?$format_validation_base@_WV?$string_output_adapter@_W@__crt_stdio_output@@@2@@__crt_stdio_output@@AAE_NXZ 10036532 f i libucrt:output.obj
 0001:0003557a       ?state_case_normal_common@?$output_processor@_WV?$string_output_adapter@_W@__crt_stdio_output@@V?$positional_parameter_base@_WV?$string_output_adapter@_W@__crt_stdio_output@@@2@@__crt_stdio_output@@AAE_NXZ 1003657a f i libucrt:output.obj
 0001:000355c2       ?state_case_normal_common@?$output_processor@_WV?$string_output_adapter@_W@__crt_stdio_output@@V?$standard_base@_WV?$string_output_adapter@_W@__crt_stdio_output@@@2@@__crt_stdio_output@@AAE_NXZ 100365c2 f i libucrt:output.obj
 0001:0003560a       ?state_case_normal_tchar@?$output_processor@DV?$stream_output_adapter@D@__crt_stdio_output@@V?$format_validation_base@DV?$stream_output_adapter@D@__crt_stdio_output@@@2@@__crt_stdio_output@@AAE_ND@Z 1003660a f i libucrt:output.obj
 0001:00035691       ?state_case_normal_tchar@?$output_processor@DV?$stream_output_adapter@D@__crt_stdio_output@@V?$positional_parameter_base@DV?$stream_output_adapter@D@__crt_stdio_output@@@2@@__crt_stdio_output@@AAE_ND@Z 10036691 f i libucrt:output.obj
 0001:00035718       ?state_case_normal_tchar@?$output_processor@DV?$stream_output_adapter@D@__crt_stdio_output@@V?$standard_base@DV?$stream_output_adapter@D@__crt_stdio_output@@@2@@__crt_stdio_output@@AAE_ND@Z 10036718 f i libucrt:output.obj
 0001:0003579f       ?state_case_normal_tchar@?$output_processor@DV?$string_output_adapter@D@__crt_stdio_output@@V?$format_validation_base@DV?$string_output_adapter@D@__crt_stdio_output@@@2@@__crt_stdio_output@@AAE_ND@Z 1003679f f i libucrt:output.obj
 0001:0003584a       ?state_case_normal_tchar@?$output_processor@DV?$string_output_adapter@D@__crt_stdio_output@@V?$positional_parameter_base@DV?$string_output_adapter@D@__crt_stdio_output@@@2@@__crt_stdio_output@@AAE_ND@Z 1003684a f i libucrt:output.obj
 0001:000358f5       ?state_case_normal_tchar@?$output_processor@DV?$string_output_adapter@D@__crt_stdio_output@@V?$standard_base@DV?$string_output_adapter@D@__crt_stdio_output@@@2@@__crt_stdio_output@@AAE_ND@Z 100368f5 f i libucrt:output.obj
 0001:000359a0       ?state_case_normal_tchar@?$output_processor@_WV?$stream_output_adapter@_W@__crt_stdio_output@@V?$format_validation_base@_WV?$stream_output_adapter@_W@__crt_stdio_output@@@2@@__crt_stdio_output@@AAE_N_W@Z 100369a0 f i libucrt:output.obj
 0001:000359a9       ?state_case_normal_tchar@?$output_processor@_WV?$stream_output_adapter@_W@__crt_stdio_output@@V?$positional_parameter_base@_WV?$stream_output_adapter@_W@__crt_stdio_output@@@2@@__crt_stdio_output@@AAE_N_W@Z 100369a9 f i libucrt:output.obj
 0001:000359b2       ?state_case_normal_tchar@?$output_processor@_WV?$stream_output_adapter@_W@__crt_stdio_output@@V?$standard_base@_WV?$stream_output_adapter@_W@__crt_stdio_output@@@2@@__crt_stdio_output@@AAE_N_W@Z 100369b2 f i libucrt:output.obj
 0001:000359bb       ?state_case_normal_tchar@?$output_processor@_WV?$string_output_adapter@_W@__crt_stdio_output@@V?$format_validation_base@_WV?$string_output_adapter@_W@__crt_stdio_output@@@2@@__crt_stdio_output@@AAE_N_W@Z 100369bb f i libucrt:output.obj
 0001:000359c4       ?state_case_normal_tchar@?$output_processor@_WV?$string_output_adapter@_W@__crt_stdio_output@@V?$positional_parameter_base@_WV?$string_output_adapter@_W@__crt_stdio_output@@@2@@__crt_stdio_output@@AAE_N_W@Z 100369c4 f i libucrt:output.obj
 0001:000359cd       ?state_case_normal_tchar@?$output_processor@_WV?$string_output_adapter@_W@__crt_stdio_output@@V?$standard_base@_WV?$string_output_adapter@_W@__crt_stdio_output@@@2@@__crt_stdio_output@@AAE_N_W@Z 100369cd f i libucrt:output.obj
 0001:000359d6       ?state_case_percent@?$output_processor@DV?$stream_output_adapter@D@__crt_stdio_output@@V?$format_validation_base@DV?$stream_output_adapter@D@__crt_stdio_output@@@2@@__crt_stdio_output@@AAE_NXZ 100369d6 f i libucrt:output.obj
 0001:000359ee       ?state_case_percent@?$output_processor@DV?$stream_output_adapter@D@__crt_stdio_output@@V?$positional_parameter_base@DV?$stream_output_adapter@D@__crt_stdio_output@@@2@@__crt_stdio_output@@AAE_NXZ 100369ee f i libucrt:output.obj
 0001:00035a06       ?state_case_percent@?$output_processor@DV?$stream_output_adapter@D@__crt_stdio_output@@V?$standard_base@DV?$stream_output_adapter@D@__crt_stdio_output@@@2@@__crt_stdio_output@@AAE_NXZ 10036a06 f i libucrt:output.obj
 0001:00035a1e       ?state_case_percent@?$output_processor@DV?$string_output_adapter@D@__crt_stdio_output@@V?$format_validation_base@DV?$string_output_adapter@D@__crt_stdio_output@@@2@@__crt_stdio_output@@AAE_NXZ 10036a1e f i libucrt:output.obj
 0001:00035a36       ?state_case_percent@?$output_processor@DV?$string_output_adapter@D@__crt_stdio_output@@V?$positional_parameter_base@DV?$string_output_adapter@D@__crt_stdio_output@@@2@@__crt_stdio_output@@AAE_NXZ 10036a36 f i libucrt:output.obj
 0001:00035a4e       ?state_case_percent@?$output_processor@DV?$string_output_adapter@D@__crt_stdio_output@@V?$standard_base@DV?$string_output_adapter@D@__crt_stdio_output@@@2@@__crt_stdio_output@@AAE_NXZ 10036a4e f i libucrt:output.obj
 0001:00035a66       ?state_case_percent@?$output_processor@_WV?$stream_output_adapter@_W@__crt_stdio_output@@V?$format_validation_base@_WV?$stream_output_adapter@_W@__crt_stdio_output@@@2@@__crt_stdio_output@@AAE_NXZ 10036a66 f i libucrt:output.obj
 0001:00035a7e       ?state_case_percent@?$output_processor@_WV?$stream_output_adapter@_W@__crt_stdio_output@@V?$positional_parameter_base@_WV?$stream_output_adapter@_W@__crt_stdio_output@@@2@@__crt_stdio_output@@AAE_NXZ 10036a7e f i libucrt:output.obj
 0001:00035a96       ?state_case_percent@?$output_processor@_WV?$stream_output_adapter@_W@__crt_stdio_output@@V?$standard_base@_WV?$stream_output_adapter@_W@__crt_stdio_output@@@2@@__crt_stdio_output@@AAE_NXZ 10036a96 f i libucrt:output.obj
 0001:00035aae       ?state_case_percent@?$output_processor@_WV?$string_output_adapter@_W@__crt_stdio_output@@V?$format_validation_base@_WV?$string_output_adapter@_W@__crt_stdio_output@@@2@@__crt_stdio_output@@AAE_NXZ 10036aae f i libucrt:output.obj
 0001:00035ac6       ?state_case_percent@?$output_processor@_WV?$string_output_adapter@_W@__crt_stdio_output@@V?$positional_parameter_base@_WV?$string_output_adapter@_W@__crt_stdio_output@@@2@@__crt_stdio_output@@AAE_NXZ 10036ac6 f i libucrt:output.obj
 0001:00035ade       ?state_case_percent@?$output_processor@_WV?$string_output_adapter@_W@__crt_stdio_output@@V?$standard_base@_WV?$string_output_adapter@_W@__crt_stdio_output@@@2@@__crt_stdio_output@@AAE_NXZ 10036ade f i libucrt:output.obj
 0001:00035af6       ?state_case_precision@?$output_processor@DV?$stream_output_adapter@D@__crt_stdio_output@@V?$format_validation_base@DV?$stream_output_adapter@D@__crt_stdio_output@@@2@@__crt_stdio_output@@AAE_NXZ 10036af6 f i libucrt:output.obj
 0001:00035b22       ?state_case_precision@?$output_processor@DV?$stream_output_adapter@D@__crt_stdio_output@@V?$positional_parameter_base@DV?$stream_output_adapter@D@__crt_stdio_output@@@2@@__crt_stdio_output@@AAE_NXZ 10036b22 f i libucrt:output.obj
 0001:00035b5c       ?state_case_precision@?$output_processor@DV?$stream_output_adapter@D@__crt_stdio_output@@V?$standard_base@DV?$stream_output_adapter@D@__crt_stdio_output@@@2@@__crt_stdio_output@@AAE_NXZ 10036b5c f i libucrt:output.obj
 0001:00035b88       ?state_case_precision@?$output_processor@DV?$string_output_adapter@D@__crt_stdio_output@@V?$format_validation_base@DV?$string_output_adapter@D@__crt_stdio_output@@@2@@__crt_stdio_output@@AAE_NXZ 10036b88 f i libucrt:output.obj
 0001:00035bb4       ?state_case_precision@?$output_processor@DV?$string_output_adapter@D@__crt_stdio_output@@V?$positional_parameter_base@DV?$string_output_adapter@D@__crt_stdio_output@@@2@@__crt_stdio_output@@AAE_NXZ 10036bb4 f i libucrt:output.obj
 0001:00035bee       ?state_case_precision@?$output_processor@DV?$string_output_adapter@D@__crt_stdio_output@@V?$standard_base@DV?$string_output_adapter@D@__crt_stdio_output@@@2@@__crt_stdio_output@@AAE_NXZ 10036bee f i libucrt:output.obj
 0001:00035c1a       ?state_case_precision@?$output_processor@_WV?$stream_output_adapter@_W@__crt_stdio_output@@V?$format_validation_base@_WV?$stream_output_adapter@_W@__crt_stdio_output@@@2@@__crt_stdio_output@@AAE_NXZ 10036c1a f i libucrt:output.obj
 0001:00035c47       ?state_case_precision@?$output_processor@_WV?$stream_output_adapter@_W@__crt_stdio_output@@V?$positional_parameter_base@_WV?$stream_output_adapter@_W@__crt_stdio_output@@@2@@__crt_stdio_output@@AAE_NXZ 10036c47 f i libucrt:output.obj
 0001:00035c82       ?state_case_precision@?$output_processor@_WV?$stream_output_adapter@_W@__crt_stdio_output@@V?$standard_base@_WV?$stream_output_adapter@_W@__crt_stdio_output@@@2@@__crt_stdio_output@@AAE_NXZ 10036c82 f i libucrt:output.obj
 0001:00035caf       ?state_case_precision@?$output_processor@_WV?$string_output_adapter@_W@__crt_stdio_output@@V?$format_validation_base@_WV?$string_output_adapter@_W@__crt_stdio_output@@@2@@__crt_stdio_output@@AAE_NXZ 10036caf f i libucrt:output.obj
 0001:00035cdc       ?state_case_precision@?$output_processor@_WV?$string_output_adapter@_W@__crt_stdio_output@@V?$positional_parameter_base@_WV?$string_output_adapter@_W@__crt_stdio_output@@@2@@__crt_stdio_output@@AAE_NXZ 10036cdc f i libucrt:output.obj
 0001:00035d17       ?state_case_precision@?$output_processor@_WV?$string_output_adapter@_W@__crt_stdio_output@@V?$standard_base@_WV?$string_output_adapter@_W@__crt_stdio_output@@@2@@__crt_stdio_output@@AAE_NXZ 10036d17 f i libucrt:output.obj
 0001:00035d44       ?state_case_size@?$output_processor@DV?$stream_output_adapter@D@__crt_stdio_output@@V?$format_validation_base@DV?$stream_output_adapter@D@__crt_stdio_output@@@2@@__crt_stdio_output@@AAE_NXZ 10036d44 f i libucrt:output.obj
 0001:00035e9d       ?state_case_size@?$output_processor@DV?$stream_output_adapter@D@__crt_stdio_output@@V?$positional_parameter_base@DV?$stream_output_adapter@D@__crt_stdio_output@@@2@@__crt_stdio_output@@AAE_NXZ 10036e9d f i libucrt:output.obj
 0001:00035ff6       ?state_case_size@?$output_processor@DV?$stream_output_adapter@D@__crt_stdio_output@@V?$standard_base@DV?$stream_output_adapter@D@__crt_stdio_output@@@2@@__crt_stdio_output@@AAE_NXZ 10036ff6 f i libucrt:output.obj
 0001:0003614f       ?state_case_size@?$output_processor@DV?$string_output_adapter@D@__crt_stdio_output@@V?$format_validation_base@DV?$string_output_adapter@D@__crt_stdio_output@@@2@@__crt_stdio_output@@AAE_NXZ 1003714f f i libucrt:output.obj
 0001:000362a8       ?state_case_size@?$output_processor@DV?$string_output_adapter@D@__crt_stdio_output@@V?$positional_parameter_base@DV?$string_output_adapter@D@__crt_stdio_output@@@2@@__crt_stdio_output@@AAE_NXZ 100372a8 f i libucrt:output.obj
 0001:00036401       ?state_case_size@?$output_processor@DV?$string_output_adapter@D@__crt_stdio_output@@V?$standard_base@DV?$string_output_adapter@D@__crt_stdio_output@@@2@@__crt_stdio_output@@AAE_NXZ 10037401 f i libucrt:output.obj
 0001:0003655a       ?state_case_size@?$output_processor@_WV?$stream_output_adapter@_W@__crt_stdio_output@@V?$format_validation_base@_WV?$stream_output_adapter@_W@__crt_stdio_output@@@2@@__crt_stdio_output@@AAE_NXZ 1003755a f i libucrt:output.obj
 0001:000366e4       ?state_case_size@?$output_processor@_WV?$stream_output_adapter@_W@__crt_stdio_output@@V?$positional_parameter_base@_WV?$stream_output_adapter@_W@__crt_stdio_output@@@2@@__crt_stdio_output@@AAE_NXZ 100376e4 f i libucrt:output.obj
 0001:0003686e       ?state_case_size@?$output_processor@_WV?$stream_output_adapter@_W@__crt_stdio_output@@V?$standard_base@_WV?$stream_output_adapter@_W@__crt_stdio_output@@@2@@__crt_stdio_output@@AAE_NXZ 1003786e f i libucrt:output.obj
 0001:000369f8       ?state_case_size@?$output_processor@_WV?$string_output_adapter@_W@__crt_stdio_output@@V?$format_validation_base@_WV?$string_output_adapter@_W@__crt_stdio_output@@@2@@__crt_stdio_output@@AAE_NXZ 100379f8 f i libucrt:output.obj
 0001:00036b82       ?state_case_size@?$output_processor@_WV?$string_output_adapter@_W@__crt_stdio_output@@V?$positional_parameter_base@_WV?$string_output_adapter@_W@__crt_stdio_output@@@2@@__crt_stdio_output@@AAE_NXZ 10037b82 f i libucrt:output.obj
 0001:00036d0c       ?state_case_size@?$output_processor@_WV?$string_output_adapter@_W@__crt_stdio_output@@V?$standard_base@_WV?$string_output_adapter@_W@__crt_stdio_output@@@2@@__crt_stdio_output@@AAE_NXZ 10037d0c f i libucrt:output.obj
 0001:00036e96       ?state_case_type@?$output_processor@DV?$stream_output_adapter@D@__crt_stdio_output@@V?$format_validation_base@DV?$stream_output_adapter@D@__crt_stdio_output@@@2@@__crt_stdio_output@@AAE_NXZ 10037e96 f i libucrt:output.obj
 0001:000371d8       ?state_case_type@?$output_processor@DV?$stream_output_adapter@D@__crt_stdio_output@@V?$positional_parameter_base@DV?$stream_output_adapter@D@__crt_stdio_output@@@2@@__crt_stdio_output@@AAE_NXZ 100381d8 f i libucrt:output.obj
 0001:00037529       ?state_case_type@?$output_processor@DV?$stream_output_adapter@D@__crt_stdio_output@@V?$standard_base@DV?$stream_output_adapter@D@__crt_stdio_output@@@2@@__crt_stdio_output@@AAE_NXZ 10038529 f i libucrt:output.obj
 0001:0003786b       ?state_case_type@?$output_processor@DV?$string_output_adapter@D@__crt_stdio_output@@V?$format_validation_base@DV?$string_output_adapter@D@__crt_stdio_output@@@2@@__crt_stdio_output@@AAE_NXZ 1003886b f i libucrt:output.obj
 0001:00037bca       ?state_case_type@?$output_processor@DV?$string_output_adapter@D@__crt_stdio_output@@V?$positional_parameter_base@DV?$string_output_adapter@D@__crt_stdio_output@@@2@@__crt_stdio_output@@AAE_NXZ 10038bca f i libucrt:output.obj
 0001:00037f38       ?state_case_type@?$output_processor@DV?$string_output_adapter@D@__crt_stdio_output@@V?$standard_base@DV?$string_output_adapter@D@__crt_stdio_output@@@2@@__crt_stdio_output@@AAE_NXZ 10038f38 f i libucrt:output.obj
 0001:00038297       ?state_case_type@?$output_processor@_WV?$stream_output_adapter@_W@__crt_stdio_output@@V?$format_validation_base@_WV?$stream_output_adapter@_W@__crt_stdio_output@@@2@@__crt_stdio_output@@AAE_NXZ 10039297 f i libucrt:output.obj
 0001:000385f5       ?state_case_type@?$output_processor@_WV?$stream_output_adapter@_W@__crt_stdio_output@@V?$positional_parameter_base@_WV?$stream_output_adapter@_W@__crt_stdio_output@@@2@@__crt_stdio_output@@AAE_NXZ 100395f5 f i libucrt:output.obj
 0001:00038962       ?state_case_type@?$output_processor@_WV?$stream_output_adapter@_W@__crt_stdio_output@@V?$standard_base@_WV?$stream_output_adapter@_W@__crt_stdio_output@@@2@@__crt_stdio_output@@AAE_NXZ 10039962 f i libucrt:output.obj
 0001:00038cc0       ?state_case_type@?$output_processor@_WV?$string_output_adapter@_W@__crt_stdio_output@@V?$format_validation_base@_WV?$string_output_adapter@_W@__crt_stdio_output@@@2@@__crt_stdio_output@@AAE_NXZ 10039cc0 f i libucrt:output.obj
 0001:000390b4       ?state_case_type@?$output_processor@_WV?$string_output_adapter@_W@__crt_stdio_output@@V?$positional_parameter_base@_WV?$string_output_adapter@_W@__crt_stdio_output@@@2@@__crt_stdio_output@@AAE_NXZ 1003a0b4 f i libucrt:output.obj
 0001:000394b7       ?state_case_type@?$output_processor@_WV?$string_output_adapter@_W@__crt_stdio_output@@V?$standard_base@_WV?$string_output_adapter@_W@__crt_stdio_output@@@2@@__crt_stdio_output@@AAE_NXZ 1003a4b7 f i libucrt:output.obj
 0001:000398ab       ?state_case_width@?$output_processor@DV?$stream_output_adapter@D@__crt_stdio_output@@V?$format_validation_base@DV?$stream_output_adapter@D@__crt_stdio_output@@@2@@__crt_stdio_output@@AAE_NXZ 1003a8ab f i libucrt:output.obj
 0001:000398dc       ?state_case_width@?$output_processor@DV?$stream_output_adapter@D@__crt_stdio_output@@V?$positional_parameter_base@DV?$stream_output_adapter@D@__crt_stdio_output@@@2@@__crt_stdio_output@@AAE_NXZ 1003a8dc f i libucrt:output.obj
 0001:0003991c       ?state_case_width@?$output_processor@DV?$stream_output_adapter@D@__crt_stdio_output@@V?$standard_base@DV?$stream_output_adapter@D@__crt_stdio_output@@@2@@__crt_stdio_output@@AAE_NXZ 1003a91c f i libucrt:output.obj
 0001:0003994d       ?state_case_width@?$output_processor@DV?$string_output_adapter@D@__crt_stdio_output@@V?$format_validation_base@DV?$string_output_adapter@D@__crt_stdio_output@@@2@@__crt_stdio_output@@AAE_NXZ 1003a94d f i libucrt:output.obj
 0001:0003997e       ?state_case_width@?$output_processor@DV?$string_output_adapter@D@__crt_stdio_output@@V?$positional_parameter_base@DV?$string_output_adapter@D@__crt_stdio_output@@@2@@__crt_stdio_output@@AAE_NXZ 1003a97e f i libucrt:output.obj
 0001:000399be       ?state_case_width@?$output_processor@DV?$string_output_adapter@D@__crt_stdio_output@@V?$standard_base@DV?$string_output_adapter@D@__crt_stdio_output@@@2@@__crt_stdio_output@@AAE_NXZ 1003a9be f i libucrt:output.obj
 0001:000399ef       ?state_case_width@?$output_processor@_WV?$stream_output_adapter@_W@__crt_stdio_output@@V?$format_validation_base@_WV?$stream_output_adapter@_W@__crt_stdio_output@@@2@@__crt_stdio_output@@AAE_NXZ 1003a9ef f i libucrt:output.obj
 0001:00039a21       ?state_case_width@?$output_processor@_WV?$stream_output_adapter@_W@__crt_stdio_output@@V?$positional_parameter_base@_WV?$stream_output_adapter@_W@__crt_stdio_output@@@2@@__crt_stdio_output@@AAE_NXZ 1003aa21 f i libucrt:output.obj
 0001:00039a62       ?state_case_width@?$output_processor@_WV?$stream_output_adapter@_W@__crt_stdio_output@@V?$standard_base@_WV?$stream_output_adapter@_W@__crt_stdio_output@@@2@@__crt_stdio_output@@AAE_NXZ 1003aa62 f i libucrt:output.obj
 0001:00039a94       ?state_case_width@?$output_processor@_WV?$string_output_adapter@_W@__crt_stdio_output@@V?$format_validation_base@_WV?$string_output_adapter@_W@__crt_stdio_output@@@2@@__crt_stdio_output@@AAE_NXZ 1003aa94 f i libucrt:output.obj
 0001:00039ac6       ?state_case_width@?$output_processor@_WV?$string_output_adapter@_W@__crt_stdio_output@@V?$positional_parameter_base@_WV?$string_output_adapter@_W@__crt_stdio_output@@@2@@__crt_stdio_output@@AAE_NXZ 1003aac6 f i libucrt:output.obj
 0001:00039b07       ?state_case_width@?$output_processor@_WV?$string_output_adapter@_W@__crt_stdio_output@@V?$standard_base@_WV?$string_output_adapter@_W@__crt_stdio_output@@@2@@__crt_stdio_output@@AAE_NXZ 1003ab07 f i libucrt:output.obj
 0001:00039b39       ?state_count@?$format_validation_base@DV?$stream_output_adapter@D@__crt_stdio_output@@@__crt_stdio_output@@KAIXZ 1003ab39 f i libucrt:output.obj
 0001:00039b3d       ?state_count@?$format_validation_base@DV?$string_output_adapter@D@__crt_stdio_output@@@__crt_stdio_output@@KAIXZ 1003ab3d f i libucrt:output.obj
 0001:00039b41       ?state_count@?$format_validation_base@_WV?$stream_output_adapter@_W@__crt_stdio_output@@@__crt_stdio_output@@KAIXZ 1003ab41 f i libucrt:output.obj
 0001:00039b45       ?state_count@?$format_validation_base@_WV?$string_output_adapter@_W@__crt_stdio_output@@@__crt_stdio_output@@KAIXZ 1003ab45 f i libucrt:output.obj
 0001:00039b49       ?state_count@?$standard_base@DV?$stream_output_adapter@D@__crt_stdio_output@@@__crt_stdio_output@@KAIXZ 1003ab49 f i libucrt:output.obj
 0001:00039b4d       ?state_count@?$standard_base@DV?$string_output_adapter@D@__crt_stdio_output@@@__crt_stdio_output@@KAIXZ 1003ab4d f i libucrt:output.obj
 0001:00039b51       ?state_count@?$standard_base@_WV?$stream_output_adapter@_W@__crt_stdio_output@@@__crt_stdio_output@@KAIXZ 1003ab51 f i libucrt:output.obj
 0001:00039b55       ?state_count@?$standard_base@_WV?$string_output_adapter@_W@__crt_stdio_output@@@__crt_stdio_output@@KAIXZ 1003ab55 f i libucrt:output.obj
 0001:00039b59       ?state_transition_table@?$format_validation_base@DV?$stream_output_adapter@D@__crt_stdio_output@@@__crt_stdio_output@@KAABV?$spectre_mitigated_lookup_table@Ustate_transition_pair@__crt_stdio_output@@$0IA@@2@XZ 1003ab59 f i libucrt:output.obj
 0001:00039b5f       ?state_transition_table@?$format_validation_base@DV?$string_output_adapter@D@__crt_stdio_output@@@__crt_stdio_output@@KAABV?$spectre_mitigated_lookup_table@Ustate_transition_pair@__crt_stdio_output@@$0IA@@2@XZ 1003ab5f f i libucrt:output.obj
 0001:00039b65       ?state_transition_table@?$format_validation_base@_WV?$stream_output_adapter@_W@__crt_stdio_output@@@__crt_stdio_output@@KAABV?$spectre_mitigated_lookup_table@Ustate_transition_pair@__crt_stdio_output@@$0IA@@2@XZ 1003ab65 f i libucrt:output.obj
 0001:00039b6b       ?state_transition_table@?$format_validation_base@_WV?$string_output_adapter@_W@__crt_stdio_output@@@__crt_stdio_output@@KAABV?$spectre_mitigated_lookup_table@Ustate_transition_pair@__crt_stdio_output@@$0IA@@2@XZ 1003ab6b f i libucrt:output.obj
 0001:00039b71       ?state_transition_table@?$standard_base@DV?$stream_output_adapter@D@__crt_stdio_output@@@__crt_stdio_output@@KAABV?$spectre_mitigated_lookup_table@Ustate_transition_pair@__crt_stdio_output@@$0IA@@2@XZ 1003ab71 f i libucrt:output.obj
 0001:00039b77       ?state_transition_table@?$standard_base@DV?$string_output_adapter@D@__crt_stdio_output@@@__crt_stdio_output@@KAABV?$spectre_mitigated_lookup_table@Ustate_transition_pair@__crt_stdio_output@@$0IA@@2@XZ 1003ab77 f i libucrt:output.obj
 0001:00039b7d       ?state_transition_table@?$standard_base@_WV?$stream_output_adapter@_W@__crt_stdio_output@@@__crt_stdio_output@@KAABV?$spectre_mitigated_lookup_table@Ustate_transition_pair@__crt_stdio_output@@$0IA@@2@XZ 1003ab7d f i libucrt:output.obj
 0001:00039b83       ?state_transition_table@?$standard_base@_WV?$string_output_adapter@_W@__crt_stdio_output@@@__crt_stdio_output@@KAABV?$spectre_mitigated_lookup_table@Ustate_transition_pair@__crt_stdio_output@@$0IA@@2@XZ 1003ab83 f i libucrt:output.obj
 0001:00039b89       ?tchar_string@?$common_data@D@__crt_stdio_output@@IAEAAPADD@Z 1003ab89 f i libucrt:output.obj
 0001:00039b8f       ?tchar_string@?$common_data@D@__crt_stdio_output@@IAEAAPADXZ 1003ab8f f i libucrt:output.obj
 0001:00039b93       ?tchar_string@?$common_data@_W@__crt_stdio_output@@IAEAAPA_WXZ 1003ab93 f i libucrt:output.obj
 0001:00039b97       ?tchar_string@?$common_data@_W@__crt_stdio_output@@IAEAAPA_W_W@Z 1003ab97 f i libucrt:output.obj
 0001:00039b9d       ?to_integer_size@__crt_stdio_output@@YAIW4length_modifier@1@@Z 1003ab9d f i libucrt:output.obj
 0001:00039bf1       ?type_case_X@?$output_processor@DV?$stream_output_adapter@D@__crt_stdio_output@@V?$format_validation_base@DV?$stream_output_adapter@D@__crt_stdio_output@@@2@@__crt_stdio_output@@AAE_NXZ 1003abf1 f i libucrt:output.obj
 0001:00039bf9       ?type_case_X@?$output_processor@DV?$stream_output_adapter@D@__crt_stdio_output@@V?$positional_parameter_base@DV?$stream_output_adapter@D@__crt_stdio_output@@@2@@__crt_stdio_output@@AAE_NXZ 1003abf9 f i libucrt:output.obj
 0001:00039c01       ?type_case_X@?$output_processor@DV?$stream_output_adapter@D@__crt_stdio_output@@V?$standard_base@DV?$stream_output_adapter@D@__crt_stdio_output@@@2@@__crt_stdio_output@@AAE_NXZ 1003ac01 f i libucrt:output.obj
 0001:00039c09       ?type_case_X@?$output_processor@DV?$string_output_adapter@D@__crt_stdio_output@@V?$format_validation_base@DV?$string_output_adapter@D@__crt_stdio_output@@@2@@__crt_stdio_output@@AAE_NXZ 1003ac09 f i libucrt:output.obj
 0001:00039c11       ?type_case_X@?$output_processor@DV?$string_output_adapter@D@__crt_stdio_output@@V?$positional_parameter_base@DV?$string_output_adapter@D@__crt_stdio_output@@@2@@__crt_stdio_output@@AAE_NXZ 1003ac11 f i libucrt:output.obj
 0001:00039c19       ?type_case_X@?$output_processor@DV?$string_output_adapter@D@__crt_stdio_output@@V?$standard_base@DV?$string_output_adapter@D@__crt_stdio_output@@@2@@__crt_stdio_output@@AAE_NXZ 1003ac19 f i libucrt:output.obj
 0001:00039c21       ?type_case_X@?$output_processor@_WV?$stream_output_adapter@_W@__crt_stdio_output@@V?$format_validation_base@_WV?$stream_output_adapter@_W@__crt_stdio_output@@@2@@__crt_stdio_output@@AAE_NXZ 1003ac21 f i libucrt:output.obj
 0001:00039c29       ?type_case_X@?$output_processor@_WV?$stream_output_adapter@_W@__crt_stdio_output@@V?$positional_parameter_base@_WV?$stream_output_adapter@_W@__crt_stdio_output@@@2@@__crt_stdio_output@@AAE_NXZ 1003ac29 f i libucrt:output.obj
 0001:00039c31       ?type_case_X@?$output_processor@_WV?$stream_output_adapter@_W@__crt_stdio_output@@V?$standard_base@_WV?$stream_output_adapter@_W@__crt_stdio_output@@@2@@__crt_stdio_output@@AAE_NXZ 1003ac31 f i libucrt:output.obj
 0001:00039c39       ?type_case_X@?$output_processor@_WV?$string_output_adapter@_W@__crt_stdio_output@@V?$format_validation_base@_WV?$string_output_adapter@_W@__crt_stdio_output@@@2@@__crt_stdio_output@@AAE_NXZ 1003ac39 f i libucrt:output.obj
 0001:00039c41       ?type_case_X@?$output_processor@_WV?$string_output_adapter@_W@__crt_stdio_output@@V?$positional_parameter_base@_WV?$string_output_adapter@_W@__crt_stdio_output@@@2@@__crt_stdio_output@@AAE_NXZ 1003ac41 f i libucrt:output.obj
 0001:00039c49       ?type_case_X@?$output_processor@_WV?$string_output_adapter@_W@__crt_stdio_output@@V?$standard_base@_WV?$string_output_adapter@_W@__crt_stdio_output@@@2@@__crt_stdio_output@@AAE_NXZ 1003ac49 f i libucrt:output.obj
 0001:00039c51       ?type_case_Z@?$output_processor@DV?$stream_output_adapter@D@__crt_stdio_output@@V?$format_validation_base@DV?$stream_output_adapter@D@__crt_stdio_output@@@2@@__crt_stdio_output@@AAE_NXZ 1003ac51 f i libucrt:output.obj
 0001:00039cb4       ?type_case_Z@?$output_processor@DV?$stream_output_adapter@D@__crt_stdio_output@@V?$positional_parameter_base@DV?$stream_output_adapter@D@__crt_stdio_output@@@2@@__crt_stdio_output@@AAE_NXZ 1003acb4 f i libucrt:output.obj
 0001:00039d2e       ?type_case_Z@?$output_processor@DV?$stream_output_adapter@D@__crt_stdio_output@@V?$standard_base@DV?$stream_output_adapter@D@__crt_stdio_output@@@2@@__crt_stdio_output@@AAE_NXZ 1003ad2e f i libucrt:output.obj
 0001:00039d91       ?type_case_Z@?$output_processor@DV?$string_output_adapter@D@__crt_stdio_output@@V?$format_validation_base@DV?$string_output_adapter@D@__crt_stdio_output@@@2@@__crt_stdio_output@@AAE_NXZ 1003ad91 f i libucrt:output.obj
 0001:00039df4       ?type_case_Z@?$output_processor@DV?$string_output_adapter@D@__crt_stdio_output@@V?$positional_parameter_base@DV?$string_output_adapter@D@__crt_stdio_output@@@2@@__crt_stdio_output@@AAE_NXZ 1003adf4 f i libucrt:output.obj
 0001:00039e6e       ?type_case_Z@?$output_processor@DV?$string_output_adapter@D@__crt_stdio_output@@V?$standard_base@DV?$string_output_adapter@D@__crt_stdio_output@@@2@@__crt_stdio_output@@AAE_NXZ 1003ae6e f i libucrt:output.obj
 0001:00039ed1       ?type_case_Z@?$output_processor@_WV?$stream_output_adapter@_W@__crt_stdio_output@@V?$format_validation_base@_WV?$stream_output_adapter@_W@__crt_stdio_output@@@2@@__crt_stdio_output@@AAE_NXZ 1003aed1 f i libucrt:output.obj
 0001:00039f34       ?type_case_Z@?$output_processor@_WV?$stream_output_adapter@_W@__crt_stdio_output@@V?$positional_parameter_base@_WV?$stream_output_adapter@_W@__crt_stdio_output@@@2@@__crt_stdio_output@@AAE_NXZ 1003af34 f i libucrt:output.obj
 0001:00039fae       ?type_case_Z@?$output_processor@_WV?$stream_output_adapter@_W@__crt_stdio_output@@V?$standard_base@_WV?$stream_output_adapter@_W@__crt_stdio_output@@@2@@__crt_stdio_output@@AAE_NXZ 1003afae f i libucrt:output.obj
 0001:0003a011       ?type_case_Z@?$output_processor@_WV?$string_output_adapter@_W@__crt_stdio_output@@V?$format_validation_base@_WV?$string_output_adapter@_W@__crt_stdio_output@@@2@@__crt_stdio_output@@AAE_NXZ 1003b011 f i libucrt:output.obj
 0001:0003a074       ?type_case_Z@?$output_processor@_WV?$string_output_adapter@_W@__crt_stdio_output@@V?$positional_parameter_base@_WV?$string_output_adapter@_W@__crt_stdio_output@@@2@@__crt_stdio_output@@AAE_NXZ 1003b074 f i libucrt:output.obj
 0001:0003a0ee       ?type_case_Z@?$output_processor@_WV?$string_output_adapter@_W@__crt_stdio_output@@V?$standard_base@_WV?$string_output_adapter@_W@__crt_stdio_output@@@2@@__crt_stdio_output@@AAE_NXZ 1003b0ee f i libucrt:output.obj
 0001:0003a151       ?type_case_a@?$output_processor@DV?$stream_output_adapter@D@__crt_stdio_output@@V?$format_validation_base@DV?$stream_output_adapter@D@__crt_stdio_output@@@2@@__crt_stdio_output@@AAE_NXZ 1003b151 f i libucrt:output.obj
 0001:0003a2e2       ?type_case_a@?$output_processor@DV?$stream_output_adapter@D@__crt_stdio_output@@V?$positional_parameter_base@DV?$stream_output_adapter@D@__crt_stdio_output@@@2@@__crt_stdio_output@@AAE_NXZ 1003b2e2 f i libucrt:output.obj
 0001:0003a490       ?type_case_a@?$output_processor@DV?$stream_output_adapter@D@__crt_stdio_output@@V?$standard_base@DV?$stream_output_adapter@D@__crt_stdio_output@@@2@@__crt_stdio_output@@AAE_NXZ 1003b490 f i libucrt:output.obj
 0001:0003a621       ?type_case_a@?$output_processor@DV?$string_output_adapter@D@__crt_stdio_output@@V?$format_validation_base@DV?$string_output_adapter@D@__crt_stdio_output@@@2@@__crt_stdio_output@@AAE_NXZ 1003b621 f i libucrt:output.obj
 0001:0003a7b2       ?type_case_a@?$output_processor@DV?$string_output_adapter@D@__crt_stdio_output@@V?$positional_parameter_base@DV?$string_output_adapter@D@__crt_stdio_output@@@2@@__crt_stdio_output@@AAE_NXZ 1003b7b2 f i libucrt:output.obj
 0001:0003a960       ?type_case_a@?$output_processor@DV?$string_output_adapter@D@__crt_stdio_output@@V?$standard_base@DV?$string_output_adapter@D@__crt_stdio_output@@@2@@__crt_stdio_output@@AAE_NXZ 1003b960 f i libucrt:output.obj
 0001:0003aaf1       ?type_case_a@?$output_processor@_WV?$stream_output_adapter@_W@__crt_stdio_output@@V?$format_validation_base@_WV?$stream_output_adapter@_W@__crt_stdio_output@@@2@@__crt_stdio_output@@AAE_NXZ 1003baf1 f i libucrt:output.obj
 0001:0003ac98       ?type_case_a@?$output_processor@_WV?$stream_output_adapter@_W@__crt_stdio_output@@V?$positional_parameter_base@_WV?$stream_output_adapter@_W@__crt_stdio_output@@@2@@__crt_stdio_output@@AAE_NXZ 1003bc98 f i libucrt:output.obj
 0001:0003ae5c       ?type_case_a@?$output_processor@_WV?$stream_output_adapter@_W@__crt_stdio_output@@V?$standard_base@_WV?$stream_output_adapter@_W@__crt_stdio_output@@@2@@__crt_stdio_output@@AAE_NXZ 1003be5c f i libucrt:output.obj
 0001:0003b003       ?type_case_a@?$output_processor@_WV?$string_output_adapter@_W@__crt_stdio_output@@V?$format_validation_base@_WV?$string_output_adapter@_W@__crt_stdio_output@@@2@@__crt_stdio_output@@AAE_NXZ 1003c003 f i libucrt:output.obj
 0001:0003b1aa       ?type_case_a@?$output_processor@_WV?$string_output_adapter@_W@__crt_stdio_output@@V?$positional_parameter_base@_WV?$string_output_adapter@_W@__crt_stdio_output@@@2@@__crt_stdio_output@@AAE_NXZ 1003c1aa f i libucrt:output.obj
 0001:0003b36e       ?type_case_a@?$output_processor@_WV?$string_output_adapter@_W@__crt_stdio_output@@V?$standard_base@_WV?$string_output_adapter@_W@__crt_stdio_output@@@2@@__crt_stdio_output@@AAE_NXZ 1003c36e f i libucrt:output.obj
 0001:0003b515       ?type_case_c@?$output_processor@DV?$stream_output_adapter@D@__crt_stdio_output@@V?$format_validation_base@DV?$stream_output_adapter@D@__crt_stdio_output@@@2@@__crt_stdio_output@@AAE_NXZ 1003c515 f i libucrt:output.obj
 0001:0003b51d       ?type_case_c@?$output_processor@DV?$stream_output_adapter@D@__crt_stdio_output@@V?$positional_parameter_base@DV?$stream_output_adapter@D@__crt_stdio_output@@@2@@__crt_stdio_output@@AAE_NXZ 1003c51d f i libucrt:output.obj
 0001:0003b525       ?type_case_c@?$output_processor@DV?$stream_output_adapter@D@__crt_stdio_output@@V?$standard_base@DV?$stream_output_adapter@D@__crt_stdio_output@@@2@@__crt_stdio_output@@AAE_NXZ 1003c525 f i libucrt:output.obj
 0001:0003b52d       ?type_case_c@?$output_processor@DV?$string_output_adapter@D@__crt_stdio_output@@V?$format_validation_base@DV?$string_output_adapter@D@__crt_stdio_output@@@2@@__crt_stdio_output@@AAE_NXZ 1003c52d f i libucrt:output.obj
 0001:0003b535       ?type_case_c@?$output_processor@DV?$string_output_adapter@D@__crt_stdio_output@@V?$positional_parameter_base@DV?$string_output_adapter@D@__crt_stdio_output@@@2@@__crt_stdio_output@@AAE_NXZ 1003c535 f i libucrt:output.obj
 0001:0003b53d       ?type_case_c@?$output_processor@DV?$string_output_adapter@D@__crt_stdio_output@@V?$standard_base@DV?$string_output_adapter@D@__crt_stdio_output@@@2@@__crt_stdio_output@@AAE_NXZ 1003c53d f i libucrt:output.obj
 0001:0003b545       ?type_case_c@?$output_processor@_WV?$stream_output_adapter@_W@__crt_stdio_output@@V?$format_validation_base@_WV?$stream_output_adapter@_W@__crt_stdio_output@@@2@@__crt_stdio_output@@AAE_NXZ 1003c545 f i libucrt:output.obj
 0001:0003b54d       ?type_case_c@?$output_processor@_WV?$stream_output_adapter@_W@__crt_stdio_output@@V?$positional_parameter_base@_WV?$stream_output_adapter@_W@__crt_stdio_output@@@2@@__crt_stdio_output@@AAE_NXZ 1003c54d f i libucrt:output.obj
 0001:0003b555       ?type_case_c@?$output_processor@_WV?$stream_output_adapter@_W@__crt_stdio_output@@V?$standard_base@_WV?$stream_output_adapter@_W@__crt_stdio_output@@@2@@__crt_stdio_output@@AAE_NXZ 1003c555 f i libucrt:output.obj
 0001:0003b55d       ?type_case_c@?$output_processor@_WV?$string_output_adapter@_W@__crt_stdio_output@@V?$format_validation_base@_WV?$string_output_adapter@_W@__crt_stdio_output@@@2@@__crt_stdio_output@@AAE_NXZ 1003c55d f i libucrt:output.obj
 0001:0003b565       ?type_case_c@?$output_processor@_WV?$string_output_adapter@_W@__crt_stdio_output@@V?$positional_parameter_base@_WV?$string_output_adapter@_W@__crt_stdio_output@@@2@@__crt_stdio_output@@AAE_NXZ 1003c565 f i libucrt:output.obj
 0001:0003b56d       ?type_case_c@?$output_processor@_WV?$string_output_adapter@_W@__crt_stdio_output@@V?$standard_base@_WV?$string_output_adapter@_W@__crt_stdio_output@@@2@@__crt_stdio_output@@AAE_NXZ 1003c56d f i libucrt:output.obj
 0001:0003b575       ?type_case_c_tchar@?$output_processor@DV?$stream_output_adapter@D@__crt_stdio_output@@V?$format_validation_base@DV?$stream_output_adapter@D@__crt_stdio_output@@@2@@__crt_stdio_output@@AAE_ND@Z 1003c575 f i libucrt:output.obj
 0001:0003b60a       ?type_case_c_tchar@?$output_processor@DV?$stream_output_adapter@D@__crt_stdio_output@@V?$positional_parameter_base@DV?$stream_output_adapter@D@__crt_stdio_output@@@2@@__crt_stdio_output@@AAE_ND@Z 1003c60a f i libucrt:output.obj
 0001:0003b6c9       ?type_case_c_tchar@?$output_processor@DV?$stream_output_adapter@D@__crt_stdio_output@@V?$standard_base@DV?$stream_output_adapter@D@__crt_stdio_output@@@2@@__crt_stdio_output@@AAE_ND@Z 1003c6c9 f i libucrt:output.obj
 0001:0003b75e       ?type_case_c_tchar@?$output_processor@DV?$string_output_adapter@D@__crt_stdio_output@@V?$format_validation_base@DV?$string_output_adapter@D@__crt_stdio_output@@@2@@__crt_stdio_output@@AAE_ND@Z 1003c75e f i libucrt:output.obj
 0001:0003b7f3       ?type_case_c_tchar@?$output_processor@DV?$string_output_adapter@D@__crt_stdio_output@@V?$positional_parameter_base@DV?$string_output_adapter@D@__crt_stdio_output@@@2@@__crt_stdio_output@@AAE_ND@Z 1003c7f3 f i libucrt:output.obj
 0001:0003b8b2       ?type_case_c_tchar@?$output_processor@DV?$string_output_adapter@D@__crt_stdio_output@@V?$standard_base@DV?$string_output_adapter@D@__crt_stdio_output@@@2@@__crt_stdio_output@@AAE_ND@Z 1003c8b2 f i libucrt:output.obj
 0001:0003b947       ?type_case_c_tchar@?$output_processor@_WV?$stream_output_adapter@_W@__crt_stdio_output@@V?$format_validation_base@_WV?$stream_output_adapter@_W@__crt_stdio_output@@@2@@__crt_stdio_output@@AAE_N_W@Z 1003c947 f i libucrt:output.obj
 0001:0003b9ef       ?type_case_c_tchar@?$output_processor@_WV?$stream_output_adapter@_W@__crt_stdio_output@@V?$positional_parameter_base@_WV?$stream_output_adapter@_W@__crt_stdio_output@@@2@@__crt_stdio_output@@AAE_N_W@Z 1003c9ef f i libucrt:output.obj
 0001:0003baba       ?type_case_c_tchar@?$output_processor@_WV?$stream_output_adapter@_W@__crt_stdio_output@@V?$standard_base@_WV?$stream_output_adapter@_W@__crt_stdio_output@@@2@@__crt_stdio_output@@AAE_N_W@Z 1003caba f i libucrt:output.obj
 0001:0003bb62       ?type_case_c_tchar@?$output_processor@_WV?$string_output_adapter@_W@__crt_stdio_output@@V?$format_validation_base@_WV?$string_output_adapter@_W@__crt_stdio_output@@@2@@__crt_stdio_output@@AAE_N_W@Z 1003cb62 f i libucrt:output.obj
 0001:0003bc0a       ?type_case_c_tchar@?$output_processor@_WV?$string_output_adapter@_W@__crt_stdio_output@@V?$positional_parameter_base@_WV?$string_output_adapter@_W@__crt_stdio_output@@@2@@__crt_stdio_output@@AAE_N_W@Z 1003cc0a f i libucrt:output.obj
 0001:0003bcd5       ?type_case_c_tchar@?$output_processor@_WV?$string_output_adapter@_W@__crt_stdio_output@@V?$standard_base@_WV?$string_output_adapter@_W@__crt_stdio_output@@@2@@__crt_stdio_output@@AAE_N_W@Z 1003ccd5 f i libucrt:output.obj
 0001:0003bd7d       ?type_case_d@?$output_processor@DV?$stream_output_adapter@D@__crt_stdio_output@@V?$format_validation_base@DV?$stream_output_adapter@D@__crt_stdio_output@@@2@@__crt_stdio_output@@AAE_NXZ 1003cd7d f i libucrt:output.obj
 0001:0003bd89       ?type_case_d@?$output_processor@DV?$stream_output_adapter@D@__crt_stdio_output@@V?$positional_parameter_base@DV?$stream_output_adapter@D@__crt_stdio_output@@@2@@__crt_stdio_output@@AAE_NXZ 1003cd89 f i libucrt:output.obj
 0001:0003bd95       ?type_case_d@?$output_processor@DV?$stream_output_adapter@D@__crt_stdio_output@@V?$standard_base@DV?$stream_output_adapter@D@__crt_stdio_output@@@2@@__crt_stdio_output@@AAE_NXZ 1003cd95 f i libucrt:output.obj
 0001:0003bda1       ?type_case_d@?$output_processor@DV?$string_output_adapter@D@__crt_stdio_output@@V?$format_validation_base@DV?$string_output_adapter@D@__crt_stdio_output@@@2@@__crt_stdio_output@@AAE_NXZ 1003cda1 f i libucrt:output.obj
 0001:0003bdad       ?type_case_d@?$output_processor@DV?$string_output_adapter@D@__crt_stdio_output@@V?$positional_parameter_base@DV?$string_output_adapter@D@__crt_stdio_output@@@2@@__crt_stdio_output@@AAE_NXZ 1003cdad f i libucrt:output.obj
 0001:0003bdb9       ?type_case_d@?$output_processor@DV?$string_output_adapter@D@__crt_stdio_output@@V?$standard_base@DV?$string_output_adapter@D@__crt_stdio_output@@@2@@__crt_stdio_output@@AAE_NXZ 1003cdb9 f i libucrt:output.obj
 0001:0003bdc5       ?type_case_d@?$output_processor@_WV?$stream_output_adapter@_W@__crt_stdio_output@@V?$format_validation_base@_WV?$stream_output_adapter@_W@__crt_stdio_output@@@2@@__crt_stdio_output@@AAE_NXZ 1003cdc5 f i libucrt:output.obj
 0001:0003bdd1       ?type_case_d@?$output_processor@_WV?$stream_output_adapter@_W@__crt_stdio_output@@V?$positional_parameter_base@_WV?$stream_output_adapter@_W@__crt_stdio_output@@@2@@__crt_stdio_output@@AAE_NXZ 1003cdd1 f i libucrt:output.obj
 0001:0003bddd       ?type_case_d@?$output_processor@_WV?$stream_output_adapter@_W@__crt_stdio_output@@V?$standard_base@_WV?$stream_output_adapter@_W@__crt_stdio_output@@@2@@__crt_stdio_output@@AAE_NXZ 1003cddd f i libucrt:output.obj
 0001:0003bde9       ?type_case_d@?$output_processor@_WV?$string_output_adapter@_W@__crt_stdio_output@@V?$format_validation_base@_WV?$string_output_adapter@_W@__crt_stdio_output@@@2@@__crt_stdio_output@@AAE_NXZ 1003cde9 f i libucrt:output.obj
 0001:0003bdf5       ?type_case_d@?$output_processor@_WV?$string_output_adapter@_W@__crt_stdio_output@@V?$positional_parameter_base@_WV?$string_output_adapter@_W@__crt_stdio_output@@@2@@__crt_stdio_output@@AAE_NXZ 1003cdf5 f i libucrt:output.obj
 0001:0003be01       ?type_case_d@?$output_processor@_WV?$string_output_adapter@_W@__crt_stdio_output@@V?$standard_base@_WV?$string_output_adapter@_W@__crt_stdio_output@@@2@@__crt_stdio_output@@AAE_NXZ 1003ce01 f i libucrt:output.obj
 0001:0003be0d       ?type_case_n@?$output_processor@DV?$stream_output_adapter@D@__crt_stdio_output@@V?$format_validation_base@DV?$stream_output_adapter@D@__crt_stdio_output@@@2@@__crt_stdio_output@@AAE_NXZ 1003ce0d f i libucrt:output.obj
 0001:0003be92       ?type_case_n@?$output_processor@DV?$stream_output_adapter@D@__crt_stdio_output@@V?$positional_parameter_base@DV?$stream_output_adapter@D@__crt_stdio_output@@@2@@__crt_stdio_output@@AAE_NXZ 1003ce92 f i libucrt:output.obj
 0001:0003bf3f       ?type_case_n@?$output_processor@DV?$stream_output_adapter@D@__crt_stdio_output@@V?$standard_base@DV?$stream_output_adapter@D@__crt_stdio_output@@@2@@__crt_stdio_output@@AAE_NXZ 1003cf3f f i libucrt:output.obj
 0001:0003bfc4       ?type_case_n@?$output_processor@DV?$string_output_adapter@D@__crt_stdio_output@@V?$format_validation_base@DV?$string_output_adapter@D@__crt_stdio_output@@@2@@__crt_stdio_output@@AAE_NXZ 1003cfc4 f i libucrt:output.obj
 0001:0003c049       ?type_case_n@?$output_processor@DV?$string_output_adapter@D@__crt_stdio_output@@V?$positional_parameter_base@DV?$string_output_adapter@D@__crt_stdio_output@@@2@@__crt_stdio_output@@AAE_NXZ 1003d049 f i libucrt:output.obj
 0001:0003c0f6       ?type_case_n@?$output_processor@DV?$string_output_adapter@D@__crt_stdio_output@@V?$standard_base@DV?$string_output_adapter@D@__crt_stdio_output@@@2@@__crt_stdio_output@@AAE_NXZ 1003d0f6 f i libucrt:output.obj
 0001:0003c17b       ?type_case_n@?$output_processor@_WV?$stream_output_adapter@_W@__crt_stdio_output@@V?$format_validation_base@_WV?$stream_output_adapter@_W@__crt_stdio_output@@@2@@__crt_stdio_output@@AAE_NXZ 1003d17b f i libucrt:output.obj
 0001:0003c200       ?type_case_n@?$output_processor@_WV?$stream_output_adapter@_W@__crt_stdio_output@@V?$positional_parameter_base@_WV?$stream_output_adapter@_W@__crt_stdio_output@@@2@@__crt_stdio_output@@AAE_NXZ 1003d200 f i libucrt:output.obj
 0001:0003c2ad       ?type_case_n@?$output_processor@_WV?$stream_output_adapter@_W@__crt_stdio_output@@V?$standard_base@_WV?$stream_output_adapter@_W@__crt_stdio_output@@@2@@__crt_stdio_output@@AAE_NXZ 1003d2ad f i libucrt:output.obj
 0001:0003c332       ?type_case_n@?$output_processor@_WV?$string_output_adapter@_W@__crt_stdio_output@@V?$format_validation_base@_WV?$string_output_adapter@_W@__crt_stdio_output@@@2@@__crt_stdio_output@@AAE_NXZ 1003d332 f i libucrt:output.obj
 0001:0003c3b7       ?type_case_n@?$output_processor@_WV?$string_output_adapter@_W@__crt_stdio_output@@V?$positional_parameter_base@_WV?$string_output_adapter@_W@__crt_stdio_output@@@2@@__crt_stdio_output@@AAE_NXZ 1003d3b7 f i libucrt:output.obj
 0001:0003c464       ?type_case_n@?$output_processor@_WV?$string_output_adapter@_W@__crt_stdio_output@@V?$standard_base@_WV?$string_output_adapter@_W@__crt_stdio_output@@@2@@__crt_stdio_output@@AAE_NXZ 1003d464 f i libucrt:output.obj
 0001:0003c4e9       ?type_case_o@?$output_processor@DV?$stream_output_adapter@D@__crt_stdio_output@@V?$format_validation_base@DV?$stream_output_adapter@D@__crt_stdio_output@@@2@@__crt_stdio_output@@AAE_NXZ 1003d4e9 f i libucrt:output.obj
 0001:0003c506       ?type_case_o@?$output_processor@DV?$stream_output_adapter@D@__crt_stdio_output@@V?$positional_parameter_base@DV?$stream_output_adapter@D@__crt_stdio_output@@@2@@__crt_stdio_output@@AAE_NXZ 1003d506 f i libucrt:output.obj
 0001:0003c523       ?type_case_o@?$output_processor@DV?$stream_output_adapter@D@__crt_stdio_output@@V?$standard_base@DV?$stream_output_adapter@D@__crt_stdio_output@@@2@@__crt_stdio_output@@AAE_NXZ 1003d523 f i libucrt:output.obj
 0001:0003c540       ?type_case_o@?$output_processor@DV?$string_output_adapter@D@__crt_stdio_output@@V?$format_validation_base@DV?$string_output_adapter@D@__crt_stdio_output@@@2@@__crt_stdio_output@@AAE_NXZ 1003d540 f i libucrt:output.obj
 0001:0003c55d       ?type_case_o@?$output_processor@DV?$string_output_adapter@D@__crt_stdio_output@@V?$positional_parameter_base@DV?$string_output_adapter@D@__crt_stdio_output@@@2@@__crt_stdio_output@@AAE_NXZ 1003d55d f i libucrt:output.obj
 0001:0003c57a       ?type_case_o@?$output_processor@DV?$string_output_adapter@D@__crt_stdio_output@@V?$standard_base@DV?$string_output_adapter@D@__crt_stdio_output@@@2@@__crt_stdio_output@@AAE_NXZ 1003d57a f i libucrt:output.obj
 0001:0003c597       ?type_case_o@?$output_processor@_WV?$stream_output_adapter@_W@__crt_stdio_output@@V?$format_validation_base@_WV?$stream_output_adapter@_W@__crt_stdio_output@@@2@@__crt_stdio_output@@AAE_NXZ 1003d597 f i libucrt:output.obj
 0001:0003c5b4       ?type_case_o@?$output_processor@_WV?$stream_output_adapter@_W@__crt_stdio_output@@V?$positional_parameter_base@_WV?$stream_output_adapter@_W@__crt_stdio_output@@@2@@__crt_stdio_output@@AAE_NXZ 1003d5b4 f i libucrt:output.obj
 0001:0003c5d1       ?type_case_o@?$output_processor@_WV?$stream_output_adapter@_W@__crt_stdio_output@@V?$standard_base@_WV?$stream_output_adapter@_W@__crt_stdio_output@@@2@@__crt_stdio_output@@AAE_NXZ 1003d5d1 f i libucrt:output.obj
 0001:0003c5ee       ?type_case_o@?$output_processor@_WV?$string_output_adapter@_W@__crt_stdio_output@@V?$format_validation_base@_WV?$string_output_adapter@_W@__crt_stdio_output@@@2@@__crt_stdio_output@@AAE_NXZ 1003d5ee f i libucrt:output.obj
 0001:0003c60b       ?type_case_o@?$output_processor@_WV?$string_output_adapter@_W@__crt_stdio_output@@V?$positional_parameter_base@_WV?$string_output_adapter@_W@__crt_stdio_output@@@2@@__crt_stdio_output@@AAE_NXZ 1003d60b f i libucrt:output.obj
 0001:0003c628       ?type_case_o@?$output_processor@_WV?$string_output_adapter@_W@__crt_stdio_output@@V?$standard_base@_WV?$string_output_adapter@_W@__crt_stdio_output@@@2@@__crt_stdio_output@@AAE_NXZ 1003d628 f i libucrt:output.obj
 0001:0003c645       ?type_case_p@?$output_processor@DV?$stream_output_adapter@D@__crt_stdio_output@@V?$format_validation_base@DV?$stream_output_adapter@D@__crt_stdio_output@@@2@@__crt_stdio_output@@AAE_NXZ 1003d645 f i libucrt:output.obj
 0001:0003c65b       ?type_case_p@?$output_processor@DV?$stream_output_adapter@D@__crt_stdio_output@@V?$positional_parameter_base@DV?$stream_output_adapter@D@__crt_stdio_output@@@2@@__crt_stdio_output@@AAE_NXZ 1003d65b f i libucrt:output.obj
 0001:0003c671       ?type_case_p@?$output_processor@DV?$stream_output_adapter@D@__crt_stdio_output@@V?$standard_base@DV?$stream_output_adapter@D@__crt_stdio_output@@@2@@__crt_stdio_output@@AAE_NXZ 1003d671 f i libucrt:output.obj
 0001:0003c687       ?type_case_p@?$output_processor@DV?$string_output_adapter@D@__crt_stdio_output@@V?$format_validation_base@DV?$string_output_adapter@D@__crt_stdio_output@@@2@@__crt_stdio_output@@AAE_NXZ 1003d687 f i libucrt:output.obj
 0001:0003c69d       ?type_case_p@?$output_processor@DV?$string_output_adapter@D@__crt_stdio_output@@V?$positional_parameter_base@DV?$string_output_adapter@D@__crt_stdio_output@@@2@@__crt_stdio_output@@AAE_NXZ 1003d69d f i libucrt:output.obj
 0001:0003c6b3       ?type_case_p@?$output_processor@DV?$string_output_adapter@D@__crt_stdio_output@@V?$standard_base@DV?$string_output_adapter@D@__crt_stdio_output@@@2@@__crt_stdio_output@@AAE_NXZ 1003d6b3 f i libucrt:output.obj
 0001:0003c6c9       ?type_case_p@?$output_processor@_WV?$stream_output_adapter@_W@__crt_stdio_output@@V?$format_validation_base@_WV?$stream_output_adapter@_W@__crt_stdio_output@@@2@@__crt_stdio_output@@AAE_NXZ 1003d6c9 f i libucrt:output.obj
 0001:0003c6df       ?type_case_p@?$output_processor@_WV?$stream_output_adapter@_W@__crt_stdio_output@@V?$positional_parameter_base@_WV?$stream_output_adapter@_W@__crt_stdio_output@@@2@@__crt_stdio_output@@AAE_NXZ 1003d6df f i libucrt:output.obj
 0001:0003c6f5       ?type_case_p@?$output_processor@_WV?$stream_output_adapter@_W@__crt_stdio_output@@V?$standard_base@_WV?$stream_output_adapter@_W@__crt_stdio_output@@@2@@__crt_stdio_output@@AAE_NXZ 1003d6f5 f i libucrt:output.obj
 0001:0003c70b       ?type_case_p@?$output_processor@_WV?$string_output_adapter@_W@__crt_stdio_output@@V?$format_validation_base@_WV?$string_output_adapter@_W@__crt_stdio_output@@@2@@__crt_stdio_output@@AAE_NXZ 1003d70b f i libucrt:output.obj
 0001:0003c721       ?type_case_p@?$output_processor@_WV?$string_output_adapter@_W@__crt_stdio_output@@V?$positional_parameter_base@_WV?$string_output_adapter@_W@__crt_stdio_output@@@2@@__crt_stdio_output@@AAE_NXZ 1003d721 f i libucrt:output.obj
 0001:0003c737       ?type_case_p@?$output_processor@_WV?$string_output_adapter@_W@__crt_stdio_output@@V?$standard_base@_WV?$string_output_adapter@_W@__crt_stdio_output@@@2@@__crt_stdio_output@@AAE_NXZ 1003d737 f i libucrt:output.obj
 0001:0003c74d       ?type_case_s@?$output_processor@DV?$stream_output_adapter@D@__crt_stdio_output@@V?$format_validation_base@DV?$stream_output_adapter@D@__crt_stdio_output@@@2@@__crt_stdio_output@@AAE_NXZ 1003d74d f i libucrt:output.obj
 0001:0003c7bf       ?type_case_s@?$output_processor@DV?$stream_output_adapter@D@__crt_stdio_output@@V?$positional_parameter_base@DV?$stream_output_adapter@D@__crt_stdio_output@@@2@@__crt_stdio_output@@AAE_NXZ 1003d7bf f i libucrt:output.obj
 0001:0003c83d       ?type_case_s@?$output_processor@DV?$stream_output_adapter@D@__crt_stdio_output@@V?$standard_base@DV?$stream_output_adapter@D@__crt_stdio_output@@@2@@__crt_stdio_output@@AAE_NXZ 1003d83d f i libucrt:output.obj
 0001:0003c8af       ?type_case_s@?$output_processor@DV?$string_output_adapter@D@__crt_stdio_output@@V?$format_validation_base@DV?$string_output_adapter@D@__crt_stdio_output@@@2@@__crt_stdio_output@@AAE_NXZ 1003d8af f i libucrt:output.obj
 0001:0003c921       ?type_case_s@?$output_processor@DV?$string_output_adapter@D@__crt_stdio_output@@V?$positional_parameter_base@DV?$string_output_adapter@D@__crt_stdio_output@@@2@@__crt_stdio_output@@AAE_NXZ 1003d921 f i libucrt:output.obj
 0001:0003c99f       ?type_case_s@?$output_processor@DV?$string_output_adapter@D@__crt_stdio_output@@V?$standard_base@DV?$string_output_adapter@D@__crt_stdio_output@@@2@@__crt_stdio_output@@AAE_NXZ 1003d99f f i libucrt:output.obj
 0001:0003ca11       ?type_case_s@?$output_processor@_WV?$stream_output_adapter@_W@__crt_stdio_output@@V?$format_validation_base@_WV?$stream_output_adapter@_W@__crt_stdio_output@@@2@@__crt_stdio_output@@AAE_NXZ 1003da11 f i libucrt:output.obj
 0001:0003ca85       ?type_case_s@?$output_processor@_WV?$stream_output_adapter@_W@__crt_stdio_output@@V?$positional_parameter_base@_WV?$stream_output_adapter@_W@__crt_stdio_output@@@2@@__crt_stdio_output@@AAE_NXZ 1003da85 f i libucrt:output.obj
 0001:0003cb05       ?type_case_s@?$output_processor@_WV?$stream_output_adapter@_W@__crt_stdio_output@@V?$standard_base@_WV?$stream_output_adapter@_W@__crt_stdio_output@@@2@@__crt_stdio_output@@AAE_NXZ 1003db05 f i libucrt:output.obj
 0001:0003cb79       ?type_case_s@?$output_processor@_WV?$string_output_adapter@_W@__crt_stdio_output@@V?$format_validation_base@_WV?$string_output_adapter@_W@__crt_stdio_output@@@2@@__crt_stdio_output@@AAE_NXZ 1003db79 f i libucrt:output.obj
 0001:0003cbed       ?type_case_s@?$output_processor@_WV?$string_output_adapter@_W@__crt_stdio_output@@V?$positional_parameter_base@_WV?$string_output_adapter@_W@__crt_stdio_output@@@2@@__crt_stdio_output@@AAE_NXZ 1003dbed f i libucrt:output.obj
 0001:0003cc6d       ?type_case_s@?$output_processor@_WV?$string_output_adapter@_W@__crt_stdio_output@@V?$standard_base@_WV?$string_output_adapter@_W@__crt_stdio_output@@@2@@__crt_stdio_output@@AAE_NXZ 1003dc6d f i libucrt:output.obj
 0001:0003cce1       ?type_case_s_compute_narrow_string_length@?$output_processor@DV?$stream_output_adapter@D@__crt_stdio_output@@V?$format_validation_base@DV?$stream_output_adapter@D@__crt_stdio_output@@@2@@__crt_stdio_output@@AAEHHD@Z 1003dce1 f i libucrt:output.obj
 0001:0003ccf7       ?type_case_s_compute_narrow_string_length@?$output_processor@DV?$stream_output_adapter@D@__crt_stdio_output@@V?$positional_parameter_base@DV?$stream_output_adapter@D@__crt_stdio_output@@@2@@__crt_stdio_output@@AAEHHD@Z 1003dcf7 f i libucrt:output.obj
 0001:0003cd0d       ?type_case_s_compute_narrow_string_length@?$output_processor@DV?$stream_output_adapter@D@__crt_stdio_output@@V?$standard_base@DV?$stream_output_adapter@D@__crt_stdio_output@@@2@@__crt_stdio_output@@AAEHHD@Z 1003dd0d f i libucrt:output.obj
 0001:0003cd23       ?type_case_s_compute_narrow_string_length@?$output_processor@DV?$string_output_adapter@D@__crt_stdio_output@@V?$format_validation_base@DV?$string_output_adapter@D@__crt_stdio_output@@@2@@__crt_stdio_output@@AAEHHD@Z 1003dd23 f i libucrt:output.obj
 0001:0003cd39       ?type_case_s_compute_narrow_string_length@?$output_processor@DV?$string_output_adapter@D@__crt_stdio_output@@V?$positional_parameter_base@DV?$string_output_adapter@D@__crt_stdio_output@@@2@@__crt_stdio_output@@AAEHHD@Z 1003dd39 f i libucrt:output.obj
 0001:0003cd4f       ?type_case_s_compute_narrow_string_length@?$output_processor@DV?$string_output_adapter@D@__crt_stdio_output@@V?$standard_base@DV?$string_output_adapter@D@__crt_stdio_output@@@2@@__crt_stdio_output@@AAEHHD@Z 1003dd4f f i libucrt:output.obj
 0001:0003cd65       ?type_case_s_compute_narrow_string_length@?$output_processor@_WV?$stream_output_adapter@_W@__crt_stdio_output@@V?$format_validation_base@_WV?$stream_output_adapter@_W@__crt_stdio_output@@@2@@__crt_stdio_output@@AAEHH_W@Z 1003dd65 f i libucrt:output.obj
 0001:0003cdba       ?type_case_s_compute_narrow_string_length@?$output_processor@_WV?$stream_output_adapter@_W@__crt_stdio_output@@V?$positional_parameter_base@_WV?$stream_output_adapter@_W@__crt_stdio_output@@@2@@__crt_stdio_output@@AAEHH_W@Z 1003ddba f i libucrt:output.obj
 0001:0003ce0f       ?type_case_s_compute_narrow_string_length@?$output_processor@_WV?$stream_output_adapter@_W@__crt_stdio_output@@V?$standard_base@_WV?$stream_output_adapter@_W@__crt_stdio_output@@@2@@__crt_stdio_output@@AAEHH_W@Z 1003de0f f i libucrt:output.obj
 0001:0003ce64       ?type_case_s_compute_narrow_string_length@?$output_processor@_WV?$string_output_adapter@_W@__crt_stdio_output@@V?$format_validation_base@_WV?$string_output_adapter@_W@__crt_stdio_output@@@2@@__crt_stdio_output@@AAEHH_W@Z 1003de64 f i libucrt:output.obj
 0001:0003ceb9       ?type_case_s_compute_narrow_string_length@?$output_processor@_WV?$string_output_adapter@_W@__crt_stdio_output@@V?$positional_parameter_base@_WV?$string_output_adapter@_W@__crt_stdio_output@@@2@@__crt_stdio_output@@AAEHH_W@Z 1003deb9 f i libucrt:output.obj
 0001:0003cf0e       ?type_case_s_compute_narrow_string_length@?$output_processor@_WV?$string_output_adapter@_W@__crt_stdio_output@@V?$standard_base@_WV?$string_output_adapter@_W@__crt_stdio_output@@@2@@__crt_stdio_output@@AAEHH_W@Z 1003df0e f i libucrt:output.obj
 0001:0003cf63       ?type_case_u@?$output_processor@DV?$stream_output_adapter@D@__crt_stdio_output@@V?$format_validation_base@DV?$stream_output_adapter@D@__crt_stdio_output@@@2@@__crt_stdio_output@@AAE_NXZ 1003df63 f i libucrt:output.obj
 0001:0003cf6b       ?type_case_u@?$output_processor@DV?$stream_output_adapter@D@__crt_stdio_output@@V?$positional_parameter_base@DV?$stream_output_adapter@D@__crt_stdio_output@@@2@@__crt_stdio_output@@AAE_NXZ 1003df6b f i libucrt:output.obj
 0001:0003cf73       ?type_case_u@?$output_processor@DV?$stream_output_adapter@D@__crt_stdio_output@@V?$standard_base@DV?$stream_output_adapter@D@__crt_stdio_output@@@2@@__crt_stdio_output@@AAE_NXZ 1003df73 f i libucrt:output.obj
 0001:0003cf7b       ?type_case_u@?$output_processor@DV?$string_output_adapter@D@__crt_stdio_output@@V?$format_validation_base@DV?$string_output_adapter@D@__crt_stdio_output@@@2@@__crt_stdio_output@@AAE_NXZ 1003df7b f i libucrt:output.obj
 0001:0003cf83       ?type_case_u@?$output_processor@DV?$string_output_adapter@D@__crt_stdio_output@@V?$positional_parameter_base@DV?$string_output_adapter@D@__crt_stdio_output@@@2@@__crt_stdio_output@@AAE_NXZ 1003df83 f i libucrt:output.obj
 0001:0003cf8b       ?type_case_u@?$output_processor@DV?$string_output_adapter@D@__crt_stdio_output@@V?$standard_base@DV?$string_output_adapter@D@__crt_stdio_output@@@2@@__crt_stdio_output@@AAE_NXZ 1003df8b f i libucrt:output.obj
 0001:0003cf93       ?type_case_u@?$output_processor@_WV?$stream_output_adapter@_W@__crt_stdio_output@@V?$format_validation_base@_WV?$stream_output_adapter@_W@__crt_stdio_output@@@2@@__crt_stdio_output@@AAE_NXZ 1003df93 f i libucrt:output.obj
 0001:0003cf9b       ?type_case_u@?$output_processor@_WV?$stream_output_adapter@_W@__crt_stdio_output@@V?$positional_parameter_base@_WV?$stream_output_adapter@_W@__crt_stdio_output@@@2@@__crt_stdio_output@@AAE_NXZ 1003df9b f i libucrt:output.obj
 0001:0003cfa3       ?type_case_u@?$output_processor@_WV?$stream_output_adapter@_W@__crt_stdio_output@@V?$standard_base@_WV?$stream_output_adapter@_W@__crt_stdio_output@@@2@@__crt_stdio_output@@AAE_NXZ 1003dfa3 f i libucrt:output.obj
 0001:0003cfab       ?type_case_u@?$output_processor@_WV?$string_output_adapter@_W@__crt_stdio_output@@V?$format_validation_base@_WV?$string_output_adapter@_W@__crt_stdio_output@@@2@@__crt_stdio_output@@AAE_NXZ 1003dfab f i libucrt:output.obj
 0001:0003cfb3       ?type_case_u@?$output_processor@_WV?$string_output_adapter@_W@__crt_stdio_output@@V?$positional_parameter_base@_WV?$string_output_adapter@_W@__crt_stdio_output@@@2@@__crt_stdio_output@@AAE_NXZ 1003dfb3 f i libucrt:output.obj
 0001:0003cfbb       ?type_case_u@?$output_processor@_WV?$string_output_adapter@_W@__crt_stdio_output@@V?$standard_base@_WV?$string_output_adapter@_W@__crt_stdio_output@@@2@@__crt_stdio_output@@AAE_NXZ 1003dfbb f i libucrt:output.obj
 0001:0003cfc3       ?type_case_x@?$output_processor@DV?$stream_output_adapter@D@__crt_stdio_output@@V?$format_validation_base@DV?$stream_output_adapter@D@__crt_stdio_output@@@2@@__crt_stdio_output@@AAE_NXZ 1003dfc3 f i libucrt:output.obj
 0001:0003cfcb       ?type_case_x@?$output_processor@DV?$stream_output_adapter@D@__crt_stdio_output@@V?$positional_parameter_base@DV?$stream_output_adapter@D@__crt_stdio_output@@@2@@__crt_stdio_output@@AAE_NXZ 1003dfcb f i libucrt:output.obj
 0001:0003cfd3       ?type_case_x@?$output_processor@DV?$stream_output_adapter@D@__crt_stdio_output@@V?$standard_base@DV?$stream_output_adapter@D@__crt_stdio_output@@@2@@__crt_stdio_output@@AAE_NXZ 1003dfd3 f i libucrt:output.obj
 0001:0003cfdb       ?type_case_x@?$output_processor@DV?$string_output_adapter@D@__crt_stdio_output@@V?$format_validation_base@DV?$string_output_adapter@D@__crt_stdio_output@@@2@@__crt_stdio_output@@AAE_NXZ 1003dfdb f i libucrt:output.obj
 0001:0003cfe3       ?type_case_x@?$output_processor@DV?$string_output_adapter@D@__crt_stdio_output@@V?$positional_parameter_base@DV?$string_output_adapter@D@__crt_stdio_output@@@2@@__crt_stdio_output@@AAE_NXZ 1003dfe3 f i libucrt:output.obj
 0001:0003cfeb       ?type_case_x@?$output_processor@DV?$string_output_adapter@D@__crt_stdio_output@@V?$standard_base@DV?$string_output_adapter@D@__crt_stdio_output@@@2@@__crt_stdio_output@@AAE_NXZ 1003dfeb f i libucrt:output.obj
 0001:0003cff3       ?type_case_x@?$output_processor@_WV?$stream_output_adapter@_W@__crt_stdio_output@@V?$format_validation_base@_WV?$stream_output_adapter@_W@__crt_stdio_output@@@2@@__crt_stdio_output@@AAE_NXZ 1003dff3 f i libucrt:output.obj
 0001:0003cffb       ?type_case_x@?$output_processor@_WV?$stream_output_adapter@_W@__crt_stdio_output@@V?$positional_parameter_base@_WV?$stream_output_adapter@_W@__crt_stdio_output@@@2@@__crt_stdio_output@@AAE_NXZ 1003dffb f i libucrt:output.obj
 0001:0003d003       ?type_case_x@?$output_processor@_WV?$stream_output_adapter@_W@__crt_stdio_output@@V?$standard_base@_WV?$stream_output_adapter@_W@__crt_stdio_output@@@2@@__crt_stdio_output@@AAE_NXZ 1003e003 f i libucrt:output.obj
 0001:0003d00b       ?type_case_x@?$output_processor@_WV?$string_output_adapter@_W@__crt_stdio_output@@V?$format_validation_base@_WV?$string_output_adapter@_W@__crt_stdio_output@@@2@@__crt_stdio_output@@AAE_NXZ 1003e00b f i libucrt:output.obj
 0001:0003d013       ?type_case_x@?$output_processor@_WV?$string_output_adapter@_W@__crt_stdio_output@@V?$positional_parameter_base@_WV?$string_output_adapter@_W@__crt_stdio_output@@@2@@__crt_stdio_output@@AAE_NXZ 1003e013 f i libucrt:output.obj
 0001:0003d01b       ?type_case_x@?$output_processor@_WV?$string_output_adapter@_W@__crt_stdio_output@@V?$standard_base@_WV?$string_output_adapter@_W@__crt_stdio_output@@@2@@__crt_stdio_output@@AAE_NXZ 1003e01b f i libucrt:output.obj
 0001:0003d023       ?unset_flag@?$output_processor@DV?$stream_output_adapter@D@__crt_stdio_output@@V?$format_validation_base@DV?$stream_output_adapter@D@__crt_stdio_output@@@2@@__crt_stdio_output@@AAEXI@Z 1003e023 f i libucrt:output.obj
 0001:0003d034       ?unset_flag@?$output_processor@DV?$stream_output_adapter@D@__crt_stdio_output@@V?$positional_parameter_base@DV?$stream_output_adapter@D@__crt_stdio_output@@@2@@__crt_stdio_output@@AAEXI@Z 1003e034 f i libucrt:output.obj
 0001:0003d045       ?unset_flag@?$output_processor@DV?$stream_output_adapter@D@__crt_stdio_output@@V?$standard_base@DV?$stream_output_adapter@D@__crt_stdio_output@@@2@@__crt_stdio_output@@AAEXI@Z 1003e045 f i libucrt:output.obj
 0001:0003d056       ?unset_flag@?$output_processor@DV?$string_output_adapter@D@__crt_stdio_output@@V?$format_validation_base@DV?$string_output_adapter@D@__crt_stdio_output@@@2@@__crt_stdio_output@@AAEXI@Z 1003e056 f i libucrt:output.obj
 0001:0003d067       ?unset_flag@?$output_processor@DV?$string_output_adapter@D@__crt_stdio_output@@V?$positional_parameter_base@DV?$string_output_adapter@D@__crt_stdio_output@@@2@@__crt_stdio_output@@AAEXI@Z 1003e067 f i libucrt:output.obj
 0001:0003d078       ?unset_flag@?$output_processor@DV?$string_output_adapter@D@__crt_stdio_output@@V?$standard_base@DV?$string_output_adapter@D@__crt_stdio_output@@@2@@__crt_stdio_output@@AAEXI@Z 1003e078 f i libucrt:output.obj
 0001:0003d089       ?unset_flag@?$output_processor@_WV?$stream_output_adapter@_W@__crt_stdio_output@@V?$format_validation_base@_WV?$stream_output_adapter@_W@__crt_stdio_output@@@2@@__crt_stdio_output@@AAEXI@Z 1003e089 f i libucrt:output.obj
 0001:0003d09a       ?unset_flag@?$output_processor@_WV?$stream_output_adapter@_W@__crt_stdio_output@@V?$positional_parameter_base@_WV?$stream_output_adapter@_W@__crt_stdio_output@@@2@@__crt_stdio_output@@AAEXI@Z 1003e09a f i libucrt:output.obj
 0001:0003d0ab       ?unset_flag@?$output_processor@_WV?$stream_output_adapter@_W@__crt_stdio_output@@V?$standard_base@_WV?$stream_output_adapter@_W@__crt_stdio_output@@@2@@__crt_stdio_output@@AAEXI@Z 1003e0ab f i libucrt:output.obj
 0001:0003d0bc       ?unset_flag@?$output_processor@_WV?$string_output_adapter@_W@__crt_stdio_output@@V?$format_validation_base@_WV?$string_output_adapter@_W@__crt_stdio_output@@@2@@__crt_stdio_output@@AAEXI@Z 1003e0bc f i libucrt:output.obj
 0001:0003d0cd       ?unset_flag@?$output_processor@_WV?$string_output_adapter@_W@__crt_stdio_output@@V?$positional_parameter_base@_WV?$string_output_adapter@_W@__crt_stdio_output@@@2@@__crt_stdio_output@@AAEXI@Z 1003e0cd f i libucrt:output.obj
 0001:0003d0de       ?unset_flag@?$output_processor@_WV?$string_output_adapter@_W@__crt_stdio_output@@V?$standard_base@_WV?$string_output_adapter@_W@__crt_stdio_output@@@2@@__crt_stdio_output@@AAEXI@Z 1003e0de f i libucrt:output.obj
 0001:0003d0ef       ?update_field_width@?$positional_parameter_base@DV?$stream_output_adapter@D@__crt_stdio_output@@@__crt_stdio_output@@IAE_NXZ 1003e0ef f i libucrt:output.obj
 0001:0003d1c4       ?update_field_width@?$positional_parameter_base@DV?$string_output_adapter@D@__crt_stdio_output@@@__crt_stdio_output@@IAE_NXZ 1003e1c4 f i libucrt:output.obj
 0001:0003d299       ?update_field_width@?$positional_parameter_base@_WV?$stream_output_adapter@_W@__crt_stdio_output@@@__crt_stdio_output@@IAE_NXZ 1003e299 f i libucrt:output.obj
 0001:0003d36f       ?update_field_width@?$positional_parameter_base@_WV?$string_output_adapter@_W@__crt_stdio_output@@@__crt_stdio_output@@IAE_NXZ 1003e36f f i libucrt:output.obj
 0001:0003d445       ?update_field_width@?$standard_base@DV?$stream_output_adapter@D@__crt_stdio_output@@@__crt_stdio_output@@IAE_NXZ 1003e445 f i libucrt:output.obj
 0001:0003d456       ?update_field_width@?$standard_base@DV?$string_output_adapter@D@__crt_stdio_output@@@__crt_stdio_output@@IAE_NXZ 1003e456 f i libucrt:output.obj
 0001:0003d467       ?update_field_width@?$standard_base@_WV?$stream_output_adapter@_W@__crt_stdio_output@@@__crt_stdio_output@@IAE_NXZ 1003e467 f i libucrt:output.obj
 0001:0003d478       ?update_field_width@?$standard_base@_WV?$string_output_adapter@_W@__crt_stdio_output@@@__crt_stdio_output@@IAE_NXZ 1003e478 f i libucrt:output.obj
 0001:0003d489       ?update_precision@?$positional_parameter_base@DV?$stream_output_adapter@D@__crt_stdio_output@@@__crt_stdio_output@@IAE_NXZ 1003e489 f i libucrt:output.obj
 0001:0003d55e       ?update_precision@?$positional_parameter_base@DV?$string_output_adapter@D@__crt_stdio_output@@@__crt_stdio_output@@IAE_NXZ 1003e55e f i libucrt:output.obj
 0001:0003d633       ?update_precision@?$positional_parameter_base@_WV?$stream_output_adapter@_W@__crt_stdio_output@@@__crt_stdio_output@@IAE_NXZ 1003e633 f i libucrt:output.obj
 0001:0003d709       ?update_precision@?$positional_parameter_base@_WV?$string_output_adapter@_W@__crt_stdio_output@@@__crt_stdio_output@@IAE_NXZ 1003e709 f i libucrt:output.obj
 0001:0003d7df       ?update_precision@?$standard_base@DV?$stream_output_adapter@D@__crt_stdio_output@@@__crt_stdio_output@@IAE_NXZ 1003e7df f i libucrt:output.obj
 0001:0003d7f0       ?update_precision@?$standard_base@DV?$string_output_adapter@D@__crt_stdio_output@@@__crt_stdio_output@@IAE_NXZ 1003e7f0 f i libucrt:output.obj
 0001:0003d801       ?update_precision@?$standard_base@_WV?$stream_output_adapter@_W@__crt_stdio_output@@@__crt_stdio_output@@IAE_NXZ 1003e801 f i libucrt:output.obj
 0001:0003d812       ?update_precision@?$standard_base@_WV?$string_output_adapter@_W@__crt_stdio_output@@@__crt_stdio_output@@IAE_NXZ 1003e812 f i libucrt:output.obj
 0001:0003d823       ?validate@?$stream_output_adapter@D@__crt_stdio_output@@QBE_NAAV__crt_cached_ptd_host@@@Z 1003e823 f i libucrt:output.obj
 0001:0003d85b       ?validate@?$stream_output_adapter@_W@__crt_stdio_output@@QBE_NAAV__crt_cached_ptd_host@@@Z 1003e85b f i libucrt:output.obj
 0001:0003d88c       ?validate@?$string_output_adapter@D@__crt_stdio_output@@QBE_NAAV__crt_cached_ptd_host@@@Z 1003e88c f i libucrt:output.obj
 0001:0003d8bd       ?validate@?$string_output_adapter@_W@__crt_stdio_output@@QBE_NAAV__crt_cached_ptd_host@@@Z 1003e8bd f i libucrt:output.obj
 0001:0003d8ee       ?validate_and_store_parameter_data@?$positional_parameter_base@DV?$stream_output_adapter@D@__crt_stdio_output@@@__crt_stdio_output@@AAE_NAAUparameter_data@12@W4parameter_type@12@DW4length_modifier@2@@Z 1003e8ee f i libucrt:output.obj
 0001:0003d950       ?validate_and_store_parameter_data@?$positional_parameter_base@DV?$string_output_adapter@D@__crt_stdio_output@@@__crt_stdio_output@@AAE_NAAUparameter_data@12@W4parameter_type@12@DW4length_modifier@2@@Z 1003e950 f i libucrt:output.obj
 0001:0003d9b2       ?validate_and_store_parameter_data@?$positional_parameter_base@_WV?$stream_output_adapter@_W@__crt_stdio_output@@@__crt_stdio_output@@AAE_NAAUparameter_data@12@W4parameter_type@12@_WW4length_modifier@2@@Z 1003e9b2 f i libucrt:output.obj
 0001:0003da16       ?validate_and_store_parameter_data@?$positional_parameter_base@_WV?$string_output_adapter@_W@__crt_stdio_output@@@__crt_stdio_output@@AAE_NAAUparameter_data@12@W4parameter_type@12@_WW4length_modifier@2@@Z 1003ea16 f i libucrt:output.obj
 0001:0003da7a       ?validate_and_update_state_at_beginning_of_format_character@?$positional_parameter_base@DV?$stream_output_adapter@D@__crt_stdio_output@@@__crt_stdio_output@@IAE_NXZ 1003ea7a f i libucrt:output.obj
 0001:0003db91       ?validate_and_update_state_at_beginning_of_format_character@?$positional_parameter_base@DV?$string_output_adapter@D@__crt_stdio_output@@@__crt_stdio_output@@IAE_NXZ 1003eb91 f i libucrt:output.obj
 0001:0003dca8       ?validate_and_update_state_at_beginning_of_format_character@?$positional_parameter_base@_WV?$stream_output_adapter@_W@__crt_stdio_output@@@__crt_stdio_output@@IAE_NXZ 1003eca8 f i libucrt:output.obj
 0001:0003ddcc       ?validate_and_update_state_at_beginning_of_format_character@?$positional_parameter_base@_WV?$string_output_adapter@_W@__crt_stdio_output@@@__crt_stdio_output@@IAE_NXZ 1003edcc f i libucrt:output.obj
 0001:0003def0       ?validate_and_update_state_at_beginning_of_format_character@?$standard_base@DV?$stream_output_adapter@D@__crt_stdio_output@@@__crt_stdio_output@@IAE_NXZ 1003eef0 f i libucrt:output.obj
 0001:0003def3       ?validate_and_update_state_at_beginning_of_format_character@?$standard_base@DV?$string_output_adapter@D@__crt_stdio_output@@@__crt_stdio_output@@IAE_NXZ 1003eef3 f i libucrt:output.obj
 0001:0003def6       ?validate_and_update_state_at_beginning_of_format_character@?$standard_base@_WV?$stream_output_adapter@_W@__crt_stdio_output@@@__crt_stdio_output@@IAE_NXZ 1003eef6 f i libucrt:output.obj
 0001:0003def9       ?validate_and_update_state_at_beginning_of_format_character@?$standard_base@_WV?$string_output_adapter@_W@__crt_stdio_output@@@__crt_stdio_output@@IAE_NXZ 1003eef9 f i libucrt:output.obj
 0001:0003defc       ?validate_and_update_state_at_end_of_format_string@?$format_validation_base@DV?$stream_output_adapter@D@__crt_stdio_output@@@__crt_stdio_output@@IAE_NXZ 1003eefc f i libucrt:output.obj
 0001:0003df2d       ?validate_and_update_state_at_end_of_format_string@?$format_validation_base@DV?$string_output_adapter@D@__crt_stdio_output@@@__crt_stdio_output@@IAE_NXZ 1003ef2d f i libucrt:output.obj
 0001:0003df5e       ?validate_and_update_state_at_end_of_format_string@?$format_validation_base@_WV?$stream_output_adapter@_W@__crt_stdio_output@@@__crt_stdio_output@@IAE_NXZ 1003ef5e f i libucrt:output.obj
 0001:0003df8f       ?validate_and_update_state_at_end_of_format_string@?$format_validation_base@_WV?$string_output_adapter@_W@__crt_stdio_output@@@__crt_stdio_output@@IAE_NXZ 1003ef8f f i libucrt:output.obj
 0001:0003dfc0       ?validate_and_update_state_at_end_of_format_string@?$positional_parameter_base@DV?$stream_output_adapter@D@__crt_stdio_output@@@__crt_stdio_output@@IAE_NXZ 1003efc0 f i libucrt:output.obj
 0001:0003e07a       ?validate_and_update_state_at_end_of_format_string@?$positional_parameter_base@DV?$string_output_adapter@D@__crt_stdio_output@@@__crt_stdio_output@@IAE_NXZ 1003f07a f i libucrt:output.obj
 0001:0003e134       ?validate_and_update_state_at_end_of_format_string@?$positional_parameter_base@_WV?$stream_output_adapter@_W@__crt_stdio_output@@@__crt_stdio_output@@IAE_NXZ 1003f134 f i libucrt:output.obj
 0001:0003e1ee       ?validate_and_update_state_at_end_of_format_string@?$positional_parameter_base@_WV?$string_output_adapter@_W@__crt_stdio_output@@@__crt_stdio_output@@IAE_NXZ 1003f1ee f i libucrt:output.obj
 0001:0003e2a8       ?validate_and_update_state_at_end_of_format_string@?$standard_base@DV?$stream_output_adapter@D@__crt_stdio_output@@@__crt_stdio_output@@IBE_NXZ 1003f2a8 f i libucrt:output.obj
 0001:0003e2ab       ?validate_and_update_state_at_end_of_format_string@?$standard_base@DV?$string_output_adapter@D@__crt_stdio_output@@@__crt_stdio_output@@IBE_NXZ 1003f2ab f i libucrt:output.obj
 0001:0003e2ae       ?validate_and_update_state_at_end_of_format_string@?$standard_base@_WV?$stream_output_adapter@_W@__crt_stdio_output@@@__crt_stdio_output@@IBE_NXZ 1003f2ae f i libucrt:output.obj
 0001:0003e2b1       ?validate_and_update_state_at_end_of_format_string@?$standard_base@_WV?$string_output_adapter@_W@__crt_stdio_output@@@__crt_stdio_output@@IBE_NXZ 1003f2b1 f i libucrt:output.obj
 0001:0003e2b4       ?validate_state_for_type_case_a@?$positional_parameter_base@DV?$stream_output_adapter@D@__crt_stdio_output@@@__crt_stdio_output@@IAE_NXZ 1003f2b4 f i libucrt:output.obj
 0001:0003e313       ?validate_state_for_type_case_a@?$positional_parameter_base@DV?$string_output_adapter@D@__crt_stdio_output@@@__crt_stdio_output@@IAE_NXZ 1003f313 f i libucrt:output.obj
 0001:0003e372       ?validate_state_for_type_case_a@?$positional_parameter_base@_WV?$stream_output_adapter@_W@__crt_stdio_output@@@__crt_stdio_output@@IAE_NXZ 1003f372 f i libucrt:output.obj
 0001:0003e3d1       ?validate_state_for_type_case_a@?$positional_parameter_base@_WV?$string_output_adapter@_W@__crt_stdio_output@@@__crt_stdio_output@@IAE_NXZ 1003f3d1 f i libucrt:output.obj
 0001:0003e430       ?validate_state_for_type_case_a@?$standard_base@DV?$stream_output_adapter@D@__crt_stdio_output@@@__crt_stdio_output@@IBE_NXZ 1003f430 f i libucrt:output.obj
 0001:0003e433       ?validate_state_for_type_case_a@?$standard_base@DV?$string_output_adapter@D@__crt_stdio_output@@@__crt_stdio_output@@IBE_NXZ 1003f433 f i libucrt:output.obj
 0001:0003e436       ?validate_state_for_type_case_a@?$standard_base@_WV?$stream_output_adapter@_W@__crt_stdio_output@@@__crt_stdio_output@@IBE_NXZ 1003f436 f i libucrt:output.obj
 0001:0003e439       ?validate_state_for_type_case_a@?$standard_base@_WV?$string_output_adapter@_W@__crt_stdio_output@@@__crt_stdio_output@@IBE_NXZ 1003f439 f i libucrt:output.obj
 0001:0003e43c       ?validate_stream_is_ansi_if_required@?$__acrt_stdio_char_traits@D@@SA_NQAU_iobuf@@@Z 1003f43c f i libucrt:output.obj
 0001:0003e4c3       ?validate_stream_is_ansi_if_required@?$__acrt_stdio_char_traits@_W@@SA_NQAU_iobuf@@@Z 1003f4c3 f i libucrt:output.obj
 0001:0003e4c6       ?wide_null_string@?$output_processor@DV?$stream_output_adapter@D@__crt_stdio_output@@V?$format_validation_base@DV?$stream_output_adapter@D@__crt_stdio_output@@@2@@__crt_stdio_output@@CAPA_WXZ 1003f4c6 f i libucrt:output.obj
 0001:0003e4cc       ?wide_null_string@?$output_processor@DV?$stream_output_adapter@D@__crt_stdio_output@@V?$positional_parameter_base@DV?$stream_output_adapter@D@__crt_stdio_output@@@2@@__crt_stdio_output@@CAPA_WXZ 1003f4cc f i libucrt:output.obj
 0001:0003e4d2       ?wide_null_string@?$output_processor@DV?$stream_output_adapter@D@__crt_stdio_output@@V?$standard_base@DV?$stream_output_adapter@D@__crt_stdio_output@@@2@@__crt_stdio_output@@CAPA_WXZ 1003f4d2 f i libucrt:output.obj
 0001:0003e4d8       ?wide_null_string@?$output_processor@DV?$string_output_adapter@D@__crt_stdio_output@@V?$format_validation_base@DV?$string_output_adapter@D@__crt_stdio_output@@@2@@__crt_stdio_output@@CAPA_WXZ 1003f4d8 f i libucrt:output.obj
 0001:0003e4de       ?wide_null_string@?$output_processor@DV?$string_output_adapter@D@__crt_stdio_output@@V?$positional_parameter_base@DV?$string_output_adapter@D@__crt_stdio_output@@@2@@__crt_stdio_output@@CAPA_WXZ 1003f4de f i libucrt:output.obj
 0001:0003e4e4       ?wide_null_string@?$output_processor@DV?$string_output_adapter@D@__crt_stdio_output@@V?$standard_base@DV?$string_output_adapter@D@__crt_stdio_output@@@2@@__crt_stdio_output@@CAPA_WXZ 1003f4e4 f i libucrt:output.obj
 0001:0003e4ea       ?wide_null_string@?$output_processor@_WV?$stream_output_adapter@_W@__crt_stdio_output@@V?$format_validation_base@_WV?$stream_output_adapter@_W@__crt_stdio_output@@@2@@__crt_stdio_output@@CAPA_WXZ 1003f4ea f i libucrt:output.obj
 0001:0003e4f0       ?wide_null_string@?$output_processor@_WV?$stream_output_adapter@_W@__crt_stdio_output@@V?$positional_parameter_base@_WV?$stream_output_adapter@_W@__crt_stdio_output@@@2@@__crt_stdio_output@@CAPA_WXZ 1003f4f0 f i libucrt:output.obj
 0001:0003e4f6       ?wide_null_string@?$output_processor@_WV?$stream_output_adapter@_W@__crt_stdio_output@@V?$standard_base@_WV?$stream_output_adapter@_W@__crt_stdio_output@@@2@@__crt_stdio_output@@CAPA_WXZ 1003f4f6 f i libucrt:output.obj
 0001:0003e4fc       ?wide_null_string@?$output_processor@_WV?$string_output_adapter@_W@__crt_stdio_output@@V?$format_validation_base@_WV?$string_output_adapter@_W@__crt_stdio_output@@@2@@__crt_stdio_output@@CAPA_WXZ 1003f4fc f i libucrt:output.obj
 0001:0003e502       ?wide_null_string@?$output_processor@_WV?$string_output_adapter@_W@__crt_stdio_output@@V?$positional_parameter_base@_WV?$string_output_adapter@_W@__crt_stdio_output@@@2@@__crt_stdio_output@@CAPA_WXZ 1003f502 f i libucrt:output.obj
 0001:0003e508       ?wide_null_string@?$output_processor@_WV?$string_output_adapter@_W@__crt_stdio_output@@V?$standard_base@_WV?$string_output_adapter@_W@__crt_stdio_output@@@2@@__crt_stdio_output@@CAPA_WXZ 1003f508 f i libucrt:output.obj
 0001:0003e50e       ?write_character@?$output_adapter_common@DV?$stream_output_adapter@D@__crt_stdio_output@@@__crt_stdio_output@@QBEXDQAHAAV__crt_cached_ptd_host@@@Z 1003f50e f i libucrt:output.obj
 0001:0003e530       ?write_character@?$output_adapter_common@_WV?$stream_output_adapter@_W@__crt_stdio_output@@@__crt_stdio_output@@QBEX_WQAHAAV__crt_cached_ptd_host@@@Z 1003f530 f i libucrt:output.obj
 0001:0003e552       ?write_character@?$string_output_adapter@D@__crt_stdio_output@@QBE_NDQAHAAV__crt_cached_ptd_host@@@Z 1003f552 f i libucrt:output.obj
 0001:0003e594       ?write_character@?$string_output_adapter@_W@__crt_stdio_output@@QBE_N_WQAHAAV__crt_cached_ptd_host@@@Z 1003f594 f i libucrt:output.obj
 0001:0003e5d9       ?write_character_without_count_update@?$stream_output_adapter@D@__crt_stdio_output@@QBE_NDAAV__crt_cached_ptd_host@@@Z 1003f5d9 f i libucrt:output.obj
 0001:0003e613       ?write_character_without_count_update@?$stream_output_adapter@_W@__crt_stdio_output@@QBE_N_WAAV__crt_cached_ptd_host@@@Z 1003f613 f i libucrt:output.obj
 0001:0003e650       ?write_stored_string_tchar@?$output_processor@DV?$stream_output_adapter@D@__crt_stdio_output@@V?$format_validation_base@DV?$stream_output_adapter@D@__crt_stdio_output@@@2@@__crt_stdio_output@@AAE_ND@Z 1003f650 f i libucrt:output.obj
 0001:0003e6fb       ?write_stored_string_tchar@?$output_processor@DV?$stream_output_adapter@D@__crt_stdio_output@@V?$positional_parameter_base@DV?$stream_output_adapter@D@__crt_stdio_output@@@2@@__crt_stdio_output@@AAE_ND@Z 1003f6fb f i libucrt:output.obj
 0001:0003e7a6       ?write_stored_string_tchar@?$output_processor@DV?$stream_output_adapter@D@__crt_stdio_output@@V?$standard_base@DV?$stream_output_adapter@D@__crt_stdio_output@@@2@@__crt_stdio_output@@AAE_ND@Z 1003f7a6 f i libucrt:output.obj
 0001:0003e851       ?write_stored_string_tchar@?$output_processor@DV?$string_output_adapter@D@__crt_stdio_output@@V?$format_validation_base@DV?$string_output_adapter@D@__crt_stdio_output@@@2@@__crt_stdio_output@@AAE_ND@Z 1003f851 f i libucrt:output.obj
 0001:0003e8fc       ?write_stored_string_tchar@?$output_processor@DV?$string_output_adapter@D@__crt_stdio_output@@V?$positional_parameter_base@DV?$string_output_adapter@D@__crt_stdio_output@@@2@@__crt_stdio_output@@AAE_ND@Z 1003f8fc f i libucrt:output.obj
 0001:0003e9a7       ?write_stored_string_tchar@?$output_processor@DV?$string_output_adapter@D@__crt_stdio_output@@V?$standard_base@DV?$string_output_adapter@D@__crt_stdio_output@@@2@@__crt_stdio_output@@AAE_ND@Z 1003f9a7 f i libucrt:output.obj
 0001:0003ea52       ?write_stored_string_tchar@?$output_processor@_WV?$stream_output_adapter@_W@__crt_stdio_output@@V?$format_validation_base@_WV?$stream_output_adapter@_W@__crt_stdio_output@@@2@@__crt_stdio_output@@AAE_N_W@Z 1003fa52 f i libucrt:output.obj
 0001:0003eaff       ?write_stored_string_tchar@?$output_processor@_WV?$stream_output_adapter@_W@__crt_stdio_output@@V?$positional_parameter_base@_WV?$stream_output_adapter@_W@__crt_stdio_output@@@2@@__crt_stdio_output@@AAE_N_W@Z 1003faff f i libucrt:output.obj
 0001:0003ebac       ?write_stored_string_tchar@?$output_processor@_WV?$stream_output_adapter@_W@__crt_stdio_output@@V?$standard_base@_WV?$stream_output_adapter@_W@__crt_stdio_output@@@2@@__crt_stdio_output@@AAE_N_W@Z 1003fbac f i libucrt:output.obj
 0001:0003ec59       ?write_stored_string_tchar@?$output_processor@_WV?$string_output_adapter@_W@__crt_stdio_output@@V?$format_validation_base@_WV?$string_output_adapter@_W@__crt_stdio_output@@@2@@__crt_stdio_output@@AAE_N_W@Z 1003fc59 f i libucrt:output.obj
 0001:0003ed36       ?write_stored_string_tchar@?$output_processor@_WV?$string_output_adapter@_W@__crt_stdio_output@@V?$positional_parameter_base@_WV?$string_output_adapter@_W@__crt_stdio_output@@@2@@__crt_stdio_output@@AAE_N_W@Z 1003fd36 f i libucrt:output.obj
 0001:0003ee13       ?write_stored_string_tchar@?$output_processor@_WV?$string_output_adapter@_W@__crt_stdio_output@@V?$standard_base@_WV?$string_output_adapter@_W@__crt_stdio_output@@@2@@__crt_stdio_output@@AAE_N_W@Z 1003fe13 f i libucrt:output.obj
 0001:0003eef0       ?write_string@?$stream_output_adapter@D@__crt_stdio_output@@QBEXQBDHQAHAAV__crt_cached_ptd_host@@@Z 1003fef0 f i libucrt:output.obj
 0001:0003ef1c       ?write_string@?$stream_output_adapter@_W@__crt_stdio_output@@QBEXQB_WHQAHAAV__crt_cached_ptd_host@@@Z 1003ff1c f i libucrt:output.obj
 0001:0003ef48       ?write_string@?$string_output_adapter@D@__crt_stdio_output@@QBEXQBDHQAHAAV__crt_cached_ptd_host@@@Z 1003ff48 f i libucrt:output.obj
 0001:0003efaf       ?write_string@?$string_output_adapter@_W@__crt_stdio_output@@QBEXQB_WHQAHAAV__crt_cached_ptd_host@@@Z 1003ffaf f i libucrt:output.obj
 0001:0003f020       ?write_string_impl@?$output_adapter_common@DV?$stream_output_adapter@D@__crt_stdio_output@@@__crt_stdio_output@@IBEXQBDHQAHAAV__crt_cached_ptd_host@@@Z 10040020 f i libucrt:output.obj
 0001:0003f09f       ?write_string_impl@?$output_adapter_common@_WV?$stream_output_adapter@_W@__crt_stdio_output@@@__crt_stdio_output@@IBEXQB_WHQAHAAV__crt_cached_ptd_host@@@Z 1004009f f i libucrt:output.obj
 0001:0003f121       ___acrt_isleadbyte_l_noupdate 10040121 f i libucrt:output.obj
 0001:0003f13f       ___stdio_common_vfprintf   1004013f f   libucrt:output.obj
 0001:0003f1e3       ___stdio_common_vfprintf_p 100401e3 f   libucrt:output.obj
 0001:0003f287       ___stdio_common_vfprintf_s 10040287 f   libucrt:output.obj
 0001:0003f32b       ___stdio_common_vfwprintf  1004032b f   libucrt:output.obj
 0001:0003f3cf       ___stdio_common_vfwprintf_p 100403cf f   libucrt:output.obj
 0001:0003f473       ___stdio_common_vfwprintf_s 10040473 f   libucrt:output.obj
 0001:0003f517       ___stdio_common_vsnprintf_s 10040517 f   libucrt:output.obj
 0001:0003f55b       ___stdio_common_vsnwprintf_s 1004055b f   libucrt:output.obj
 0001:0003f59f       ___stdio_common_vsprintf   1004059f f   libucrt:output.obj
 0001:0003f5e0       ___stdio_common_vsprintf_p 100405e0 f   libucrt:output.obj
 0001:0003f621       ___stdio_common_vsprintf_s 10040621 f   libucrt:output.obj
 0001:0003f662       ___stdio_common_vswprintf  10040662 f   libucrt:output.obj
 0001:0003f6a3       ___stdio_common_vswprintf_p 100406a3 f   libucrt:output.obj
 0001:0003f6e4       ___stdio_common_vswprintf_s 100406e4 f   libucrt:output.obj
 0001:0003f725       __ctype_fast_check_internal 10040725 f i libucrt:output.obj
 0001:0003f73f       __isdigit_fast_internal    1004073f f i libucrt:output.obj
 0001:0003f759       __tolower_fast_internal    10040759 f i libucrt:output.obj
 0001:0003f772       ??$?RE@__crt_internal_free_policy@@QBEXQBE@Z 10040772 f i libucrt:input.obj
 0001:0003f886       ??$assemble_floating_point_ind@M@__crt_strtox@@YAXAAM@Z 10040886 f i libucrt:input.obj
 0001:0003f896       ??$assemble_floating_point_ind@N@__crt_strtox@@YAXAAN@Z 10040896 f i libucrt:input.obj
 0001:0003f8aa       ??$assemble_floating_point_infinity@M@__crt_strtox@@YAX_NAAM@Z 100408aa f i libucrt:input.obj
 0001:0003f8c3       ??$assemble_floating_point_infinity@N@__crt_strtox@@YAX_NAAN@Z 100408c3 f i libucrt:input.obj
 0001:0003f8e0       ??$assemble_floating_point_qnan@M@__crt_strtox@@YAX_NAAM@Z 100408e0 f i libucrt:input.obj
 0001:0003f8f9       ??$assemble_floating_point_qnan@N@__crt_strtox@@YAX_NAAN@Z 100408f9 f i libucrt:input.obj
 0001:0003f916       ??$assemble_floating_point_snan@M@__crt_strtox@@YAX_NAAM@Z 10040916 f i libucrt:input.obj
 0001:0003f92f       ??$assemble_floating_point_snan@N@__crt_strtox@@YAX_NAAN@Z 1004092f f i libucrt:input.obj
 0001:0003f950       ??$assemble_floating_point_value_t@M@__crt_strtox@@YA?AW4SLD_STATUS@@_NH_KAAM@Z 10040950 f i libucrt:input.obj
 0001:0003f980       ??$assemble_floating_point_value_t@N@__crt_strtox@@YA?AW4SLD_STATUS@@_NH_KAAN@Z 10040980 f i libucrt:input.obj
 0001:0003f9c2       ??$assemble_floating_point_zero@M@__crt_strtox@@YAX_NAAM@Z 100409c2 f i libucrt:input.obj
 0001:0003f9d5       ??$assemble_floating_point_zero@N@__crt_strtox@@YAX_NAAN@Z 100409d5 f i libucrt:input.obj
 0001:0003fc02       ??$convert_decimal_string_to_floating_type@M@__crt_strtox@@YA?AW4SLD_STATUS@@ABUfloating_point_string@0@AAM@Z 10040c02 f i libucrt:input.obj
 0001:0003fc23       ??$convert_decimal_string_to_floating_type@N@__crt_strtox@@YA?AW4SLD_STATUS@@ABUfloating_point_string@0@AAN@Z 10040c23 f i libucrt:input.obj
 0001:0003fc44       ??$convert_hexadecimal_string_to_floating_type@M@__crt_strtox@@YA?AW4SLD_STATUS@@ABUfloating_point_string@0@AAM@Z 10040c44 f i libucrt:input.obj
 0001:0003fc65       ??$convert_hexadecimal_string_to_floating_type@N@__crt_strtox@@YA?AW4SLD_STATUS@@ABUfloating_point_string@0@AAN@Z 10040c65 f i libucrt:input.obj
 0001:0003fc86       ??$fill_buffer@D@?$input_processor@DV?$stream_input_adapter@D@__crt_stdio_input@@@__crt_stdio_input@@CAXQADII@Z 10040c86 f i libucrt:input.obj
 0001:0003fc89       ??$fill_buffer@D@?$input_processor@DV?$string_input_adapter@D@__crt_stdio_input@@@__crt_stdio_input@@CAXQADII@Z 10040c89 f i libucrt:input.obj
 0001:0003fc8c       ??$fill_buffer@D@?$input_processor@_WV?$stream_input_adapter@_W@__crt_stdio_input@@@__crt_stdio_input@@CAXQADII@Z 10040c8c f i libucrt:input.obj
 0001:0003fc8f       ??$fill_buffer@D@?$input_processor@_WV?$string_input_adapter@_W@__crt_stdio_input@@@__crt_stdio_input@@CAXQADII@Z 10040c8f f i libucrt:input.obj
 0001:0003fc92       ??$fill_buffer@_W@?$input_processor@DV?$stream_input_adapter@D@__crt_stdio_input@@@__crt_stdio_input@@CAXQA_WII@Z 10040c92 f i libucrt:input.obj
 0001:0003fc95       ??$fill_buffer@_W@?$input_processor@DV?$string_input_adapter@D@__crt_stdio_input@@@__crt_stdio_input@@CAXQA_WII@Z 10040c95 f i libucrt:input.obj
 0001:0003fc98       ??$fill_buffer@_W@?$input_processor@_WV?$stream_input_adapter@_W@__crt_stdio_input@@@__crt_stdio_input@@CAXQA_WII@Z 10040c98 f i libucrt:input.obj
 0001:0003fc9b       ??$fill_buffer@_W@?$input_processor@_WV?$string_input_adapter@_W@__crt_stdio_input@@@__crt_stdio_input@@CAXQA_WII@Z 10040c9b f i libucrt:input.obj
 0001:0003fc9e       ??$getc_nolock@PAU_iobuf@@@?$__crt_char_traits@D@@SAH$$QAPAU_iobuf@@@Z 10040c9e f i libucrt:input.obj
 0001:0003fcb0       ??$getc_nolock@PAU_iobuf@@@?$__crt_char_traits@_W@@SAG$$QAPAU_iobuf@@@Z 10040cb0 f i libucrt:input.obj
 0001:0003fcc2       ??$istspace@ABE@?$__crt_char_traits@D@@SAHABE@Z 10040cc2 f i libucrt:input.obj
 0001:0003fcd6       ??$istspace@AB_W@?$__crt_char_traits@_W@@SAHAB_W@Z 10040cd6 f i libucrt:input.obj
 0001:0003fced       ??$make_input_adapter_character_source@V?$stream_input_adapter@D@__crt_stdio_input@@@__crt_strtox@@YA?AV?$input_adapter_character_source@V?$stream_input_adapter@D@__crt_stdio_input@@@0@QAV?$stream_input_adapter@D@__crt_stdio_input@@_KQA_N@Z 10040ced f i libucrt:input.obj
 0001:0003fd0b       ??$make_input_adapter_character_source@V?$stream_input_adapter@_W@__crt_stdio_input@@@__crt_strtox@@YA?AV?$input_adapter_character_source@V?$stream_input_adapter@_W@__crt_stdio_input@@@0@QAV?$stream_input_adapter@_W@__crt_stdio_input@@_KQA_N@Z 10040d0b f i libucrt:input.obj
 0001:0003fd29       ??$make_input_adapter_character_source@V?$string_input_adapter@D@__crt_stdio_input@@@__crt_strtox@@YA?AV?$input_adapter_character_source@V?$string_input_adapter@D@__crt_stdio_input@@@0@QAV?$string_input_adapter@D@__crt_stdio_input@@_KQA_N@Z 10040d29 f i libucrt:input.obj
 0001:0003fd47       ??$make_input_adapter_character_source@V?$string_input_adapter@_W@__crt_stdio_input@@@__crt_strtox@@YA?AV?$input_adapter_character_source@V?$string_input_adapter@_W@__crt_stdio_input@@@0@QAV?$string_input_adapter@_W@__crt_stdio_input@@_KQA_N@Z 10040d47 f i libucrt:input.obj
 0001:0003fd65       ??$parse_floating_point@V?$input_adapter_character_source@V?$stream_input_adapter@D@__crt_stdio_input@@@__crt_strtox@@M@__crt_strtox@@YA?AW4SLD_STATUS@@QAU__crt_locale_pointers@@V?$input_adapter_character_source@V?$stream_input_adapter@D@__crt_stdio_input@@@0@QAM@Z 10040d65 f i libucrt:input.obj
 0001:0003fdef       ??$parse_floating_point@V?$input_adapter_character_source@V?$stream_input_adapter@D@__crt_stdio_input@@@__crt_strtox@@N@__crt_strtox@@YA?AW4SLD_STATUS@@QAU__crt_locale_pointers@@V?$input_adapter_character_source@V?$stream_input_adapter@D@__crt_stdio_input@@@0@QAN@Z 10040def f i libucrt:input.obj
 0001:0003fe79       ??$parse_floating_point@V?$input_adapter_character_source@V?$stream_input_adapter@_W@__crt_stdio_input@@@__crt_strtox@@M@__crt_strtox@@YA?AW4SLD_STATUS@@QAU__crt_locale_pointers@@V?$input_adapter_character_source@V?$stream_input_adapter@_W@__crt_stdio_input@@@0@QAM@Z 10040e79 f i libucrt:input.obj
 0001:0003ff03       ??$parse_floating_point@V?$input_adapter_character_source@V?$stream_input_adapter@_W@__crt_stdio_input@@@__crt_strtox@@N@__crt_strtox@@YA?AW4SLD_STATUS@@QAU__crt_locale_pointers@@V?$input_adapter_character_source@V?$stream_input_adapter@_W@__crt_stdio_input@@@0@QAN@Z 10040f03 f i libucrt:input.obj
 0001:0003ff8d       ??$parse_floating_point@V?$input_adapter_character_source@V?$string_input_adapter@D@__crt_stdio_input@@@__crt_strtox@@M@__crt_strtox@@YA?AW4SLD_STATUS@@QAU__crt_locale_pointers@@V?$input_adapter_character_source@V?$string_input_adapter@D@__crt_stdio_input@@@0@QAM@Z 10040f8d f i libucrt:input.obj
 0001:00040017       ??$parse_floating_point@V?$input_adapter_character_source@V?$string_input_adapter@D@__crt_stdio_input@@@__crt_strtox@@N@__crt_strtox@@YA?AW4SLD_STATUS@@QAU__crt_locale_pointers@@V?$input_adapter_character_source@V?$string_input_adapter@D@__crt_stdio_input@@@0@QAN@Z 10041017 f i libucrt:input.obj
 0001:000400a1       ??$parse_floating_point@V?$input_adapter_character_source@V?$string_input_adapter@_W@__crt_stdio_input@@@__crt_strtox@@M@__crt_strtox@@YA?AW4SLD_STATUS@@QAU__crt_locale_pointers@@V?$input_adapter_character_source@V?$string_input_adapter@_W@__crt_stdio_input@@@0@QAM@Z 100410a1 f i libucrt:input.obj
 0001:0004012b       ??$parse_floating_point@V?$input_adapter_character_source@V?$string_input_adapter@_W@__crt_stdio_input@@@__crt_strtox@@N@__crt_strtox@@YA?AW4SLD_STATUS@@QAU__crt_locale_pointers@@V?$input_adapter_character_source@V?$string_input_adapter@_W@__crt_stdio_input@@@0@QAN@Z 1004112b f i libucrt:input.obj
 0001:000401b5       ??$parse_floating_point_from_source@V?$input_adapter_character_source@V?$stream_input_adapter@D@__crt_stdio_input@@@__crt_strtox@@@__crt_strtox@@YA?AW4floating_point_parse_result@0@QAU__crt_locale_pointers@@AAV?$input_adapter_character_source@V?$stream_input_adapter@D@__crt_stdio_input@@@0@AAUfloating_point_string@0@@Z 100411b5 f i libucrt:input.obj
 0001:00040617       ??$parse_floating_point_from_source@V?$input_adapter_character_source@V?$stream_input_adapter@_W@__crt_stdio_input@@@__crt_strtox@@@__crt_strtox@@YA?AW4floating_point_parse_result@0@QAU__crt_locale_pointers@@AAV?$input_adapter_character_source@V?$stream_input_adapter@_W@__crt_stdio_input@@@0@AAUfloating_point_string@0@@Z 10041617 f i libucrt:input.obj
 0001:000411b8       ??$parse_floating_point_from_source@V?$input_adapter_character_source@V?$string_input_adapter@D@__crt_stdio_input@@@__crt_strtox@@@__crt_strtox@@YA?AW4floating_point_parse_result@0@QAU__crt_locale_pointers@@AAV?$input_adapter_character_source@V?$string_input_adapter@D@__crt_stdio_input@@@0@AAUfloating_point_string@0@@Z 100421b8 f i libucrt:input.obj
 0001:0004161a       ??$parse_floating_point_from_source@V?$input_adapter_character_source@V?$string_input_adapter@_W@__crt_stdio_input@@@__crt_strtox@@@__crt_strtox@@YA?AW4floating_point_parse_result@0@QAU__crt_locale_pointers@@AAV?$input_adapter_character_source@V?$string_input_adapter@_W@__crt_stdio_input@@@0@AAUfloating_point_string@0@@Z 1004261a f i libucrt:input.obj
 0001:000421bb       ??$parse_floating_point_possible_infinity@DV?$input_adapter_character_source@V?$stream_input_adapter@D@__crt_stdio_input@@@__crt_strtox@@_K@__crt_strtox@@YA?AW4floating_point_parse_result@0@AADAAV?$input_adapter_character_source@V?$stream_input_adapter@D@__crt_stdio_input@@@0@_K@Z 100431bb f i libucrt:input.obj
 0001:0004227a       ??$parse_floating_point_possible_infinity@DV?$input_adapter_character_source@V?$string_input_adapter@D@__crt_stdio_input@@@__crt_strtox@@_K@__crt_strtox@@YA?AW4floating_point_parse_result@0@AADAAV?$input_adapter_character_source@V?$string_input_adapter@D@__crt_stdio_input@@@0@_K@Z 1004327a f i libucrt:input.obj
 0001:00042339       ??$parse_floating_point_possible_infinity@_WV?$input_adapter_character_source@V?$stream_input_adapter@_W@__crt_stdio_input@@@__crt_strtox@@_K@__crt_strtox@@YA?AW4floating_point_parse_result@0@AA_WAAV?$input_adapter_character_source@V?$stream_input_adapter@_W@__crt_stdio_input@@@0@_K@Z 10043339 f i libucrt:input.obj
 0001:00042406       ??$parse_floating_point_possible_infinity@_WV?$input_adapter_character_source@V?$string_input_adapter@_W@__crt_stdio_input@@@__crt_strtox@@_K@__crt_strtox@@YA?AW4floating_point_parse_result@0@AA_WAAV?$input_adapter_character_source@V?$string_input_adapter@_W@__crt_stdio_input@@@0@_K@Z 10043406 f i libucrt:input.obj
 0001:000424d3       ??$parse_floating_point_possible_nan@DV?$input_adapter_character_source@V?$stream_input_adapter@D@__crt_stdio_input@@@__crt_strtox@@_K@__crt_strtox@@YA?AW4floating_point_parse_result@0@AADAAV?$input_adapter_character_source@V?$stream_input_adapter@D@__crt_stdio_input@@@0@_K@Z 100434d3 f i libucrt:input.obj
 0001:000425db       ??$parse_floating_point_possible_nan@DV?$input_adapter_character_source@V?$string_input_adapter@D@__crt_stdio_input@@@__crt_strtox@@_K@__crt_strtox@@YA?AW4floating_point_parse_result@0@AADAAV?$input_adapter_character_source@V?$string_input_adapter@D@__crt_stdio_input@@@0@_K@Z 100435db f i libucrt:input.obj
 0001:000426e3       ??$parse_floating_point_possible_nan@_WV?$input_adapter_character_source@V?$stream_input_adapter@_W@__crt_stdio_input@@@__crt_strtox@@_K@__crt_strtox@@YA?AW4floating_point_parse_result@0@AA_WAAV?$input_adapter_character_source@V?$stream_input_adapter@_W@__crt_stdio_input@@@0@_K@Z 100436e3 f i libucrt:input.obj
 0001:00042804       ??$parse_floating_point_possible_nan@_WV?$input_adapter_character_source@V?$string_input_adapter@_W@__crt_stdio_input@@@__crt_strtox@@_K@__crt_strtox@@YA?AW4floating_point_parse_result@0@AA_WAAV?$input_adapter_character_source@V?$string_input_adapter@_W@__crt_stdio_input@@@0@_K@Z 10043804 f i libucrt:input.obj
 0001:00042925       ??$parse_floating_point_possible_nan_is_ind@DV?$input_adapter_character_source@V?$stream_input_adapter@D@__crt_stdio_input@@@__crt_strtox@@@__crt_strtox@@YA_NAADAAV?$input_adapter_character_source@V?$stream_input_adapter@D@__crt_stdio_input@@@0@@Z 10043925 f i libucrt:input.obj
 0001:0004295f       ??$parse_floating_point_possible_nan_is_ind@DV?$input_adapter_character_source@V?$string_input_adapter@D@__crt_stdio_input@@@__crt_strtox@@@__crt_strtox@@YA_NAADAAV?$input_adapter_character_source@V?$string_input_adapter@D@__crt_stdio_input@@@0@@Z 1004395f f i libucrt:input.obj
 0001:00042999       ??$parse_floating_point_possible_nan_is_ind@_WV?$input_adapter_character_source@V?$stream_input_adapter@_W@__crt_stdio_input@@@__crt_strtox@@@__crt_strtox@@YA_NAA_WAAV?$input_adapter_character_source@V?$stream_input_adapter@_W@__crt_stdio_input@@@0@@Z 10043999 f i libucrt:input.obj
 0001:000429d9       ??$parse_floating_point_possible_nan_is_ind@_WV?$input_adapter_character_source@V?$string_input_adapter@_W@__crt_stdio_input@@@__crt_strtox@@@__crt_strtox@@YA_NAA_WAAV?$input_adapter_character_source@V?$string_input_adapter@_W@__crt_stdio_input@@@0@@Z 100439d9 f i libucrt:input.obj
 0001:00042a19       ??$parse_floating_point_possible_nan_is_snan@DV?$input_adapter_character_source@V?$stream_input_adapter@D@__crt_stdio_input@@@__crt_strtox@@@__crt_strtox@@YA_NAADAAV?$input_adapter_character_source@V?$stream_input_adapter@D@__crt_stdio_input@@@0@@Z 10043a19 f i libucrt:input.obj
 0001:00042a53       ??$parse_floating_point_possible_nan_is_snan@DV?$input_adapter_character_source@V?$string_input_adapter@D@__crt_stdio_input@@@__crt_strtox@@@__crt_strtox@@YA_NAADAAV?$input_adapter_character_source@V?$string_input_adapter@D@__crt_stdio_input@@@0@@Z 10043a53 f i libucrt:input.obj
 0001:00042a8d       ??$parse_floating_point_possible_nan_is_snan@_WV?$input_adapter_character_source@V?$stream_input_adapter@_W@__crt_stdio_input@@@__crt_strtox@@@__crt_strtox@@YA_NAA_WAAV?$input_adapter_character_source@V?$stream_input_adapter@_W@__crt_stdio_input@@@0@@Z 10043a8d f i libucrt:input.obj
 0001:00042acd       ??$parse_floating_point_possible_nan_is_snan@_WV?$input_adapter_character_source@V?$string_input_adapter@_W@__crt_stdio_input@@@__crt_strtox@@@__crt_strtox@@YA_NAA_WAAV?$input_adapter_character_source@V?$string_input_adapter@_W@__crt_stdio_input@@@0@@Z 10043acd f i libucrt:input.obj
 0001:00042b0d       ??$parse_floating_point_write_result@M@__crt_strtox@@YA?AW4SLD_STATUS@@W4floating_point_parse_result@0@ABUfloating_point_string@0@QAM@Z 10043b0d f i libucrt:input.obj
 0001:00042c79       ??$parse_floating_point_write_result@N@__crt_strtox@@YA?AW4SLD_STATUS@@W4floating_point_parse_result@0@ABUfloating_point_string@0@QAN@Z 10043c79 f i libucrt:input.obj
 0001:00042d9d       ??$parse_integer@_KV?$input_adapter_character_source@V?$stream_input_adapter@D@__crt_stdio_input@@@__crt_strtox@@$00@__crt_strtox@@YA_KAAV__crt_cached_ptd_host@@V?$input_adapter_character_source@V?$stream_input_adapter@D@__crt_stdio_input@@@0@H_N@Z 10043d9d f i libucrt:input.obj
 0001:000430a1       ??$parse_integer@_KV?$input_adapter_character_source@V?$stream_input_adapter@D@__crt_stdio_input@@@__crt_strtox@@@__crt_strtox@@YA_KQAU__crt_locale_pointers@@V?$input_adapter_character_source@V?$stream_input_adapter@D@__crt_stdio_input@@@0@H_N@Z 100440a1 f i libucrt:input.obj
 0001:000430fd       ??$parse_integer@_KV?$input_adapter_character_source@V?$stream_input_adapter@_W@__crt_stdio_input@@@__crt_strtox@@$00@__crt_strtox@@YA_KAAV__crt_cached_ptd_host@@V?$input_adapter_character_source@V?$stream_input_adapter@_W@__crt_stdio_input@@@0@H_N@Z 100440fd f i libucrt:input.obj
 0001:000437cd       ??$parse_integer@_KV?$input_adapter_character_source@V?$stream_input_adapter@_W@__crt_stdio_input@@@__crt_strtox@@@__crt_strtox@@YA_KQAU__crt_locale_pointers@@V?$input_adapter_character_source@V?$stream_input_adapter@_W@__crt_stdio_input@@@0@H_N@Z 100447cd f i libucrt:input.obj
 0001:00043829       ??$parse_integer@_KV?$input_adapter_character_source@V?$string_input_adapter@D@__crt_stdio_input@@@__crt_strtox@@$00@__crt_strtox@@YA_KAAV__crt_cached_ptd_host@@V?$input_adapter_character_source@V?$string_input_adapter@D@__crt_stdio_input@@@0@H_N@Z 10044829 f i libucrt:input.obj
 0001:00043b2d       ??$parse_integer@_KV?$input_adapter_character_source@V?$string_input_adapter@D@__crt_stdio_input@@@__crt_strtox@@@__crt_strtox@@YA_KQAU__crt_locale_pointers@@V?$input_adapter_character_source@V?$string_input_adapter@D@__crt_stdio_input@@@0@H_N@Z 10044b2d f i libucrt:input.obj
 0001:00043b89       ??$parse_integer@_KV?$input_adapter_character_source@V?$string_input_adapter@_W@__crt_stdio_input@@@__crt_strtox@@$00@__crt_strtox@@YA_KAAV__crt_cached_ptd_host@@V?$input_adapter_character_source@V?$string_input_adapter@_W@__crt_stdio_input@@@0@H_N@Z 10044b89 f i libucrt:input.obj
 0001:00044259       ??$parse_integer@_KV?$input_adapter_character_source@V?$string_input_adapter@_W@__crt_stdio_input@@@__crt_strtox@@@__crt_strtox@@YA_KQAU__crt_locale_pointers@@V?$input_adapter_character_source@V?$string_input_adapter@_W@__crt_stdio_input@@@0@H_N@Z 10045259 f i libucrt:input.obj
 0001:000442b5       ??$parse_next_characters_from_source@DV?$input_adapter_character_source@V?$stream_input_adapter@D@__crt_stdio_input@@@__crt_strtox@@@__crt_strtox@@YA_NQBD0IAADAAV?$input_adapter_character_source@V?$stream_input_adapter@D@__crt_stdio_input@@@0@@Z 100452b5 f i libucrt:input.obj
 0001:000442f9       ??$parse_next_characters_from_source@DV?$input_adapter_character_source@V?$string_input_adapter@D@__crt_stdio_input@@@__crt_strtox@@@__crt_strtox@@YA_NQBD0IAADAAV?$input_adapter_character_source@V?$string_input_adapter@D@__crt_stdio_input@@@0@@Z 100452f9 f i libucrt:input.obj
 0001:0004433d       ??$parse_next_characters_from_source@_WV?$input_adapter_character_source@V?$stream_input_adapter@_W@__crt_stdio_input@@@__crt_strtox@@@__crt_strtox@@YA_NQB_W0IAA_WAAV?$input_adapter_character_source@V?$stream_input_adapter@_W@__crt_stdio_input@@@0@@Z 1004533d f i libucrt:input.obj
 0001:00044387       ??$parse_next_characters_from_source@_WV?$input_adapter_character_source@V?$string_input_adapter@_W@__crt_stdio_input@@@__crt_strtox@@@__crt_strtox@@YA_NQB_W0IAA_WAAV?$input_adapter_character_source@V?$string_input_adapter@_W@__crt_stdio_input@@@0@@Z 10045387 f i libucrt:input.obj
 0001:000443d1       ??$process_floating_point_specifier_t@M@?$input_processor@DV?$stream_input_adapter@D@__crt_stdio_input@@@__crt_stdio_input@@AAE_NXZ 100453d1 f i libucrt:input.obj
 0001:0004443a       ??$process_floating_point_specifier_t@M@?$input_processor@DV?$string_input_adapter@D@__crt_stdio_input@@@__crt_stdio_input@@AAE_NXZ 1004543a f i libucrt:input.obj
 0001:000444a3       ??$process_floating_point_specifier_t@M@?$input_processor@_WV?$stream_input_adapter@_W@__crt_stdio_input@@@__crt_stdio_input@@AAE_NXZ 100454a3 f i libucrt:input.obj
 0001:0004450c       ??$process_floating_point_specifier_t@M@?$input_processor@_WV?$string_input_adapter@_W@__crt_stdio_input@@@__crt_stdio_input@@AAE_NXZ 1004550c f i libucrt:input.obj
 0001:00044575       ??$process_floating_point_specifier_t@N@?$input_processor@DV?$stream_input_adapter@D@__crt_stdio_input@@@__crt_stdio_input@@AAE_NXZ 10045575 f i libucrt:input.obj
 0001:000445de       ??$process_floating_point_specifier_t@N@?$input_processor@DV?$string_input_adapter@D@__crt_stdio_input@@@__crt_stdio_input@@AAE_NXZ 100455de f i libucrt:input.obj
 0001:00044647       ??$process_floating_point_specifier_t@N@?$input_processor@_WV?$stream_input_adapter@_W@__crt_stdio_input@@@__crt_stdio_input@@AAE_NXZ 10045647 f i libucrt:input.obj
 0001:000446b0       ??$process_floating_point_specifier_t@N@?$input_processor@_WV?$string_input_adapter@_W@__crt_stdio_input@@@__crt_stdio_input@@AAE_NXZ 100456b0 f i libucrt:input.obj
 0001:00044719       ??$process_string_specifier_tchar@D@?$input_processor@DV?$stream_input_adapter@D@__crt_stdio_input@@@__crt_stdio_input@@AAE_NW4conversion_mode@1@D@Z 10045719 f i libucrt:input.obj
 0001:0004488f       ??$process_string_specifier_tchar@D@?$input_processor@DV?$string_input_adapter@D@__crt_stdio_input@@@__crt_stdio_input@@AAE_NW4conversion_mode@1@D@Z 1004588f f i libucrt:input.obj
 0001:000449f1       ??$process_string_specifier_tchar@D@?$input_processor@_WV?$stream_input_adapter@_W@__crt_stdio_input@@@__crt_stdio_input@@AAE_NW4conversion_mode@1@D@Z 100459f1 f i libucrt:input.obj
 0001:00044b5c       ??$process_string_specifier_tchar@D@?$input_processor@_WV?$string_input_adapter@_W@__crt_stdio_input@@@__crt_stdio_input@@AAE_NW4conversion_mode@1@D@Z 10045b5c f i libucrt:input.obj
 0001:00044cc7       ??$process_string_specifier_tchar@_W@?$input_processor@DV?$stream_input_adapter@D@__crt_stdio_input@@@__crt_stdio_input@@AAE_NW4conversion_mode@1@_W@Z 10045cc7 f i libucrt:input.obj
 0001:00044e49       ??$process_string_specifier_tchar@_W@?$input_processor@DV?$string_input_adapter@D@__crt_stdio_input@@@__crt_stdio_input@@AAE_NW4conversion_mode@1@_W@Z 10045e49 f i libucrt:input.obj
 0001:00044fb7       ??$process_string_specifier_tchar@_W@?$input_processor@_WV?$stream_input_adapter@_W@__crt_stdio_input@@@__crt_stdio_input@@AAE_NW4conversion_mode@1@_W@Z 10045fb7 f i libucrt:input.obj
 0001:00045125       ??$process_string_specifier_tchar@_W@?$input_processor@_WV?$string_input_adapter@_W@__crt_stdio_input@@@__crt_stdio_input@@AAE_NW4conversion_mode@1@_W@Z 10046125 f i libucrt:input.obj
 0001:00045293       ??$reset_buffer@D@?$input_processor@DV?$stream_input_adapter@D@__crt_stdio_input@@@__crt_stdio_input@@CAXQADI@Z 10046293 f i libucrt:input.obj
 0001:000452a6       ??$reset_buffer@D@?$input_processor@DV?$string_input_adapter@D@__crt_stdio_input@@@__crt_stdio_input@@CAXQADI@Z 100462a6 f i libucrt:input.obj
 0001:000452b9       ??$reset_buffer@D@?$input_processor@_WV?$stream_input_adapter@_W@__crt_stdio_input@@@__crt_stdio_input@@CAXQADI@Z 100462b9 f i libucrt:input.obj
 0001:000452cc       ??$reset_buffer@D@?$input_processor@_WV?$string_input_adapter@_W@__crt_stdio_input@@@__crt_stdio_input@@CAXQADI@Z 100462cc f i libucrt:input.obj
 0001:000452df       ??$reset_buffer@_W@?$input_processor@DV?$stream_input_adapter@D@__crt_stdio_input@@@__crt_stdio_input@@CAXQA_WI@Z 100462df f i libucrt:input.obj
 0001:000452f4       ??$reset_buffer@_W@?$input_processor@DV?$string_input_adapter@D@__crt_stdio_input@@@__crt_stdio_input@@CAXQA_WI@Z 100462f4 f i libucrt:input.obj
 0001:00045309       ??$reset_buffer@_W@?$input_processor@_WV?$stream_input_adapter@_W@__crt_stdio_input@@@__crt_stdio_input@@CAXQA_WI@Z 10046309 f i libucrt:input.obj
 0001:0004531e       ??$reset_buffer@_W@?$input_processor@_WV?$string_input_adapter@_W@__crt_stdio_input@@@__crt_stdio_input@@CAXQA_WI@Z 1004631e f i libucrt:input.obj
 0001:00045333       ??$skip_whitespace@Vstream_input_adapter@__crt_stdio_input@@D@__crt_stdio_input@@YAHAAV?$stream_input_adapter@D@0@QAU__crt_locale_pointers@@@Z 10046333 f i libucrt:input.obj
 0001:0004536a       ??$skip_whitespace@Vstream_input_adapter@__crt_stdio_input@@_W@__crt_stdio_input@@YAGAAV?$stream_input_adapter@_W@0@QAU__crt_locale_pointers@@@Z 1004636a f i libucrt:input.obj
 0001:00045399       ??$skip_whitespace@Vstring_input_adapter@__crt_stdio_input@@D@__crt_stdio_input@@YAHAAV?$string_input_adapter@D@0@QAU__crt_locale_pointers@@@Z 10046399 f i libucrt:input.obj
 0001:000453c8       ??$skip_whitespace@Vstring_input_adapter@__crt_stdio_input@@_W@__crt_stdio_input@@YAGAAV?$string_input_adapter@_W@0@QAU__crt_locale_pointers@@@Z 100463c8 f i libucrt:input.obj
 0001:000453f7       ??$tcsnlen@ABQBDABI@?$__crt_char_traits@D@@SAIABQBDABI@Z 100463f7 f i libucrt:input.obj
 0001:0004540f       ??$tcsnlen@ABQB_WABI@?$__crt_char_traits@_W@@SAIABQB_WABI@Z 1004640f f i libucrt:input.obj
 0001:00045427       ??$tcstoull@PBDPAPADH@?$__crt_char_traits@D@@SA_K$$QAPBD$$QAPAPAD$$QAH@Z 10046427 f i libucrt:input.obj
 0001:00045445       ??$tcstoull@PB_WPAPA_WH@?$__crt_char_traits@_W@@SA_K$$QAPB_W$$QAPAPA_W$$QAH@Z 10046445 f i libucrt:input.obj
 0001:00045463       ??$ungettc_nolock@ABGPAU_iobuf@@@?$__crt_char_traits@_W@@SAGABG$$QAPAU_iobuf@@@Z 10046463 f i libucrt:input.obj
 0001:0004547d       ??$ungettc_nolock@ABHPAU_iobuf@@@?$__crt_char_traits@D@@SAHABH$$QAPAU_iobuf@@@Z 1004647d f i libucrt:input.obj
 0001:00045495       ??$write_floating_point@M@?$input_processor@DV?$stream_input_adapter@D@__crt_stdio_input@@@__crt_stdio_input@@AAE_NABM@Z 10046495 f i libucrt:input.obj
 0001:000454ca       ??$write_floating_point@M@?$input_processor@DV?$string_input_adapter@D@__crt_stdio_input@@@__crt_stdio_input@@AAE_NABM@Z 100464ca f i libucrt:input.obj
 0001:000454ff       ??$write_floating_point@M@?$input_processor@_WV?$stream_input_adapter@_W@__crt_stdio_input@@@__crt_stdio_input@@AAE_NABM@Z 100464ff f i libucrt:input.obj
 0001:00045534       ??$write_floating_point@M@?$input_processor@_WV?$string_input_adapter@_W@__crt_stdio_input@@@__crt_stdio_input@@AAE_NABM@Z 10046534 f i libucrt:input.obj
 0001:00045569       ??$write_floating_point@N@?$input_processor@DV?$stream_input_adapter@D@__crt_stdio_input@@@__crt_stdio_input@@AAE_NABN@Z 10046569 f i libucrt:input.obj
 0001:000455a4       ??$write_floating_point@N@?$input_processor@DV?$string_input_adapter@D@__crt_stdio_input@@@__crt_stdio_input@@AAE_NABN@Z 100465a4 f i libucrt:input.obj
 0001:000455df       ??$write_floating_point@N@?$input_processor@_WV?$stream_input_adapter@_W@__crt_stdio_input@@@__crt_stdio_input@@AAE_NABN@Z 100465df f i libucrt:input.obj
 0001:0004561a       ??$write_floating_point@N@?$input_processor@_WV?$string_input_adapter@_W@__crt_stdio_input@@@__crt_stdio_input@@AAE_NABN@Z 1004661a f i libucrt:input.obj
 0001:00045655       ??0<lambda_0b87716a0b73cdfba1cd37fcaaa20711>@@QAE@AAV?$input_adapter_character_source@V?$stream_input_adapter@D@__crt_stdio_input@@@__crt_strtox@@AADAA_K@Z 10046655 f i libucrt:input.obj
 0001:000456e5       ??0<lambda_448605b25275ab87d3c5d4aa7a38a0aa>@@QAE@AAV?$input_adapter_character_source@V?$string_input_adapter@_W@__crt_stdio_input@@@__crt_strtox@@AA_WAA_K@Z 100466e5 f i libucrt:input.obj
 0001:00045701       ??0<lambda_46698efe93618fff5274d84d009d2be1>@@QAE@AAV?$input_adapter_character_source@V?$stream_input_adapter@_W@__crt_stdio_input@@@__crt_strtox@@AA_WAA_K@Z 10046701 f i libucrt:input.obj
 0001:0004571d       ??0<lambda_5f3f4d49f9676d963a9a63518de6904a>@@QAE@AAV?$input_adapter_character_source@V?$stream_input_adapter@_W@__crt_stdio_input@@@__crt_strtox@@AA_WAA_K@Z 1004671d f i libucrt:input.obj
 0001:00045739       ??0<lambda_644f8ab42ed3fd1d660977a2364b3a7d>@@QAE@AAV?$input_adapter_character_source@V?$string_input_adapter@D@__crt_stdio_input@@@__crt_strtox@@AADAA_K@Z 10046739 f i libucrt:input.obj
 0001:00045767       ??0<lambda_c7c3f778895f47e7f4eff38a8fef279a>@@QAE@AAV?$input_adapter_character_source@V?$stream_input_adapter@D@__crt_stdio_input@@@__crt_strtox@@AADAA_K@Z 10046767 f i libucrt:input.obj
 0001:00045783       ??0<lambda_cbb29514201643ebc3996c8b1c7ae90c>@@QAE@AAV?$input_adapter_character_source@V?$stream_input_adapter@_W@__crt_stdio_input@@@__crt_strtox@@AA_WAA_K@Z 10046783 f i libucrt:input.obj
 0001:000457b1       ??0<lambda_e41f1170c8800e4a6fed1afad60fab6f>@@QAE@AAV?$input_adapter_character_source@V?$stream_input_adapter@D@__crt_stdio_input@@@__crt_strtox@@AADAA_K@Z 100467b1 f i libucrt:input.obj
 0001:000457cd       ??0<lambda_e5165159ec566db3a71156c9b71536ca>@@QAE@AAV?$input_adapter_character_source@V?$string_input_adapter@_W@__crt_stdio_input@@@__crt_strtox@@AA_WAA_K@Z 100467cd f i libucrt:input.obj
 0001:000457e9       ??0<lambda_f1fa4c266c18b246f3ed9c36247dab4f>@@QAE@AAV?$input_adapter_character_source@V?$string_input_adapter@D@__crt_stdio_input@@@__crt_strtox@@AADAA_K@Z 100467e9 f i libucrt:input.obj
 0001:00045805       ??0<lambda_f765c90ab33e8386abf09c0f079d37e9>@@QAE@AAV?$input_adapter_character_source@V?$string_input_adapter@D@__crt_stdio_input@@@__crt_strtox@@AADAA_K@Z 10046805 f i libucrt:input.obj
 0001:00045821       ??0<lambda_fd76cae15b6f790020ebaa7b78a868c2>@@QAE@AAV?$input_adapter_character_source@V?$string_input_adapter@_W@__crt_stdio_input@@@__crt_strtox@@AA_WAA_K@Z 10046821 f i libucrt:input.obj
 0001:0004583d       ??0?$__crt_unique_heap_ptr@EU__crt_internal_free_policy@@@@QAE@QAE@Z 1004683d f i libucrt:input.obj
 0001:0004584d       ??0?$format_string_parser@D@__crt_stdio_input@@QAE@_KQBE@Z 1004684d f i libucrt:input.obj
 0001:00045897       ??0?$format_string_parser@_W@__crt_stdio_input@@QAE@_KQB_W@Z 10046897 f i libucrt:input.obj
 0001:000458d5       ??0?$input_adapter_character_source@V?$stream_input_adapter@D@__crt_stdio_input@@@__crt_strtox@@QAE@$$QAV01@@Z 100468d5 f i libucrt:input.obj
 0001:00045912       ??0?$input_adapter_character_source@V?$stream_input_adapter@D@__crt_stdio_input@@@__crt_strtox@@QAE@QAV?$stream_input_adapter@D@__crt_stdio_input@@_KQA_N@Z 10046912 f i libucrt:input.obj
 0001:00045943       ??0?$input_adapter_character_source@V?$stream_input_adapter@_W@__crt_stdio_input@@@__crt_strtox@@QAE@$$QAV01@@Z 10046943 f i libucrt:input.obj
 0001:00045980       ??0?$input_adapter_character_source@V?$stream_input_adapter@_W@__crt_stdio_input@@@__crt_strtox@@QAE@QAV?$stream_input_adapter@_W@__crt_stdio_input@@_KQA_N@Z 10046980 f i libucrt:input.obj
 0001:000459b1       ??0?$input_adapter_character_source@V?$string_input_adapter@D@__crt_stdio_input@@@__crt_strtox@@QAE@$$QAV01@@Z 100469b1 f i libucrt:input.obj
 0001:000459ee       ??0?$input_adapter_character_source@V?$string_input_adapter@D@__crt_stdio_input@@@__crt_strtox@@QAE@QAV?$string_input_adapter@D@__crt_stdio_input@@_KQA_N@Z 100469ee f i libucrt:input.obj
 0001:00045a1f       ??0?$input_adapter_character_source@V?$string_input_adapter@_W@__crt_stdio_input@@@__crt_strtox@@QAE@$$QAV01@@Z 10046a1f f i libucrt:input.obj
 0001:00045a5c       ??0?$input_adapter_character_source@V?$string_input_adapter@_W@__crt_stdio_input@@@__crt_strtox@@QAE@QAV?$string_input_adapter@_W@__crt_stdio_input@@_KQA_N@Z 10046a5c f i libucrt:input.obj
 0001:00045a8d       ??0?$input_processor@DV?$stream_input_adapter@D@__crt_stdio_input@@@__crt_stdio_input@@QAE@ABV?$stream_input_adapter@D@1@_KQBDQAU__crt_locale_pointers@@QAD@Z 10046a8d f i libucrt:input.obj
 0001:00045ad6       ??0?$input_processor@DV?$string_input_adapter@D@__crt_stdio_input@@@__crt_stdio_input@@QAE@ABV?$string_input_adapter@D@1@_KQBDQAU__crt_locale_pointers@@QAD@Z 10046ad6 f i libucrt:input.obj
 0001:00045b1a       ??0?$input_processor@_WV?$stream_input_adapter@_W@__crt_stdio_input@@@__crt_stdio_input@@QAE@ABV?$stream_input_adapter@_W@1@_KQB_WQAU__crt_locale_pointers@@QAD@Z 10046b1a f i libucrt:input.obj
 0001:00045b63       ??0?$input_processor@_WV?$string_input_adapter@_W@__crt_stdio_input@@@__crt_stdio_input@@QAE@ABV?$string_input_adapter@_W@1@_KQB_WQAU__crt_locale_pointers@@QAD@Z 10046b63 f i libucrt:input.obj
 0001:00045ba7       ??0?$scanset_buffer@E@__crt_stdio_input@@QAE@XZ 10046ba7 f i libucrt:input.obj
 0001:00045bb9       ??0?$scanset_buffer@_W@__crt_stdio_input@@QAE@XZ 10046bb9 f i libucrt:input.obj
 0001:00045bbf       ??0?$scanset_storage@$00@__crt_stdio_input@@QAE@XZ 10046bbf f i libucrt:input.obj
 0001:00045bd1       ??0?$scanset_storage@$01@__crt_stdio_input@@QAE@XZ 10046bd1 f i libucrt:input.obj
 0001:00045bd7       ??0?$stream_input_adapter@D@__crt_stdio_input@@QAE@QAU_iobuf@@@Z 10046bd7 f i libucrt:input.obj
 0001:00045beb       ??0?$stream_input_adapter@_W@__crt_stdio_input@@QAE@QAU_iobuf@@@Z 10046beb f i libucrt:input.obj
 0001:00045bff       ??0?$string_input_adapter@D@__crt_stdio_input@@QAE@QBDI@Z 10046bff f i libucrt:input.obj
 0001:00045c1a       ??0?$string_input_adapter@_W@__crt_stdio_input@@QAE@QB_WI@Z 10046c1a f i libucrt:input.obj
 0001:00045c40       ??0big_integer@__crt_strtox@@QAE@ABU01@@Z 10046c40 f i libucrt:input.obj
 0001:00045c80       ??0big_integer@__crt_strtox@@QAE@XZ 10046c80 f i libucrt:input.obj
 0001:00045c89       ??0floating_point_value@__crt_strtox@@QAE@QAM@Z 10046c89 f i libucrt:input.obj
 0001:00045c9d       ??0floating_point_value@__crt_strtox@@QAE@QAN@Z 10046c9d f i libucrt:input.obj
 0001:00045cb1       ??1?$__crt_unique_heap_ptr@EU__crt_internal_free_policy@@@@QAE@XZ 10046cb1 f i libucrt:input.obj
 0001:00045cc3       ??1?$format_string_parser@_W@__crt_stdio_input@@QAE@XZ 10046cc3 f i libucrt:input.obj
 0001:00045cd7       ??1?$input_adapter_character_source@V?$stream_input_adapter@D@__crt_stdio_input@@@__crt_strtox@@QAE@XZ 10046cd7 f i libucrt:input.obj
 0001:00045ce9       ??1?$input_adapter_character_source@V?$stream_input_adapter@_W@__crt_stdio_input@@@__crt_strtox@@QAE@XZ 10046ce9 f i libucrt:input.obj
 0001:00045cfb       ??1?$input_adapter_character_source@V?$string_input_adapter@D@__crt_stdio_input@@@__crt_strtox@@QAE@XZ 10046cfb f i libucrt:input.obj
 0001:00045d0d       ??1?$input_adapter_character_source@V?$string_input_adapter@_W@__crt_stdio_input@@@__crt_strtox@@QAE@XZ 10046d0d f i libucrt:input.obj
 0001:00045d1f       ??1?$input_processor@_WV?$stream_input_adapter@_W@__crt_stdio_input@@@__crt_stdio_input@@QAE@XZ 10046d1f f i libucrt:input.obj
 0001:00045d33       ??1?$input_processor@_WV?$string_input_adapter@_W@__crt_stdio_input@@@__crt_stdio_input@@QAE@XZ 10046d33 f i libucrt:input.obj
 0001:00045d47       ??1?$scanset_buffer@_W@__crt_stdio_input@@QAE@XZ 10046d47 f i libucrt:input.obj
 0001:00045d59       ??1?$scanset_storage@$01@__crt_stdio_input@@QAE@XZ 10046d59 f i libucrt:input.obj
 0001:00045d6b       ??4?$__crt_unique_heap_ptr@EU__crt_internal_free_policy@@@@QAEAAV0@$$QAV0@@Z 10046d6b f i libucrt:input.obj
 0001:00045d90       ??4big_integer@__crt_strtox@@QAEAAU01@ABU01@@Z 10046d90 f i libucrt:input.obj
 0001:00045dc1       ??B?$__crt_unique_heap_ptr@EU__crt_internal_free_policy@@@@QBE_NXZ 10046dc1 f i libucrt:input.obj
 0001:00045dd0       ??M__crt_strtox@@YA_NABUbig_integer@0@0@Z 10046dd0 f i libucrt:input.obj
 0001:00045e26       ??R<lambda_0b87716a0b73cdfba1cd37fcaaa20711>@@QBE@XZ 10046e26 f i libucrt:input.obj
 0001:00045f53       ??R<lambda_448605b25275ab87d3c5d4aa7a38a0aa>@@QBE@XZ 10046f53 f i libucrt:input.obj
 0001:00045f7f       ??R<lambda_46698efe93618fff5274d84d009d2be1>@@QBE@XZ 10046f7f f i libucrt:input.obj
 0001:00045fab       ??R<lambda_5f3f4d49f9676d963a9a63518de6904a>@@QBE@XZ 10046fab f i libucrt:input.obj
 0001:00045fd7       ??R<lambda_644f8ab42ed3fd1d660977a2364b3a7d>@@QBE@XZ 10046fd7 f i libucrt:input.obj
 0001:0004600a       ??R<lambda_c7c3f778895f47e7f4eff38a8fef279a>@@QBE@XZ 1004700a f i libucrt:input.obj
 0001:00046034       ??R<lambda_cbb29514201643ebc3996c8b1c7ae90c>@@QBE@XZ 10047034 f i libucrt:input.obj
 0001:00046069       ??R<lambda_e41f1170c8800e4a6fed1afad60fab6f>@@QBE@XZ 10047069 f i libucrt:input.obj
 0001:00046093       ??R<lambda_e5165159ec566db3a71156c9b71536ca>@@QBE@XZ 10047093 f i libucrt:input.obj
 0001:000460bf       ??R<lambda_f1fa4c266c18b246f3ed9c36247dab4f>@@QBE@XZ 100470bf f i libucrt:input.obj
 0001:000460e9       ??R<lambda_f765c90ab33e8386abf09c0f079d37e9>@@QBE@XZ 100470e9 f i libucrt:input.obj
 0001:00046113       ??R<lambda_fd76cae15b6f790020ebaa7b78a868c2>@@QBE@XZ 10047113 f i libucrt:input.obj
 0001:0004613f       ?accumulate_decimal_digits_into_big_integer@__crt_strtox@@YAXQBE0AAUbig_integer@1@@Z 1004713f f i libucrt:input.obj
 0001:00046830       ?add@__crt_strtox@@YA_NAAUbig_integer@1@I@Z 10047830 f i libucrt:input.obj
 0001:000468b0       ?add_carry@__crt_strtox@@YAIAAIII@Z 100478b0 f i libucrt:input.obj
 0001:000468d0       ?add_multiply_carry@__crt_strtox@@YAIAAIIII@Z 100478d0 f i libucrt:input.obj
 0001:000468f4       ?advance@?$format_string_parser@D@__crt_stdio_input@@QAE_NXZ 100478f4 f i libucrt:input.obj
 0001:00046a0c       ?advance@?$format_string_parser@_W@__crt_stdio_input@@QAE_NXZ 10047a0c f i libucrt:input.obj
 0001:00046b10       ?as_double@floating_point_value@__crt_strtox@@QBEAANXZ 10047b10 f i libucrt:input.obj
 0001:00046b35       ?as_float@floating_point_value@__crt_strtox@@QBEAAMXZ 10047b35 f i libucrt:input.obj
 0001:00046b5a       ?assemble_floating_point_infinity@__crt_strtox@@YAX_NABVfloating_point_value@1@@Z 10047b5a f i libucrt:input.obj
 0001:00046b9a       ?assemble_floating_point_value@__crt_strtox@@YA?AW4SLD_STATUS@@_KH_N1ABVfloating_point_value@1@@Z 10047b9a f i libucrt:input.obj
 0001:00046ef3       ?assemble_floating_point_value_from_big_integer@__crt_strtox@@YA?AW4SLD_STATUS@@ABUbig_integer@1@I_N1ABVfloating_point_value@1@@Z 10047ef3 f i libucrt:input.obj
 0001:00047085       ?assemble_floating_point_zero@__crt_strtox@@YAX_NABVfloating_point_value@1@@Z 10048085 f i libucrt:input.obj
 0001:000470c0       ?bit_scan_reverse@__crt_strtox@@YAIABUbig_integer@1@@Z 100480c0 f i libucrt:input.obj
 0001:00047100       ?bit_scan_reverse@__crt_strtox@@YAII@Z 10048100 f i libucrt:input.obj
 0001:00047120       ?bit_scan_reverse@__crt_strtox@@YAI_K@Z 10048120 f i libucrt:input.obj
 0001:00047167       ?characters_read@?$stream_input_adapter@D@__crt_stdio_input@@QBEIXZ 10048167 f i libucrt:input.obj
 0001:0004716b       ?characters_read@?$stream_input_adapter@_W@__crt_stdio_input@@QBEIXZ 1004816b f i libucrt:input.obj
 0001:0004716f       ?characters_read@?$string_input_adapter@D@__crt_stdio_input@@QBEIXZ 1004816f f i libucrt:input.obj
 0001:00047175       ?characters_read@?$string_input_adapter@_W@__crt_stdio_input@@QBEIXZ 10048175 f i libucrt:input.obj
 0001:0004717d       ?convert_decimal_string_to_floating_type_common@__crt_strtox@@YA?AW4SLD_STATUS@@ABUfloating_point_string@1@ABVfloating_point_value@1@@Z 1004817d f i libucrt:input.obj
 0001:00048f23       ?convert_hexadecimal_string_to_floating_type_common@__crt_strtox@@YA?AW4SLD_STATUS@@ABUfloating_point_string@1@ABVfloating_point_value@1@@Z 10049f23 f i libucrt:input.obj
 0001:00048fd0       ?count_sequential_high_zeroes@__crt_strtox@@YAII@Z 10049fd0 f i libucrt:input.obj
 0001:00048feb       ?data@?$scanset_storage@$00@__crt_stdio_input@@QBEPAEXZ 10049feb f i libucrt:input.obj
 0001:00048fee       ?data@?$scanset_storage@$01@__crt_stdio_input@@QBEPAEXZ 10049fee f i libucrt:input.obj
 0001:00049026       ?denormal_mantissa_mask@floating_point_value@__crt_strtox@@QBE_KXZ 1004a026 f i libucrt:input.obj
 0001:00049040       ?divide@__crt_strtox@@YA_KAAUbig_integer@1@ABU21@@Z 1004a040 f i libucrt:input.obj
 0001:000494eb       ?error_code@?$format_string_parser@D@__crt_stdio_input@@QBEHXZ 1004a4eb f i libucrt:input.obj
 0001:000494ef       ?error_code@?$format_string_parser@_W@__crt_stdio_input@@QBEHXZ 1004a4ef f i libucrt:input.obj
 0001:000494f3       ?exponent_bias@floating_point_value@__crt_strtox@@QBEHXZ 1004a4f3 f i libucrt:input.obj
 0001:00049505       ?get@?$__crt_unique_heap_ptr@EU__crt_internal_free_policy@@@@QBEPAEXZ 1004a505 f i libucrt:input.obj
 0001:00049508       ?get@?$input_adapter_character_source@V?$stream_input_adapter@D@__crt_stdio_input@@@__crt_strtox@@QAEDXZ 1004a508 f i libucrt:input.obj
 0001:00049547       ?get@?$input_adapter_character_source@V?$stream_input_adapter@_W@__crt_stdio_input@@@__crt_strtox@@QAE_WXZ 1004a547 f i libucrt:input.obj
 0001:00049586       ?get@?$input_adapter_character_source@V?$string_input_adapter@D@__crt_stdio_input@@@__crt_strtox@@QAEDXZ 1004a586 f i libucrt:input.obj
 0001:000495bd       ?get@?$input_adapter_character_source@V?$string_input_adapter@_W@__crt_stdio_input@@@__crt_strtox@@QAE_WXZ 1004a5bd f i libucrt:input.obj
 0001:000495fc       ?get@?$stream_input_adapter@D@__crt_stdio_input@@QAEHXZ 1004a5fc f i libucrt:input.obj
 0001:00049613       ?get@?$stream_input_adapter@_W@__crt_stdio_input@@QAEGXZ 1004a613 f i libucrt:input.obj
 0001:00049632       ?get@?$string_input_adapter@D@__crt_stdio_input@@QAEHXZ 1004a632 f i libucrt:input.obj
 0001:00049648       ?get@?$string_input_adapter@_W@__crt_stdio_input@@QAEGXZ 1004a648 f i libucrt:input.obj
 0001:00049662       ?invert@?$scanset_buffer@E@__crt_stdio_input@@QAEXXZ 1004a662 f i libucrt:input.obj
 0001:0004966f       ?invert@?$scanset_buffer@_W@__crt_stdio_input@@QAEXXZ 1004a66f f i libucrt:input.obj
 0001:00049684       ?is_character_allowed_in_string@?$input_processor@DV?$stream_input_adapter@D@__crt_stdio_input@@@__crt_stdio_input@@ABE_NW4conversion_mode@2@H@Z 1004a684 f i libucrt:input.obj
 0001:000496d4       ?is_character_allowed_in_string@?$input_processor@DV?$string_input_adapter@D@__crt_stdio_input@@@__crt_stdio_input@@ABE_NW4conversion_mode@2@H@Z 1004a6d4 f i libucrt:input.obj
 0001:00049724       ?is_character_allowed_in_string@?$input_processor@_WV?$stream_input_adapter@_W@__crt_stdio_input@@@__crt_stdio_input@@ABE_NW4conversion_mode@2@G@Z 1004a724 f i libucrt:input.obj
 0001:0004976e       ?is_character_allowed_in_string@?$input_processor@_WV?$string_input_adapter@_W@__crt_stdio_input@@@__crt_stdio_input@@ABE_NW4conversion_mode@2@G@Z 1004a76e f i libucrt:input.obj
 0001:000497b8       ?is_digit_or_nondigit@__crt_strtox@@YA_NH@Z 1004a7b8 f i libucrt:input.obj
 0001:000497e4       ?is_double@floating_point_value@__crt_strtox@@QBE_NXZ 1004a7e4 f i libucrt:input.obj
 0001:000497e8       ?is_length_valid@__crt_stdio_input@@YA_NW4conversion_mode@1@W4length_modifier@1@@Z 1004a7e8 f i libucrt:input.obj
 0001:00049801       ?is_usable@?$scanset_buffer@E@__crt_stdio_input@@QAE_NXZ 1004a801 f i libucrt:input.obj
 0001:00049807       ?is_usable@?$scanset_buffer@_W@__crt_stdio_input@@QAE_NXZ 1004a807 f i libucrt:input.obj
 0001:00049812       ?is_valid@?$__crt_unique_heap_ptr@EU__crt_internal_free_policy@@@@QBE_NXZ 1004a812 f i libucrt:input.obj
 0001:00049819       ?kind@?$format_string_parser@D@__crt_stdio_input@@QBE?AW4format_directive_kind@2@XZ 1004a819 f i libucrt:input.obj
 0001:0004981d       ?kind@?$format_string_parser@_W@__crt_stdio_input@@QBE?AW4format_directive_kind@2@XZ 1004a81d f i libucrt:input.obj
 0001:00049821       ?length@?$format_string_parser@D@__crt_stdio_input@@QBEIXZ 1004a821 f i libucrt:input.obj
 0001:0004986f       ?length@?$format_string_parser@_W@__crt_stdio_input@@QBEIXZ 1004a86f f i libucrt:input.obj
 0001:000498bd       ?literal_character_lead@?$format_string_parser@D@__crt_stdio_input@@QBEEXZ 1004a8bd f i libucrt:input.obj
 0001:000498c1       ?literal_character_lead@?$format_string_parser@_W@__crt_stdio_input@@QBE_WXZ 1004a8c1 f i libucrt:input.obj
 0001:000498c6       ?literal_character_trail@?$format_string_parser@D@__crt_stdio_input@@QBEEXZ 1004a8c6 f i libucrt:input.obj
 0001:000498d0       ?make_big_integer@__crt_strtox@@YA?AUbig_integer@1@_K@Z 1004a8d0 f i libucrt:input.obj
 0001:000498f0       ?mantissa_bits@floating_point_value@__crt_strtox@@QBEHXZ 1004a8f0 f i libucrt:input.obj
 0001:00049900       ?maximum_binary_exponent@floating_point_value@__crt_strtox@@QBEHXZ 1004a900 f i libucrt:input.obj
 0001:00049912       ?minimum_binary_exponent@floating_point_value@__crt_strtox@@QBEHXZ 1004a912 f i libucrt:input.obj
 0001:00049924       ?mode@?$format_string_parser@D@__crt_stdio_input@@QBE?AW4conversion_mode@2@XZ 1004a924 f i libucrt:input.obj
 0001:00049928       ?mode@?$format_string_parser@_W@__crt_stdio_input@@QBE?AW4conversion_mode@2@XZ 1004a928 f i libucrt:input.obj
 0001:00049930       ?multiply@__crt_strtox@@YA_NAAUbig_integer@1@ABU21@@Z 1004a930 f i libucrt:input.obj
 0001:00049c90       ?multiply@__crt_strtox@@YA_NAAUbig_integer@1@I@Z 1004ac90 f i libucrt:input.obj
 0001:00049d60       ?multiply_64_32@__crt_strtox@@YA_K_KI@Z 1004ad60 f i libucrt:input.obj
 0001:00049d80       ?multiply_by_power_of_ten@__crt_strtox@@YA_NAAUbig_integer@1@I@Z 1004ad80 f i libucrt:input.obj
 0001:0004a310       ?multiply_core@__crt_strtox@@YAIQAIII@Z 1004b310 f i libucrt:input.obj
 0001:0004a34e       ?normal_mantissa_mask@floating_point_value@__crt_strtox@@QBE_KXZ 1004b34e f i libucrt:input.obj
 0001:0004a365       ?process@?$input_processor@DV?$stream_input_adapter@D@__crt_stdio_input@@@__crt_stdio_input@@QAEHXZ 1004b365 f i libucrt:input.obj
 0001:0004a3f0       ?process@?$input_processor@DV?$string_input_adapter@D@__crt_stdio_input@@@__crt_stdio_input@@QAEHXZ 1004b3f0 f i libucrt:input.obj
 0001:0004a474       ?process@?$input_processor@_WV?$stream_input_adapter@_W@__crt_stdio_input@@@__crt_stdio_input@@QAEHXZ 1004b474 f i libucrt:input.obj
 0001:0004a501       ?process@?$input_processor@_WV?$string_input_adapter@_W@__crt_stdio_input@@@__crt_stdio_input@@QAEHXZ 1004b501 f i libucrt:input.obj
 0001:0004a58e       ?process_character_count_specifier@?$input_processor@DV?$stream_input_adapter@D@__crt_stdio_input@@@__crt_stdio_input@@AAE_NXZ 1004b58e f i libucrt:input.obj
 0001:0004a5a2       ?process_character_count_specifier@?$input_processor@DV?$string_input_adapter@D@__crt_stdio_input@@@__crt_stdio_input@@AAE_NXZ 1004b5a2 f i libucrt:input.obj
 0001:0004a5ba       ?process_character_count_specifier@?$input_processor@_WV?$stream_input_adapter@_W@__crt_stdio_input@@@__crt_stdio_input@@AAE_NXZ 1004b5ba f i libucrt:input.obj
 0001:0004a5ce       ?process_character_count_specifier@?$input_processor@_WV?$string_input_adapter@_W@__crt_stdio_input@@@__crt_stdio_input@@AAE_NXZ 1004b5ce f i libucrt:input.obj
 0001:0004a5e8       ?process_conversion_specifier@?$input_processor@DV?$stream_input_adapter@D@__crt_stdio_input@@@__crt_stdio_input@@AAE_NXZ 1004b5e8 f i libucrt:input.obj
 0001:0004a65c       ?process_conversion_specifier@?$input_processor@DV?$string_input_adapter@D@__crt_stdio_input@@@__crt_stdio_input@@AAE_NXZ 1004b65c f i libucrt:input.obj
 0001:0004a6d0       ?process_conversion_specifier@?$input_processor@_WV?$stream_input_adapter@_W@__crt_stdio_input@@@__crt_stdio_input@@AAE_NXZ 1004b6d0 f i libucrt:input.obj
 0001:0004a744       ?process_conversion_specifier@?$input_processor@_WV?$string_input_adapter@_W@__crt_stdio_input@@@__crt_stdio_input@@AAE_NXZ 1004b744 f i libucrt:input.obj
 0001:0004a7b8       ?process_floating_point_specifier@?$input_processor@DV?$stream_input_adapter@D@__crt_stdio_input@@@__crt_stdio_input@@AAE_NXZ 1004b7b8 f i libucrt:input.obj
 0001:0004a7e8       ?process_floating_point_specifier@?$input_processor@DV?$string_input_adapter@D@__crt_stdio_input@@@__crt_stdio_input@@AAE_NXZ 1004b7e8 f i libucrt:input.obj
 0001:0004a818       ?process_floating_point_specifier@?$input_processor@_WV?$stream_input_adapter@_W@__crt_stdio_input@@@__crt_stdio_input@@AAE_NXZ 1004b818 f i libucrt:input.obj
 0001:0004a848       ?process_floating_point_specifier@?$input_processor@_WV?$string_input_adapter@_W@__crt_stdio_input@@@__crt_stdio_input@@AAE_NXZ 1004b848 f i libucrt:input.obj
 0001:0004a878       ?process_integer_specifier@?$input_processor@DV?$stream_input_adapter@D@__crt_stdio_input@@@__crt_stdio_input@@AAE_NI_N@Z 1004b878 f i libucrt:input.obj
 0001:0004a8dd       ?process_integer_specifier@?$input_processor@DV?$string_input_adapter@D@__crt_stdio_input@@@__crt_stdio_input@@AAE_NI_N@Z 1004b8dd f i libucrt:input.obj
 0001:0004a942       ?process_integer_specifier@?$input_processor@_WV?$stream_input_adapter@_W@__crt_stdio_input@@@__crt_stdio_input@@AAE_NI_N@Z 1004b942 f i libucrt:input.obj
 0001:0004a9a7       ?process_integer_specifier@?$input_processor@_WV?$string_input_adapter@_W@__crt_stdio_input@@@__crt_stdio_input@@AAE_NI_N@Z 1004b9a7 f i libucrt:input.obj
 0001:0004aa0c       ?process_literal_character@?$input_processor@DV?$stream_input_adapter@D@__crt_stdio_input@@@__crt_stdio_input@@AAE_NXZ 1004ba0c f i libucrt:input.obj
 0001:0004aa42       ?process_literal_character@?$input_processor@DV?$string_input_adapter@D@__crt_stdio_input@@@__crt_stdio_input@@AAE_NXZ 1004ba42 f i libucrt:input.obj
 0001:0004aa78       ?process_literal_character@?$input_processor@_WV?$stream_input_adapter@_W@__crt_stdio_input@@@__crt_stdio_input@@AAE_NXZ 1004ba78 f i libucrt:input.obj
 0001:0004aaad       ?process_literal_character@?$input_processor@_WV?$string_input_adapter@_W@__crt_stdio_input@@@__crt_stdio_input@@AAE_NXZ 1004baad f i libucrt:input.obj
 0001:0004aae2       ?process_literal_character_tchar@?$input_processor@DV?$stream_input_adapter@D@__crt_stdio_input@@@__crt_stdio_input@@AAE_ND@Z 1004bae2 f i libucrt:input.obj
 0001:0004ab39       ?process_literal_character_tchar@?$input_processor@DV?$string_input_adapter@D@__crt_stdio_input@@@__crt_stdio_input@@AAE_ND@Z 1004bb39 f i libucrt:input.obj
 0001:0004ab87       ?process_literal_character_tchar@?$input_processor@_WV?$stream_input_adapter@_W@__crt_stdio_input@@@__crt_stdio_input@@AAE_N_W@Z 1004bb87 f i libucrt:input.obj
 0001:0004ab8c       ?process_literal_character_tchar@?$input_processor@_WV?$string_input_adapter@_W@__crt_stdio_input@@@__crt_stdio_input@@AAE_N_W@Z 1004bb8c f i libucrt:input.obj
 0001:0004ab91       ?process_state@?$input_processor@DV?$stream_input_adapter@D@__crt_stdio_input@@@__crt_stdio_input@@AAE_NXZ 1004bb91 f i libucrt:input.obj
 0001:0004abd3       ?process_state@?$input_processor@DV?$string_input_adapter@D@__crt_stdio_input@@@__crt_stdio_input@@AAE_NXZ 1004bbd3 f i libucrt:input.obj
 0001:0004ac15       ?process_state@?$input_processor@_WV?$stream_input_adapter@_W@__crt_stdio_input@@@__crt_stdio_input@@AAE_NXZ 1004bc15 f i libucrt:input.obj
 0001:0004ac57       ?process_state@?$input_processor@_WV?$string_input_adapter@_W@__crt_stdio_input@@@__crt_stdio_input@@AAE_NXZ 1004bc57 f i libucrt:input.obj
 0001:0004ac99       ?process_string_specifier@?$input_processor@DV?$stream_input_adapter@D@__crt_stdio_input@@@__crt_stdio_input@@AAE_NW4conversion_mode@2@@Z 1004bc99 f i libucrt:input.obj
 0001:0004ace1       ?process_string_specifier@?$input_processor@DV?$string_input_adapter@D@__crt_stdio_input@@@__crt_stdio_input@@AAE_NW4conversion_mode@2@@Z 1004bce1 f i libucrt:input.obj
 0001:0004ad29       ?process_string_specifier@?$input_processor@_WV?$stream_input_adapter@_W@__crt_stdio_input@@@__crt_stdio_input@@AAE_NW4conversion_mode@2@@Z 1004bd29 f i libucrt:input.obj
 0001:0004ad71       ?process_string_specifier@?$input_processor@_WV?$string_input_adapter@_W@__crt_stdio_input@@@__crt_stdio_input@@AAE_NW4conversion_mode@2@@Z 1004bd71 f i libucrt:input.obj
 0001:0004adb9       ?process_whitespace@?$input_processor@DV?$stream_input_adapter@D@__crt_stdio_input@@@__crt_stdio_input@@AAE_NXZ 1004bdb9 f i libucrt:input.obj
 0001:0004add6       ?process_whitespace@?$input_processor@DV?$string_input_adapter@D@__crt_stdio_input@@@__crt_stdio_input@@AAE_NXZ 1004bdd6 f i libucrt:input.obj
 0001:0004adf3       ?process_whitespace@?$input_processor@_WV?$stream_input_adapter@_W@__crt_stdio_input@@@__crt_stdio_input@@AAE_NXZ 1004bdf3 f i libucrt:input.obj
 0001:0004ae13       ?process_whitespace@?$input_processor@_WV?$string_input_adapter@_W@__crt_stdio_input@@@__crt_stdio_input@@AAE_NXZ 1004be13 f i libucrt:input.obj
 0001:0004ae33       ?release@?$__crt_unique_heap_ptr@EU__crt_internal_free_policy@@@@QAEXXZ 1004be33 f i libucrt:input.obj
 0001:0004ae45       ?reset@?$scanset_buffer@E@__crt_stdio_input@@QAEXXZ 1004be45 f i libucrt:input.obj
 0001:0004ae57       ?reset@?$scanset_buffer@_W@__crt_stdio_input@@QAEXXZ 1004be57 f i libucrt:input.obj
 0001:0004ae71       ?reset_token_state@?$format_string_parser@D@__crt_stdio_input@@AAEXXZ 1004be71 f i libucrt:input.obj
 0001:0004ae8d       ?reset_token_state@?$format_string_parser@_W@__crt_stdio_input@@AAEXXZ 1004be8d f i libucrt:input.obj
 0001:0004aeaa       ?reset_token_state_for_error@?$format_string_parser@D@__crt_stdio_input@@AAEXH@Z 1004beaa f i libucrt:input.obj
 0001:0004aed4       ?reset_token_state_for_error@?$format_string_parser@_W@__crt_stdio_input@@AAEXH@Z 1004bed4 f i libucrt:input.obj
 0001:0004aeff       ?restore_state@?$input_adapter_character_source@V?$stream_input_adapter@D@__crt_stdio_input@@@__crt_strtox@@QAE_N_K@Z 1004beff f i libucrt:input.obj
 0001:0004af24       ?restore_state@?$input_adapter_character_source@V?$stream_input_adapter@_W@__crt_stdio_input@@@__crt_strtox@@QAE_N_K@Z 1004bf24 f i libucrt:input.obj
 0001:0004af49       ?restore_state@?$input_adapter_character_source@V?$string_input_adapter@D@__crt_stdio_input@@@__crt_strtox@@QAE_N_K@Z 1004bf49 f i libucrt:input.obj
 0001:0004af6e       ?restore_state@?$input_adapter_character_source@V?$string_input_adapter@_W@__crt_stdio_input@@@__crt_strtox@@QAE_N_K@Z 1004bf6e f i libucrt:input.obj
 0001:0004af93       ?right_shift_with_rounding@__crt_strtox@@YA_K_N_KI0@Z 1004bf93 f i libucrt:input.obj
 0001:0004b07e       ?save_state@?$input_adapter_character_source@V?$stream_input_adapter@D@__crt_stdio_input@@@__crt_strtox@@QBE_KXZ 1004c07e f i libucrt:input.obj
 0001:0004b085       ?save_state@?$input_adapter_character_source@V?$stream_input_adapter@_W@__crt_stdio_input@@@__crt_strtox@@QBE_KXZ 1004c085 f i libucrt:input.obj
 0001:0004b08c       ?save_state@?$input_adapter_character_source@V?$string_input_adapter@D@__crt_stdio_input@@@__crt_strtox@@QBE_KXZ 1004c08c f i libucrt:input.obj
 0001:0004b093       ?save_state@?$input_adapter_character_source@V?$string_input_adapter@_W@__crt_stdio_input@@@__crt_strtox@@QBE_KXZ 1004c093 f i libucrt:input.obj
 0001:0004b09a       ?scan_conversion_specifier@?$format_string_parser@D@__crt_stdio_input@@AAE_NXZ 1004c09a f i libucrt:input.obj
 0001:0004b216       ?scan_conversion_specifier@?$format_string_parser@_W@__crt_stdio_input@@AAE_NXZ 1004c216 f i libucrt:input.obj
 0001:0004b376       ?scan_optional_assignment_suppressor@?$format_string_parser@D@__crt_stdio_input@@AAEXXZ 1004c376 f i libucrt:input.obj
 0001:0004b387       ?scan_optional_assignment_suppressor@?$format_string_parser@_W@__crt_stdio_input@@AAEXXZ 1004c387 f i libucrt:input.obj
 0001:0004b39b       ?scan_optional_field_width@?$format_string_parser@D@__crt_stdio_input@@AAE_NXZ 1004c39b f i libucrt:input.obj
 0001:0004b42f       ?scan_optional_field_width@?$format_string_parser@_W@__crt_stdio_input@@AAE_NXZ 1004c42f f i libucrt:input.obj
 0001:0004b62a       ?scan_optional_length_modifier@?$format_string_parser@D@__crt_stdio_input@@AAEXXZ 1004c62a f i libucrt:input.obj
 0001:0004b74a       ?scan_optional_length_modifier@?$format_string_parser@_W@__crt_stdio_input@@AAEXXZ 1004c74a f i libucrt:input.obj
 0001:0004b883       ?scan_optional_literal_character_trail_bytes_tchar@?$format_string_parser@D@__crt_stdio_input@@AAE_ND@Z 1004c883 f i libucrt:input.obj
 0001:0004b8d5       ?scan_optional_literal_character_trail_bytes_tchar@?$format_string_parser@_W@__crt_stdio_input@@AAE_N_W@Z 1004c8d5 f i libucrt:input.obj
 0001:0004b8da       ?scan_optional_wide_modifier@?$format_string_parser@D@__crt_stdio_input@@AAEXXZ 1004c8da f i libucrt:input.obj
 0001:0004b8f8       ?scan_optional_wide_modifier@?$format_string_parser@_W@__crt_stdio_input@@AAEXXZ 1004c8f8 f i libucrt:input.obj
 0001:0004b922       ?scan_scanset_range@?$format_string_parser@D@__crt_stdio_input@@AAE_NXZ 1004c922 f i libucrt:input.obj
 0001:0004ba5b       ?scan_scanset_range@?$format_string_parser@_W@__crt_stdio_input@@AAE_NXZ 1004ca5b f i libucrt:input.obj
 0001:0004bb93       ?scanset@?$format_string_parser@D@__crt_stdio_input@@QBEABV?$scanset_buffer@E@2@XZ 1004cb93 f i libucrt:input.obj
 0001:0004bb97       ?scanset@?$format_string_parser@_W@__crt_stdio_input@@QBEABV?$scanset_buffer@_W@2@XZ 1004cb97 f i libucrt:input.obj
 0001:0004bb9b       ?secure_buffers@?$input_processor@DV?$stream_input_adapter@D@__crt_stdio_input@@@__crt_stdio_input@@ABE_NXZ 1004cb9b f i libucrt:input.obj
 0001:0004bbac       ?secure_buffers@?$input_processor@DV?$string_input_adapter@D@__crt_stdio_input@@@__crt_stdio_input@@ABE_NXZ 1004cbac f i libucrt:input.obj
 0001:0004bbbd       ?secure_buffers@?$input_processor@_WV?$stream_input_adapter@_W@__crt_stdio_input@@@__crt_stdio_input@@ABE_NXZ 1004cbbd f i libucrt:input.obj
 0001:0004bbce       ?secure_buffers@?$input_processor@_WV?$string_input_adapter@_W@__crt_stdio_input@@@__crt_stdio_input@@ABE_NXZ 1004cbce f i libucrt:input.obj
 0001:0004bbdf       ?set@?$scanset_buffer@E@__crt_stdio_input@@QAEXE@Z 1004cbdf f i libucrt:input.obj
 0001:0004bc0a       ?set@?$scanset_buffer@_W@__crt_stdio_input@@QAEX_W@Z 1004cc0a f i libucrt:input.obj
 0001:0004bc3a       ?set_wide_for_c_s_or_scanset@?$format_string_parser@D@__crt_stdio_input@@AAEXXZ 1004cc3a f i libucrt:input.obj
 0001:0004bc5b       ?set_wide_for_c_s_or_scanset@?$format_string_parser@_W@__crt_stdio_input@@AAEXXZ 1004cc5b f i libucrt:input.obj
 0001:0004bc80       ?shift_left@__crt_strtox@@YA_NAAUbig_integer@1@I@Z 1004cc80 f i libucrt:input.obj
 0001:0004bdaf       ?should_default_to_wide@?$format_string_parser@D@__crt_stdio_input@@AAE_NE@Z 1004cdaf f i libucrt:input.obj
 0001:0004bdc9       ?should_default_to_wide@?$format_string_parser@_W@__crt_stdio_input@@AAE_N_W@Z 1004cdc9 f i libucrt:input.obj
 0001:0004bdfd       ?should_round_up@__crt_strtox@@YA_N_N000@Z 1004cdfd f i libucrt:input.obj
 0001:0004be4a       ?size@?$scanset_storage@$00@__crt_stdio_input@@QBEIXZ 1004ce4a f i libucrt:input.obj
 0001:0004be4e       ?size@?$scanset_storage@$01@__crt_stdio_input@@QBEIXZ 1004ce4e f i libucrt:input.obj
 0001:0004be54       ?suppress_assignment@?$format_string_parser@D@__crt_stdio_input@@QBE_NXZ 1004ce54 f i libucrt:input.obj
 0001:0004be58       ?suppress_assignment@?$format_string_parser@_W@__crt_stdio_input@@QBE_NXZ 1004ce58 f i libucrt:input.obj
 0001:0004be5c       ?test@?$scanset_buffer@E@__crt_stdio_input@@QBE_NE@Z 1004ce5c f i libucrt:input.obj
 0001:0004be80       ?test@?$scanset_buffer@_W@__crt_stdio_input@@QBE_N_W@Z 1004ce80 f i libucrt:input.obj
 0001:0004beb5       ?to_floating_point_length@__crt_stdio_input@@YAIW4length_modifier@1@@Z 1004ceb5 f i libucrt:input.obj
 0001:0004bed8       ?to_integer_length@__crt_stdio_input@@YAIW4length_modifier@1@@Z 1004ced8 f i libucrt:input.obj
 0001:0004bf2b       ?unget@?$input_adapter_character_source@V?$stream_input_adapter@D@__crt_stdio_input@@@__crt_strtox@@QAEXD@Z 1004cf2b f i libucrt:input.obj
 0001:0004bf72       ?unget@?$input_adapter_character_source@V?$stream_input_adapter@_W@__crt_stdio_input@@@__crt_strtox@@QAEX_W@Z 1004cf72 f i libucrt:input.obj
 0001:0004bfbd       ?unget@?$input_adapter_character_source@V?$string_input_adapter@D@__crt_stdio_input@@@__crt_strtox@@QAEXD@Z 1004cfbd f i libucrt:input.obj
 0001:0004c004       ?unget@?$input_adapter_character_source@V?$string_input_adapter@_W@__crt_stdio_input@@@__crt_strtox@@QAEX_W@Z 1004d004 f i libucrt:input.obj
 0001:0004c04f       ?unget@?$stream_input_adapter@D@__crt_stdio_input@@QAEXH@Z 1004d04f f i libucrt:input.obj
 0001:0004c06d       ?unget@?$stream_input_adapter@_W@__crt_stdio_input@@QAEXG@Z 1004d06d f i libucrt:input.obj
 0001:0004c090       ?unget@?$string_input_adapter@D@__crt_stdio_input@@QAEXH@Z 1004d090 f i libucrt:input.obj
 0001:0004c0af       ?unget@?$string_input_adapter@_W@__crt_stdio_input@@QAEXG@Z 1004d0af f i libucrt:input.obj
 0001:0004c0d5       ?validate@?$format_string_parser@D@__crt_stdio_input@@QBE_NXZ 1004d0d5 f i libucrt:input.obj
 0001:0004c0f1       ?validate@?$format_string_parser@_W@__crt_stdio_input@@QBE_NXZ 1004d0f1 f i libucrt:input.obj
 0001:0004c10d       ?validate@?$input_adapter_character_source@V?$stream_input_adapter@D@__crt_stdio_input@@@__crt_strtox@@QBE_NXZ 1004d10d f i libucrt:input.obj
 0001:0004c12e       ?validate@?$input_adapter_character_source@V?$stream_input_adapter@_W@__crt_stdio_input@@@__crt_strtox@@QBE_NXZ 1004d12e f i libucrt:input.obj
 0001:0004c14f       ?validate@?$input_adapter_character_source@V?$string_input_adapter@D@__crt_stdio_input@@@__crt_strtox@@QBE_NXZ 1004d14f f i libucrt:input.obj
 0001:0004c170       ?validate@?$input_adapter_character_source@V?$string_input_adapter@_W@__crt_stdio_input@@@__crt_strtox@@QBE_NXZ 1004d170 f i libucrt:input.obj
 0001:0004c191       ?validate@?$stream_input_adapter@D@__crt_stdio_input@@QBE_NXZ 1004d191 f i libucrt:input.obj
 0001:0004c1b2       ?validate@?$stream_input_adapter@_W@__crt_stdio_input@@QBE_NXZ 1004d1b2 f i libucrt:input.obj
 0001:0004c1cd       ?validate@?$string_input_adapter@D@__crt_stdio_input@@QAE_NXZ 1004d1cd f i libucrt:input.obj
 0001:0004c1ef       ?validate@?$string_input_adapter@_W@__crt_stdio_input@@QAE_NXZ 1004d1ef f i libucrt:input.obj
 0001:0004c211       ?width@?$format_string_parser@D@__crt_stdio_input@@QBE_KXZ 1004d211 f i libucrt:input.obj
 0001:0004c218       ?width@?$format_string_parser@_W@__crt_stdio_input@@QBE_KXZ 1004d218 f i libucrt:input.obj
 0001:0004c21f       ?write_character@?$input_processor@DV?$stream_input_adapter@D@__crt_stdio_input@@@__crt_stdio_input@@AAE_NQADIAAPADAAID@Z 1004d21f f i libucrt:input.obj
 0001:0004c23b       ?write_character@?$input_processor@DV?$stream_input_adapter@D@__crt_stdio_input@@@__crt_stdio_input@@AAE_NQA_WIAAPA_WAAID@Z 1004d23b f i libucrt:input.obj
 0001:0004c2b1       ?write_character@?$input_processor@DV?$string_input_adapter@D@__crt_stdio_input@@@__crt_stdio_input@@AAE_NQADIAAPADAAID@Z 1004d2b1 f i libucrt:input.obj
 0001:0004c2cd       ?write_character@?$input_processor@DV?$string_input_adapter@D@__crt_stdio_input@@@__crt_stdio_input@@AAE_NQA_WIAAPA_WAAID@Z 1004d2cd f i libucrt:input.obj
 0001:0004c33a       ?write_character@?$input_processor@_WV?$stream_input_adapter@_W@__crt_stdio_input@@@__crt_stdio_input@@AAE_NQADIAAPADAAI_W@Z 1004d33a f i libucrt:input.obj
 0001:0004c3c0       ?write_character@?$input_processor@_WV?$stream_input_adapter@_W@__crt_stdio_input@@@__crt_stdio_input@@AAE_NQA_WIAAPA_WAAI_W@Z 1004d3c0 f i libucrt:input.obj
 0001:0004c3df       ?write_character@?$input_processor@_WV?$string_input_adapter@_W@__crt_stdio_input@@@__crt_stdio_input@@AAE_NQADIAAPADAAI_W@Z 1004d3df f i libucrt:input.obj
 0001:0004c465       ?write_character@?$input_processor@_WV?$string_input_adapter@_W@__crt_stdio_input@@@__crt_stdio_input@@AAE_NQA_WIAAPA_WAAI_W@Z 1004d465 f i libucrt:input.obj
 0001:0004c484       ?write_integer@?$input_processor@DV?$stream_input_adapter@D@__crt_stdio_input@@@__crt_stdio_input@@AAE_N_K@Z 1004d484 f i libucrt:input.obj
 0001:0004c4f3       ?write_integer@?$input_processor@DV?$string_input_adapter@D@__crt_stdio_input@@@__crt_stdio_input@@AAE_N_K@Z 1004d4f3 f i libucrt:input.obj
 0001:0004c562       ?write_integer@?$input_processor@_WV?$stream_input_adapter@_W@__crt_stdio_input@@@__crt_stdio_input@@AAE_N_K@Z 1004d562 f i libucrt:input.obj
 0001:0004c5d1       ?write_integer@?$input_processor@_WV?$string_input_adapter@_W@__crt_stdio_input@@@__crt_stdio_input@@AAE_N_K@Z 1004d5d1 f i libucrt:input.obj
 0001:0004c640       ___stdio_common_vfscanf    1004d640 f   libucrt:input.obj
 0001:0004c6c5       ___stdio_common_vfwscanf   1004d6c5 f   libucrt:input.obj
 0001:0004c74a       ___stdio_common_vsscanf    1004d74a f   libucrt:input.obj
 0001:0004c76e       ___stdio_common_vswscanf   1004d76e f   libucrt:input.obj
 0001:0004c792       __invoke_watson_if_oneof   1004d792 f i libucrt:input.obj
 0001:0004ca02       ??$?R_W@__crt_public_free_policy@@QBEXQB_W@Z 1004da02 f i libucrt:stat.obj
 0001:0004dca1       ??$loctotime@AAGAAGAAGAAGAAGAAGH@?$__crt_integer_traits@J@@SAJAAG00000$$QAH@Z 1004eca1 f i libucrt:stat.obj
 0001:0004dcdf       ??$loctotime@AAGAAGAAGAAGAAGAAGH@?$__crt_integer_traits@_J@@SA_JAAG00000$$QAH@Z 1004ecdf f i libucrt:stat.obj
 0001:0004dd1d       ??$loctotime@HHHHHHH@?$__crt_integer_traits@J@@SAJ$$QAH000000@Z 1004ed1d f i libucrt:stat.obj
 0001:0004dd4f       ??$loctotime@HHHHHHH@?$__crt_integer_traits@_J@@SA_J$$QAH000000@Z 1004ed4f f i libucrt:stat.obj
 0001:0004de69       ??0?$__crt_unique_handle_t@U__crt_handle_traits@@@@QAE@QAX@Z 1004ee69 f i libucrt:stat.obj
 0001:0004de79       ??0?$__crt_unique_heap_ptr@_WU__crt_public_free_policy@@@@QAE@QA_W@Z 1004ee79 f i libucrt:stat.obj
 0001:0004de89       ??1?$__crt_unique_handle_t@U__crt_handle_traits@@@@QAE@XZ 1004ee89 f i libucrt:stat.obj
 0001:0004dea0       ??1?$__crt_unique_heap_ptr@_WU__crt_public_free_policy@@@@QAE@XZ 1004eea0 f i libucrt:stat.obj
 0001:0004deb2       ??B?$__crt_unique_handle_t@U__crt_handle_traits@@@@QBE_NXZ 1004eeb2 f i libucrt:stat.obj
 0001:0004e13b       ?close@?$__crt_unique_handle_t@U__crt_handle_traits@@@@QAEXXZ 1004f13b f i libucrt:stat.obj
 0001:0004e152       ?close@__crt_handle_traits@@SA_NPAX@Z 1004f152 f i libucrt:stat.obj
 0001:0004e287       ?get@?$__crt_unique_handle_t@U__crt_handle_traits@@@@QBEPAXXZ 1004f287 f i libucrt:stat.obj
 0001:0004e28a       ?get_address_of@?$__crt_unique_heap_ptr@_WU__crt_public_free_policy@@@@QAEPAPA_WXZ 1004f28a f i libucrt:stat.obj
 0001:0004e2e9       ?get_invalid_value@__crt_handle_traits@@SAPAXXZ 1004f2e9 f i libucrt:stat.obj
 0001:0004e536       ?is_valid@?$__crt_unique_handle_t@U__crt_handle_traits@@@@QBE_NXZ 1004f536 f i libucrt:stat.obj
 0001:0004e53d       ?release@?$__crt_unique_heap_ptr@_WU__crt_public_free_policy@@@@QAEXXZ 1004f53d f i libucrt:stat.obj
 0001:0004e54f       ___ascii_tolower           1004f54f f i libucrt:stat.obj
 0001:0004e566       ___ascii_towlower          1004f566 f i libucrt:stat.obj
 0001:0004e57d       __fstat32                  1004f57d f   libucrt:stat.obj
 0001:0004e588       __fstat32i64               1004f588 f   libucrt:stat.obj
 0001:0004e593       __fstat64                  1004f593 f   libucrt:stat.obj
 0001:0004e59e       __fstat64i32               1004f59e f   libucrt:stat.obj
 0001:0004e5a9       __stat32                   1004f5a9 f   libucrt:stat.obj
 0001:0004e5b4       __stat32i64                1004f5b4 f   libucrt:stat.obj
 0001:0004e5bf       __stat64                   1004f5bf f   libucrt:stat.obj
 0001:0004e5ca       __stat64i32                1004f5ca f   libucrt:stat.obj
 0001:0004e5d5       __wstat32                  1004f5d5 f   libucrt:stat.obj
 0001:0004e5e0       __wstat32i64               1004f5e0 f   libucrt:stat.obj
 0001:0004e5eb       __wstat64                  1004f5eb f   libucrt:stat.obj
 0001:0004e5f6       __wstat64i32               1004f5f6 f   libucrt:stat.obj
 0001:0004e601       __fgetc_nolock             1004f601 f   libucrt:fgetc.obj
 0001:0004e63d       __fgetchar                 1004f63d f   libucrt:fgetc.obj
 0001:0004e64d       __getc_nolock              1004f64d f   libucrt:fgetc.obj
 0001:0004e658       _fgetc                     1004f658 f   libucrt:fgetc.obj
 0001:0004e771       _getc                      1004f771 f   libucrt:fgetc.obj
 0001:0004e77c       _getchar                   1004f77c f   libucrt:fgetc.obj
 0001:0004e7db       _strcpy_s                  1004f7db f   libucrt:strcpy_s.obj
 0001:0004e898       _strcat_s                  1004f898 f   libucrt:strcat_s.obj
 0001:0004e9b2       _strncpy_s                 1004f9b2 f   libucrt:strncpy_s.obj
 0001:0004eebf       __i64toa                   1004febf f   libucrt:xtoa.obj
 0001:0004ef00       __i64toa_s                 1004ff00 f   libucrt:xtoa.obj
 0001:0004ef3f       __i64tow                   1004ff3f f   libucrt:xtoa.obj
 0001:0004ef80       __i64tow_s                 1004ff80 f   libucrt:xtoa.obj
 0001:0004efbf       __itoa                     1004ffbf f   libucrt:xtoa.obj
 0001:0004eff4       __itoa_s                   1004fff4 f   libucrt:xtoa.obj
 0001:0004f027       __itow                     10050027 f   libucrt:xtoa.obj
 0001:0004f05c       __itow_s                   1005005c f   libucrt:xtoa.obj
 0001:0004f08f       __ltoa                     1005008f f   libucrt:xtoa.obj
 0001:0004f0c4       __ltoa_s                   100500c4 f   libucrt:xtoa.obj
 0001:0004f0f7       __ltow                     100500f7 f   libucrt:xtoa.obj
 0001:0004f12c       __ltow_s                   1005012c f   libucrt:xtoa.obj
 0001:0004f15f       __ui64toa                  1005015f f   libucrt:xtoa.obj
 0001:0004f181       __ui64toa_s                10050181 f   libucrt:xtoa.obj
 0001:0004f1a1       __ui64tow                  100501a1 f   libucrt:xtoa.obj
 0001:0004f1c3       __ui64tow_s                100501c3 f   libucrt:xtoa.obj
 0001:0004f1e3       __ultoa                    100501e3 f   libucrt:xtoa.obj
 0001:0004f202       __ultoa_s                  10050202 f   libucrt:xtoa.obj
 0001:0004f21f       __ultow                    1005021f f   libucrt:xtoa.obj
 0001:0004f23e       __ultow_s                  1005023e f   libucrt:xtoa.obj
 0001:0004f25b       _realloc                   1005025b f   libucrt:realloc.obj
 0001:0004f28a       __seh_filter_dll           1005028a f   libucrt:exception_filter.obj
 0001:0004f2aa       __seh_filter_exe           100502aa f   libucrt:exception_filter.obj
 0001:0004f3f0       ??$?B$$A6GXPAXK0@Z@__crt_fast_encoded_nullptr_t@@QBEP6GXPAXK0@ZXZ 100503f0 f i libucrt:exit.obj
 0001:0004f498       ??$__crt_fast_decode_pointer@P6GXPAXK0@Z@@YAP6GXPAXK0@ZQ6GX0K0@Z@Z 10050498 f i libucrt:exit.obj
 0001:0004f4b3       ??$__crt_fast_encode_pointer@P6GXPAXK0@Z@@YAP6GXPAXK0@ZQ6GX0K0@Z@Z 100504b3 f i libucrt:exit.obj
 0001:0004f4d2       ??$__crt_get_proc_address@P6GXI@Z@@YAP6GXI@ZQAUHINSTANCE__@@QBD@Z 100504d2 f i libucrt:exit.obj
 0001:0004f525       ??0?$__crt_unique_handle_t@U__crt_hmodule_traits@@@@QAE@QAUHINSTANCE__@@@Z 10050525 f i libucrt:exit.obj
 0001:0004f535       ??1?$__crt_unique_handle_t@U__crt_hmodule_traits@@@@QAE@XZ 10050535 f i libucrt:exit.obj
 0001:0004f646       ?__acrt_select_exit_lock@@YA?AW4__acrt_lock_id@@XZ 10050646 f i libucrt:exit.obj
 0001:0004f64a       ?__crt_fast_encode_pointer@@YA?AU__crt_fast_encoded_nullptr_t@@$$T@Z 1005064a f i libucrt:exit.obj
 0001:0004f655       ?__crt_rotate_pointer_value@@YAIIH@Z 10050655 f i libucrt:exit.obj
 0001:0004f677       ?close@?$__crt_unique_handle_t@U__crt_hmodule_traits@@@@QAEXXZ 10050677 f i libucrt:exit.obj
 0001:0004f68e       ?close@__crt_hmodule_traits@@SA_NPAUHINSTANCE__@@@Z 1005068e f i libucrt:exit.obj
 0001:0004f76b       ?get@?$__crt_unique_handle_t@U__crt_hmodule_traits@@@@QBEPAUHINSTANCE__@@XZ 1005076b f i libucrt:exit.obj
 0001:0004f76e       ?get_address_of@?$__crt_unique_handle_t@U__crt_hmodule_traits@@@@QAEPAPAUHINSTANCE__@@XZ 1005076e f i libucrt:exit.obj
 0001:0004f771       ?get_invalid_value@__crt_hmodule_traits@@SAPAUHINSTANCE__@@XZ 10050771 f i libucrt:exit.obj
 0001:0004f851       __Exit                     10050851 f   libucrt:exit.obj
 0001:0004f867       ___acrt_initialize_thread_local_exit_callback 10050867 f   libucrt:exit.obj
 0001:0004f876       __c_exit                   10050876 f   libucrt:exit.obj
 0001:0004f885       __cexit                    10050885 f   libucrt:exit.obj
 0001:0004f894       __exit                     10050894 f   libucrt:exit.obj
 0001:0004f8aa       __is_c_termination_complete 100508aa f   libucrt:exit.obj
 0001:0004f8b1       __register_thread_local_exe_atexit_callback 100508b1 f   libucrt:exit.obj
 0001:0004f8d7       _exit                      100508d7 f   libucrt:exit.obj
 0001:0004f8ed       _quick_exit                100508ed f   libucrt:exit.obj
 0001:0004f903       ??$?RPAD@__crt_internal_free_policy@@QBEXQBQAD@Z 10050903 f i libucrt:argv_parsing.obj
 0001:0004f915       ??$?RPA_W@__crt_internal_free_policy@@QBEXQBQA_W@Z 10050915 f i libucrt:argv_parsing.obj
 0001:0004fb9a       ??$get_module_file_name@$$TAAY0BAF@DH@?$__crt_char_traits@D@@SAK$$QA$$TAAY0BAF@D$$QAH@Z 10050b9a f i libucrt:argv_parsing.obj
 0001:0004fbb6       ??$get_module_file_name@$$TAAY0BAF@_WH@?$__crt_char_traits@_W@@SAK$$QA$$TAAY0BAF@_W$$QAH@Z 10050bb6 f i libucrt:argv_parsing.obj
 0001:0004fee5       ??$set_program_name@PAD@?$__crt_char_traits@D@@SAX$$QAPAD@Z 10050ee5 f i libucrt:argv_parsing.obj
 0001:0004fef6       ??$set_program_name@PA_W@?$__crt_char_traits@_W@@SAX$$QAPA_W@Z 10050ef6 f i libucrt:argv_parsing.obj
 0001:0004ff27       ??0?$__crt_unique_heap_ptr@PADU__crt_internal_free_policy@@@@QAE@QAPAD@Z 10050f27 f i libucrt:argv_parsing.obj
 0001:0004ff37       ??0?$__crt_unique_heap_ptr@PA_WU__crt_internal_free_policy@@@@QAE@QAPA_W@Z 10050f37 f i libucrt:argv_parsing.obj
 0001:0004ff47       ??1?$__crt_unique_heap_ptr@PADU__crt_internal_free_policy@@@@QAE@XZ 10050f47 f i libucrt:argv_parsing.obj
 0001:0004ff59       ??1?$__crt_unique_heap_ptr@PA_WU__crt_internal_free_policy@@@@QAE@XZ 10050f59 f i libucrt:argv_parsing.obj
 0001:0004ff97       ?detach@?$__crt_unique_heap_ptr@EU__crt_internal_free_policy@@@@QAEPAEXZ 10050f97 f i libucrt:argv_parsing.obj
 0001:0004ff9d       ?detach@?$__crt_unique_heap_ptr@PADU__crt_internal_free_policy@@@@QAEPAPADXZ 10050f9d f i libucrt:argv_parsing.obj
 0001:0004ffa3       ?detach@?$__crt_unique_heap_ptr@PA_WU__crt_internal_free_policy@@@@QAEPAPA_WXZ 10050fa3 f i libucrt:argv_parsing.obj
 0001:0004ffc7       ?get@?$__crt_unique_heap_ptr@PADU__crt_internal_free_policy@@@@QBEPAPADXZ 10050fc7 f i libucrt:argv_parsing.obj
 0001:0004ffca       ?get@?$__crt_unique_heap_ptr@PA_WU__crt_internal_free_policy@@@@QBEPAPA_WXZ 10050fca f i libucrt:argv_parsing.obj
 0001:0004ffcd       ?get_address_of@?$__crt_unique_heap_ptr@PADU__crt_internal_free_policy@@@@QAEPAPAPADXZ 10050fcd f i libucrt:argv_parsing.obj
 0001:0004ffd0       ?get_address_of@?$__crt_unique_heap_ptr@PA_WU__crt_internal_free_policy@@@@QAEPAPAPA_WXZ 10050fd0 f i libucrt:argv_parsing.obj
 0001:0004ffeb       ?release@?$__crt_unique_heap_ptr@PADU__crt_internal_free_policy@@@@QAEXXZ 10050feb f i libucrt:argv_parsing.obj
 0001:0004fffd       ?release@?$__crt_unique_heap_ptr@PA_WU__crt_internal_free_policy@@@@QAEXXZ 10050ffd f i libucrt:argv_parsing.obj
 0001:00050029       ___acrt_allocate_buffer_for_argv 10051029 f   libucrt:argv_parsing.obj
 0001:00050078       __configure_narrow_argv    10051078 f   libucrt:argv_parsing.obj
 0001:00050083       __configure_wide_argv      10051083 f   libucrt:argv_parsing.obj
 0001:0005008e       __set_pgmptr               1005108e f i libucrt:argv_parsing.obj
 0001:0005009d       __set_wpgmptr              1005109d f i libucrt:argv_parsing.obj
 0001:000500ac       ??$?R_W@__crt_internal_free_policy@@QBEXQB_W@Z 100510ac f i libucrt:environment_initialization.obj
 0001:000504c8       ??$get_environment_from_os@$$V@?$__crt_char_traits@D@@SAPADXZ 100514c8 f i libucrt:environment_initialization.obj
 0001:000504cd       ??$get_environment_from_os@$$V@?$__crt_char_traits@_W@@SAPA_WXZ 100514cd f i libucrt:environment_initialization.obj
 0001:000505d6       ??$set_variable_in_environment_nolock@PADH@?$__crt_char_traits@D@@SAH$$QAPAD$$QAH@Z 100515d6 f i libucrt:environment_initialization.obj
 0001:000505ee       ??$set_variable_in_environment_nolock@PA_WH@?$__crt_char_traits@_W@@SAH$$QAPA_W$$QAH@Z 100515ee f i libucrt:environment_initialization.obj
 0001:00050606       ??$tcscpy_s@PADABIAAPAD@?$__crt_char_traits@D@@SAH$$QAPADABIAAPAD@Z 10051606 f i libucrt:environment_initialization.obj
 0001:00050624       ??$tcscpy_s@PA_WABIAAPA_W@?$__crt_char_traits@_W@@SAH$$QAPA_WABIAAPA_W@Z 10051624 f i libucrt:environment_initialization.obj
 0001:00050642       ??$tcslen@AAPAD@?$__crt_char_traits@D@@SAIAAPAD@Z 10051642 f i libucrt:environment_initialization.obj
 0001:0005065a       ??$tcslen@AAPA_W@?$__crt_char_traits@_W@@SAIAAPA_W@Z 1005165a f i libucrt:environment_initialization.obj
 0001:00050678       ??$uninitialize@A6AXAAPAPAD@_E@?$dual_state_global@PAPAD@__crt_state_management@@QAEXA6AXAAPAPAD@_E@Z 10051678 f i libucrt:environment_initialization.obj
 0001:000506d0       ??$uninitialize@A6AXAAPAPA_W@_E@?$dual_state_global@PAPA_W@__crt_state_management@@QAEXA6AXAAPAPA_W@_E@Z 100516d0 f i libucrt:environment_initialization.obj
 0001:0005075e       ??0?$__crt_unique_heap_ptr@_WU__crt_internal_free_policy@@@@QAE@QA_W@Z 1005175e f i libucrt:environment_initialization.obj
 0001:0005076e       ??1?$__crt_unique_heap_ptr@_WU__crt_internal_free_policy@@@@QAE@XZ 1005176e f i libucrt:environment_initialization.obj
 0001:00050780       ??B?$__crt_unique_heap_ptr@PADU__crt_internal_free_policy@@@@QBE_NXZ 10051780 f i libucrt:environment_initialization.obj
 0001:00050787       ??B?$__crt_unique_heap_ptr@PA_WU__crt_internal_free_policy@@@@QBE_NXZ 10051787 f i libucrt:environment_initialization.obj
 0001:0005078e       ??B?$__crt_unique_heap_ptr@_WU__crt_internal_free_policy@@@@QBE_NXZ 1005178e f i libucrt:environment_initialization.obj
 0001:00050795       ?__crt_compute_required_transform_buffer_count@@YAIIQBD@Z 10051795 f i libucrt:environment_initialization.obj
 0001:000507b1       ?__crt_compute_required_transform_buffer_count@@YAIIQB_W@Z 100517b1 f i libucrt:environment_initialization.obj
 0001:000507cf       ?__crt_transform_string@@YAIIQBDQA_WI@Z 100517cf f i libucrt:environment_initialization.obj
 0001:000507ee       ?__crt_transform_string@@YAIIQB_WQADI@Z 100517ee f i libucrt:environment_initialization.obj
 0001:00050810       ?detach@?$__crt_unique_heap_ptr@DU__crt_internal_free_policy@@@@QAEPADXZ 10051810 f i libucrt:environment_initialization.obj
 0001:00050816       ?detach@?$__crt_unique_heap_ptr@_WU__crt_internal_free_policy@@@@QAEPA_WXZ 10051816 f i libucrt:environment_initialization.obj
 0001:0005081c       ?get@?$__crt_unique_heap_ptr@_WU__crt_internal_free_policy@@@@QBEPA_WXZ 1005181c f i libucrt:environment_initialization.obj
 0001:0005081f       ?get_current_state_index@__crt_state_management@@YAIXZ 1005181f f i libucrt:environment_initialization.obj
 0001:00050846       ?initialize@?$dual_state_global@PAPAD@__crt_state_management@@QAEXQAPAD@Z 10051846 f i libucrt:environment_initialization.obj
 0001:00050862       ?initialize@?$dual_state_global@PAPA_W@__crt_state_management@@QAEXQAPA_W@Z 10051862 f i libucrt:environment_initialization.obj
 0001:0005087e       ?is_valid@?$__crt_unique_heap_ptr@PADU__crt_internal_free_policy@@@@QBE_NXZ 1005187e f i libucrt:environment_initialization.obj
 0001:00050885       ?is_valid@?$__crt_unique_heap_ptr@PA_WU__crt_internal_free_policy@@@@QBE_NXZ 10051885 f i libucrt:environment_initialization.obj
 0001:0005088c       ?is_valid@?$__crt_unique_heap_ptr@_WU__crt_internal_free_policy@@@@QBE_NXZ 1005188c f i libucrt:environment_initialization.obj
 0001:0005089b       ?release@?$__crt_unique_heap_ptr@_WU__crt_internal_free_policy@@@@QAEXXZ 1005189b f i libucrt:environment_initialization.obj
 0001:000508ad       ?value@?$dual_state_global@PAPAD@__crt_state_management@@QAEAAPAPADXZ 100518ad f i libucrt:environment_initialization.obj
 0001:000508b0       ?value@?$dual_state_global@PAPA_W@__crt_state_management@@QAEAAPAPA_WXZ 100518b0 f i libucrt:environment_initialization.obj
 0001:000508b3       ___dcrt_get_or_create_narrow_environment_nolock 100518b3 f   libucrt:environment_initialization.obj
 0001:000508b8       ___dcrt_get_or_create_wide_environment_nolock 100518b8 f   libucrt:environment_initialization.obj
 0001:000508bd       ___dcrt_uninitialize_environments_nolock 100518bd f   libucrt:environment_initialization.obj
 0001:0005090e       ___p__environ              1005190e f   libucrt:environment_initialization.obj
 0001:00050914       ___p__wenviron             10051914 f   libucrt:environment_initialization.obj
 0001:0005091a       __get_initial_narrow_environment 1005191a f   libucrt:environment_initialization.obj
 0001:0005092e       __get_initial_wide_environment 1005192e f   libucrt:environment_initialization.obj
 0001:00050942       __initialize_narrow_environment 10051942 f   libucrt:environment_initialization.obj
 0001:00050947       __initialize_wide_environment 10051947 f   libucrt:environment_initialization.obj
 0001:0005094c       __invoke_watson_if_error   1005194c f i libucrt:environment_initialization.obj
 0001:0005096e       ??$?B$$A6AXXZ@__crt_fast_encoded_nullptr_t@@QBEP6AXXZXZ 1005196e f i libucrt:onexit.obj
 0001:00050974       ??$?BP6AXXZ@__crt_fast_encoded_nullptr_t@@QBEPAP6AXXZXZ 10051974 f i libucrt:onexit.obj
 0001:0005097a       ??$?RP6AXXZ@__crt_internal_free_policy@@QBEXQBQ6AXXZ@Z 1005197a f i libucrt:onexit.obj
 0001:00050abd       ??$__crt_fast_decode_pointer@P6AXXZ@@YAP6AXXZQ6AXXZ@Z 10051abd f i libucrt:onexit.obj
 0001:00050ad8       ??$__crt_fast_decode_pointer@PAP6AXXZ@@YAPAP6AXXZQAP6AXXZ@Z 10051ad8 f i libucrt:onexit.obj
 0001:00050af3       ??$__crt_fast_encode_pointer@P6AHXZ@@YAP6AHXZQ6AHXZ@Z 10051af3 f i libucrt:onexit.obj
 0001:00050b12       ??$__crt_fast_encode_pointer@P6AXXZ@@YAP6AXXZQ6AXXZ@Z 10051b12 f i libucrt:onexit.obj
 0001:00050b31       ??$__crt_fast_encode_pointer@PAP6AXXZ@@YAPAP6AXXZQAP6AXXZ@Z 10051b31 f i libucrt:onexit.obj
 0001:00050bbe       ??0?$__crt_unique_heap_ptr@P6AXXZU__crt_internal_free_policy@@@@QAE@QAP6AXXZ@Z 10051bbe f i libucrt:onexit.obj
 0001:00050bce       ??1?$__crt_unique_heap_ptr@P6AXXZU__crt_internal_free_policy@@@@QAE@XZ 10051bce f i libucrt:onexit.obj
 0001:00050be0       ??1scoped_global_state_reset@__crt_state_management@@QAE@XZ 10051be0 f i libucrt:onexit.obj
 0001:00050de3       ?detach@?$__crt_unique_heap_ptr@P6AXXZU__crt_internal_free_policy@@@@QAEPAP6AXXZXZ 10051de3 f i libucrt:onexit.obj
 0001:00050de9       ?release@?$__crt_unique_heap_ptr@P6AXXZU__crt_internal_free_policy@@@@QAEXXZ 10051de9 f i libucrt:onexit.obj
 0001:00050dfb       __crt_at_quick_exit        10051dfb f   libucrt:onexit.obj
 0001:00050e11       __crt_atexit               10051e11 f   libucrt:onexit.obj
 0001:00050e27       __execute_onexit_table     10051e27 f   libucrt:onexit.obj
 0001:00050e65       __initialize_onexit_table  10051e65 f   libucrt:onexit.obj
 0001:00050e8e       __register_onexit_function 10051e8e f   libucrt:onexit.obj
 0001:00050f9d       ??$?BX@__crt_fast_encoded_nullptr_t@@QBEPAXXZ 10051f9d f i libucrt:initialization.obj
 0001:00050fa3       ??$__crt_fast_encode_pointer@PAX@@YAPAXQAX@Z 10051fa3 f i libucrt:initialization.obj
 0001:00051014       ?__acrt_stdio_is_initialized@@YA_NXZ 10052014 f i libucrt:initialization.obj
 0001:0005101f       ?initialize@?$dual_state_global@PAU__crt_locale_data@@@__crt_state_management@@QAEXQAU__crt_locale_data@@@Z 1005201f f i libucrt:initialization.obj
 0001:0005103b       ___acrt_initialize         1005203b f   libucrt:initialization.obj
 0001:0005104d       ___acrt_thread_attach      1005204d f   libucrt:initialization.obj
 0001:00051058       ___acrt_thread_detach      10052058 f   libucrt:initialization.obj
 0001:00051060       ___acrt_uninitialize       10052060 f   libucrt:initialization.obj
 0001:00051090       ___acrt_uninitialize_critical 10052090 f   libucrt:initialization.obj
 0001:000510b8       __get_terminate            100520b8 f   libucrt:terminate.obj
 0001:000510ca       _set_terminate             100520ca f   libucrt:terminate.obj
 0001:000510ea       _terminate                 100520ea f   libucrt:terminate.obj
 0001:00051126       __initterm                 10052126 f   libucrt:initterm.obj
 0001:00051151       __initterm_e               10052151 f   libucrt:initterm.obj
 0001:0005117f       ___ascii_stricmp           1005217f f   libucrt:stricmp.obj
 0001:000511b8       __stricmp                  100521b8 f   libucrt:stricmp.obj
 0001:000511b8       _stricmp                   100521b8 f   libucrt:stricmp.obj
 0001:00051201       __stricmp_l                10052201 f   libucrt:stricmp.obj
 0001:00051291       ??0?$__crt_scoped_stack_ptr@D@@QAE@U?$__crt_scoped_stack_ptr_tag@D@@@Z 10052291 f i libucrt:strupr.obj
 0001:000512a1       ??0?$__crt_scoped_stack_ptr_tag@D@@QAE@QAD@Z 100522a1 f i libucrt:strupr.obj
 0001:000512b1       ??1?$__crt_scoped_stack_ptr@D@@QAE@XZ 100522b1 f i libucrt:strupr.obj
 0001:000512ba       ??B?$__crt_scoped_stack_ptr@D@@QBE_NXZ 100522ba f i libucrt:strupr.obj
 0001:00051437       ?get@?$__crt_scoped_stack_ptr@D@@QBEPADXZ 10052437 f i libucrt:strupr.obj
 0001:0005143a       __MallocaComputeSize       1005243a f i libucrt:strupr.obj
 0001:0005144d       __MarkAllocaS              1005244d f i libucrt:strupr.obj
 0001:00051463       __freea_crt                10052463 f i libucrt:strupr.obj
 0001:00051483       __strupr                   10052483 f   libucrt:strupr.obj
 0001:00051483       _strupr                    10052483 f   libucrt:strupr.obj
 0001:000514df       __strupr_l                 100524df f   libucrt:strupr.obj
 0001:000514f9       __strupr_s                 100524f9 f   libucrt:strupr.obj
 0001:00051510       __strupr_s_l               10052510 f   libucrt:strupr.obj
 0001:00051547       __set_abort_behavior       10052547 f   libucrt:abort.obj
 0001:00051568       _abort                     10052568 f   libucrt:abort.obj
 0001:000515ac       _free                      100525ac f   libucrt:free.obj
 0001:000515c7       _malloc                    100525c7 f   libucrt:malloc.obj
 0001:000515d2       _calloc                    100525d2 f   libucrt:calloc.obj
 0001:000515e0       _strncmp                   100525e0 f   libucrt:strncmp.obj
 0001:00051658       _wcsncmp                   10052658 f   libucrt:wcsncmp.obj
 0001:00051692       ??$__crt_fast_decode_pointer@P6AXPB_W00II@Z@@YAP6AXPB_W00II@ZQ6AX000II@Z@Z 10052692 f i libucrt:invalid_parameter.obj
 0001:000516ad       ??$__crt_fast_encode_pointer@P6AXPB_W00II@Z@@YAP6AXPB_W00II@ZQ6AX000II@Z@Z 100526ad f i libucrt:invalid_parameter.obj
 0001:000516cc       ??$initialize_from_array@$$BY00Q6AXPB_W00II@Z@?$dual_state_global@P6AXPB_W00II@Z@__crt_state_management@@QAAXAAY00Q6AXPB_W00II@Z@Z 100526cc f i libucrt:invalid_parameter.obj
 0001:000516dd       ?check_synchronize_global_state_index@__crt_cached_ptd_host@@AAEIXZ 100526dd f i libucrt:invalid_parameter.obj
 0001:00051706       ?dangerous_get_state_array@?$dual_state_global@P6AXPB_W00II@Z@__crt_state_management@@QAEPAP6AXPB_W00II@ZXZ 10052706 f i libucrt:invalid_parameter.obj
 0001:00051709       ?get_current_global_state_index@__crt_cached_ptd_host@@QAEIXZ 10052709 f i libucrt:invalid_parameter.obj
 0001:0005170e       ?get_raw_ptd_noexit@__crt_cached_ptd_host@@QAEPAU__acrt_ptd@@XZ 1005270e f i libucrt:invalid_parameter.obj
 0001:00051719       ?try_synchronize_per_thread_data@__crt_cached_ptd_host@@AAEPAU__acrt_ptd@@XZ 10052719 f i libucrt:invalid_parameter.obj
 0001:00051724       ?value@?$dual_state_global@P6AXPB_W00II@Z@__crt_state_management@@QAEAAP6AXPB_W00II@ZAAV__crt_cached_ptd_host@@@Z 10052724 f i libucrt:invalid_parameter.obj
 0001:0005173c       ?value@?$dual_state_global@P6AXPB_W00II@Z@__crt_state_management@@QAEAAP6AXPB_W00II@ZXZ 1005273c f i libucrt:invalid_parameter.obj
 0001:0005173f       ___acrt_call_reportfault   1005273f f   libucrt:invalid_parameter.obj
 0001:00051878       ___acrt_initialize_invalid_parameter_handler 10052878 f   libucrt:invalid_parameter.obj
 0001:00051887       __get_invalid_parameter_handler 10052887 f   libucrt:invalid_parameter.obj
 0001:0005189e       __get_thread_local_invalid_parameter_handler 1005289e f   libucrt:invalid_parameter.obj
 0001:000518af       __invalid_parameter        100528af f   libucrt:invalid_parameter.obj
 0001:000518e6       __invalid_parameter_internal 100528e6 f   libucrt:invalid_parameter.obj
 0001:00051963       __invalid_parameter_noinfo 10052963 f   libucrt:invalid_parameter.obj
 0001:00051973       __invalid_parameter_noinfo_noreturn 10052973 f   libucrt:invalid_parameter.obj
 0001:00051990       __invoke_watson            10052990 f   libucrt:invalid_parameter.obj
 0001:000519c4       __set_invalid_parameter_handler 100529c4 f   libucrt:invalid_parameter.obj
 0001:000519f4       __set_thread_local_invalid_parameter_handler 100529f4 f   libucrt:invalid_parameter.obj
 0001:00051d69       ??$tsopen_nolock@PAHABQAHABQBDABHABHABHABH@?$__crt_char_traits@D@@SAH$$QAPAHABQAHABQBDABH333@Z 10052d69 f i libucrt:open.obj
 0001:00051d9b       ??$tsopen_nolock@PAHABQAHABQB_WABHABHABHABH@?$__crt_char_traits@_W@@SAH$$QAPAHABQAHABQB_WABH333@Z 10052d9b f i libucrt:open.obj
 0001:00051dcd       ??$tsopen_nolock@PAHPAHABQBDABHHABHH@?$__crt_char_traits@D@@SAH$$QAPAH0ABQBDABH$$QAH23@Z 10052dcd f i libucrt:open.obj
 0001:00051dff       ??$tsopen_nolock@PAHPAHABQB_WABHHABHH@?$__crt_char_traits@_W@@SAH$$QAPAH0ABQB_WABH$$QAH23@Z 10052dff f i libucrt:open.obj
 0001:00052439       __open                     10053439 f   libucrt:open.obj
 0001:00052451       __sopen                    10053451 f   libucrt:open.obj
 0001:00052484       __sopen_dispatch           10053484 f   libucrt:open.obj
 0001:0005248f       __sopen_nolock             1005348f f   libucrt:open.obj
 0001:000524fd       __sopen_s                  100534fd f   libucrt:open.obj
 0001:0005251d       __wopen                    1005351d f   libucrt:open.obj
 0001:00052535       __wsopen                   10053535 f   libucrt:open.obj
 0001:00052568       __wsopen_dispatch          10053568 f   libucrt:open.obj
 0001:00052573       __wsopen_nolock            10053573 f   libucrt:open.obj
 0001:0005289d       __wsopen_s                 1005389d f   libucrt:open.obj
 0001:00052a6a       ?get_doserrno@__crt_cached_ptd_host@@QAE@XZ 10053a6a f i libucrt:close.obj
 0001:00052a6e       ?set@?$cached@K@__crt_cached_ptd_host@@QAEKK@Z 10053a6e f i libucrt:close.obj
 0001:00052a80       __close                    10053a80 f   libucrt:close.obj
 0001:00052ab0       __close_internal           10053ab0 f   libucrt:close.obj
 0001:00052b53       __close_nolock             10053b53 f   libucrt:close.obj
 0001:00052b83       __close_nolock_internal    10053b83 f   libucrt:close.obj
 0001:00052c23       ??$?RU__crt_lowio_handle_data@@@__crt_internal_free_policy@@QBEXQBU__crt_lowio_handle_data@@@Z 10053c23 f i libucrt:osfinfo.obj
 0001:00052c35       ??0?$__crt_unique_heap_ptr@U__crt_lowio_handle_data@@U__crt_internal_free_policy@@@@QAE@QAU__crt_lowio_handle_data@@@Z 10053c35 f i libucrt:osfinfo.obj
 0001:00052c45       ??1?$__crt_unique_heap_ptr@U__crt_lowio_handle_data@@U__crt_internal_free_policy@@@@QAE@XZ 10053c45 f i libucrt:osfinfo.obj
 0001:00052c57       ??B?$__crt_unique_heap_ptr@U__crt_lowio_handle_data@@U__crt_internal_free_policy@@@@QBE_NXZ 10053c57 f i libucrt:osfinfo.obj
 0001:00052c5e       ?detach@?$__crt_unique_heap_ptr@U__crt_lowio_handle_data@@U__crt_internal_free_policy@@@@QAEPAU__crt_lowio_handle_data@@XZ 10053c5e f i libucrt:osfinfo.obj
 0001:00052c64       ?get@?$__crt_unique_heap_ptr@U__crt_lowio_handle_data@@U__crt_internal_free_policy@@@@QBEPAU__crt_lowio_handle_data@@XZ 10053c64 f i libucrt:osfinfo.obj
 0001:00052c67       ?is_valid@?$__crt_unique_heap_ptr@U__crt_lowio_handle_data@@U__crt_internal_free_policy@@@@QBE_NXZ 10053c67 f i libucrt:osfinfo.obj
 0001:00052c6e       ?release@?$__crt_unique_heap_ptr@U__crt_lowio_handle_data@@U__crt_internal_free_policy@@@@QAEXXZ 10053c6e f i libucrt:osfinfo.obj
 0001:00052c80       ___acrt_lowio_create_handle_array 10053c80 f   libucrt:osfinfo.obj
 0001:00052cfb       ___acrt_lowio_destroy_handle_array 10053cfb f   libucrt:osfinfo.obj
 0001:00052d30       ___acrt_lowio_ensure_fh_exists 10053d30 f   libucrt:osfinfo.obj
 0001:00052dce       ___acrt_lowio_lock_fh      10053dce f   libucrt:osfinfo.obj
 0001:00052df1       ___acrt_lowio_set_os_handle 10053df1 f   libucrt:osfinfo.obj
 0001:00052e83       ___acrt_lowio_unlock_fh    10053e83 f   libucrt:osfinfo.obj
 0001:00052ea6       __alloc_osfhnd             10053ea6 f   libucrt:osfinfo.obj
 0001:00052fb9       __free_osfhnd              10053fb9 f   libucrt:osfinfo.obj
 0001:0005304a       __get_osfhandle            1005404a f   libucrt:osfinfo.obj
 0001:000530b4       __open_osfhandle           100540b4 f   libucrt:osfinfo.obj
 0001:000531e4       ___acrt_errno_from_os_error 100541e4 f   libucrt:errno.obj
 0001:00053227       ___acrt_errno_map_os_error 10054227 f   libucrt:errno.obj
 0001:0005324a       ___acrt_errno_map_os_error_ptd 1005424a f   libucrt:errno.obj
 0001:0005326e       ___doserrno                1005426e f   libucrt:errno.obj
 0001:00053281       __errno                    10054281 f   libucrt:errno.obj
 0001:00053294       __get_doserrno             10054294 f   libucrt:errno.obj
 0001:000532b9       __get_errno                100542b9 f   libucrt:errno.obj
 0001:000532de       __set_doserrno             100542de f   libucrt:errno.obj
 0001:000532ff       __set_errno                100542ff f   libucrt:errno.obj
 0001:0005381c       ??$gmtime_s@ABQAUtm@@ABQBJ@?$__crt_integer_traits@J@@SAHABQAUtm@@ABQBJ@Z 1005481c f i libucrt:localtime.obj
 0001:00053834       ??$gmtime_s@ABQAUtm@@ABQB_J@?$__crt_integer_traits@_J@@SAHABQAUtm@@ABQB_J@Z 10054834 f i libucrt:localtime.obj
 0001:0005384c       ??$gmtime_s@ABQAUtm@@PAJ@?$__crt_integer_traits@J@@SAHABQAUtm@@$$QAPAJ@Z 1005484c f i libucrt:localtime.obj
 0001:00053864       ??$gmtime_s@ABQAUtm@@PA_J@?$__crt_integer_traits@_J@@SAHABQAUtm@@$$QAPA_J@Z 10054864 f i libucrt:localtime.obj
 0001:0005387c       ??$localtime_s@ABQAUtm@@ABQBJ@?$__crt_integer_traits@J@@SAHABQAUtm@@ABQBJ@Z 1005487c f i libucrt:localtime.obj
 0001:00053895       ??$localtime_s@ABQAUtm@@ABQB_J@?$__crt_integer_traits@_J@@SAHABQAUtm@@ABQB_J@Z 10054895 f i libucrt:localtime.obj
 0001:000538ae       __localtime32              100548ae f   libucrt:localtime.obj
 0001:000538d5       __localtime32_s            100548d5 f   libucrt:localtime.obj
 0001:000538e0       __localtime64              100548e0 f   libucrt:localtime.obj
 0001:00053907       __localtime64_s            10054907 f   libucrt:localtime.obj
 0001:00053c21       __time32                   10054c21 f   libucrt:time.obj
 0001:00053c80       __time64                   10054c80 f   libucrt:time.obj
 0001:00053ce8       __timespec32_get           10054ce8 f   libucrt:time.obj
 0001:00053cf3       __timespec64_get           10054cf3 f   libucrt:time.obj
 0001:00053e86       ___acrt_initialize_lowio   10054e86 f   libucrt:ioinit.obj
 0001:00053ee6       ___acrt_uninitialize_lowio 10054ee6 f   libucrt:ioinit.obj
 0001:00053f12       ___pctype_func             10054f12 f   libucrt:ctype.obj
 0001:00053f36       ___pwctype_func            10054f36 f   libucrt:ctype.obj
 0001:00053f3c       __iswctype_l               10054f3c f   libucrt:iswctype.obj
 0001:00053f50       _iswctype                  10054f50 f   libucrt:iswctype.obj
 0001:00053fb9       __isctype                  10054fb9 f   libucrt:isctype.obj
 0001:00053fec       __isctype_l                10054fec f   libucrt:isctype.obj
 0001:000540b7       __isleadbyte_fast_internal 100550b7 f i libucrt:isctype.obj
 0001:000540d5       ?value@?$dual_state_global@PAU__crt_locale_data@@@__crt_state_management@@QAEAAPAU__crt_locale_data@@XZ 100550d5 f i libucrt:locale_update.obj
 0001:000540d8       ?value@?$dual_state_global@PAU__crt_multibyte_data@@@__crt_state_management@@QAEAAPAU__crt_multibyte_data@@XZ 100550d8 f i libucrt:locale_update.obj
 0001:000540db       ?value_explicit@?$dual_state_global@PAU__crt_locale_data@@@__crt_state_management@@QAEAAPAU__crt_locale_data@@I@Z 100550db f i libucrt:locale_update.obj
 0001:000540ea       ?value_explicit@?$dual_state_global@PAU__crt_multibyte_data@@@__crt_state_management@@QAEAAPAU__crt_multibyte_data@@I@Z 100550ea f i libucrt:locale_update.obj
 0001:000540f9       ___acrt_should_sync_with_global_locale 100550f9 f i libucrt:locale_update.obj
 0001:00054115       ___acrt_update_locale_info 10055115 f   libucrt:locale_update.obj
 0001:00054142       ___acrt_update_locale_info_explicit 10055142 f   libucrt:locale_update.obj
 0001:00054173       ___acrt_update_multibyte_info 10055173 f   libucrt:locale_update.obj
 0001:000541a0       ___acrt_update_multibyte_info_explicit 100551a0 f   libucrt:locale_update.obj
 0001:000541d1       ??$?RU__acrt_ptd@@@__crt_internal_free_policy@@QBEXQBU__acrt_ptd@@@Z 100551d1 f i libucrt:per_thread_data.obj
 0001:000544bd       ??0?$__crt_unique_heap_ptr@U__acrt_ptd@@U__crt_internal_free_policy@@@@QAE@QAU__acrt_ptd@@@Z 100554bd f i libucrt:per_thread_data.obj
 0001:000544cd       ??1?$__crt_unique_heap_ptr@U__acrt_ptd@@U__crt_internal_free_policy@@@@QAE@XZ 100554cd f i libucrt:per_thread_data.obj
 0001:000544df       ??B?$__crt_unique_heap_ptr@U__acrt_ptd@@U__crt_internal_free_policy@@@@QBE_NXZ 100554df f i libucrt:per_thread_data.obj
 0001:0005462d       ?dangerous_get_state_array@?$dual_state_global@PAU__crt_locale_data@@@__crt_state_management@@QAEPAPAU__crt_locale_data@@XZ 1005562d f i libucrt:per_thread_data.obj
 0001:00054723       ?detach@?$__crt_unique_heap_ptr@U__acrt_ptd@@U__crt_internal_free_policy@@@@QAEPAU__acrt_ptd@@XZ 10055723 f i libucrt:per_thread_data.obj
 0001:00054729       ?get@?$__crt_unique_heap_ptr@U__acrt_ptd@@U__crt_internal_free_policy@@@@QBEPAU__acrt_ptd@@XZ 10055729 f i libucrt:per_thread_data.obj
 0001:0005490e       ?is_valid@?$__crt_unique_heap_ptr@U__acrt_ptd@@U__crt_internal_free_policy@@@@QBE_NXZ 1005590e f i libucrt:per_thread_data.obj
 0001:00054915       ?release@?$__crt_unique_heap_ptr@U__acrt_ptd@@U__crt_internal_free_policy@@@@QAEXXZ 10055915 f i libucrt:per_thread_data.obj
 0001:00054986       ___acrt_freeptd            10055986 f   libucrt:per_thread_data.obj
 0001:000549b2       ___acrt_getptd             100559b2 f   libucrt:per_thread_data.obj
 0001:00054a6d       ___acrt_getptd_head        10055a6d f   libucrt:per_thread_data.obj
 0001:00054b03       ___acrt_getptd_noexit      10055b03 f   libucrt:per_thread_data.obj
 0001:00054bb4       ___acrt_getptd_noexit_explicit 10055bb4 f   libucrt:per_thread_data.obj
 0001:00054c57       ___acrt_initialize_ptd     10055c57 f   libucrt:per_thread_data.obj
 0001:00054c83       ___acrt_uninitialize_ptd   10055c83 f   libucrt:per_thread_data.obj
 0001:00054c9d       ___threadhandle            10055c9d f   libucrt:per_thread_data.obj
 0001:00054ca3       ___threadid                10055ca3 f   libucrt:per_thread_data.obj
 0001:00054cac       ??$?RU__crt_locale_data@@@__crt_internal_free_policy@@QBEXQBU__crt_locale_data@@@Z 10055cac f i libucrt:wsetlocale.obj
 0001:00054cbe       ??$?RU__crt_locale_pointers@@@__crt_internal_free_policy@@QBEXQBU__crt_locale_pointers@@@Z 10055cbe f i libucrt:wsetlocale.obj
 0001:00054cd0       ??$?RU__crt_multibyte_data@@@__crt_internal_free_policy@@QBEXQBU__crt_multibyte_data@@@Z 10055cd0 f i libucrt:wsetlocale.obj
 0001:00055079       ??0?$__crt_unique_heap_ptr@U__crt_locale_data@@U__crt_internal_free_policy@@@@QAE@QAU__crt_locale_data@@@Z 10056079 f i libucrt:wsetlocale.obj
 0001:00055089       ??0?$__crt_unique_heap_ptr@U__crt_locale_pointers@@U__crt_internal_free_policy@@@@QAE@QAU__crt_locale_pointers@@@Z 10056089 f i libucrt:wsetlocale.obj
 0001:00055099       ??0?$__crt_unique_heap_ptr@U__crt_multibyte_data@@U__crt_internal_free_policy@@@@QAE@QAU__crt_multibyte_data@@@Z 10056099 f i libucrt:wsetlocale.obj
 0001:000550a9       ??0_expandlocale_locale_name_cache@@QAE@QA_WIQAU__crt_qualified_locale_data@@@Z 100560a9 f i libucrt:wsetlocale.obj
 0001:000550f3       ??1?$__crt_unique_heap_ptr@U__crt_locale_data@@U__crt_internal_free_policy@@@@QAE@XZ 100560f3 f i libucrt:wsetlocale.obj
 0001:00055105       ??1?$__crt_unique_heap_ptr@U__crt_locale_pointers@@U__crt_internal_free_policy@@@@QAE@XZ 10056105 f i libucrt:wsetlocale.obj
 0001:00055117       ??1?$__crt_unique_heap_ptr@U__crt_multibyte_data@@U__crt_internal_free_policy@@@@QAE@XZ 10056117 f i libucrt:wsetlocale.obj
 0001:00055129       ??1_expandlocale_locale_name_cache@@QAE@XZ 10056129 f i libucrt:wsetlocale.obj
 0001:00055159       ??B?$__crt_unique_heap_ptr@U__crt_locale_data@@U__crt_internal_free_policy@@@@QBE_NXZ 10056159 f i libucrt:wsetlocale.obj
 0001:00055160       ??B?$__crt_unique_heap_ptr@U__crt_locale_pointers@@U__crt_internal_free_policy@@@@QBE_NXZ 10056160 f i libucrt:wsetlocale.obj
 0001:00055167       ??B?$__crt_unique_heap_ptr@U__crt_multibyte_data@@U__crt_internal_free_policy@@@@QBE_NXZ 10056167 f i libucrt:wsetlocale.obj
 0001:00055387       ?commit_locale_name@_expandlocale_locale_name_cache@@QAEXQB_WI@Z 10056387 f i libucrt:wsetlocale.obj
 0001:000553cb       ?commit_locale_name_cache_already_updated@_expandlocale_locale_name_cache@@QAEXQB_WI@Z 100563cb f i libucrt:wsetlocale.obj
 0001:00055400       ?detach@?$__crt_unique_heap_ptr@U__crt_locale_data@@U__crt_internal_free_policy@@@@QAEPAU__crt_locale_data@@XZ 10056400 f i libucrt:wsetlocale.obj
 0001:00055406       ?detach@?$__crt_unique_heap_ptr@U__crt_locale_pointers@@U__crt_internal_free_policy@@@@QAEPAU__crt_locale_pointers@@XZ 10056406 f i libucrt:wsetlocale.obj
 0001:0005540c       ?detach@?$__crt_unique_heap_ptr@U__crt_multibyte_data@@U__crt_internal_free_policy@@@@QAEPAU__crt_multibyte_data@@XZ 1005640c f i libucrt:wsetlocale.obj
 0001:00055412       ?get@?$__crt_unique_heap_ptr@U__crt_locale_data@@U__crt_internal_free_policy@@@@QBEPAU__crt_locale_data@@XZ 10056412 f i libucrt:wsetlocale.obj
 0001:00055415       ?get@?$__crt_unique_heap_ptr@U__crt_locale_pointers@@U__crt_internal_free_policy@@@@QBEPAU__crt_locale_pointers@@XZ 10056415 f i libucrt:wsetlocale.obj
 0001:00055418       ?get@?$__crt_unique_heap_ptr@U__crt_multibyte_data@@U__crt_internal_free_policy@@@@QBEPAU__crt_multibyte_data@@XZ 10056418 f i libucrt:wsetlocale.obj
 0001:0005541b       ?is_valid@?$__crt_unique_heap_ptr@U__crt_locale_data@@U__crt_internal_free_policy@@@@QBE_NXZ 1005641b f i libucrt:wsetlocale.obj
 0001:00055422       ?is_valid@?$__crt_unique_heap_ptr@U__crt_locale_pointers@@U__crt_internal_free_policy@@@@QBE_NXZ 10056422 f i libucrt:wsetlocale.obj
 0001:00055429       ?is_valid@?$__crt_unique_heap_ptr@U__crt_multibyte_data@@U__crt_internal_free_policy@@@@QBE_NXZ 10056429 f i libucrt:wsetlocale.obj
 0001:00055430       ?release@?$__crt_unique_heap_ptr@U__crt_locale_data@@U__crt_internal_free_policy@@@@QAEXXZ 10056430 f i libucrt:wsetlocale.obj
 0001:00055442       ?release@?$__crt_unique_heap_ptr@U__crt_locale_pointers@@U__crt_internal_free_policy@@@@QAEXXZ 10056442 f i libucrt:wsetlocale.obj
 0001:00055454       ?release@?$__crt_unique_heap_ptr@U__crt_multibyte_data@@U__crt_internal_free_policy@@@@QAEXXZ 10056454 f i libucrt:wsetlocale.obj
 0001:00055466       ___acrt_copy_locale_name   10056466 f   libucrt:wsetlocale.obj
 0001:000554c6       ___acrt_set_locale_changed 100564c6 f   libucrt:wsetlocale.obj
 0001:000554d1       ___acrt_uninitialize_locale 100564d1 f   libucrt:wsetlocale.obj
 0001:000554f8       ___lc_lctowcs              100564f8 f   libucrt:wsetlocale.obj
 0001:00055568       ___lc_wcstolc              10056568 f   libucrt:wsetlocale.obj
 0001:000556a5       __configthreadlocale       100566a5 f   libucrt:wsetlocale.obj
 0001:00055736       __create_locale            10056736 f   libucrt:wsetlocale.obj
 0001:00055b60       __free_locale              10056b60 f   libucrt:wsetlocale.obj
 0001:00055c22       __get_current_locale       10056c22 f   libucrt:wsetlocale.obj
 0001:00055cbd       __wcreate_locale           10056cbd f   libucrt:wsetlocale.obj
 0001:00055dc4       __wcscats                  10056dc4 f   libucrt:wsetlocale.obj
 0001:00055e05       __wsetlocale               10056e05 f   libucrt:wsetlocale.obj
 0001:00056b83       ___p___mb_cur_max          10057b83 f   libucrt:nlsdata.obj
 0001:00056bae       __free_base                10057bae f   libucrt:free_base.obj
 0001:00056be8       ?lowio_handle@__crt_stdio_stream@@QBEHXZ 10057be8 f i libucrt:fileno.obj
 0001:00056bef       __fileno                   10057bef f   libucrt:fileno.obj
 0001:00056c16       ??$?RPAU__crt_stdio_stream_data@@@__crt_internal_free_policy@@QBEXQBQAU__crt_stdio_stream_data@@@Z 10057c16 f i libucrt:_file.obj
 0001:00056c28       ??0?$__crt_unique_heap_ptr@PAU__crt_stdio_stream_data@@U__crt_internal_free_policy@@@@QAE@QAPAU__crt_stdio_stream_data@@@Z 10057c28 f i libucrt:_file.obj
 0001:00056c38       ??1?$__crt_unique_heap_ptr@PAU__crt_stdio_stream_data@@U__crt_internal_free_policy@@@@QAE@XZ 10057c38 f i libucrt:_file.obj
 0001:00056c4a       ?detach@?$__crt_unique_heap_ptr@PAU__crt_stdio_stream_data@@U__crt_internal_free_policy@@@@QAEPAPAU__crt_stdio_stream_data@@XZ 10057c4a f i libucrt:_file.obj
 0001:00056c50       ?release@?$__crt_unique_heap_ptr@PAU__crt_stdio_stream_data@@U__crt_internal_free_policy@@@@QAEXXZ 10057c50 f i libucrt:_file.obj
 0001:00056c62       ___acrt_initialize_stdio   10057c62 f   libucrt:_file.obj
 0001:00056d2a       ___acrt_iob_func           10057d2a f   libucrt:_file.obj
 0001:00056d3a       ___acrt_uninitialize_stdio 10057d3a f   libucrt:_file.obj
 0001:00056d86       __get_stream_buffer_pointers 10057d86 f   libucrt:_file.obj
 0001:00056dcc       __lock_file                10057dcc f   libucrt:_file.obj
 0001:00056de0       __unlock_file              10057de0 f   libucrt:_file.obj
 0001:00056df4       ??$?RU__crt_stdio_stream_data@@@__crt_internal_free_policy@@QBEXQBU__crt_stdio_stream_data@@@Z 10057df4 f i libucrt:stream.obj
 0001:00056e06       ??0?$__crt_unique_heap_ptr@U__crt_stdio_stream_data@@U__crt_internal_free_policy@@@@QAE@QAU__crt_stdio_stream_data@@@Z 10057e06 f i libucrt:stream.obj
 0001:00056e16       ??0__crt_stdio_stream@@QAE@QAU__crt_stdio_stream_data@@@Z 10057e16 f i libucrt:stream.obj
 0001:00056e26       ??0__crt_stdio_stream@@QAE@XZ 10057e26 f i libucrt:stream.obj
 0001:00056e2c       ??1?$__crt_unique_heap_ptr@U__crt_stdio_stream_data@@U__crt_internal_free_policy@@@@QAE@XZ 10057e2c f i libucrt:stream.obj
 0001:00056e3e       ?__acrt_stdio_allocate_stream@@YA?AV__crt_stdio_stream@@XZ 10057e3e f   libucrt:stream.obj
 0001:00056ea7       ?__acrt_stdio_free_stream@@YAXV__crt_stdio_stream@@@Z 10057ea7 f   libucrt:stream.obj
 0001:00056ee2       ?deallocate@__crt_stdio_stream@@QAEXXZ 10057ee2 f i libucrt:stream.obj
 0001:00056eec       ?detach@?$__crt_unique_heap_ptr@U__crt_stdio_stream_data@@U__crt_internal_free_policy@@@@QAEPAU__crt_stdio_stream_data@@XZ 10057eec f i libucrt:stream.obj
 0001:00056fb4       ?lock@__crt_stdio_stream@@QBEXXZ 10057fb4 f i libucrt:stream.obj
 0001:00056fbd       ?release@?$__crt_unique_heap_ptr@U__crt_stdio_stream_data@@U__crt_internal_free_policy@@@@QAEXXZ 10057fbd f i libucrt:stream.obj
 0001:00056fcf       ?try_allocate@__crt_stdio_stream@@QAE_NXZ 10057fcf f i libucrt:stream.obj
 0001:00056fef       ?has_crt_buffer@__crt_stdio_stream@@QBE_NXZ 10057fef f i libucrt:_freebuf.obj
 0001:00056ffb       ?unset_flags@__crt_stdio_stream@@QBE_NJ@Z 10057ffb f i libucrt:_freebuf.obj
 0001:00057024       ___acrt_stdio_free_buffer_nolock 10058024 f   libucrt:_freebuf.obj
 0001:00057424       ?__acrt_stdio_reset_buffer@@YAXV__crt_stdio_stream@@@Z 10058424 f i libucrt:fflush.obj
 0001:00057506       ?has_all_of@__crt_stdio_stream@@QBE_NJ@Z 10058506 f i libucrt:fflush.obj
 0001:0005756b       ___acrt_stdio_flush_nolock 1005856b f   libucrt:fflush.obj
 0001:000575d4       __fflush_nolock            100585d4 f   libucrt:fflush.obj
 0001:00057639       __flushall                 10058639 f   libucrt:fflush.obj
 0001:00057642       _fflush                    10058642 f   libucrt:fflush.obj
 0001:00057695       ??$__acrt_stdio_parse_mode@D@@YA?AU__acrt_stdio_stream_mode@@QBD@Z 10058695 f i libucrt:openfile.obj
 0001:000578bf       ??$__acrt_stdio_parse_mode@_W@@YA?AU__acrt_stdio_stream_mode@@QB_W@Z 100588bf f i libucrt:openfile.obj
 0001:00057c30       ??$tcsncmp@AAPBDAAY02$$CBDI@?$__crt_char_traits@D@@SAHAAPBDAAY02$$CBD$$QAI@Z 10058c30 f i libucrt:openfile.obj
 0001:00057c4c       ??$tcsncmp@AAPB_WAAY02$$CB_WI@?$__crt_char_traits@_W@@SAHAAPB_WAAY02$$CB_W$$QAI@Z 10058c4c f i libucrt:openfile.obj
 0001:00057c68       ??$tcsnicmp@AAPBDAAY04$$CBDI@?$__crt_char_traits@D@@SAHAAPBDAAY04$$CBD$$QAI@Z 10058c68 f i libucrt:openfile.obj
 0001:00057c84       ??$tcsnicmp@AAPBDAAY06$$CBDI@?$__crt_char_traits@D@@SAHAAPBDAAY06$$CBD$$QAI@Z 10058c84 f i libucrt:openfile.obj
 0001:00057ca0       ??$tcsnicmp@AAPBDAAY07$$CBDI@?$__crt_char_traits@D@@SAHAAPBDAAY07$$CBD$$QAI@Z 10058ca0 f i libucrt:openfile.obj
 0001:00057cbc       ??$tcsnicmp@AAPB_WAAY04$$CB_WI@?$__crt_char_traits@_W@@SAHAAPB_WAAY04$$CB_W$$QAI@Z 10058cbc f i libucrt:openfile.obj
 0001:00057cd8       ??$tcsnicmp@AAPB_WAAY06$$CB_WI@?$__crt_char_traits@_W@@SAHAAPB_WAAY06$$CB_W$$QAI@Z 10058cd8 f i libucrt:openfile.obj
 0001:00057cf4       ??$tcsnicmp@AAPB_WAAY07$$CB_WI@?$__crt_char_traits@_W@@SAHAAPB_WAAY07$$CB_W$$QAI@Z 10058cf4 f i libucrt:openfile.obj
 0001:00057d10       ??$tsopen_s@PAHABQBDABHABHH@?$__crt_char_traits@D@@SAH$$QAPAHABQBDABH2$$QAH@Z 10058d10 f i libucrt:openfile.obj
 0001:00057d38       ??$tsopen_s@PAHABQB_WABHABHH@?$__crt_char_traits@_W@@SAH$$QAPAHABQB_WABH2$$QAH@Z 10058d38 f i libucrt:openfile.obj
 0001:00057d60       ?__acrt_stdio_parse_mode_D@@YA_NAAU__acrt_stdio_stream_mode@@@Z 10058d60 f i libucrt:openfile.obj
 0001:00057d7b       ?__acrt_stdio_parse_mode_N@@YA_NAAU__acrt_stdio_stream_mode@@@Z 10058d7b f i libucrt:openfile.obj
 0001:00057d8d       ?__acrt_stdio_parse_mode_R@@YA_NAAU__acrt_stdio_stream_mode@@AA_N@Z 10058d8d f i libucrt:openfile.obj
 0001:00057dab       ?__acrt_stdio_parse_mode_S@@YA_NAAU__acrt_stdio_stream_mode@@AA_N@Z 10058dab f i libucrt:openfile.obj
 0001:00057dc9       ?__acrt_stdio_parse_mode_T@@YA_NAAU__acrt_stdio_stream_mode@@@Z 10058dc9 f i libucrt:openfile.obj
 0001:00057de8       ?__acrt_stdio_parse_mode_b@@YA_NAAU__acrt_stdio_stream_mode@@@Z 10058de8 f i libucrt:openfile.obj
 0001:00057e08       ?__acrt_stdio_parse_mode_c@@YA_NAAU__acrt_stdio_stream_mode@@AA_N@Z 10058e08 f i libucrt:openfile.obj
 0001:00057e2a       ?__acrt_stdio_parse_mode_n@@YA_NAAU__acrt_stdio_stream_mode@@AA_N@Z 10058e2a f i libucrt:openfile.obj
 0001:00057e4c       ?__acrt_stdio_parse_mode_plus@@YA_NAAU__acrt_stdio_stream_mode@@AA_N@Z 10058e4c f i libucrt:openfile.obj
 0001:00057e82       ?__acrt_stdio_parse_mode_t@@YA_NAAU__acrt_stdio_stream_mode@@@Z 10058e82 f i libucrt:openfile.obj
 0001:00057ea2       ?__acrt_stdio_parse_mode_x@@YA_NAAU__acrt_stdio_stream_mode@@@Z 10058ea2 f i libucrt:openfile.obj
 0001:00057ec2       __openfile                 10058ec2 f   libucrt:openfile.obj
 0001:00057ecd       __wopenfile                10058ecd f   libucrt:openfile.obj
 0001:000586c9       __utf8_no_of_trailbytes    100596c9 f i libucrt:write.obj
 0001:000586da       __write                    100596da f   libucrt:write.obj
 0001:00058711       __write_internal           10059711 f   libucrt:write.obj
 0001:00058822       __write_nolock             10059822 f   libucrt:write.obj
 0001:00058e59       ___acrt_stdio_flush_and_write_narrow_nolock 10059e59 f   libucrt:_flsbuf.obj
 0001:00058e64       ___acrt_stdio_flush_and_write_wide_nolock 10059e64 f   libucrt:_flsbuf.obj
 0001:00058e6f       ?has_temporary_buffer@__crt_stdio_stream@@QBE_NXZ 10059e6f f i libucrt:_sftbuf.obj
 0001:00058e7b       ___acrt_should_use_temporary_buffer 10059e7b f   libucrt:_sftbuf.obj
 0001:00058eb9       ___acrt_stdio_begin_temporary_buffering_nolock 10059eb9 f   libucrt:_sftbuf.obj
 0001:00058f64       ___acrt_stdio_end_temporary_buffering_nolock 10059f64 f   libucrt:_sftbuf.obj
 0001:00058fa2       __malloc_base              10059fa2 f   libucrt:malloc_base.obj
 0001:00059088       ___acrt_MultiByteToWideChar 1005a088 f   libucrt:multibytetowidechar.obj
 0001:000590bf       ??$?B$$A6GHPA_WKJ@Z@__crt_fast_encoded_nullptr_t@@QBEP6GHPA_WKJ@ZXZ 1005a0bf f i libucrt:winapi_thunks.obj
 0001:00059167       ??$__crt_fast_decode_pointer@P6GHPA_WKJ@Z@@YAP6GHPA_WKJ@ZQ6GH0KJ@Z@Z 1005a167 f i libucrt:winapi_thunks.obj
 0001:00059182       ??$__crt_fast_decode_pointer@PAX@@YAPAXQAX@Z 1005a182 f i libucrt:winapi_thunks.obj
 0001:0005919d       ??$__crt_fast_encode_pointer@P6GHPA_WKJ@Z@@YAP6GHPA_WKJ@ZQ6GH0KJ@Z@Z 1005a19d f i libucrt:winapi_thunks.obj
 0001:0005984d       _GetCurrentThreadEffectiveToken 1005a84d f i libucrt:winapi_thunks.obj
 0001:00059851       ___acrt_AppPolicyGetProcessTerminationMethodInternal@4 1005a851 f   libucrt:winapi_thunks.obj
 0001:00059891       ___acrt_AppPolicyGetShowDeveloperDiagnosticInternal@4 1005a891 f   libucrt:winapi_thunks.obj
 0001:000598d1       ___acrt_AppPolicyGetThreadInitializationTypeInternal@4 1005a8d1 f   libucrt:winapi_thunks.obj
 0001:00059911       ___acrt_AppPolicyGetWindowingModelInternal@4 1005a911 f   libucrt:winapi_thunks.obj
 0001:00059951       ___acrt_AreFileApisANSI@0  1005a951 f   libucrt:winapi_thunks.obj
 0001:00059970       ___acrt_CompareStringEx@36 1005a970 f   libucrt:winapi_thunks.obj
 0001:000599cd       ___acrt_EnumSystemLocalesEx@16 1005a9cd f   libucrt:winapi_thunks.obj
 0001:00059a21       ___acrt_FlsAlloc@4         1005aa21 f   libucrt:winapi_thunks.obj
 0001:00059a60       ___acrt_FlsFree@4          1005aa60 f   libucrt:winapi_thunks.obj
 0001:00059a9f       ___acrt_FlsGetValue@4      1005aa9f f   libucrt:winapi_thunks.obj
 0001:00059ade       ___acrt_FlsSetValue@8      1005aade f   libucrt:winapi_thunks.obj
 0001:00059b20       ___acrt_GetDateFormatEx@28 1005ab20 f   libucrt:winapi_thunks.obj
 0001:00059b77       ___acrt_GetEnabledXStateFeatures@0 1005ab77 f   libucrt:winapi_thunks.obj
 0001:00059bab       ___acrt_GetLocaleInfoEx@16 1005abab f   libucrt:winapi_thunks.obj
 0001:00059bea       ___acrt_GetSystemTimePreciseAsFileTime@4 1005abea f   libucrt:winapi_thunks.obj
 0001:00059c29       ___acrt_GetTempPath2W@8    1005ac29 f   libucrt:winapi_thunks.obj
 0001:00059c6b       ___acrt_GetTimeFormatEx@24 1005ac6b f   libucrt:winapi_thunks.obj
 0001:00059cb0       ___acrt_GetUserDefaultLocaleName@8 1005acb0 f   libucrt:winapi_thunks.obj
 0001:00059cec       ___acrt_GetXStateFeaturesMask@8 1005acec f   libucrt:winapi_thunks.obj
 0001:00059d2c       ___acrt_InitializeCriticalSectionEx@12 1005ad2c f   libucrt:winapi_thunks.obj
 0001:00059d77       ___acrt_IsValidLocaleName@4 1005ad77 f   libucrt:winapi_thunks.obj
 0001:00059daf       ___acrt_LCIDToLocaleName@16 1005adaf f   libucrt:winapi_thunks.obj
 0001:00059dee       ___acrt_LCMapStringEx@36   1005adee f   libucrt:winapi_thunks.obj
 0001:00059e4b       ___acrt_LocaleNameToLCID@8 1005ae4b f   libucrt:winapi_thunks.obj
 0001:00059e7c       ___acrt_LocateXStateFeature@12 1005ae7c f   libucrt:winapi_thunks.obj
 0001:00059eab       ___acrt_MessageBoxA@16     1005aeab f   libucrt:winapi_thunks.obj
 0001:00059edd       ___acrt_MessageBoxW@16     1005aedd f   libucrt:winapi_thunks.obj
 0001:00059f0f       ___acrt_RoInitialize@4     1005af0f f   libucrt:winapi_thunks.obj
 0001:00059f4a       ___acrt_RoUninitialize@0   1005af4a f   libucrt:winapi_thunks.obj
 0001:00059f78       ___acrt_RtlGenRandom@8     1005af78 f   libucrt:winapi_thunks.obj
 0001:00059fb8       ___acrt_SetThreadStackGuarantee@4 1005afb8 f   libucrt:winapi_thunks.obj
 0001:00059ff3       ___acrt_can_show_message_box 1005aff3 f   libucrt:winapi_thunks.obj
 0001:0005a01a       ___acrt_can_use_vista_locale_apis 1005b01a f   libucrt:winapi_thunks.obj
 0001:0005a025       ___acrt_can_use_xstate_apis 1005b025 f   libucrt:winapi_thunks.obj
 0001:0005a030       ___acrt_eagerly_load_locale_apis 1005b030 f   libucrt:winapi_thunks.obj
 0001:0005a067       ___acrt_get_parent_window  1005b067 f   libucrt:winapi_thunks.obj
 0001:0005a0cf       ___acrt_initialize_winapi_thunks 1005b0cf f   libucrt:winapi_thunks.obj
 0001:0005a0e3       ___acrt_is_interactive     1005b0e3 f   libucrt:winapi_thunks.obj
 0001:0005a183       ___acrt_uninitialize_winapi_thunks 1005b183 f   libucrt:winapi_thunks.obj
 0001:0005a1b9       __wremove                  1005b1b9 f   libucrt:wunlink.obj
 0001:0005a1e1       __wunlink                  1005b1e1 f   libucrt:wunlink.obj
 0001:0005a1ec       __wrename                  1005b1ec f   libucrt:wrename.obj
 0001:0005aa14       ??1?$__crt_simd_cleanup_guard@$00@@QAE@XZ 1005ba14 f i libucrt:strnlen.obj
 0001:0005aa18       ??1?$__crt_simd_cleanup_guard@$0A@@@QAE@XZ 1005ba18 f i libucrt:strnlen.obj
 0001:0005aa1b       ?compare_equals@?$__crt_simd_traits@$00E@@SA?AT__m256i@@T2@0@Z 1005ba1b f i libucrt:strnlen.obj
 0001:0005aa20       ?compare_equals@?$__crt_simd_traits@$00G@@SA?AT__m256i@@T2@0@Z 1005ba20 f i libucrt:strnlen.obj
 0001:0005aa25       ?compare_equals@?$__crt_simd_traits@$0A@E@@SA?AT__m128i@@T2@0@Z 1005ba25 f i libucrt:strnlen.obj
 0001:0005aa2a       ?compare_equals@?$__crt_simd_traits@$0A@G@@SA?AT__m128i@@T2@0@Z 1005ba2a f i libucrt:strnlen.obj
 0001:0005aa2f       ?compute_byte_mask@?$__crt_simd_pack_traits@$00@@SAHT__m256i@@@Z 1005ba2f f i libucrt:strnlen.obj
 0001:0005aa34       ?compute_byte_mask@?$__crt_simd_pack_traits@$0A@@@SAHT__m128i@@@Z 1005ba34 f i libucrt:strnlen.obj
 0001:0005aa39       ?get_zero_pack@?$__crt_simd_pack_traits@$00@@SA?AT__m256i@@XZ 1005ba39 f i libucrt:strnlen.obj
 0001:0005aa3e       ?get_zero_pack@?$__crt_simd_pack_traits@$0A@@@SA?AT__m128i@@XZ 1005ba3e f i libucrt:strnlen.obj
 0001:0005aa42       _strnlen                   1005ba42 f   libucrt:strnlen.obj
 0001:0005ab64       _wcslen                    1005bb64 f   libucrt:strnlen.obj
 0001:0005ac8c       _wcsnlen                   1005bc8c f   libucrt:strnlen.obj
 0001:0005ae3c       ?__acrt_fp_classify@@YA?AW4__acrt_fp_class@@ABN@Z 1005be3c f i libucrt:cvt.obj
 0001:0005ae9e       ?__acrt_fp_is_negative@@YA_NABN@Z 1005be9e f i libucrt:cvt.obj
 0001:0005b82d       ?strrchr@@YAPADQADH@Z      1005c82d f i libucrt:cvt.obj
 0001:0005b838       ___acrt_fp_format          1005c838 f   libucrt:cvt.obj
 0001:0005b9b9       ?value_or@?$cached@H@__crt_cached_ptd_host@@QBEHH@Z 1005c9b9 f i libucrt:wctomb.obj
 0001:0005b9cf       __wctomb_internal          1005c9cf f   libucrt:wctomb.obj
 0001:0005bb39       __wctomb_l                 1005cb39 f   libucrt:wctomb.obj
 0001:0005bb94       __wctomb_s_l               1005cb94 f   libucrt:wctomb.obj
 0001:0005bbcf       _wctomb                    1005cbcf f   libucrt:wctomb.obj
 0001:0005bc1b       _wctomb_s                  1005cc1b f   libucrt:wctomb.obj
 0001:0005bc55       __mbtowc_internal          1005cc55 f   libucrt:mbtowc.obj
 0001:0005bd88       __mbtowc_l                 1005cd88 f   libucrt:mbtowc.obj
 0001:0005bdc0       _mbtowc                    1005cdc0 f   libucrt:mbtowc.obj
 0001:0005bdf7       __get_printf_count_output  1005cdf7 f   libucrt:printf_count_output.obj
 0001:0005be0c       __set_printf_count_output  1005ce0c f   libucrt:printf_count_output.obj
 0001:0005befa       __fputwc_nolock            1005cefa f   libucrt:fputwc.obj
 0001:0005bf30       __fputwc_nolock_internal   1005cf30 f   libucrt:fputwc.obj
 0001:0005c068       __fputwchar                1005d068 f   libucrt:fputwc.obj
 0001:0005c082       __putwc_nolock             1005d082 f   libucrt:fputwc.obj
 0001:0005c08d       _fputwc                    1005d08d f   libucrt:fputwc.obj
 0001:0005c0c3       _putwc                     1005d0c3 f   libucrt:fputwc.obj
 0001:0005c0ce       _putwchar                  1005d0ce f   libucrt:fputwc.obj
 0001:0005c20d       __fputc_nolock             1005d20d f   libucrt:fputc.obj
 0001:0005c241       __fputc_nolock_internal    1005d241 f   libucrt:fputc.obj
 0001:0005c26e       __fputchar                 1005d26e f   libucrt:fputc.obj
 0001:0005c288       __putc_nolock              1005d288 f   libucrt:fputc.obj
 0001:0005c293       _fputc                     1005d293 f   libucrt:fputc.obj
 0001:0005c2c7       _putc                      1005d2c7 f   libucrt:fputc.obj
 0001:0005c2d2       _putchar                   1005d2d2 f   libucrt:fputc.obj
 0001:0005c470       ___isascii                 1005d470 f   libucrt:_ctype.obj
 0001:0005c490       ___iscsym                  1005d490 f   libucrt:_ctype.obj
 0001:0005c500       ___iscsymf                 1005d500 f   libucrt:_ctype.obj
 0001:0005c5a0       ___toascii                 1005d5a0 f   libucrt:_ctype.obj
 0001:0005c5b0       __isalnum_l                1005d5b0 f   libucrt:_ctype.obj
 0001:0005c680       __isalpha_l                1005d680 f   libucrt:_ctype.obj
 0001:0005c750       __isblank_l                1005d750 f   libucrt:_ctype.obj
 0001:0005c810       __iscntrl_l                1005d810 f   libucrt:_ctype.obj
 0001:0005c8d0       __iscsym_l                 1005d8d0 f   libucrt:_ctype.obj
 0001:0005c990       __iscsymf_l                1005d990 f   libucrt:_ctype.obj
 0001:0005ca50       __isdigit_l                1005da50 f   libucrt:_ctype.obj
 0001:0005cb10       __isgraph_l                1005db10 f   libucrt:_ctype.obj
 0001:0005cbe0       __islower_l                1005dbe0 f   libucrt:_ctype.obj
 0001:0005cca0       __isprint_l                1005dca0 f   libucrt:_ctype.obj
 0001:0005cd70       __ispunct_l                1005dd70 f   libucrt:_ctype.obj
 0001:0005ce30       __isspace_l                1005de30 f   libucrt:_ctype.obj
 0001:0005cef0       __isupper_l                1005def0 f   libucrt:_ctype.obj
 0001:0005cfb0       __isxdigit_l               1005dfb0 f   libucrt:_ctype.obj
 0001:0005d080       _isalnum                   1005e080 f   libucrt:_ctype.obj
 0001:0005d110       _isalpha                   1005e110 f   libucrt:_ctype.obj
 0001:0005d1a0       _isblank                   1005e1a0 f   libucrt:_ctype.obj
 0001:0005d240       _iscntrl                   1005e240 f   libucrt:_ctype.obj
 0001:0005d2d0       _isdigit                   1005e2d0 f   libucrt:_ctype.obj
 0001:0005d360       _isgraph                   1005e360 f   libucrt:_ctype.obj
 0001:0005d3f0       _islower                   1005e3f0 f   libucrt:_ctype.obj
 0001:0005d480       _isprint                   1005e480 f   libucrt:_ctype.obj
 0001:0005d510       _ispunct                   1005e510 f   libucrt:_ctype.obj
 0001:0005d5a0       _isspace                   1005e5a0 f   libucrt:_ctype.obj
 0001:0005d630       _isupper                   1005e630 f   libucrt:_ctype.obj
 0001:0005d6c0       _isxdigit                  1005e6c0 f   libucrt:_ctype.obj
 0001:0005d74b       __calloc_base              1005e74b f   libucrt:calloc_base.obj
 0001:0005d7a8       ??$parse_integer_from_string@JDPAPAD@__crt_strtox@@YAJQBDQAPADHQAU__crt_locale_pointers@@@Z 1005e7a8 f i libucrt:strtox.obj
 0001:0005d7ef       ??$parse_integer_from_string@J_WPAPA_W@__crt_strtox@@YAJQB_WQAPA_WHQAU__crt_locale_pointers@@@Z 1005e7ef f i libucrt:strtox.obj
 0001:0005d836       ??$parse_integer_from_string@KDPAPAD@__crt_strtox@@YAKQBDQAPADHQAU__crt_locale_pointers@@@Z 1005e836 f i libucrt:strtox.obj
 0001:0005d87d       ??$parse_integer_from_string@K_WPAPA_W@__crt_strtox@@YAKQB_WQAPA_WHQAU__crt_locale_pointers@@@Z 1005e87d f i libucrt:strtox.obj
 0001:0005d8c4       ??$parse_integer_from_string@_JDPAPAD@__crt_strtox@@YA_JQBDQAPADHQAU__crt_locale_pointers@@@Z 1005e8c4 f i libucrt:strtox.obj
 0001:0005d911       ??$parse_integer_from_string@_J_WPAPA_W@__crt_strtox@@YA_JQB_WQAPA_WHQAU__crt_locale_pointers@@@Z 1005e911 f i libucrt:strtox.obj
 0001:0005d95e       ??$parse_integer_from_string@_KDPAPAD@__crt_strtox@@YA_KQBDQAPADHQAU__crt_locale_pointers@@@Z 1005e95e f i libucrt:strtox.obj
 0001:0005d9ab       ??$parse_integer_from_string@_K_WPAPA_W@__crt_strtox@@YA_KQB_WQAPA_WHQAU__crt_locale_pointers@@@Z 1005e9ab f i libucrt:strtox.obj
 0001:0005d9f8       __strtoi64                 1005e9f8 f   libucrt:strtox.obj
 0001:0005da44       __strtoi64_l               1005ea44 f   libucrt:strtox.obj
 0001:0005da91       __strtoimax_l              1005ea91 f   libucrt:strtox.obj
 0001:0005dade       __strtol_l                 1005eade f   libucrt:strtox.obj
 0001:0005db25       __strtoll_l                1005eb25 f   libucrt:strtox.obj
 0001:0005db72       __strtoui64                1005eb72 f   libucrt:strtox.obj
 0001:0005dbbe       __strtoui64_l              1005ebbe f   libucrt:strtox.obj
 0001:0005dc0b       __strtoul_l                1005ec0b f   libucrt:strtox.obj
 0001:0005dc52       __strtoull_l               1005ec52 f   libucrt:strtox.obj
 0001:0005dc9f       __strtoumax_l              1005ec9f f   libucrt:strtox.obj
 0001:0005dcec       __wcstoi64                 1005ecec f   libucrt:strtox.obj
 0001:0005dd38       __wcstoi64_l               1005ed38 f   libucrt:strtox.obj
 0001:0005dd85       __wcstoimax_l              1005ed85 f   libucrt:strtox.obj
 0001:0005ddd2       __wcstol_l                 1005edd2 f   libucrt:strtox.obj
 0001:0005de19       __wcstoll_l                1005ee19 f   libucrt:strtox.obj
 0001:0005de66       __wcstoui64                1005ee66 f   libucrt:strtox.obj
 0001:0005deb2       __wcstoui64_l              1005eeb2 f   libucrt:strtox.obj
 0001:0005deff       __wcstoul_l                1005eeff f   libucrt:strtox.obj
 0001:0005df46       __wcstoull_l               1005ef46 f   libucrt:strtox.obj
 0001:0005df93       __wcstoumax_l              1005ef93 f   libucrt:strtox.obj
 0001:0005dfe0       _strtoimax                 1005efe0 f   libucrt:strtox.obj
 0001:0005e02c       _strtol                    1005f02c f   libucrt:strtox.obj
 0001:0005e072       _strtoll                   1005f072 f   libucrt:strtox.obj
 0001:0005e0be       _strtoul                   1005f0be f   libucrt:strtox.obj
 0001:0005e104       _strtoull                  1005f104 f   libucrt:strtox.obj
 0001:0005e150       _strtoumax                 1005f150 f   libucrt:strtox.obj
 0001:0005e19c       _wcstoimax                 1005f19c f   libucrt:strtox.obj
 0001:0005e1e8       _wcstol                    1005f1e8 f   libucrt:strtox.obj
 0001:0005e22e       _wcstoll                   1005f22e f   libucrt:strtox.obj
 0001:0005e27a       _wcstoul                   1005f27a f   libucrt:strtox.obj
 0001:0005e2c0       _wcstoull                  1005f2c0 f   libucrt:strtox.obj
 0001:0005e30c       _wcstoumax                 1005f30c f   libucrt:strtox.obj
 0001:0005e358       __fgetwc_nolock            1005f358 f   libucrt:fgetwc.obj
 0001:0005e4c8       __fgetwchar                1005f4c8 f   libucrt:fgetwc.obj
 0001:0005e4d8       __getwc_nolock             1005f4d8 f   libucrt:fgetwc.obj
 0001:0005e4e3       _fgetwc                    1005f4e3 f   libucrt:fgetwc.obj
 0001:0005e55a       _getwc                     1005f55a f   libucrt:fgetwc.obj
 0001:0005e565       _getwchar                  1005f565 f   libucrt:fgetwc.obj
 0001:0005e6f0       __ungetwc_nolock           1005f6f0 f   libucrt:ungetwc.obj
 0001:0005e7a6       _ungetwc                   1005f7a6 f   libucrt:ungetwc.obj
 0001:0005e824       __ungetc_nolock            1005f824 f   libucrt:ungetc.obj
 0001:0005e918       _ungetc                    1005f918 f   libucrt:ungetc.obj
 0001:0005e98b       ___fpe_flt_rounds          1005f98b f   libucrt:fegetround.obj
 0001:0005e9bf       _fegetround                1005f9bf f   libucrt:fegetround.obj
 0001:0005e9f7       __chdrive                  1005f9f7 f   libucrt:drive.obj
 0001:0005ea75       __getdrive                 1005fa75 f   libucrt:drive.obj
 0001:0005eb19       ??$?0$0BAE@@?$__crt_win32_buffer@_WU__crt_win32_buffer_internal_dynamic_resizing@@@@QAE@AAY0BAE@_W@Z 1005fb19 f i libucrt:fullpath.obj
 0001:0005eb3f       ??$__acrt_convert_wcs_mbs_cp@_WDV<lambda_0fec1a7b3f42a53036604e18c2d5e07e>@@U__crt_win32_buffer_no_resizing@@@@YAHQB_WAAV?$__crt_win32_buffer@DU__crt_win32_buffer_no_resizing@@@@ABV<lambda_0fec1a7b3f42a53036604e18c2d5e07e>@@I@Z 1005fb3f f i libucrt:fullpath.obj
 0001:0005ec01       ??$__acrt_convert_wcs_mbs_cp@_WDV<lambda_fecc33a432ccb74a901dff60d61ca385>@@U__crt_win32_buffer_public_dynamic_resizing@@@@YAHQB_WAAV?$__crt_win32_buffer@DU__crt_win32_buffer_public_dynamic_resizing@@@@ABV<lambda_fecc33a432ccb74a901dff60d61ca385>@@I@Z 1005fc01 f i libucrt:fullpath.obj
 0001:0005ecc7       ??$__acrt_get_full_path_name_narrow_acp_or_utf8@U__crt_win32_buffer_no_resizing@@@@YAHQBDAAV?$__crt_win32_buffer@DU__crt_win32_buffer_no_resizing@@@@@Z 1005fcc7 f i libucrt:fullpath.obj
 0001:0005edce       ??$__acrt_get_full_path_name_narrow_acp_or_utf8@U__crt_win32_buffer_public_dynamic_resizing@@@@YAHQBDAAV?$__crt_win32_buffer@DU__crt_win32_buffer_public_dynamic_resizing@@@@@Z 1005fdce f i libucrt:fullpath.obj
 0001:0005eed5       ??$__acrt_get_full_path_name_wide@U__crt_win32_buffer_internal_dynamic_resizing@@@@YAHQB_WAAV?$__crt_win32_buffer@_WU__crt_win32_buffer_internal_dynamic_resizing@@@@@Z 1005fed5 f i libucrt:fullpath.obj
 0001:0005eeef       ??$__acrt_get_full_path_name_wide@U__crt_win32_buffer_no_resizing@@@@YAHQB_WAAV?$__crt_win32_buffer@_WU__crt_win32_buffer_no_resizing@@@@@Z 1005feef f i libucrt:fullpath.obj
 0001:0005ef09       ??$__acrt_get_full_path_name_wide@U__crt_win32_buffer_public_dynamic_resizing@@@@YAHQB_WAAV?$__crt_win32_buffer@_WU__crt_win32_buffer_public_dynamic_resizing@@@@@Z 1005ff09 f i libucrt:fullpath.obj
 0001:0005ef23       ??$__acrt_wcs_to_mbs_cp@U__crt_win32_buffer_no_resizing@@@@YAHQB_WAAV?$__crt_win32_buffer@DU__crt_win32_buffer_no_resizing@@@@I@Z 1005ff23 f i libucrt:fullpath.obj
 0001:0005ef40       ??$__acrt_wcs_to_mbs_cp@U__crt_win32_buffer_public_dynamic_resizing@@@@YAHQB_WAAV?$__crt_win32_buffer@DU__crt_win32_buffer_public_dynamic_resizing@@@@I@Z 1005ff40 f i libucrt:fullpath.obj
 0001:0005ef5d       ??$call_win32_function@V<lambda_0d87af4cf61654f651d26e3c6a4f13fc>@@@?$__crt_win32_buffer@_WU__crt_win32_buffer_public_dynamic_resizing@@@@QAEHABV<lambda_0d87af4cf61654f651d26e3c6a4f13fc>@@@Z 1005ff5d f i libucrt:fullpath.obj
 0001:0005efc3       ??$call_win32_function@V<lambda_33d632c04396b3de813369f94278cf6d>@@@?$__crt_win32_buffer@_WU__crt_win32_buffer_no_resizing@@@@QAEHABV<lambda_33d632c04396b3de813369f94278cf6d>@@@Z 1005ffc3 f i libucrt:fullpath.obj
 0001:0005f029       ??$call_win32_function@V<lambda_44f1df80ccead0226c26eac3423fba1d>@@@?$__crt_win32_buffer@_WU__crt_win32_buffer_internal_dynamic_resizing@@@@QAEHABV<lambda_44f1df80ccead0226c26eac3423fba1d>@@@Z 10060029 f i libucrt:fullpath.obj
 0001:0005f1c7       ??$get_full_path_name@ABQBDAAV?$__crt_win32_buffer@DU__crt_win32_buffer_no_resizing@@@@@?$__crt_char_traits@D@@SAHABQBDAAV?$__crt_win32_buffer@DU__crt_win32_buffer_no_resizing@@@@@Z 100601c7 f i libucrt:fullpath.obj
 0001:0005f1dd       ??$get_full_path_name@ABQBDAAV?$__crt_win32_buffer@DU__crt_win32_buffer_public_dynamic_resizing@@@@@?$__crt_char_traits@D@@SAHABQBDAAV?$__crt_win32_buffer@DU__crt_win32_buffer_public_dynamic_resizing@@@@@Z 100601dd f i libucrt:fullpath.obj
 0001:0005f1f3       ??$get_full_path_name@ABQB_WAAV?$__crt_win32_buffer@_WU__crt_win32_buffer_no_resizing@@@@@?$__crt_char_traits@_W@@SAHABQB_WAAV?$__crt_win32_buffer@_WU__crt_win32_buffer_no_resizing@@@@@Z 100601f3 f i libucrt:fullpath.obj
 0001:0005f209       ??$get_full_path_name@ABQB_WAAV?$__crt_win32_buffer@_WU__crt_win32_buffer_public_dynamic_resizing@@@@@?$__crt_char_traits@_W@@SAHABQB_WAAV?$__crt_win32_buffer@_WU__crt_win32_buffer_public_dynamic_resizing@@@@@Z 10060209 f i libucrt:fullpath.obj
 0001:0005f21f       ??$tgetcwd@ABQADH@?$__crt_char_traits@D@@SAPADABQAD$$QAH@Z 1006021f f i libucrt:fullpath.obj
 0001:0005f237       ??$tgetcwd@ABQA_WH@?$__crt_char_traits@_W@@SAPA_WABQA_W$$QAH@Z 10060237 f i libucrt:fullpath.obj
 0001:0005f24f       ??0<lambda_0d87af4cf61654f651d26e3c6a4f13fc>@@QAE@ABQB_W@Z 1006024f f i libucrt:fullpath.obj
 0001:0005f261       ??0<lambda_33d632c04396b3de813369f94278cf6d>@@QAE@ABQB_W@Z 10060261 f i libucrt:fullpath.obj
 0001:0005f273       ??0<lambda_44f1df80ccead0226c26eac3423fba1d>@@QAE@ABQB_W@Z 10060273 f i libucrt:fullpath.obj
 0001:0005f285       ??0?$__crt_win32_buffer@DU__crt_win32_buffer_no_resizing@@@@QAE@QADI@Z 10060285 f i libucrt:fullpath.obj
 0001:0005f2a9       ??0?$__crt_win32_buffer@DU__crt_win32_buffer_public_dynamic_resizing@@@@QAE@ABV__crt_win32_buffer_debug_info@@@Z 100602a9 f i libucrt:fullpath.obj
 0001:0005f2c1       ??0?$__crt_win32_buffer@_WU__crt_win32_buffer_no_resizing@@@@QAE@QA_WI@Z 100602c1 f i libucrt:fullpath.obj
 0001:0005f2e5       ??0?$__crt_win32_buffer@_WU__crt_win32_buffer_public_dynamic_resizing@@@@QAE@ABV__crt_win32_buffer_debug_info@@@Z 100602e5 f i libucrt:fullpath.obj
 0001:0005f2fd       ??0__crt_win32_buffer_debug_info@@QAE@HPBDH@Z 100602fd f i libucrt:fullpath.obj
 0001:0005f302       ??1?$__crt_win32_buffer@DU__crt_win32_buffer_no_resizing@@@@QAE@XZ 10060302 f i libucrt:fullpath.obj
 0001:0005f30d       ??1?$__crt_win32_buffer@DU__crt_win32_buffer_public_dynamic_resizing@@@@QAE@XZ 1006030d f i libucrt:fullpath.obj
 0001:0005f312       ??1?$__crt_win32_buffer@_WU__crt_win32_buffer_no_resizing@@@@QAE@XZ 10060312 f i libucrt:fullpath.obj
 0001:0005f31d       ??1?$__crt_win32_buffer@_WU__crt_win32_buffer_public_dynamic_resizing@@@@QAE@XZ 1006031d f i libucrt:fullpath.obj
 0001:0005f322       ??R<lambda_0d87af4cf61654f651d26e3c6a4f13fc>@@QBE@PA_WK@Z 10060322 f i libucrt:fullpath.obj
 0001:0005f33b       ??R<lambda_0fec1a7b3f42a53036604e18c2d5e07e>@@QBE@IQB_WQADI@Z 1006033b f i libucrt:fullpath.obj
 0001:0005f35f       ??R<lambda_33d632c04396b3de813369f94278cf6d>@@QBE@PA_WK@Z 1006035f f i libucrt:fullpath.obj
 0001:0005f378       ??R<lambda_44f1df80ccead0226c26eac3423fba1d>@@QBE@PA_WK@Z 10060378 f i libucrt:fullpath.obj
 0001:0005f391       ??R<lambda_fecc33a432ccb74a901dff60d61ca385>@@QBE@IQB_WQADI@Z 10060391 f i libucrt:fullpath.obj
 0001:0005f3b5       ?_deallocate@?$__crt_win32_buffer@DU__crt_win32_buffer_no_resizing@@@@AAEXXZ 100603b5 f i libucrt:fullpath.obj
 0001:0005f3c0       ?_deallocate@?$__crt_win32_buffer@DU__crt_win32_buffer_public_dynamic_resizing@@@@AAEXXZ 100603c0 f i libucrt:fullpath.obj
 0001:0005f3da       ?_deallocate@?$__crt_win32_buffer@_WU__crt_win32_buffer_no_resizing@@@@AAEXXZ 100603da f i libucrt:fullpath.obj
 0001:0005f3e5       ?_deallocate@?$__crt_win32_buffer@_WU__crt_win32_buffer_public_dynamic_resizing@@@@AAEXXZ 100603e5 f i libucrt:fullpath.obj
 0001:0005f3ff       ?_reset_no_dealloc@?$__crt_win32_buffer@DU__crt_win32_buffer_public_dynamic_resizing@@@@AAEXXZ 100603ff f i libucrt:fullpath.obj
 0001:0005f40f       ?_reset_no_dealloc@?$__crt_win32_buffer@_WU__crt_win32_buffer_public_dynamic_resizing@@@@AAEXXZ 1006040f f i libucrt:fullpath.obj
 0001:0005f41f       ?allocate@?$__crt_win32_buffer@DU__crt_win32_buffer_no_resizing@@@@QAEHI@Z 1006041f f i libucrt:fullpath.obj
 0001:0005f446       ?allocate@?$__crt_win32_buffer@DU__crt_win32_buffer_public_dynamic_resizing@@@@QAEHI@Z 10060446 f i libucrt:fullpath.obj
 0001:0005f482       ?allocate@?$__crt_win32_buffer@_WU__crt_win32_buffer_no_resizing@@@@QAEHI@Z 10060482 f i libucrt:fullpath.obj
 0001:0005f4a9       ?allocate@?$__crt_win32_buffer@_WU__crt_win32_buffer_public_dynamic_resizing@@@@QAEHI@Z 100604a9 f i libucrt:fullpath.obj
 0001:0005f4e8       ?allocate@__crt_win32_buffer_no_resizing@@SAHQAPAXIABV__crt_win32_buffer_empty_debug_info@@@Z 100604e8 f i libucrt:fullpath.obj
 0001:0005f4f5       ?allocate@__crt_win32_buffer_public_dynamic_resizing@@SAHQAPAXIABV__crt_win32_buffer_debug_info@@@Z 100604f5 f i libucrt:fullpath.obj
 0001:0005f514       ?capacity@?$__crt_win32_buffer@DU__crt_win32_buffer_no_resizing@@@@QBEIXZ 10060514 f i libucrt:fullpath.obj
 0001:0005f518       ?capacity@?$__crt_win32_buffer@DU__crt_win32_buffer_public_dynamic_resizing@@@@QBEIXZ 10060518 f i libucrt:fullpath.obj
 0001:0005f51c       ?data@?$__crt_win32_buffer@DU__crt_win32_buffer_no_resizing@@@@QAEPADXZ 1006051c f i libucrt:fullpath.obj
 0001:0005f520       ?data@?$__crt_win32_buffer@DU__crt_win32_buffer_public_dynamic_resizing@@@@QAEPADXZ 10060520 f i libucrt:fullpath.obj
 0001:0005f524       ?deallocate@__crt_win32_buffer_no_resizing@@SAXQAXABV__crt_win32_buffer_empty_debug_info@@@Z 10060524 f i libucrt:fullpath.obj
 0001:0005f527       ?deallocate@__crt_win32_buffer_public_dynamic_resizing@@SAXQAXABV__crt_win32_buffer_debug_info@@@Z 10060527 f i libucrt:fullpath.obj
 0001:0005f537       ?debug_info@?$__crt_win32_buffer@DU__crt_win32_buffer_no_resizing@@@@QBEABV__crt_win32_buffer_empty_debug_info@@XZ 10060537 f i libucrt:fullpath.obj
 0001:0005f53a       ?debug_info@?$__crt_win32_buffer@DU__crt_win32_buffer_public_dynamic_resizing@@@@QBEABV__crt_win32_buffer_debug_info@@XZ 1006053a f i libucrt:fullpath.obj
 0001:0005f53d       ?debug_info@?$__crt_win32_buffer@_WU__crt_win32_buffer_no_resizing@@@@QBEABV__crt_win32_buffer_empty_debug_info@@XZ 1006053d f i libucrt:fullpath.obj
 0001:0005f540       ?debug_info@?$__crt_win32_buffer@_WU__crt_win32_buffer_public_dynamic_resizing@@@@QBEABV__crt_win32_buffer_debug_info@@XZ 10060540 f i libucrt:fullpath.obj
 0001:0005f543       ?detach@?$__crt_win32_buffer@DU__crt_win32_buffer_public_dynamic_resizing@@@@QAEPADXZ 10060543 f i libucrt:fullpath.obj
 0001:0005f590       ?detach@?$__crt_win32_buffer@_WU__crt_win32_buffer_public_dynamic_resizing@@@@QAEPA_WXZ 10060590 f i libucrt:fullpath.obj
 0001:0005f5de       ?set_to_nullptr@?$__crt_win32_buffer@DU__crt_win32_buffer_no_resizing@@@@QAEXXZ 100605de f i libucrt:fullpath.obj
 0001:0005f5f2       ?set_to_nullptr@?$__crt_win32_buffer@DU__crt_win32_buffer_public_dynamic_resizing@@@@QAEXXZ 100605f2 f i libucrt:fullpath.obj
 0001:0005f609       ?size@?$__crt_win32_buffer@DU__crt_win32_buffer_no_resizing@@@@QAEXI@Z 10060609 f i libucrt:fullpath.obj
 0001:0005f618       ?size@?$__crt_win32_buffer@DU__crt_win32_buffer_public_dynamic_resizing@@@@QAEXI@Z 10060618 f i libucrt:fullpath.obj
 0001:0005f627       __fullpath                 10060627 f   libucrt:fullpath.obj
 0001:0005f645       __wfullpath                10060645 f   libucrt:fullpath.obj
 0001:0005f6e4       _wcspbrk                   100606e4 f   libucrt:wcspbrk.obj
 0001:0005f732       ___ascii_wcsicmp           10060732 f   libucrt:wcsicmp.obj
 0001:0005f76f       __towlower_fast_internal   1006076f f i libucrt:wcsicmp.obj
 0001:0005f79a       __towlower_internal        1006079a f i libucrt:wcsicmp.obj
 0001:0005f7d9       __wcsicmp                  100607d9 f   libucrt:wcsicmp.obj
 0001:0005f822       __wcsicmp_l                10060822 f   libucrt:wcsicmp.obj
 0001:0005f8da       ??$__crt_time_elapsed_leap_years@H@@YAHH@Z 100608da f i libucrt:loctotime.obj
 0001:0005f914       ??$__crt_time_is_leap_year@H@@YA_NH@Z 10060914 f i libucrt:loctotime.obj
 0001:0005fca4       ?__crt_time_is_day_valid@@YA_NHHH@Z 10060ca4 f i libucrt:loctotime.obj
 0001:0005fcea       ___loctotime32_t           10060cea f   libucrt:loctotime.obj
 0001:0005fcf5       ___loctotime64_t           10060cf5 f   libucrt:loctotime.obj
 0001:00060119       ___acrt_stdio_refill_and_read_narrow_nolock 10061119 f   libucrt:_filbuf.obj
 0001:00060124       ___acrt_stdio_refill_and_read_wide_nolock 10061124 f   libucrt:_filbuf.obj
 0001:0006012f       __realloc_base             1006112f f   libucrt:realloc_base.obj
 0001:00060198       ___acrt_initialize_locks   10061198 f   libucrt:locks.obj
 0001:000601d9       ___acrt_lock               100611d9 f   libucrt:locks.obj
 0001:000601f0       ___acrt_uninitialize_locks 100611f0 f   libucrt:locks.obj
 0001:00060221       ___acrt_unlock             10061221 f   libucrt:locks.obj
 0001:00060238       __lock_locales             10061238 f   libucrt:locks.obj
 0001:00060246       __unlock_locales           10061246 f   libucrt:locks.obj
 0001:0006024f       ___acrt_app_verifier_enabled 1006124f f   libucrt:peb_access.obj
 0001:00060261       ___acrt_is_secure_process  10061261 f   libucrt:peb_access.obj
 0001:0006040d       ___acrt_get_begin_thread_init_policy 1006140d f   libucrt:win_policies.obj
 0001:00060447       ___acrt_get_developer_information_policy 10061447 f   libucrt:win_policies.obj
 0001:00060485       ___acrt_get_process_end_policy 10061485 f   libucrt:win_policies.obj
 0001:000604ac       ___acrt_get_windowing_model_policy 100614ac f   libucrt:win_policies.obj
 0001:00060537       ??$__acrt_convert_wcs_mbs_cp@_WDV<lambda_28bda7af82a03b66c1cb3803a755f95d>@@U__crt_win32_buffer_internal_dynamic_resizing@@@@YAHQB_WAAV?$__crt_win32_buffer@DU__crt_win32_buffer_internal_dynamic_resizing@@@@ABV<lambda_28bda7af82a03b66c1cb3803a755f95d>@@I@Z 10061537 f i libucrt:argv_wildcards.obj
 0001:000605fd       ??$__acrt_wcs_to_mbs_cp@U__crt_win32_buffer_internal_dynamic_resizing@@@@YAHQB_WAAV?$__crt_win32_buffer@DU__crt_win32_buffer_internal_dynamic_resizing@@@@I@Z 100615fd f i libucrt:argv_wildcards.obj
 0001:00060eaf       ??$tcslen@ABQBD@?$__crt_char_traits@D@@SAIABQBD@Z 10061eaf f i libucrt:argv_wildcards.obj
 0001:00060ec7       ??$tcslen@ABQB_W@?$__crt_char_traits@_W@@SAIABQB_W@Z 10061ec7 f i libucrt:argv_wildcards.obj
 0001:00060ee5       ??$tcsncpy_s@AAPADIAAPADABI@?$__crt_char_traits@D@@SAHAAPAD$$QAI0ABI@Z 10061ee5 f i libucrt:argv_wildcards.obj
 0001:00060f08       ??$tcsncpy_s@AAPA_WIAAPA_WABI@?$__crt_char_traits@_W@@SAHAAPA_W$$QAI0ABI@Z 10061f08 f i libucrt:argv_wildcards.obj
 0001:00060f2b       ??$tcsncpy_s@PADABIABQBDABI@?$__crt_char_traits@D@@SAH$$QAPADABIABQBD1@Z 10061f2b f i libucrt:argv_wildcards.obj
 0001:00060f4e       ??$tcsncpy_s@PADIABQBDABI@?$__crt_char_traits@D@@SAH$$QAPAD$$QAIABQBDABI@Z 10061f4e f i libucrt:argv_wildcards.obj
 0001:00060f71       ??$tcsncpy_s@PA_WABIABQB_WABI@?$__crt_char_traits@_W@@SAH$$QAPA_WABIABQB_W1@Z 10061f71 f i libucrt:argv_wildcards.obj
 0001:00060f94       ??$tcsncpy_s@PA_WIABQB_WABI@?$__crt_char_traits@_W@@SAH$$QAPA_W$$QAIABQB_WABI@Z 10061f94 f i libucrt:argv_wildcards.obj
 0001:00060fb7       ??$tcspbrk@AAPADAAY02$$CBD@?$__crt_char_traits@D@@SAPADAAPADAAY02$$CBD@Z 10061fb7 f i libucrt:argv_wildcards.obj
 0001:00060fcd       ??$tcspbrk@AAPA_WAAY02$$CB_W@?$__crt_char_traits@_W@@SAPA_WAAPA_WAAY02$$CB_W@Z 10061fcd f i libucrt:argv_wildcards.obj
 0001:00060fe3       ??0?$__crt_unique_handle_t@U__crt_findfile_traits@@@@QAE@QAX@Z 10061fe3 f i libucrt:argv_wildcards.obj
 0001:00060ff3       ??0?$__crt_win32_buffer@DU__crt_win32_buffer_internal_dynamic_resizing@@@@QAE@XZ 10061ff3 f i libucrt:argv_wildcards.obj
 0001:00061023       ??1?$__crt_unique_handle_t@U__crt_findfile_traits@@@@QAE@XZ 10062023 f i libucrt:argv_wildcards.obj
 0001:0006103a       ??1?$__crt_win32_buffer@DU__crt_win32_buffer_internal_dynamic_resizing@@@@QAE@XZ 1006203a f i libucrt:argv_wildcards.obj
 0001:00061095       ??R<lambda_28bda7af82a03b66c1cb3803a755f95d>@@QBE@IQB_WQADI@Z 10062095 f i libucrt:argv_wildcards.obj
 0001:0006112f       ?_deallocate@?$__crt_win32_buffer@DU__crt_win32_buffer_internal_dynamic_resizing@@@@AAEXXZ 1006212f f i libucrt:argv_wildcards.obj
 0001:00061149       ?allocate@?$__crt_win32_buffer@DU__crt_win32_buffer_internal_dynamic_resizing@@@@QAEHI@Z 10062149 f i libucrt:argv_wildcards.obj
 0001:000611f5       ?capacity@?$__crt_win32_buffer@DU__crt_win32_buffer_internal_dynamic_resizing@@@@QBEIXZ 100621f5 f i libucrt:argv_wildcards.obj
 0001:000611f9       ?close@?$__crt_unique_handle_t@U__crt_findfile_traits@@@@QAEXXZ 100621f9 f i libucrt:argv_wildcards.obj
 0001:00061210       ?close@__crt_findfile_traits@@SA_NPAX@Z 10062210 f i libucrt:argv_wildcards.obj
 0001:00061225       ?data@?$__crt_win32_buffer@DU__crt_win32_buffer_internal_dynamic_resizing@@@@QAEPADXZ 10062225 f i libucrt:argv_wildcards.obj
 0001:00061229       ?debug_info@?$__crt_win32_buffer@DU__crt_win32_buffer_internal_dynamic_resizing@@@@QBEABV__crt_win32_buffer_empty_debug_info@@XZ 10062229 f i libucrt:argv_wildcards.obj
 0001:00061342       ?get@?$__crt_unique_handle_t@U__crt_findfile_traits@@@@QBEPAXXZ 10062342 f i libucrt:argv_wildcards.obj
 0001:00061378       ?get_invalid_value@__crt_findfile_traits@@SAPAXXZ 10062378 f i libucrt:argv_wildcards.obj
 0001:000613c7       ?set_to_nullptr@?$__crt_win32_buffer@DU__crt_win32_buffer_internal_dynamic_resizing@@@@QAEXXZ 100623c7 f i libucrt:argv_wildcards.obj
 0001:000613de       ?size@?$__crt_win32_buffer@DU__crt_win32_buffer_internal_dynamic_resizing@@@@QAEXI@Z 100623de f i libucrt:argv_wildcards.obj
 0001:000613ff       ?strpbrk@@YAPADQADQBD@Z    100623ff f i libucrt:argv_wildcards.obj
 0001:0006140a       ?wcspbrk@@YAPA_WPA_WPB_W@Z 1006240a f i libucrt:argv_wildcards.obj
 0001:00061415       ___acrt_expand_narrow_argv_wildcards 10062415 f   libucrt:argv_wildcards.obj
 0001:00061420       ___acrt_expand_wide_argv_wildcards 10062420 f   libucrt:argv_wildcards.obj
 0001:0006142b       ?size@?$__crt_win32_buffer@DU__crt_win32_buffer_no_resizing@@@@QBEIXZ 1006242b f i libucrt:getmodulefilenamea.obj
 0001:0006142f       ___acrt_GetModuleFileNameA 1006242f f   libucrt:getmodulefilenamea.obj
 0001:00061543       ??$initialize_from_array@$$BY10BAA@E@?$dual_state_global@PAE@__crt_state_management@@QAAXAAY10BAA@E@Z 10062543 f i libucrt:mbctype.obj
 0001:00061552       ??$initialize_from_array@$$BY10BAB@E@?$dual_state_global@PAE@__crt_state_management@@QAAXAAY10BAB@E@Z 10062552 f i libucrt:mbctype.obj
 0001:0006166e       ?dangerous_get_state_array@?$dual_state_global@PAE@__crt_state_management@@QAEPAPAEXZ 1006266e f i libucrt:mbctype.obj
 0001:00061671       ?dangerous_get_state_array@?$dual_state_global@PAU__crt_multibyte_data@@@__crt_state_management@@QAEPAPAU__crt_multibyte_data@@XZ 10062671 f i libucrt:mbctype.obj
 0001:000616e5       ?initialize@?$dual_state_global@PAU__crt_multibyte_data@@@__crt_state_management@@QAEXQAU__crt_multibyte_data@@@Z 100626e5 f i libucrt:mbctype.obj
 0001:00061afe       ?value@?$dual_state_global@PAE@__crt_state_management@@QAEAAPAEXZ 10062afe f i libucrt:mbctype.obj
 0001:00061b01       ___acrt_initialize_multibyte 10062b01 f   libucrt:mbctype.obj
 0001:00061b49       ___acrt_update_thread_multibyte_data 10062b49 f   libucrt:mbctype.obj
 0001:00061b5c       ___p__mbcasemap            10062b5c f   libucrt:mbctype.obj
 0001:00061b62       ___p__mbctype              10062b62 f   libucrt:mbctype.obj
 0001:00061b68       __getmbcp                  10062b68 f   libucrt:mbctype.obj
 0001:00061b9c       __setmbcp                  10062b9c f   libucrt:mbctype.obj
 0001:00061bbb       __setmbcp_nolock           10062bbb f   libucrt:mbctype.obj
 0001:00061e91       __ismbbalnum               10062e91 f   libucrt:ismbbyte.obj
 0001:00061eac       __ismbbalnum_l             10062eac f   libucrt:ismbbyte.obj
 0001:00061ec8       __ismbbalpha               10062ec8 f   libucrt:ismbbyte.obj
 0001:00061ee3       __ismbbalpha_l             10062ee3 f   libucrt:ismbbyte.obj
 0001:00061eff       __ismbbblank               10062eff f   libucrt:ismbbyte.obj
 0001:00061f22       __ismbbblank_l             10062f22 f   libucrt:ismbbyte.obj
 0001:00061f46       __ismbbgraph               10062f46 f   libucrt:ismbbyte.obj
 0001:00061f61       __ismbbgraph_l             10062f61 f   libucrt:ismbbyte.obj
 0001:00061f7d       __ismbbkalnum              10062f7d f   libucrt:ismbbyte.obj
 0001:00061f95       __ismbbkalnum_l            10062f95 f   libucrt:ismbbyte.obj
 0001:00061fae       __ismbbkana                10062fae f   libucrt:ismbbyte.obj
 0001:00061fc1       __ismbbkana_l              10062fc1 f   libucrt:ismbbyte.obj
 0001:00062010       __ismbbkprint              10063010 f   libucrt:ismbbyte.obj
 0001:00062028       __ismbbkprint_l            10063028 f   libucrt:ismbbyte.obj
 0001:00062041       __ismbbkpunct              10063041 f   libucrt:ismbbyte.obj
 0001:00062059       __ismbbkpunct_l            10063059 f   libucrt:ismbbyte.obj
 0001:00062072       __ismbblead                10063072 f   libucrt:ismbbyte.obj
 0001:0006208a       __ismbblead_l              1006308a f   libucrt:ismbbyte.obj
 0001:000620a3       __ismbbprint               100630a3 f   libucrt:ismbbyte.obj
 0001:000620be       __ismbbprint_l             100630be f   libucrt:ismbbyte.obj
 0001:000620da       __ismbbpunct               100630da f   libucrt:ismbbyte.obj
 0001:000620f2       __ismbbpunct_l             100630f2 f   libucrt:ismbbyte.obj
 0001:0006210b       __ismbbtrail               1006310b f   libucrt:ismbbyte.obj
 0001:00062123       __ismbbtrail_l             10063123 f   libucrt:ismbbyte.obj
 0001:0006213c       ___acrt_initialize_command_line 1006313c f   libucrt:argv_data.obj
 0001:00062155       ___acrt_uninitialize_command_line 10063155 f   libucrt:argv_data.obj
 0001:00062158       ___p___argc                10063158 f   libucrt:argv_data.obj
 0001:0006215e       ___p___argv                1006315e f   libucrt:argv_data.obj
 0001:00062164       ___p___wargv               10063164 f   libucrt:argv_data.obj
 0001:0006216a       ___p__acmdln               1006316a f   libucrt:argv_data.obj
 0001:00062170       ___p__pgmptr               10063170 f   libucrt:argv_data.obj
 0001:00062176       ___p__wcmdln               10063176 f   libucrt:argv_data.obj
 0001:0006217c       ___p__wpgmptr              1006317c f   libucrt:argv_data.obj
 0001:00062182       __get_pgmptr               10063182 f   libucrt:argv_data.obj
 0001:000621b3       __get_wpgmptr              100631b3 f   libucrt:argv_data.obj
 0001:00062248       _wcscpy_s                  10063248 f   libucrt:wcscpy_s.obj
 0001:0006233c       ___acrt_WideCharToMultiByte 1006333c f   libucrt:widechartomultibyte.obj
 0001:00062443       ___dcrt_get_narrow_environment_from_os 10063443 f   libucrt:get_environment_from_os.obj
 0001:000624e3       ___dcrt_get_wide_environment_from_os 100634e3 f   libucrt:get_environment_from_os.obj
 0001:00062c6b       ??$get_or_create_environment_nolock@$$V@?$__crt_char_traits@D@@SAPAPADXZ 10063c6b f i libucrt:setenv.obj
 0001:00062c70       ??$get_or_create_environment_nolock@$$V@?$__crt_char_traits@_W@@SAPAPA_WXZ 10063c70 f i libucrt:setenv.obj
 0001:00062c75       ??$set_environment_variable@ABQADQAD@?$__crt_char_traits@D@@SAHABQAD$$QBQAD@Z 10063c75 f i libucrt:setenv.obj
 0001:00062c8d       ??$set_environment_variable@ABQA_WQA_W@?$__crt_char_traits@_W@@SAHABQA_W$$QBQA_W@Z 10063c8d f i libucrt:setenv.obj
 0001:00062ca4       ??$tcschr@ABQADD@?$__crt_char_traits@D@@SAPADABQAD$$QAD@Z 10063ca4 f i libucrt:setenv.obj
 0001:00062cbe       ??$tcschr@ABQA_WD@?$__crt_char_traits@_W@@SAPA_WABQA_W$$QAD@Z 10063cbe f i libucrt:setenv.obj
 0001:00062cdc       ??$tcscpy_s@AAPADABIAAPAD@?$__crt_char_traits@D@@SAHAAPADABI0@Z 10063cdc f i libucrt:setenv.obj
 0001:00062cfa       ??$tcscpy_s@AAPA_WABIAAPA_W@?$__crt_char_traits@_W@@SAHAAPA_WABI0@Z 10063cfa f i libucrt:setenv.obj
 0001:00062d18       ??$tcscpy_s@ABQADABIABQAD@?$__crt_char_traits@D@@SAHABQADABI0@Z 10063d18 f i libucrt:setenv.obj
 0001:00062d36       ??$tcscpy_s@ABQA_WABIABQA_W@?$__crt_char_traits@_W@@SAHABQA_WABI0@Z 10063d36 f i libucrt:setenv.obj
 0001:00062d54       ??$tcslen@ABQAD@?$__crt_char_traits@D@@SAIABQAD@Z 10063d54 f i libucrt:setenv.obj
 0001:00062d6c       ??$tcslen@ABQA_W@?$__crt_char_traits@_W@@SAIABQA_W@Z 10063d6c f i libucrt:setenv.obj
 0001:00062d8a       ??$tcsnicoll@ABQBDAAPADABI@?$__crt_char_traits@D@@SAHABQBDAAPADABI@Z 10063d8a f i libucrt:setenv.obj
 0001:00062da8       ??$tcsnicoll@ABQB_WAAPA_WABI@?$__crt_char_traits@_W@@SAHABQB_WAAPA_WABI@Z 10063da8 f i libucrt:setenv.obj
 0001:00062dea       ?strchr@@YAPADQADH@Z       10063dea f i libucrt:setenv.obj
 0001:00062df5       ?wcschr@@YAPA_WPA_W_W@Z    10063df5 f i libucrt:setenv.obj
 0001:00062e00       ___dcrt_set_variable_in_narrow_environment_nolock 10063e00 f   libucrt:setenv.obj
 0001:00062e0b       ___dcrt_set_variable_in_wide_environment_nolock 10063e0b f   libucrt:setenv.obj
 0001:00062e16       __recalloc                 10063e16 f   libucrt:recalloc.obj
 0001:00062e21       __recalloc_base            10063e21 f   libucrt:recalloc.obj
 0001:00062e8e       ___acrt_getheap            10063e8e f   libucrt:heap_handle.obj
 0001:00062e94       ___acrt_initialize_heap    10063e94 f   libucrt:heap_handle.obj
 0001:00062ea5       ___acrt_uninitialize_heap  10063ea5 f   libucrt:heap_handle.obj
 0001:00062eaf       __get_heap_handle          10063eaf f   libucrt:heap_handle.obj
 0001:00062eb5       ___acrt_execute_initializers 10063eb5 f   libucrt:shared_initialization.obj
 0001:00062f1d       ___acrt_execute_uninitializers 10063f1d f   libucrt:shared_initialization.obj
 0001:00062f4e       ??$?B$$A6AHI@Z@__crt_fast_encoded_nullptr_t@@QBEP6AHI@ZXZ 10063f4e f i libucrt:new_handler.obj
 0001:00062f54       ??$__crt_fast_decode_pointer@P6AHI@Z@@YAP6AHI@ZQ6AHI@Z@Z 10063f54 f i libucrt:new_handler.obj
 0001:00062f6f       ??$__crt_fast_encode_pointer@P6AHI@Z@@YAP6AHI@ZQ6AHI@Z@Z 10063f6f f i libucrt:new_handler.obj
 0001:00062f8e       ?_set_new_handler@@YAP6AHI@ZH@Z 10063f8e f   libucrt:new_handler.obj
 0001:00062f9b       ?initialize@?$dual_state_global@P6AHI@Z@__crt_state_management@@QAEXQ6AHI@Z@Z 10063f9b f i libucrt:new_handler.obj
 0001:00062fb7       ?value@?$dual_state_global@P6AHI@Z@__crt_state_management@@QAEAAP6AHI@ZXZ 10063fb7 f i libucrt:new_handler.obj
 0001:00062fba       ___acrt_initialize_new_handler 10063fba f   libucrt:new_handler.obj
 0001:00062fc9       __callnewh                 10063fc9 f   libucrt:new_handler.obj
 0001:00062ff5       __query_new_handler        10063ff5 f   libucrt:new_handler.obj
 0001:0006304c       __set_new_handler          1006404c f   libucrt:new_handler.obj
 0001:000630b1       ??$?B$$A6AXH@Z@__crt_fast_encoded_nullptr_t@@QBEP6AXH@ZXZ 100640b1 f i libucrt:signal.obj
 0001:00063145       ??$__crt_fast_decode_pointer@P6AXH@Z@@YAP6AXH@ZQ6AXH@Z@Z 10064145 f i libucrt:signal.obj
 0001:00063160       ??$__crt_fast_encode_pointer@P6AXH@Z@@YAP6AXH@ZQ6AXH@Z@Z 10064160 f i libucrt:signal.obj
 0001:000632bc       ?initialize@?$dual_state_global@P6AXH@Z@__crt_state_management@@QAEXQ6AXH@Z@Z 100642bc f i libucrt:signal.obj
 0001:00063366       ?value@?$dual_state_global@P6AXH@Z@__crt_state_management@@QAEAAP6AXH@ZXZ 10064366 f i libucrt:signal.obj
 0001:00063369       ___acrt_get_sigabrt_handler 10064369 f   libucrt:signal.obj
 0001:00063390       ___acrt_initialize_signal_handlers 10064390 f   libucrt:signal.obj
 0001:000633ae       ___fpecode                 100643ae f   libucrt:signal.obj
 0001:000633b7       ___pxcptinfoptrs           100643b7 f   libucrt:signal.obj
 0001:000633c0       _raise                     100643c0 f   libucrt:signal.obj
 0001:000635b2       _signal                    100645b2 f   libucrt:signal.obj
 0001:00063776       ??$__crt_fast_decode_pointer@P6AHPAU_exception@@@Z@@YAP6AHPAU_exception@@@ZQ6AH0@Z@Z 10064776 f i libucrt:matherr.obj
 0001:00063791       ??$__crt_fast_encode_pointer@P6AHPAU_exception@@@Z@@YAP6AHPAU_exception@@@ZQ6AH0@Z@Z 10064791 f i libucrt:matherr.obj
 0001:000637b0       ?initialize@?$dual_state_global@P6AHPAU_exception@@@Z@__crt_state_management@@QAEXQ6AHPAU_exception@@@Z@Z 100647b0 f i libucrt:matherr.obj
 0001:000637cc       ?value@?$dual_state_global@P6AHPAU_exception@@@Z@__crt_state_management@@QAEAAP6AHPAU_exception@@@ZXZ 100647cc f i libucrt:matherr.obj
 0001:000637cf       ___acrt_has_user_matherr   100647cf f   libucrt:matherr.obj
 0001:000637ec       ___acrt_initialize_user_matherr 100647ec f   libucrt:matherr.obj
 0001:000637fb       ___acrt_invoke_user_matherr 100647fb f   libucrt:matherr.obj
 0001:00063831       ___setusermatherr          10064831 f   libucrt:matherr.obj
 0001:00063846       ??0?$__crt_scoped_stack_ptr@_W@@QAE@U?$__crt_scoped_stack_ptr_tag@_W@@@Z 10064846 f i libucrt:lcmapstringa.obj
 0001:00063856       ??0?$__crt_scoped_stack_ptr_tag@_W@@QAE@QA_W@Z 10064856 f i libucrt:lcmapstringa.obj
 0001:00063866       ??1?$__crt_scoped_stack_ptr@_W@@QAE@XZ 10064866 f i libucrt:lcmapstringa.obj
 0001:0006386f       ??B?$__crt_scoped_stack_ptr@_W@@QBE_NXZ 1006486f f i libucrt:lcmapstringa.obj
 0001:00063a65       ?get@?$__crt_scoped_stack_ptr@_W@@QBEPA_WXZ 10064a65 f i libucrt:lcmapstringa.obj
 0001:00063a68       ___acrt_LCMapStringA       10064a68 f   libucrt:lcmapstringa.obj
 0001:00063ab1       ??$__crt_interlocked_read@H@@YAHPDH@Z 10064ab1 f i libucrt:setmode.obj
 0001:00063abe       ?value@?$dual_state_global@H@__crt_state_management@@QAEAAHXZ 10064abe f i libucrt:setmode.obj
 0001:00063ac1       __get_fmode                10064ac1 f   libucrt:setmode.obj
 0001:00063aee       __set_fmode                10064aee f   libucrt:setmode.obj
 0001:00063b2b       __setmode                  10064b2b f   libucrt:setmode.obj
 0001:00063c4b       __setmode_nolock           10064c4b f   libucrt:setmode.obj
 0001:00063e16       ??0__crt_seek_guard@@QAE@H_J@Z 10064e16 f i libucrt:chsize.obj
 0001:00063e63       ??1__crt_seek_guard@@QAE@XZ 10064e63 f i libucrt:chsize.obj
 0001:00063f83       ?check@?$cached@K@__crt_cached_ptd_host@@QBE_NK@Z 10064f83 f i libucrt:chsize.obj
 0001:00063f9f       __chsize                   10064f9f f   libucrt:chsize.obj
 0001:00063fbb       __chsize_nolock            10064fbb f   libucrt:chsize.obj
 0001:00063ff2       __chsize_nolock_internal   10064ff2 f   libucrt:chsize.obj
 0001:00064189       __chsize_s                 10065189 f   libucrt:chsize.obj
 0001:000646fe       __read                     100656fe f   libucrt:read.obj
 0001:00064817       __read_nolock              10065817 f   libucrt:read.obj
 0001:00064f82       __lseek                    10065f82 f   libucrt:lseek.obj
 0001:00064fb9       __lseek_internal           10065fb9 f   libucrt:lseek.obj
 0001:00064fc4       __lseek_nolock             10065fc4 f   libucrt:lseek.obj
 0001:00064ffb       __lseek_nolock_internal    10065ffb f   libucrt:lseek.obj
 0001:00065006       __lseeki64                 10066006 f   libucrt:lseek.obj
 0001:00065046       __lseeki64_internal        10066046 f   libucrt:lseek.obj
 0001:00065064       __lseeki64_nolock          10066064 f   libucrt:lseek.obj
 0001:000650a4       __lseeki64_nolock_internal 100660a4 f   libucrt:lseek.obj
 0001:000650c2       __umask                    100660c2 f   libucrt:umask.obj
 0001:000650e5       __umask_s                  100660e5 f   libucrt:umask.obj
 0001:000651c0       ___acrt_report_runtime_error 100661c0 f   libucrt:report_runtime_error.obj
 0001:000652d5       __query_app_type           100662d5 f   libucrt:report_runtime_error.obj
 0001:000652db       __set_app_type             100662db f   libucrt:report_runtime_error.obj
 0001:000652ea       ?dangerous_get_state_array@?$dual_state_global@PAPAD@__crt_state_management@@QAEPAPAPADXZ 100662ea f i libucrt:timeset.obj
 0001:000652ed       ?dangerous_get_state_array@?$dual_state_global@PAPA_W@__crt_state_management@@QAEPAPAPA_WXZ 100662ed f i libucrt:timeset.obj
 0001:000652f0       ?initialize@?$dual_state_global@H@__crt_state_management@@QAEXH@Z 100662f0 f i libucrt:timeset.obj
 0001:0006530c       ?initialize@?$dual_state_global@J@__crt_state_management@@QAEXJ@Z 1006630c f i libucrt:timeset.obj
 0001:00065328       ?value@?$dual_state_global@J@__crt_state_management@@QAEAAJXZ 10066328 f i libucrt:timeset.obj
 0001:0006532b       ___acrt_initialize_timeset 1006632b f   libucrt:timeset.obj
 0001:00065360       ___daylight                10066360 f   libucrt:timeset.obj
 0001:00065366       ___dstbias                 10066366 f   libucrt:timeset.obj
 0001:0006536c       ___timezone                1006636c f   libucrt:timeset.obj
 0001:00065372       ___tzname                  10066372 f   libucrt:timeset.obj
 0001:00065378       ___wide_tzname             10066378 f   libucrt:timeset.obj
 0001:0006537e       __get_daylight             1006637e f   libucrt:timeset.obj
 0001:000653aa       __get_dstbias              100663aa f   libucrt:timeset.obj
 0001:000653d6       __get_timezone             100663d6 f   libucrt:timeset.obj
 0001:00065402       __get_tzname               10066402 f   libucrt:timeset.obj
 0001:000654af       ??$?RUtm@@@__crt_internal_free_policy@@QBEXQBUtm@@@Z 100664af f i libucrt:gmtime.obj
 0001:00065765       ??0?$__crt_unique_heap_ptr@Utm@@U__crt_internal_free_policy@@@@QAE@QAUtm@@@Z 10066765 f i libucrt:gmtime.obj
 0001:00065775       ??1?$__crt_unique_heap_ptr@Utm@@U__crt_internal_free_policy@@@@QAE@XZ 10066775 f i libucrt:gmtime.obj
 0001:000658a2       ?detach@?$__crt_unique_heap_ptr@Utm@@U__crt_internal_free_policy@@@@QAEPAUtm@@XZ 100668a2 f i libucrt:gmtime.obj
 0001:000658a8       ?release@?$__crt_unique_heap_ptr@Utm@@U__crt_internal_free_policy@@@@QAEXXZ 100668a8 f i libucrt:gmtime.obj
 0001:000658ba       ___getgmtimebuf            100668ba f   libucrt:gmtime.obj
 0001:000658f8       __gmtime32                 100668f8 f   libucrt:gmtime.obj
 0001:0006591f       __gmtime32_s               1006691f f   libucrt:gmtime.obj
 0001:0006592a       __gmtime64                 1006692a f   libucrt:gmtime.obj
 0001:00065951       __gmtime64_s               10066951 f   libucrt:gmtime.obj
 0001:00065b76       ?_set_daylight@@YAXH@Z     10066b76 f i libucrt:tzset.obj
 0001:00065b87       ?_set_dstbias@@YAXJ@Z      10066b87 f i libucrt:tzset.obj
 0001:00065b98       ?_set_timezone@@YAXJ@Z     10066b98 f i libucrt:tzset.obj
 0001:00065cec       ?dangerous_get_state_array@?$dual_state_global@J@__crt_state_management@@QAEPAJXZ 10066cec f i libucrt:tzset.obj
 0001:00066251       ___tzset                   10067251 f   libucrt:tzset.obj
 0001:000662ae       __isindst                  100672ae f   libucrt:tzset.obj
 0001:00066302       __tzset                    10067302 f   libucrt:tzset.obj
 0001:00066344       ___acrt_GetStringTypeW     10067344 f   libucrt:getstringtypew.obj
 0001:0006635d       ___acrt_GetStringTypeA     1006735d f   libucrt:getstringtypea.obj
 0001:0006645e       ___acrt_add_locale_ref     1006745e f   libucrt:locale_refcounting.obj
 0001:000664db       ___acrt_free_locale        100674db f   libucrt:locale_refcounting.obj
 0001:00066623       ___acrt_locale_add_lc_time_reference 10067623 f   libucrt:locale_refcounting.obj
 0001:0006664c       ___acrt_locale_free_lc_time_if_unreferenced 1006764c f   libucrt:locale_refcounting.obj
 0001:0006667d       ___acrt_locale_release_lc_time_reference 1006767d f   libucrt:locale_refcounting.obj
 0001:000666a6       ___acrt_release_locale_ref 100676a6 f   libucrt:locale_refcounting.obj
 0001:00066727       ___acrt_update_thread_locale_data 10067727 f   libucrt:locale_refcounting.obj
 0001:000667a8       __updatetlocinfoEx_nolock  100677a8 f   libucrt:locale_refcounting.obj
 0001:000667f8       ??$?RG@__crt_internal_free_policy@@QBEXQBG@Z 100677f8 f i libucrt:initctype.obj
 0001:0006680a       ??$?RJ@__crt_internal_free_policy@@QBEXQBJ@Z 1006780a f i libucrt:initctype.obj
 0001:0006681c       ??0?$__crt_unique_heap_ptr@GU__crt_internal_free_policy@@@@QAE@QAG@Z 1006781c f i libucrt:initctype.obj
 0001:0006682c       ??0?$__crt_unique_heap_ptr@JU__crt_internal_free_policy@@@@QAE@QAJ@Z 1006782c f i libucrt:initctype.obj
 0001:0006683c       ??1?$__crt_unique_heap_ptr@GU__crt_internal_free_policy@@@@QAE@XZ 1006783c f i libucrt:initctype.obj
 0001:0006684e       ??1?$__crt_unique_heap_ptr@JU__crt_internal_free_policy@@@@QAE@XZ 1006784e f i libucrt:initctype.obj
 0001:00066860       ?detach@?$__crt_unique_heap_ptr@GU__crt_internal_free_policy@@@@QAEPAGXZ 10067860 f i libucrt:initctype.obj
 0001:00066866       ?detach@?$__crt_unique_heap_ptr@JU__crt_internal_free_policy@@@@QAEPAJXZ 10067866 f i libucrt:initctype.obj
 0001:0006686c       ?release@?$__crt_unique_heap_ptr@GU__crt_internal_free_policy@@@@QAEXXZ 1006786c f i libucrt:initctype.obj
 0001:0006687e       ?release@?$__crt_unique_heap_ptr@JU__crt_internal_free_policy@@@@QAEXXZ 1006787e f i libucrt:initctype.obj
 0001:00066890       ____lc_codepage_func       10067890 f   libucrt:initctype.obj
 0001:000668b5       ____lc_collate_cp_func     100678b5 f   libucrt:initctype.obj
 0001:000668da       ____lc_locale_name_func    100678da f   libucrt:initctype.obj
 0001:00066901       ____mb_cur_max_func        10067901 f   libucrt:initctype.obj
 0001:00066926       ____mb_cur_max_l_func      10067926 f   libucrt:initctype.obj
 0001:0006693f       ___acrt_locale_initialize_ctype 1006793f f   libucrt:initctype.obj
 0001:00066d9c       ??$?RUlconv@@@__crt_internal_free_policy@@QBEXQBUlconv@@@Z 10067d9c f i libucrt:initmon.obj
 0001:00066dae       ??0?$__crt_unique_heap_ptr@Ulconv@@U__crt_internal_free_policy@@@@QAE@QAUlconv@@@Z 10067dae f i libucrt:initmon.obj
 0001:00066dbe       ??1?$__crt_unique_heap_ptr@Ulconv@@U__crt_internal_free_policy@@@@QAE@XZ 10067dbe f i libucrt:initmon.obj
 0001:00066dd0       ?detach@?$__crt_unique_heap_ptr@Ulconv@@U__crt_internal_free_policy@@@@QAEPAUlconv@@XZ 10067dd0 f i libucrt:initmon.obj
 0001:00066dd6       ?release@?$__crt_unique_heap_ptr@Ulconv@@U__crt_internal_free_policy@@@@QAEXXZ 10067dd6 f i libucrt:initmon.obj
 0001:00066de8       ___acrt_locale_free_monetary 10067de8 f   libucrt:initmon.obj
 0001:00066ee6       ___acrt_locale_initialize_monetary 10067ee6 f   libucrt:initmon.obj
 0001:0006727e       ___acrt_locale_free_numeric 1006827e f   libucrt:initnum.obj
 0001:000672e7       ___acrt_locale_initialize_numeric 100682e7 f   libucrt:initnum.obj
 0001:0006753b       ??$?RU__crt_lc_time_data@@@__crt_internal_free_policy@@QBEXQBU__crt_lc_time_data@@@Z 1006853b f i libucrt:inittime.obj
 0001:000675bf       ??0?$__crt_unique_heap_ptr@U__crt_lc_time_data@@U__crt_internal_free_policy@@@@QAE@QAU__crt_lc_time_data@@@Z 100685bf f i libucrt:inittime.obj
 0001:000675cf       ??1?$__crt_unique_heap_ptr@U__crt_lc_time_data@@U__crt_internal_free_policy@@@@QAE@XZ 100685cf f i libucrt:inittime.obj
 0001:000675e1       ??B?$__crt_unique_heap_ptr@U__crt_lc_time_data@@U__crt_internal_free_policy@@@@QBE_NXZ 100685e1 f i libucrt:inittime.obj
 0001:000675e8       ?detach@?$__crt_unique_heap_ptr@U__crt_lc_time_data@@U__crt_internal_free_policy@@@@QAEPAU__crt_lc_time_data@@XZ 100685e8 f i libucrt:inittime.obj
 0001:00067613       ?get@?$__crt_unique_heap_ptr@U__crt_lc_time_data@@U__crt_internal_free_policy@@@@QBEPAU__crt_lc_time_data@@XZ 10068613 f i libucrt:inittime.obj
 0001:000678fe       ?is_valid@?$__crt_unique_heap_ptr@U__crt_lc_time_data@@U__crt_internal_free_policy@@@@QBE_NXZ 100688fe f i libucrt:inittime.obj
 0001:00067905       ?release@?$__crt_unique_heap_ptr@U__crt_lc_time_data@@U__crt_internal_free_policy@@@@QAEXXZ 10068905 f i libucrt:inittime.obj
 0001:00067917       ___acrt_locale_free_time   10068917 f   libucrt:inittime.obj
 0001:000679fb       ___acrt_locale_initialize_time 100689fb f   libucrt:inittime.obj
 0001:00067ae6       _wcscat_s                  10068ae6 f   libucrt:wcscat_s.obj
 0001:00067c3d       _wcsncat_s                 10068c3d f   libucrt:wcsncat_s.obj
 0001:00067d16       _wcsncpy_s                 10068d16 f   libucrt:wcsncpy_s.obj
 0001:00067d21       _wcscspn                   10068d21 f   libucrt:wcscspn.obj
 0001:000684ba       ___acrt_get_qualified_locale 100694ba f   libucrt:get_qualified_locale.obj
 0001:00068e4d       ___acrt_get_qualified_locale_downlevel 10069e4d f   libucrt:getqloc_downlevel.obj
 0001:0006903d       _localeconv                1006a03d f   libucrt:localeconv.obj
 0001:00069065       __fcloseall                1006a065 f   libucrt:closeall.obj
 0001:00069273       __commit                   1006a273 f   libucrt:commit.obj
 0001:000692f0       ___ascii_wcsnicmp          1006a2f0 f   libucrt:wcsnicmp.obj
 0001:0006933f       __wcsnicmp                 1006a33f f   libucrt:wcsnicmp.obj
 0001:0006938b       __wcsnicmp_l               1006a38b f   libucrt:wcsnicmp.obj
 0001:0006945e       __strnicmp                 1006a45e f   libucrt:strnicmp.obj
 0001:000694cb       __strnicmp_l               1006a4cb f   libucrt:strnicmp.obj
 0001:00069596       ___p__commode              1006a596 f   libucrt:ncommode.obj
 0001:0006959c       __isatty                   1006a59c f   libucrt:isatty.obj
 0001:0006961e       ?__mbrtowc_utf8@__crt_mbstring@@YAIPA_WPBDIPAU_Mbstatet@@AAV__crt_cached_ptd_host@@@Z 1006a61e f   libucrt:mbrtowc.obj
 0001:00069661       ?__mbsrtowcs_utf8@__crt_mbstring@@YAIPA_WPAPBDIPAU_Mbstatet@@AAV__crt_cached_ptd_host@@@Z 1006a661 f   libucrt:mbrtowc.obj
 0001:00069b9b       _btowc                     1006ab9b f   libucrt:mbrtowc.obj
 0001:00069c0c       _mbrlen                    1006ac0c f   libucrt:mbrtowc.obj
 0001:00069c54       _mbrtowc                   1006ac54 f   libucrt:mbrtowc.obj
 0001:00069cbb       _mbsrtowcs                 1006acbb f   libucrt:mbrtowc.obj
 0001:00069cf5       _mbsrtowcs_s               1006acf5 f   libucrt:mbrtowc.obj
 0001:00069e16       __putwch                   1006ae16 f   libucrt:putwch.obj
 0001:00069e43       __putwch_nolock            1006ae43 f   libucrt:putwch.obj
 0001:00069e75       __putwch_nolock_internal   1006ae75 f   libucrt:putwch.obj
 0001:00069e85       ___acrt_stdio_allocate_buffer_nolock 1006ae85 f   libucrt:_getbuf.obj
 0001:00069ee1       __query_new_mode           1006aee1 f   libucrt:new_mode.obj
 0001:00069ee8       __set_new_mode             1006aee8 f   libucrt:new_mode.obj
 0001:00069f9e       ___acrt_DownlevelLCIDToLocaleName 1006af9e f   libucrt:lcidtoname_downlevel.obj
 0001:0006a041       ___acrt_DownlevelLocaleNameToLCID 1006b041 f   libucrt:lcidtoname_downlevel.obj
 0001:0006a11e       ___acrt_fp_strflt_to_string 1006b11e f   libucrt:_fptostr.obj
 0001:0006b560       ??8__crt_strtox@@YA_NABUbig_integer@0@0@Z 1006c560 f i libucrt:cfout.obj
 0001:0006b5a0       ??9__crt_strtox@@YA_NABUbig_integer@0@0@Z 1006c5a0 f i libucrt:cfout.obj
 0001:0006b5e0       ?is_zero@__crt_strtox@@YA_NABUbig_integer@1@@Z 1006c5e0 f i libucrt:cfout.obj
 0001:0006b5f0       ?make_big_integer_power_of_two@__crt_strtox@@YA?AUbig_integer@1@I@Z 1006c5f0 f i libucrt:cfout.obj
 0001:0006b63c       ___acrt_fltout             1006c63c f   libucrt:cfout.obj
 0001:0006cca5       ?__c32rtomb_utf8@__crt_mbstring@@YAIPAD_UPAU_Mbstatet@@AAV__crt_cached_ptd_host@@@Z 1006dca5 f   libucrt:c32rtomb.obj
 0001:0006cd55       _c32rtomb                  1006dd55 f   libucrt:c32rtomb.obj
 0001:0006cd8c       ??$__acrt_fenv_shift_bits@W4__acrt_fenv_abstract_control@@@@YA?AW4__acrt_fenv_abstract_control@@W40@0I@Z 1006dd8c f i libucrt:_fenvutils.obj
 0001:0006cd9e       ??$__acrt_fenv_shift_bits@W4__acrt_fenv_abstract_status@@@@YA?AW4__acrt_fenv_abstract_status@@W40@0I@Z 1006dd9e f i libucrt:_fenvutils.obj
 0001:0006cdb0       ??$__acrt_fenv_translate_bit@W4__acrt_fenv_abstract_control@@W4__acrt_fenv_machine_sse_control@@@@YA?AW4__acrt_fenv_abstract_control@@W4__acrt_fenv_machine_sse_control@@0W40@1@Z 1006ddb0 f i libucrt:_fenvutils.obj
 0001:0006cdc8       ??$__acrt_fenv_translate_bit@W4__acrt_fenv_abstract_control@@W4__acrt_fenv_machine_x87_control@@@@YA?AW4__acrt_fenv_abstract_control@@W4__acrt_fenv_machine_x87_control@@0W40@1@Z 1006ddc8 f i libucrt:_fenvutils.obj
 0001:0006cde0       ??$__acrt_fenv_translate_bit@W4__acrt_fenv_abstract_status@@W4__acrt_fenv_machine_sse_status@@@@YA?AW4__acrt_fenv_abstract_status@@W4__acrt_fenv_machine_sse_status@@0W40@1@Z 1006dde0 f i libucrt:_fenvutils.obj
 0001:0006cdf5       ??$__acrt_fenv_translate_bit@W4__acrt_fenv_abstract_status@@W4__acrt_fenv_machine_x87_status@@@@YA?AW4__acrt_fenv_abstract_status@@W4__acrt_fenv_machine_x87_status@@0W40@1@Z 1006ddf5 f i libucrt:_fenvutils.obj
 0001:0006ce0a       ??$__acrt_fenv_translate_bit@W4__acrt_fenv_machine_sse_control@@W4__acrt_fenv_abstract_control@@@@YA?AW4__acrt_fenv_machine_sse_control@@W4__acrt_fenv_abstract_control@@0W40@1@Z 1006de0a f i libucrt:_fenvutils.obj
 0001:0006ce21       ??$__acrt_fenv_translate_bit@W4__acrt_fenv_machine_sse_status@@W4__acrt_fenv_abstract_status@@@@YA?AW4__acrt_fenv_machine_sse_status@@W4__acrt_fenv_abstract_status@@0W40@1@Z 1006de21 f i libucrt:_fenvutils.obj
 0001:0006ce36       ??$__acrt_fenv_translate_bit@W4__acrt_fenv_machine_x87_control@@W4__acrt_fenv_abstract_control@@@@YA?AW4__acrt_fenv_machine_x87_control@@W4__acrt_fenv_abstract_control@@0W40@1@Z 1006de36 f i libucrt:_fenvutils.obj
 0001:0006ce4d       ??$__acrt_fenv_translate_bit@W4__acrt_fenv_machine_x87_status@@W4__acrt_fenv_abstract_status@@@@YA?AW4__acrt_fenv_machine_x87_status@@W4__acrt_fenv_abstract_status@@0W40@1@Z 1006de4d f i libucrt:_fenvutils.obj
 0001:0006ce62       ??$__acrt_fenv_unshift_bits@W4__acrt_fenv_abstract_control@@@@YA?AW4__acrt_fenv_abstract_control@@W40@0I@Z 1006de62 f i libucrt:_fenvutils.obj
 0001:0006ce74       ??$__acrt_fenv_unshift_bits@W4__acrt_fenv_abstract_status@@@@YA?AW4__acrt_fenv_abstract_status@@W40@0I@Z 1006de74 f i libucrt:_fenvutils.obj
 0001:0006d269       ??I@YA?AW4__acrt_fenv_abstract_control@@W40@0@Z 1006e269 f i libucrt:_fenvutils.obj
 0001:0006d276       ??I@YA?AW4__acrt_fenv_abstract_status@@W40@0@Z 1006e276 f i libucrt:_fenvutils.obj
 0001:0006d283       ??I@YA?AW4__acrt_fenv_machine_sse_control@@W40@0@Z 1006e283 f i libucrt:_fenvutils.obj
 0001:0006d290       ??I@YA?AW4__acrt_fenv_machine_sse_status@@W40@0@Z 1006e290 f i libucrt:_fenvutils.obj
 0001:0006d29d       ??I@YA?AW4__acrt_fenv_machine_x87_control@@W40@0@Z 1006e29d f i libucrt:_fenvutils.obj
 0001:0006d2aa       ??I@YA?AW4__acrt_fenv_machine_x87_status@@W40@0@Z 1006e2aa f i libucrt:_fenvutils.obj
 0001:0006d2b7       ??U@YA?AW4__acrt_fenv_abstract_control@@W40@0@Z 1006e2b7 f i libucrt:_fenvutils.obj
 0001:0006d2c4       ??U@YA?AW4__acrt_fenv_abstract_status@@W40@0@Z 1006e2c4 f i libucrt:_fenvutils.obj
 0001:0006d2d1       ??U@YA?AW4__acrt_fenv_machine_sse_control@@W40@0@Z 1006e2d1 f i libucrt:_fenvutils.obj
 0001:0006d2de       ??U@YA?AW4__acrt_fenv_machine_x87_control@@W40@0@Z 1006e2de f i libucrt:_fenvutils.obj
 0001:0006d2eb       ??_5@YAAAW4__acrt_fenv_abstract_control@@AAW40@W40@@Z 1006e2eb f i libucrt:_fenvutils.obj
 0001:0006d2fa       ??_5@YAAAW4__acrt_fenv_abstract_status@@AAW40@W40@@Z 1006e2fa f i libucrt:_fenvutils.obj
 0001:0006d309       ??_5@YAAAW4__acrt_fenv_machine_sse_control@@AAW40@W40@@Z 1006e309 f i libucrt:_fenvutils.obj
 0001:0006d31a       ??_5@YAAAW4__acrt_fenv_machine_sse_status@@AAW40@W40@@Z 1006e31a f i libucrt:_fenvutils.obj
 0001:0006d329       ??_5@YAAAW4__acrt_fenv_machine_x87_control@@AAW40@W40@@Z 1006e329 f i libucrt:_fenvutils.obj
 0001:0006d33a       ??_5@YAAAW4__acrt_fenv_machine_x87_status@@AAW40@W40@@Z 1006e33a f i libucrt:_fenvutils.obj
 0001:0006d349       ?__acrt_fenv_shift_abstract_sse_control@@YA?AW4__acrt_fenv_abstract_control@@W41@@Z 1006e349 f i libucrt:_fenvutils.obj
 0001:0006d366       ?__acrt_fenv_shift_abstract_sse_status@@YA?AW4__acrt_fenv_abstract_status@@W41@@Z 1006e366 f i libucrt:_fenvutils.obj
 0001:0006d376       ?__acrt_fenv_shift_abstract_x87_control@@YA?AW4__acrt_fenv_abstract_control@@W41@@Z 1006e376 f i libucrt:_fenvutils.obj
 0001:0006d393       ?__acrt_fenv_shift_abstract_x87_status@@YA?AW4__acrt_fenv_abstract_status@@W41@@Z 1006e393 f i libucrt:_fenvutils.obj
 0001:0006d3a3       ?__acrt_fenv_unshift_abstract_sse_control@@YA?AW4__acrt_fenv_abstract_control@@W41@@Z 1006e3a3 f i libucrt:_fenvutils.obj
 0001:0006d3c2       ?__acrt_fenv_unshift_abstract_sse_status@@YA?AW4__acrt_fenv_abstract_status@@W41@@Z 1006e3c2 f i libucrt:_fenvutils.obj
 0001:0006d3d2       ?__acrt_fenv_unshift_abstract_x87_control@@YA?AW4__acrt_fenv_abstract_control@@W41@@Z 1006e3d2 f i libucrt:_fenvutils.obj
 0001:0006d3f1       ?__acrt_fenv_unshift_abstract_x87_status@@YA?AW4__acrt_fenv_abstract_status@@W41@@Z 1006e3f1 f i libucrt:_fenvutils.obj
 0001:0006d904       ___acrt_fenv_expand_round_control 1006e904 f   libucrt:_fenvutils.obj
 0001:0006d93a       ___acrt_fenv_get_common_round_control 1006e93a f   libucrt:_fenvutils.obj
 0001:0006d95c       ___acrt_fenv_get_control   1006e95c f   libucrt:_fenvutils.obj
 0001:0006d9dc       ___acrt_fenv_get_fp_status_word_from_exception_mask 1006e9dc f   libucrt:_fenvutils.obj
 0001:0006d9f6       ___acrt_fenv_get_status    1006e9f6 f   libucrt:_fenvutils.obj
 0001:0006daa0       ___acrt_fenv_set_control   1006eaa0 f   libucrt:_fenvutils.obj
 0001:0006db1b       ___acrt_fenv_set_status    1006eb1b f   libucrt:_fenvutils.obj
 0001:0006de99       ??$get_full_path_name@AAY03DAAV?$__crt_win32_buffer@DU__crt_win32_buffer_no_resizing@@@@@?$__crt_char_traits@D@@SAHAAY03DAAV?$__crt_win32_buffer@DU__crt_win32_buffer_no_resizing@@@@@Z 1006ee99 f i libucrt:getcwd.obj
 0001:0006dea4       ??$get_full_path_name@AAY03DAAV?$__crt_win32_buffer@DU__crt_win32_buffer_public_dynamic_resizing@@@@@?$__crt_char_traits@D@@SAHAAY03DAAV?$__crt_win32_buffer@DU__crt_win32_buffer_public_dynamic_resizing@@@@@Z 1006eea4 f i libucrt:getcwd.obj
 0001:0006deaf       ??$get_full_path_name@AAY03_WAAV?$__crt_win32_buffer@_WU__crt_win32_buffer_no_resizing@@@@@?$__crt_char_traits@_W@@SAHAAY03_WAAV?$__crt_win32_buffer@_WU__crt_win32_buffer_no_resizing@@@@@Z 1006eeaf f i libucrt:getcwd.obj
 0001:0006deba       ??$get_full_path_name@AAY03_WAAV?$__crt_win32_buffer@_WU__crt_win32_buffer_public_dynamic_resizing@@@@@?$__crt_char_traits@_W@@SAHAAY03_WAAV?$__crt_win32_buffer@_WU__crt_win32_buffer_public_dynamic_resizing@@@@@Z 1006eeba f i libucrt:getcwd.obj
 0001:0006df44       __getcwd                   1006ef44 f   libucrt:getcwd.obj
 0001:0006df60       __getdcwd                  1006ef60 f   libucrt:getcwd.obj
 0001:0006df7e       __wgetcwd                  1006ef7e f   libucrt:getcwd.obj
 0001:0006df9a       __wgetdcwd                 1006ef9a f   libucrt:getcwd.obj
 0001:0006e039       __towlower_l               1006f039 f   libucrt:towlower.obj
 0001:0006e10d       _towlower                  1006f10d f   libucrt:towlower.obj
 0001:0006e1e0       _qsort                     1006f1e0 f   libucrt:qsort.obj
 0001:0006e6d0       _strpbrk                   1006f6d0 f   libucrt:strpbrk.obj
 0001:0006e710       __mbsdec                   1006f710 f   libucrt:mbsdec.obj
 0001:0006e727       __mbsdec_l                 1006f727 f   libucrt:mbsdec.obj
 0001:0006e7c3       __wcsnicoll                1006f7c3 f   libucrt:wcsnicol.obj
 0001:0006e830       __wcsnicoll_l              1006f830 f   libucrt:wcsnicol.obj
 0001:0006e8f0       __strnicoll                1006f8f0 f   libucrt:strnicol.obj
 0001:0006e919       __strnicoll_l              1006f919 f   libucrt:strnicol.obj
 0001:0006e9e1       ___acrt_SetEnvironmentVariableA 1006f9e1 f   libucrt:setenvironmentvariablea.obj
 0001:0006ea76       __msize                    1006fa76 f   libucrt:msize.obj
 0001:0006ea81       __msize_base               1006fa81 f   libucrt:msize.obj
 0001:0006eab4       ___strncnt                 1006fab4 f   libucrt:strncnt.obj
 0001:0006ead0       ?dangerous_get_state_array@?$dual_state_global@H@__crt_state_management@@QAEPAHXZ 1006fad0 f i libucrt:txtmode.obj
 0001:0006ead3       ___acrt_initialize_fmode   1006fad3 f   libucrt:txtmode.obj
 0001:0006eae9       ___p__fmode                1006fae9 f   libucrt:txtmode.obj
 0001:0006eaef       __set_error_mode           1006faef f   libucrt:set_error_mode.obj
 0001:0006ec31       ??$message_box@$$TABQBDABQBDK@?$__crt_char_traits@D@@SAH$$QA$$TABQBD1$$QAK@Z 1006fc31 f i libucrt:crtmbox.obj
 0001:0006ec51       ??$message_box@$$TABQB_WABQB_WK@?$__crt_char_traits@_W@@SAH$$QA$$TABQB_W1$$QAK@Z 1006fc51 f i libucrt:crtmbox.obj
 0001:0006ec71       ??$message_box@PAUHWND__@@ABQBDABQBDABI@?$__crt_char_traits@D@@SAH$$QAPAUHWND__@@ABQBD1ABI@Z 1006fc71 f i libucrt:crtmbox.obj
 0001:0006ec91       ??$message_box@PAUHWND__@@ABQB_WABQB_WABI@?$__crt_char_traits@_W@@SAH$$QAPAUHWND__@@ABQB_W1ABI@Z 1006fc91 f i libucrt:crtmbox.obj
 0001:0006ecb1       ??$output_debug_string@ABQBD@?$__crt_char_traits@D@@SAXABQBD@Z 1006fcb1 f i libucrt:crtmbox.obj
 0001:0006ecc2       ??$output_debug_string@ABQB_W@?$__crt_char_traits@_W@@SAXABQB_W@Z 1006fcc2 f i libucrt:crtmbox.obj
 0001:0006ecd4       ___acrt_show_narrow_message_box 1006fcd4 f   libucrt:crtmbox.obj
 0001:0006ecdf       ___acrt_show_wide_message_box 1006fcdf f   libucrt:crtmbox.obj
 0001:0006f300       ??$tcscpy_s@AAPADABIABQBD@?$__crt_char_traits@D@@SAHAAPADABIABQBD@Z 10070300 f i libucrt:getenv.obj
 0001:0006f31e       ??$tcscpy_s@AAPA_WABIABQB_W@?$__crt_char_traits@_W@@SAHAAPA_WABIABQB_W@Z 1007031e f i libucrt:getenv.obj
 0001:0006f33c       ??$tcscpy_s@ABQADABIABQBD@?$__crt_char_traits@D@@SAHABQADABIABQBD@Z 1007033c f i libucrt:getenv.obj
 0001:0006f35a       ??$tcscpy_s@ABQA_WABIABQB_W@?$__crt_char_traits@_W@@SAHABQA_WABIABQB_W@Z 1007035a f i libucrt:getenv.obj
 0001:0006f378       ??$tcsnicoll@AAPADABQBDABI@?$__crt_char_traits@D@@SAHAAPADABQBDABI@Z 10070378 f i libucrt:getenv.obj
 0001:0006f396       ??$tcsnicoll@AAPA_WABQB_WABI@?$__crt_char_traits@_W@@SAHAAPA_WABQB_WABI@Z 10070396 f i libucrt:getenv.obj
 0001:0006f3b4       ??$tcsnlen@ABQBDH@?$__crt_char_traits@D@@SAIABQBD$$QAH@Z 100703b4 f i libucrt:getenv.obj
 0001:0006f3cc       ??$tcsnlen@ABQB_WH@?$__crt_char_traits@_W@@SAIABQB_W$$QAH@Z 100703cc f i libucrt:getenv.obj
 0001:0006f3e4       __dupenv_s                 100703e4 f   libucrt:getenv.obj
 0001:0006f402       __wdupenv_s                10070402 f   libucrt:getenv.obj
 0001:0006f420       __wgetenv                  10070420 f   libucrt:getenv.obj
 0001:0006f42b       __wgetenv_s                1007042b f   libucrt:getenv.obj
 0001:0006f436       _getenv                    10070436 f   libucrt:getenv.obj
 0001:0006f441       _getenv_s                  10070441 f   libucrt:getenv.obj
 0001:0006f52b       ___acrt_GetLocaleInfoA     1007052b f   libucrt:getlocaleinfoa.obj
 0001:0006f6e0       ___ascii_strnicmp          100706e0 f   libucrt:_strnicm.obj
 0001:0006f741       ?__mbrtoc32_utf8@__crt_mbstring@@YAIPA_UPBDIPAU_Mbstatet@@AAV__crt_cached_ptd_host@@@Z 10070741 f   libucrt:mbrtoc32.obj
 0001:0006f8f2       _mbrtoc32                  100708f2 f   libucrt:mbrtoc32.obj
 0001:0006f9dc       ___dcrt_lowio_ensure_console_output_initialized 100709dc f   libucrt:initcon.obj
 0001:0006f9fb       ___dcrt_terminate_console_output 100709fb f   libucrt:initcon.obj
 0001:0006fa12       ___dcrt_write_console      10070a12 f   libucrt:initcon.obj
 0001:0006fa67       __controlfp_s              10070a67 f   libucrt:contrlfp.obj
 0001:0006fac6       _fegetenv                  10070ac6 f   libucrt:fegetenv.obj
 0001:0006fae3       _fesetenv                  10070ae3 f   libucrt:fesetenv.obj
 0001:0006fb2f       _feholdexcept              10070b2f f   libucrt:feholdexcept.obj
 0001:0006fb80       __CIlog10                  10070b80 f   libucrt:log10_impl.obj
 0001:0006fbbb       __CIlog10_default          10070bbb f   libucrt:log10_impl.obj
 0001:0006fbcf       __log10_default            10070bcf     libucrt:log10_impl.obj
 0001:0006fc90       _ceil                      10070c90 f   libucrt:ceil_pentium4.obj
 0001:0006fcd0       __ceil_pentium4            10070cd0 f   libucrt:ceil_pentium4.obj
 0001:0006fdad       ?reset_and_return@__crt_mbstring@@YAIIPAU_Mbstatet@@@Z 10070dad f   libucrt:common_utf8.obj
 0001:0006fdc1       ?return_illegal_sequence@__crt_mbstring@@YAIPAU_Mbstatet@@AAV__crt_cached_ptd_host@@@Z 10070dc1 f   libucrt:common_utf8.obj
 0001:0006fde3       ___acrt_LCMapStringW       10070de3 f   libucrt:lcmapstringw.obj
 0001:0006fe21       ___acrt_CompareStringW     10070e21 f   libucrt:comparestringw.obj
 0001:00070125       ___acrt_CompareStringA     10071125 f   libucrt:comparestringa.obj
 0001:0007016b       ___acrt_OutputDebugStringA@4 1007116b f   libucrt:outputdebugstringa.obj
 0001:0007031d       ___control87_2             1007131d f   libucrt:ieee87.obj
 0001:000707b5       ___fpreset_sse2            100717b5 f   libucrt:ieee87.obj
 0001:0007098b       __clearfp                  1007198b f   libucrt:ieee87.obj
 0001:00070a69       __control87                10071a69 f   libucrt:ieee87.obj
 0001:00070d6a       __controlfp                10071d6a f   libucrt:ieee87.obj
 0001:00070d84       __fpreset                  10071d84 f   libucrt:ieee87.obj
 0001:00070e5a       __set_controlfp            10071e5a f   libucrt:ieee87.obj
 0001:00070ecd       __statusfp                 10071ecd f   libucrt:ieee87.obj
 0001:00070f68       __statusfp2                10071f68 f   libucrt:ieee87.obj
 0001:00070fcb       ___acrt_initialize_sse2    10071fcb f   libucrt:mathfcns.obj
 0001:00070fdb       __set_SSE2_enable          10071fdb f   libucrt:mathfcns.obj
 0001:00071000       __CIlog10_pentium4         10072000 f   libucrt:log10_pentium4.obj
 0001:00071018       __log10_pentium4           10072018     libucrt:log10_pentium4.obj
 0001:000712b0       __fFEXP                    100722b0 f   libucrt:87tran.obj
 0001:00071307       __rtinfpopse               10072307     libucrt:87tran.obj
 0001:00071309       __rtinfnpopse              10072309     libucrt:87tran.obj
 0001:00071319       __fFLN                     10072319     libucrt:87tran.obj
 0001:000713ce       __rtinfpop                 100723ce     libucrt:87tran.obj
 0001:000713d0       __rtinfnpop                100723d0     libucrt:87tran.obj
 0001:000713e0       __rtforexpinf              100723e0 f   libucrt:87tran.obj
 0001:000713ed       __ffexpm1                  100723ed     libucrt:87tran.obj
 0001:000714a0       __trandisp1                100724a0 f   libucrt:87disp.obj
 0001:00071515       __trandisp2                10072515 f   libucrt:87disp.obj
 0001:000715af       __rttospopde               100725af     libucrt:87disp.obj
 0001:000715b4       __rttospop                 100725b4     libucrt:87disp.obj
