 LF_Server

 Timestamp is 6609b757 (Sun Mar 31 21:19:51 2024)

 Preferred load address is 10000000

 Start         Length     Name                   Class
 0001:00000000 00000020H .text$di                CODE
 0001:00000020 0004b030H .text$mn                CODE
 0001:0004b050 00000260H .text$x                 CODE
 0001:0004b2b0 0000000aH .text$yd                CODE
 0002:00000000 00000168H .idata$5                DATA
 0002:00000168 0000000cH .00cfg                  DATA
 0002:00000174 00000004H .CRT$XCA                DATA
 0002:00000178 00000004H .CRT$XCU                DATA
 0002:0000017c 00000004H .CRT$XCZ                DATA
 0002:00000180 00000004H .CRT$XIA                DATA
 0002:00000184 0000000cH .CRT$XIC                DATA
 0002:00000190 00000004H .CRT$XIZ                DATA
 0002:00000194 00000004H .CRT$XPA                DATA
 0002:00000198 00000008H .CRT$XPX                DATA
 0002:000001a0 00000004H .CRT$XPXA               DATA
 0002:000001a4 00000004H .CRT$XPZ                DATA
 0002:000001a8 00000004H .CRT$XTA                DATA
 0002:000001ac 00000004H .CRT$XTZ                DATA
 0002:000001b0 00000000H .gfids$y                DATA
 0002:000001b0 00007690H .rdata                  DATA
 0002:00007840 00000040H .rdata$CastGuardVftablesA DATA
 0002:00007880 00000040H .rdata$CastGuardVftablesC DATA
 0002:000078c0 000003ccH .rdata$r                DATA
 0002:00007c8c 00000060H .rdata$sxdata           DATA
 0002:00007cec 00000384H .rdata$voltmd           DATA
 0002:00008070 000003acH .rdata$zzzdbg           DATA
 0002:0000841c 00000004H .rtc$IAA                DATA
 0002:00008420 00000004H .rtc$IZZ                DATA
 0002:00008424 00000004H .rtc$TAA                DATA
 0002:00008428 00000008H .rtc$TZZ                DATA
 0002:00008430 00000bd0H .xdata$x                DATA
 0002:00009000 000001b4H .edata                  DATA
 0002:000091b4 00000028H .idata$2                DATA
 0002:000091dc 00000014H .idata$3                DATA
 0002:000091f0 00000168H .idata$4                DATA
 0002:00009358 0000069eH .idata$6                DATA
 0003:00000000 00000950H .data                   DATA
 0003:00000950 00000080H .data$r                 DATA
 0003:000009d0 000000e8H .data$rs                DATA
 0003:00000ab8 000012b4H .bss                    DATA
 0004:00000000 00000060H .rsrc$01                DATA
 0004:00000060 00000180H .rsrc$02                DATA

  Address         Publics by Value              Rva+Base       Lib:Object

 0000:00000000       ___AbsoluteZero            00000000     <absolute>
 0000:00000000       ___arm64x_extra_rfe_table  00000000     <absolute>
 0000:00000000       ___arm64x_extra_rfe_table_size 00000000     <absolute>
 0000:00000000       ___arm64x_native_entrypoint 00000000     <absolute>
 0000:00000000       ___arm64x_redirection_metadata 00000000     <absolute>
 0000:00000000       ___arm64x_redirection_metadata_count 00000000     <absolute>
 0000:00000000       ___dynamic_value_reloc_table 00000000     <absolute>
 0000:00000000       ___enclave_config          00000000     <absolute>
 0000:00000000       ___guard_check_icall_a64n_fptr 00000000     <absolute>
 0000:00000000       ___guard_eh_cont_count     00000000     <absolute>
 0000:00000000       ___guard_eh_cont_table     00000000     <absolute>
 0000:00000000       ___guard_fids_count        00000000     <absolute>
 0000:00000000       ___guard_fids_table        00000000     <absolute>
 0000:00000000       ___guard_iat_count         00000000     <absolute>
 0000:00000000       ___guard_iat_table         00000000     <absolute>
 0000:00000000       ___guard_longjmp_count     00000000     <absolute>
 0000:00000000       ___guard_longjmp_table     00000000     <absolute>
 0000:00000000       ___hybrid_auxiliary_delayload_iat 00000000     <absolute>
 0000:00000000       ___hybrid_auxiliary_delayload_iat_copy 00000000     <absolute>
 0000:00000000       ___hybrid_auxiliary_iat    00000000     <absolute>
 0000:00000000       ___hybrid_auxiliary_iat_copy 00000000     <absolute>
 0000:00000000       ___hybrid_code_map         00000000     <absolute>
 0000:00000000       ___hybrid_code_map_count   00000000     <absolute>
 0000:00000000       ___hybrid_image_info_bitfield 00000000     <absolute>
 0000:00000000       ___x64_code_ranges_to_entry_points 00000000     <absolute>
 0000:00000000       ___x64_code_ranges_to_entry_points_count 00000000     <absolute>
 0000:00000000       __except_list              00000000     <absolute>
 0000:00000018       ___safe_se_handler_count   00000018     <absolute>
 0000:00000100       ___guard_flags             00000100     <absolute>
 0000:00000000       ___ImageBase               10000000     <linker-defined>
 0001:00000020       ??0ParsedRQ@@QAE@XZ        10001020 f   ParseRQ.obj
 0001:00000030       ??1ParsedRQ@@QAE@XZ        10001030 f   ParseRQ.obj
 0001:00000040       ?AddComm@ParsedRQ@@QAEXPAD@Z 10001040 f   ParseRQ.obj
 0001:000000e0       ?AddIntParam@ParsedRQ@@QAEXH@Z 100010e0 f   ParseRQ.obj
 0001:00000140       ?AddParam@ParsedRQ@@QAEXPADH@Z 10001140 f   ParseRQ.obj
 0001:000001d0       ?AddParamToCom@ParsedRQ@@QAEXHPADH@Z 100011d0 f   ParseRQ.obj
 0001:00000260       ?Clear@ParsedRQ@@QAEXXZ    10001260 f   ParseRQ.obj
 0001:00000310       ?Compact@ParsedRQ@@QAEHPADH@Z 10001310 f   ParseRQ.obj
 0001:00000520       ?DelComm@ParsedRQ@@QAEXH@Z 10001520 f   ParseRQ.obj
 0001:000005b0       ?Extract@ParsedRQ@@QAEXPADH@Z 100015b0 f   ParseRQ.obj
 0001:00000690       ?GetHVal@@YAHD@Z           10001690 f   ParseRQ.obj
 0001:000006c0       ?Parse@ParsedRQ@@QAEXPAD@Z 100016c0 f   ParseRQ.obj
 0001:000008b0       ?UnParse@ParsedRQ@@QAEHPADH@Z 100018b0 f   ParseRQ.obj
 0001:00000b40       ??0CGSCarch@@QAE@ABV0@@Z   10001b40 f i LF_Server.obj
 0001:00000bb0       ??0CGSCset@@QAE@ABV0@@Z    10001bb0 f i LF_Server.obj
 0001:00000bd0       ??0LF_Requests@@QAE@XZ     10001bd0 f   LF_Server.obj
 0001:00000c00       ??0OneLF_Request@@QAE@XZ   10001c00 f   LF_Server.obj
 0001:00000c60       ??1LF_Requests@@QAE@XZ     10001c60 f   LF_Server.obj
 0001:00000cb0       ??1OneLF_Request@@QAE@XZ   10001cb0 f   LF_Server.obj
 0001:00000cf0       ??4CGSCarch@@QAEAAV0@ABV0@@Z 10001cf0 f i LF_Server.obj
 0001:00000d70       ??4CGSCset@@QAEAAV0@ABV0@@Z 10001d70 f i LF_Server.obj
 0001:00000d90       ??_ECGSCarch@@UAEPAXI@Z    10001d90 f i LF_Server.obj
 0001:00000e40       ??_ECGSCset@@UAEPAXI@Z     10001e40 f i LF_Server.obj
 0001:00000ef0       ??_GCGSCarch@@UAEPAXI@Z    10001ef0 f i LF_Server.obj
 0001:00000f20       ??_GCGSCset@@UAEPAXI@Z     10001f20 f i LF_Server.obj
 0001:00000f50       ?LF_CloseAll@@YAXXZ        10001f50 f   LF_Server.obj
 0001:00000f60       ?LF_CloseAll@LF_Requests@@QAEXXZ 10001f60 f   LF_Server.obj
 0001:00000f90       ?LF_CloseRequest@@YAXK@Z   10001f90 f   LF_Server.obj
 0001:00000fb0       ?LF_CloseRequest@LF_Requests@@QAEXK@Z 10001fb0 f   LF_Server.obj
 0001:00001000       ?LF_GetRequestResult@@YAKKPAPADPAH@Z 10002000 f   LF_Server.obj
 0001:00001020       ?LF_GetRequestResult@LF_Requests@@QAEKKPAPADPAH@Z 10002020 f   LF_Server.obj
 0001:000010d0       ?LF_Process@@YAXXZ         100020d0 f   LF_Server.obj
 0001:000010e0       ?LF_Process@LF_Requests@@QAEXXZ 100020e0 f   LF_Server.obj
 0001:000015d0       ?LF_SendRequest@@YAKPADH@Z 100025d0 f   LF_Server.obj
 0001:000015f0       ?LF_SendRequest@LF_Requests@@QAEKPADH@Z 100025f0 f   LF_Server.obj
 0001:00001700       _DllMain@12                10002700 f   LF_Server.obj
 0001:00001710       ___local_stdio_printf_options 10002710 f i LF_Server.obj
 0001:00001720       _sprintf                   10002720 f i LF_Server.obj
 0001:00001751       _GetTickCount@0            10002751 f   kernel32:KERNEL32.dll
 0001:00001757       ??1CGSCarch@@UAE@XZ        10002757 f   dmcr:dmcr.exe
 0001:0000175d       ??1CGSCset@@UAE@XZ         1000275d f   dmcr:dmcr.exe
 0001:00001763       ?RReset@@YAPAXPBD@Z        10002763 f   dmcr:dmcr.exe
 0001:00001769       ?RFileSize@@YAKPAX@Z       10002769 f   dmcr:dmcr.exe
 0001:0000176f       ?RBlockRead@@YAKPAX0K@Z    1000276f f   dmcr:dmcr.exe
 0001:00001775       ?RClose@@YAXPAX@Z          10002775 f   dmcr:dmcr.exe
 0001:0000177b       ___raise_securityfailure   1000277b f   LIBCMT:gs_report.obj
 0001:000017a3       ___report_gsfailure        100027a3 f   LIBCMT:gs_report.obj
 0001:0000189d       ___report_rangecheckfailure 1000289d f   LIBCMT:gs_report.obj
 0001:000018a9       ___report_securityfailure  100028a9 f   LIBCMT:gs_report.obj
 0001:00001978       ___report_securityfailureEx 10002978 f   LIBCMT:gs_report.obj
 0001:00001a8d       @__security_check_cookie@4 10002a8d f   LIBCMT:secchk.obj
 0001:00001a9b       ??_M@YGXPAXIHP6EX0@Z@Z     10002a9b f   LIBCMT:ehvecdtr.obj
 0001:00001aa0       ??_M@YGXPAXIIP6EX0@Z@Z     10002aa0 f   LIBCMT:ehvecdtr.obj
 0001:00001b54       ?__ArrayUnwind@@YGXPAXIIP6EX0@Z@Z 10002b54 f   LIBCMT:ehvecdtr.obj
 0001:00001be4       ??2@YAPAXI@Z               10002be4 f   LIBCMT:new_scalar.obj
 0001:00001c14       ??3@YAXPAXI@Z              10002c14 f   LIBCMT:delete_scalar_size.obj
 0001:00001c22       ??_V@YAXPAXI@Z             10002c22 f   LIBCMT:delete_array_size.obj
 0001:00001c30       ?configure_argv@__scrt_narrow_argv_policy@@SAHXZ 10002c30 f i LIBCMT:utility.obj
 0001:00001c81       ?initialize_environment@__scrt_narrow_environment_policy@@SAHXZ 10002c81 f i LIBCMT:utility.obj
 0001:00001cb9       _NtCurrentTeb              10002cb9 f i LIBCMT:utility.obj
 0001:00001cc0       ___scrt_acquire_startup_lock 10002cc0 f   LIBCMT:utility.obj
 0001:00001cf2       ___scrt_dllmain_after_initialize_c 10002cf2 f   LIBCMT:utility.obj
 0001:00001d1d       ___scrt_dllmain_before_initialize_c 10002d1d f   LIBCMT:utility.obj
 0001:00001d2b       ___scrt_dllmain_crt_thread_attach 10002d2b f   LIBCMT:utility.obj
 0001:00001d4a       ___scrt_dllmain_crt_thread_detach 10002d4a f   LIBCMT:utility.obj
 0001:00001d57       ___scrt_dllmain_exception_filter 10002d57 f   LIBCMT:utility.obj
 0001:00001d8b       ___scrt_dllmain_uninitialize_c 10002d8b f   LIBCMT:utility.obj
 0001:00001dae       ___scrt_dllmain_uninitialize_critical 10002dae f   LIBCMT:utility.obj
 0001:00001dbb       ___scrt_initialize_crt     10002dbb f   LIBCMT:utility.obj
 0001:00001df4       ___scrt_initialize_onexit_tables 10002df4 f   LIBCMT:utility.obj
 0001:00001e7b       ___scrt_is_nonwritable_in_current_image 10002e7b f   LIBCMT:utility.obj
 0001:00001f0f       ___scrt_release_startup_lock 10002f0f f   LIBCMT:utility.obj
 0001:00001f2c       ___scrt_uninitialize_crt   10002f2c f   LIBCMT:utility.obj
 0001:00001f54       __onexit                   10002f54 f   LIBCMT:utility.obj
 0001:00001f81       _at_quick_exit             10002f81 f   LIBCMT:utility.obj
 0001:00001fa4       _atexit                    10002fa4 f   LIBCMT:utility.obj
 0001:00001fb9       ??1type_info@@UAE@XZ       10002fb9 f   LIBCMT:std_type_info_static.obj
 0001:00001fc0       ??_Etype_info@@UAEPAXI@Z   10002fc0 f i LIBCMT:std_type_info_static.obj
 0001:00001fc0       ??_Gtype_info@@UAEPAXI@Z   10002fc0 f i LIBCMT:std_type_info_static.obj
 0001:00002323       __CRT_INIT@12              10003323 f   LIBCMT:dll_dllmain.obj
 0001:0000232c       __DllMainCRTStartup@12     1000332c f   LIBCMT:dll_dllmain.obj
 0001:00002350       __SEH_prolog4              10003350 f   LIBCMT:sehprolg4.obj
 0001:000023a0       __SEH_epilog4              100033a0 f   LIBCMT:sehprolg4.obj
 0001:000023b4       @_guard_check_icall_nop@4  100033b4 f i LIBCMT:guard_support.obj
 0001:000023b7       _ReadNoFence               100033b7 f i LIBCMT:guard_support.obj
 0001:000023c1       _ReadPointerNoFence        100033c1 f i LIBCMT:guard_support.obj
 0001:000023cb       __InlineInterlockedExchangePointer 100033cb f i LIBCMT:guard_support.obj
 0001:000023d8       ___castguard_check_failure_debugbreak 100033d8 f i LIBCMT:guard_support.obj
 0001:000023f3       ___castguard_check_failure_fastfail 100033f3 f i LIBCMT:guard_support.obj
 0001:00002412       ___castguard_check_failure_nop 10003412 f i LIBCMT:guard_support.obj
 0001:00002415       ___castguard_check_failure_os_handled 10003415 f i LIBCMT:guard_support.obj
 0001:0000244c       ___castguard_check_failure_user_handled 1000344c f i LIBCMT:guard_support.obj
 0001:000024ba       ___castguard_set_user_handler 100034ba f i LIBCMT:guard_support.obj
 0001:000024c9       ___castguard_slow_path_check_debugbreak 100034c9 f i LIBCMT:guard_support.obj
 0001:000024f6       ___castguard_slow_path_check_fastfail 100034f6 f i LIBCMT:guard_support.obj
 0001:00002527       ___castguard_slow_path_check_nop 10003527 f i LIBCMT:guard_support.obj
 0001:0000252a       ___castguard_slow_path_check_os_handled 1000352a f i LIBCMT:guard_support.obj
 0001:00002566       ___castguard_slow_path_check_user_handled 10003566 f i LIBCMT:guard_support.obj
 0001:000025c7       __guard_icall_checks_enforced 100035c7 f i LIBCMT:guard_support.obj
 0001:000025d9       ??0bad_alloc@std@@AAE@QBD@Z 100035d9 f i LIBCMT:throw_bad_alloc.obj
 0001:000025f6       ??0bad_alloc@std@@QAE@ABV01@@Z 100035f6 f i LIBCMT:throw_bad_alloc.obj
 0001:00002611       ??0bad_alloc@std@@QAE@XZ   10003611 f i LIBCMT:throw_bad_alloc.obj
 0001:00002629       ??0bad_array_new_length@std@@QAE@ABV01@@Z 10003629 f i LIBCMT:throw_bad_alloc.obj
 0001:00002644       ??0bad_array_new_length@std@@QAE@XZ 10003644 f i LIBCMT:throw_bad_alloc.obj
 0001:0000265c       ??0exception@std@@QAE@ABV01@@Z 1000365c f i LIBCMT:throw_bad_alloc.obj
 0001:00002688       ??0exception@std@@QAE@QBDH@Z 10003688 f i LIBCMT:throw_bad_alloc.obj
 0001:000026a5       ??1bad_alloc@std@@UAE@XZ   100036a5 f i LIBCMT:throw_bad_alloc.obj
 0001:000026b6       ??1bad_array_new_length@std@@UAE@XZ 100036b6 f i LIBCMT:throw_bad_alloc.obj
 0001:000026c7       ??1exception@std@@UAE@XZ   100036c7 f i LIBCMT:throw_bad_alloc.obj
 0001:000026d8       ??_Ebad_alloc@std@@UAEPAXI@Z 100036d8 f i LIBCMT:throw_bad_alloc.obj
 0001:000026d8       ??_Gbad_alloc@std@@UAEPAXI@Z 100036d8 f i LIBCMT:throw_bad_alloc.obj
 0001:00002705       ??_Ebad_array_new_length@std@@UAEPAXI@Z 10003705 f i LIBCMT:throw_bad_alloc.obj
 0001:00002705       ??_Gbad_array_new_length@std@@UAEPAXI@Z 10003705 f i LIBCMT:throw_bad_alloc.obj
 0001:00002732       ??_Eexception@std@@UAEPAXI@Z 10003732 f i LIBCMT:throw_bad_alloc.obj
 0001:00002732       ??_Gexception@std@@UAEPAXI@Z 10003732 f i LIBCMT:throw_bad_alloc.obj
 0001:0000275f       ?__scrt_throw_std_bad_alloc@@YAXXZ 1000375f f   LIBCMT:throw_bad_alloc.obj
 0001:0000277c       ?__scrt_throw_std_bad_array_new_length@@YAXXZ 1000377c f   LIBCMT:throw_bad_alloc.obj
 0001:00002799       ?what@exception@std@@UBEPBDXZ 10003799 f i LIBCMT:throw_bad_alloc.obj
 0001:000027a6       ??3@YAXPAX@Z               100037a6 f   LIBCMT:delete_scalar.obj
 0001:000027ab       ??_V@YAXPAX@Z              100037ab f   LIBCMT:delete_array.obj
 0001:000027b0       ___isa_available_init      100037b0 f   LIBCMT:cpu_disp.obj
 0001:00002984       __get_startup_argv_mode    10003984 f   LIBCMT:argv_mode.obj
 0001:00002988       ___scrt_is_ucrt_dll_in_use 10003988 f   LIBCMT:ucrt_detection.obj
 0001:00002994       ___scrt_fastfail           10003994 f   LIBCMT:utility_desktop.obj
 0001:00002aa9       ___scrt_get_show_window_mode 10003aa9 f   LIBCMT:utility_desktop.obj
 0001:00002ada       ___scrt_initialize_mta     10003ada f   LIBCMT:utility_desktop.obj
 0001:00002adf       ___scrt_initialize_winrt   10003adf f   LIBCMT:utility_desktop.obj
 0001:00002ae2       ___scrt_is_managed_app     10003ae2 f   LIBCMT:utility_desktop.obj
 0001:00002b24       ___scrt_set_unhandled_exception_filter 10003b24 f   LIBCMT:utility_desktop.obj
 0001:00002b30       ___scrt_exe_initialize_mta 10003b30 f   LIBCMT:utility_desktop.obj
 0001:00002b30       ___scrt_stub_for_initialize_mta 10003b30 f   LIBCMT:utility_desktop.obj
 0001:00002b33       ___scrt_unhandled_exception_filter@4 10003b33 f   LIBCMT:utility_desktop.obj
 0001:00002b89       __crt_debugger_hook        10003b89 f   LIBCMT:utility_desktop.obj
 0001:00002bde       ___security_init_cookie    10003bde f   LIBCMT:gs_support.obj
 0001:00002c29       ?__scrt_initialize_type_info@@YAXXZ 10003c29 f   LIBCMT:tncleanup.obj
 0001:00002c35       ?__scrt_uninitialize_type_info@@YAXXZ 10003c35 f   LIBCMT:tncleanup.obj
 0001:00002c41       ___local_stdio_scanf_options 10003c41 f i LIBCMT:default_local_stdio_options.obj
 0001:00002c47       ___scrt_initialize_default_local_stdio_options 10003c47 f   LIBCMT:default_local_stdio_options.obj
 0001:00002c64       ___scrt_get_dyn_tls_init_callback 10003c64 f   LIBCMT:dyn_tls_init.obj
 0001:00002c6a       __RTC_Initialize           10003c6a f   LIBCMT:initsect.obj
 0001:00002c96       __RTC_Terminate            10003c96 f   LIBCMT:initsect.obj
 0001:00002cd0       _memcpy                    10003cd0 f   libvcruntime:memcpy.obj
 0001:00003250       _memmove                   10004250 f   libvcruntime:memmove.obj
 0001:000037c4       ??$?0AAViterator@TryBlockMap@__FrameHandler3@@AAV012@$0A@@?$pair@Viterator@TryBlockMap@__FrameHandler3@@V123@@std@@QAE@AAViterator@TryBlockMap@__FrameHandler3@@0@Z 100047c4 f i libvcruntime:trnsctrl.obj
 0001:000037e8       ??$forward@AAViterator@TryBlockMap@__FrameHandler3@@@std@@YAAAViterator@TryBlockMap@__FrameHandler3@@AAV123@@Z 100047e8 f i libvcruntime:trnsctrl.obj
 0001:000037f0       ??0iterator@TryBlockMap@__FrameHandler3@@QAE@AAV12@I@Z 100047f0 f i libvcruntime:trnsctrl.obj
 0001:00003804       ?GetRangeOfTrysToCheck@__FrameHandler3@@SA?AU?$pair@Viterator@TryBlockMap@__FrameHandler3@@V123@@std@@AAVTryBlockMap@1@HPAXPBU_s_FuncInfo@@H@Z 10004804 f   libvcruntime:trnsctrl.obj
 0001:00003873       ?_CallCatchBlock2@@YAPAXPAUEHRegistrationNode@@PBU_s_FuncInfo@@PAXHK@Z 10004873 f   libvcruntime:trnsctrl.obj
 0001:000038d0       ?_CallSETranslator@@YAHPAUEHExceptionRecord@@PAUEHRegistrationNode@@PAX2PBU_s_FuncInfo@@H1@Z 100048d0 f   libvcruntime:trnsctrl.obj
 0001:000039c0       ?_JumpToContinuation@@YGXPAXPAUEHRegistrationNode@@@Z 100049c0 f   libvcruntime:trnsctrl.obj
 0001:000039f0       ?_UnwindNestedFrames@@YGXPAUEHRegistrationNode@@PAUEHExceptionRecord@@@Z 100049f0 f   libvcruntime:trnsctrl.obj
 0001:00003a43       __CatchGuardHandler        10004a43 f   libvcruntime:trnsctrl.obj
 0001:00003a74       __CreateFrameInfo          10004a74 f   libvcruntime:trnsctrl.obj
 0001:00003a98       __FindAndUnlinkFrame       10004a98 f   libvcruntime:trnsctrl.obj
 0001:00003ae0       __TranslatorGuardHandler   10004ae0 f   libvcruntime:trnsctrl.obj
 0001:00003b7d       ___CxxFrameHandler         10004b7d f   libvcruntime:trnsctrl.obj
 0001:00003bb3       ___CxxFrameHandler2        10004bb3 f   libvcruntime:trnsctrl.obj
 0001:00003be9       ___CxxFrameHandler3        10004be9 f   libvcruntime:trnsctrl.obj
 0001:00003c1f       ___CxxLongjmpUnwind@4      10004c1f f   libvcruntime:trnsctrl.obj
 0001:00003c50       _memset                    10004c50 f   libvcruntime:memset.obj
 0001:00003daa       ___DestructExceptionObject 10004daa f   libvcruntime:ehhelpers.obj
 0001:00003e4b       ?_CallMemberFunction0@@YGXQAX0@Z 10004e4b f i libvcruntime:ehhelpers.obj
 0001:00003eb0       ?raw_name@type_info@@QBEPBDXZ 10004eb0 f i libvcruntime:ehhelpers.obj
 0001:00003eb4       __IsExceptionObjectToBeDestroyed 10004eb4 f   libvcruntime:ehhelpers.obj
 0001:00003eda       __SetWinRTOutOfMemoryExceptionCallback 10004eda f   libvcruntime:ehhelpers.obj
 0001:00003ee7       ___AdjustPointer           10004ee7 f   libvcruntime:ehhelpers.obj
 0001:00003f0c       ___FrameUnwindFilter       10004f0c f   libvcruntime:ehhelpers.obj
 0001:00003f62       ___GetPlatformExceptionInfo 10004f62 f   libvcruntime:ehhelpers.obj
 0001:00003fae       ___current_exception       10004fae f   libvcruntime:ehhelpers.obj
 0001:00003fb7       ___current_exception_context 10004fb7 f   libvcruntime:ehhelpers.obj
 0001:00003fc0       ___processing_throw        10004fc0 f   libvcruntime:ehhelpers.obj
 0001:00003fc9       ___std_terminate           10004fc9 f   libvcruntime:ehhelpers.obj
 0001:00003fce       __is_exception_typeof      10004fce f   libvcruntime:ehhelpers.obj
 0001:000040c0       __except_handler4          100050c0 f   libvcruntime:chandler4.obj
 0001:0000421e       ___vcrt_initialize         1000521e f   libvcruntime:initialization.obj
 0001:0000423d       ___vcrt_thread_attach      1000523d f   libvcruntime:initialization.obj
 0001:00004248       ___vcrt_thread_detach      10005248 f   libvcruntime:initialization.obj
 0001:00004250       ___vcrt_uninitialize       10005250 f   libvcruntime:initialization.obj
 0001:00004267       ___vcrt_uninitialize_critical 10005267 f   libvcruntime:initialization.obj
 0001:00004272       ??$?RD@__crt_public_free_policy@@QBEXQBD@Z 10005272 f i libvcruntime:std_exception.obj
 0001:00004282       ??0?$__crt_unique_heap_ptr@DU__crt_public_free_policy@@@@QAE@QAD@Z 10005282 f i libvcruntime:std_exception.obj
 0001:00004290       ??1?$__crt_unique_heap_ptr@DU__crt_public_free_policy@@@@QAE@XZ 10005290 f i libvcruntime:std_exception.obj
 0001:000042a0       ??B?$__crt_unique_heap_ptr@DU__crt_public_free_policy@@@@QBE_NXZ 100052a0 f i libvcruntime:std_exception.obj
 0001:000042a7       ?detach@?$__crt_unique_heap_ptr@DU__crt_public_free_policy@@@@QAEPADXZ 100052a7 f i libvcruntime:std_exception.obj
 0001:000042ad       ?get@?$__crt_unique_heap_ptr@DU__crt_public_free_policy@@@@QBEPADXZ 100052ad f i libvcruntime:std_exception.obj
 0001:000042b0       ?is_valid@?$__crt_unique_heap_ptr@DU__crt_public_free_policy@@@@QBE_NXZ 100052b0 f i libvcruntime:std_exception.obj
 0001:000042b7       ?release@?$__crt_unique_heap_ptr@DU__crt_public_free_policy@@@@QAEXXZ 100052b7 f i libvcruntime:std_exception.obj
 0001:000042c7       ___std_exception_copy      100052c7 f   libvcruntime:std_exception.obj
 0001:0000432a       ___std_exception_destroy   1000532a f   libvcruntime:std_exception.obj
 0001:00004349       __CxxThrowException@8      10005349 f   libvcruntime:throw.obj
 0001:000043c3       ??$?RD@__crt_internal_free_policy@@QBEXQBD@Z 100053c3 f i libvcruntime:std_type_info.obj
 0001:000043d3       ??$?RX@__crt_internal_free_policy@@QBEXQBX@Z 100053d3 f i libvcruntime:std_type_info.obj
 0001:000043e3       ??$__crt_interlocked_compare_exchange_pointer@$$CBDPAD$$T@@YAPBDPDSBDQAD$$T@Z 100053e3 f i libvcruntime:std_type_info.obj
 0001:000043f5       ??$__crt_interlocked_read_pointer@$$CBD@@YAPBDPDSBD@Z 100053f5 f i libvcruntime:std_type_info.obj
 0001:00004400       ??0?$__crt_unique_heap_ptr@DU__crt_internal_free_policy@@@@QAE@QAD@Z 10005400 f i libvcruntime:std_type_info.obj
 0001:0000440e       ??0?$__crt_unique_heap_ptr@XU__crt_internal_free_policy@@@@QAE@QAX@Z 1000540e f i libvcruntime:std_type_info.obj
 0001:0000441c       ??1?$__crt_unique_heap_ptr@DU__crt_internal_free_policy@@@@QAE@XZ 1000541c f i libvcruntime:std_type_info.obj
 0001:0000442c       ??1?$__crt_unique_heap_ptr@XU__crt_internal_free_policy@@@@QAE@XZ 1000542c f i libvcruntime:std_type_info.obj
 0001:0000443c       ??B?$__crt_unique_heap_ptr@DU__crt_internal_free_policy@@@@QBE_NXZ 1000543c f i libvcruntime:std_type_info.obj
 0001:00004443       ??B?$__crt_unique_heap_ptr@XU__crt_internal_free_policy@@@@QBE_NXZ 10005443 f i libvcruntime:std_type_info.obj
 0001:0000446a       ?__crt_interlocked_read_32@@YAHPDH@Z 1000546a f i libvcruntime:std_type_info.obj
 0001:00004475       ?detach@?$__crt_unique_heap_ptr@XU__crt_internal_free_policy@@@@QAEPAXXZ 10005475 f i libvcruntime:std_type_info.obj
 0001:0000447b       ?get@?$__crt_unique_heap_ptr@DU__crt_internal_free_policy@@@@QBEPADXZ 1000547b f i libvcruntime:std_type_info.obj
 0001:0000447e       ?get@?$__crt_unique_heap_ptr@XU__crt_internal_free_policy@@@@QBEPAXXZ 1000547e f i libvcruntime:std_type_info.obj
 0001:00004481       ?is_valid@?$__crt_unique_heap_ptr@DU__crt_internal_free_policy@@@@QBE_NXZ 10005481 f i libvcruntime:std_type_info.obj
 0001:00004488       ?is_valid@?$__crt_unique_heap_ptr@XU__crt_internal_free_policy@@@@QBE_NXZ 10005488 f i libvcruntime:std_type_info.obj
 0001:0000448f       ?release@?$__crt_unique_heap_ptr@DU__crt_internal_free_policy@@@@QAEXXZ 1000548f f i libvcruntime:std_type_info.obj
 0001:0000449f       ?release@?$__crt_unique_heap_ptr@XU__crt_internal_free_policy@@@@QAEXXZ 1000549f f i libvcruntime:std_type_info.obj
 0001:000044af       ___std_type_info_compare   100054af f   libvcruntime:std_type_info.obj
 0001:000044eb       ___std_type_info_destroy_list 100054eb f   libvcruntime:std_type_info.obj
 0001:0000450e       ___std_type_info_hash      1000550e f   libvcruntime:std_type_info.obj
 0001:00004534       ___std_type_info_name      10005534 f   libvcruntime:std_type_info.obj
 0001:000045fa       ??$?RU__vcrt_ptd@@@__crt_internal_free_policy@@QBEXQBU__vcrt_ptd@@@Z 100055fa f i libvcruntime:per_thread_data.obj
 0001:0000460a       ??0?$__crt_unique_heap_ptr@U__vcrt_ptd@@U__crt_internal_free_policy@@@@QAE@QAU__vcrt_ptd@@@Z 1000560a f i libvcruntime:per_thread_data.obj
 0001:00004627       ??1?$__crt_unique_heap_ptr@U__vcrt_ptd@@U__crt_internal_free_policy@@@@QAE@XZ 10005627 f i libvcruntime:per_thread_data.obj
 0001:00004640       ??B?$__crt_unique_heap_ptr@U__vcrt_ptd@@U__crt_internal_free_policy@@@@QBE_NXZ 10005640 f i libvcruntime:per_thread_data.obj
 0001:00004647       ?detach@?$__crt_unique_heap_ptr@U__vcrt_ptd@@U__crt_internal_free_policy@@@@QAEPAU__vcrt_ptd@@XZ 10005647 f i libvcruntime:per_thread_data.obj
 0001:0000464d       ?get@?$__crt_unique_heap_ptr@U__vcrt_ptd@@U__crt_internal_free_policy@@@@QBEPAU__vcrt_ptd@@XZ 1000564d f i libvcruntime:per_thread_data.obj
 0001:00004650       ?is_valid@?$__crt_unique_heap_ptr@U__vcrt_ptd@@U__crt_internal_free_policy@@@@QBE_NXZ 10005650 f i libvcruntime:per_thread_data.obj
 0001:00004657       ?release@?$__crt_unique_heap_ptr@U__vcrt_ptd@@U__crt_internal_free_policy@@@@QAEXXZ 10005657 f i libvcruntime:per_thread_data.obj
 0001:00004681       ___vcrt_freefls@4          10005681 f   libvcruntime:per_thread_data.obj
 0001:0000469d       ___vcrt_freeptd_for_this_thread 1000569d f   libvcruntime:per_thread_data.obj
 0001:000046c8       ___vcrt_getptd             100056c8 f   libvcruntime:per_thread_data.obj
 0001:000046d6       ___vcrt_getptd_noexit      100056d6 f   libvcruntime:per_thread_data.obj
 0001:00004768       ___vcrt_getptd_noinit      10005768 f   libvcruntime:per_thread_data.obj
 0001:0000479f       ___vcrt_initialize_ptd     1000579f f   libvcruntime:per_thread_data.obj
 0001:000047d2       ___vcrt_uninitialize_ptd   100057d2 f   libvcruntime:per_thread_data.obj
 0001:00004f1f       ??$TypeMatchHelper@V__FrameHandler3@@@@YAHPBU_s_HandlerType@@PBU_s_CatchableType@@PBU_s_ThrowInfo@@@Z 10005f1f f i libvcruntime:frame.obj
 0001:00004fad       ??$__InternalCxxFrameHandler@V__FrameHandler3@@@@YA?AW4_EXCEPTION_DISPOSITION@@PAUEHExceptionRecord@@PAUEHRegistrationNode@@PAU_CONTEXT@@PAXPBU_s_FuncInfo@@H1E@Z 10005fad f i libvcruntime:frame.obj
 0001:000050af       ??$__InternalCxxFrameHandlerWrapper@V__FrameHandler3@@@@YA?AW4_EXCEPTION_DISPOSITION@@PAUEHExceptionRecord@@PAUEHRegistrationNode@@PAU_CONTEXT@@PAXPBU_s_FuncInfo@@H1E@Z 100060af f i libvcruntime:frame.obj
 0001:000050b8       ??0HandlerMap@__FrameHandler3@@QAE@PBU_s_TryBlockMapEntry@@II@Z 100060b8 f i libvcruntime:frame.obj
 0001:000050cf       ??0TryBlockMap@__FrameHandler3@@QAE@PBU_s_FuncInfo@@I@Z 100060cf f i libvcruntime:frame.obj
 0001:000050e3       ??0bad_exception@std@@QAE@ABV01@@Z 100060e3 f i libvcruntime:frame.obj
 0001:000050fe       ??0bad_exception@std@@QAE@XZ 100060fe f i libvcruntime:frame.obj
 0001:00005116       ??0iterator@HandlerMap@__FrameHandler3@@QAE@AAV12@I@Z 10006116 f i libvcruntime:frame.obj
 0001:0000512a       ??1bad_exception@std@@UAE@XZ 1000612a f i libvcruntime:frame.obj
 0001:0000513b       ??8iterator@HandlerMap@__FrameHandler3@@QBE_NABV012@@Z 1000613b f i libvcruntime:frame.obj
 0001:0000514e       ??8type_info@@QBE_NABV0@@Z 1000614e f i libvcruntime:frame.obj
 0001:0000516d       ??9iterator@HandlerMap@__FrameHandler3@@QBE_NABV012@@Z 1000616d f i libvcruntime:frame.obj
 0001:00005180       ??Diterator@HandlerMap@__FrameHandler3@@QAE?BU_s_HandlerType@@XZ 10006180 f i libvcruntime:frame.obj
 0001:0000519f       ??Diterator@TryBlockMap@__FrameHandler3@@QAE?BU_s_TryBlockMapEntry@@XZ 1000619f f i libvcruntime:frame.obj
 0001:000051c1       ??Eiterator@HandlerMap@__FrameHandler3@@QAEAAV012@XZ 100061c1 f i libvcruntime:frame.obj
 0001:000051c7       ??Eiterator@TryBlockMap@__FrameHandler3@@QAEAAV012@XZ 100061c7 f i libvcruntime:frame.obj
 0001:000051cd       ??Miterator@TryBlockMap@__FrameHandler3@@QBE_NABV012@@Z 100061cd f i libvcruntime:frame.obj
 0001:000051e0       ??_Ebad_exception@std@@UAEPAXI@Z 100061e0 f i libvcruntime:frame.obj
 0001:000051e0       ??_Gbad_exception@std@@UAEPAXI@Z 100061e0 f i libvcruntime:frame.obj
 0001:0000520d       ?BuildCatchObject@__FrameHandler3@@SAXPAUEHExceptionRecord@@PAXPBU_s_HandlerType@@PBU_s_CatchableType@@@Z 1000620d f   libvcruntime:frame.obj
 0001:00005212       ?BuildCatchObjectHelper@__FrameHandler3@@SAHPAUEHExceptionRecord@@PAXPBU_s_HandlerType@@PBU_s_CatchableType@@@Z 10006212 f   libvcruntime:frame.obj
 0001:00005473       ?FrameUnwindToEmptyState@__FrameHandler3@@SAXPAUEHRegistrationNode@@PAXPBU_s_FuncInfo@@@Z 10006473 f   libvcruntime:frame.obj
 0001:0000548b       ?FrameUnwindToState@__FrameHandler3@@SAXPAUEHRegistrationNode@@PAXPBU_s_FuncInfo@@H@Z 1000648b f   libvcruntime:frame.obj
 0001:00005573       ?GetMaxState@__FrameHandler3@@SAHPAXPBU_s_FuncInfo@@@Z 10006573 f i libvcruntime:frame.obj
 0001:00005651       ?TypeMatch@__FrameHandler3@@SAHPBU_s_HandlerType@@PBU_s_CatchableType@@PBU_s_ThrowInfo@@@Z 10006651 f   libvcruntime:frame.obj
 0001:0000565a       ?_CallMemberFunction1@@YGXQAX00@Z 1000665a f i libvcruntime:frame.obj
 0001:0000566a       ?_CallMemberFunction2@@YGXQAX00H@Z 1000666a f i libvcruntime:frame.obj
 0001:0000567d       ?begin@HandlerMap@__FrameHandler3@@QAE?AViterator@12@XZ 1000667d f i libvcruntime:frame.obj
 0001:0000568d       ?end@HandlerMap@__FrameHandler3@@QAE?AViterator@12@XZ 1000668d f i libvcruntime:frame.obj
 0001:0000569e       ?getESTypes@__FrameHandler3@@SAPBU_s_ESTypeList@@PBU_s_FuncInfo@@@Z 1000669e f i libvcruntime:frame.obj
 0001:000056a9       ?getLastEntry@HandlerMap@__FrameHandler3@@QAEPBU_s_HandlerType@@XZ 100066a9 f i libvcruntime:frame.obj
 0001:000056b7       ?getMagicNum@__FrameHandler3@@SAIPBU_s_FuncInfo@@@Z 100066b7 f i libvcruntime:frame.obj
 0001:000056c6       ?getNumTryBlocks@TryBlockMap@__FrameHandler3@@QAEIXZ 100066c6 f i libvcruntime:frame.obj
 0001:000056cc       ?isEHs@__FrameHandler3@@SA_NPBU_s_FuncInfo@@@Z 100066cc f i libvcruntime:frame.obj
 0001:000056d9       ?isNoExcept@__FrameHandler3@@SA_NPBU_s_FuncInfo@@@Z 100066d9 f i libvcruntime:frame.obj
 0001:000056e9       ___BuildCatchObject        100066e9 f   libvcruntime:frame.obj
 0001:000056ee       ___BuildCatchObjectHelper  100066ee f   libvcruntime:frame.obj
 0001:000056f7       ___TypeMatch               100066f7 f   libvcruntime:frame.obj
 0001:00005700       ___vcrt_EncodePointer      10006700 f i libvcruntime:frame.obj
 0001:00005710       __CallSettingFrame@12      10006710 f   libvcruntime:lowhelpr.obj
 0001:00005737       __NLG_Return               10006737     libvcruntime:lowhelpr.obj
 0001:00005767       ___except_validate_context_record 10006767 f   libvcruntime:jbcxrval.obj
 0001:00005797       ___except_validate_jump_buffer 10006797 f   libvcruntime:jbcxrval.obj
 0001:000057c4       ___except_validate_jump_buffer_common 100067c4 f i libvcruntime:jbcxrval.obj
 0001:00005800       __local_unwind4            10006800 f   libvcruntime:exsup4.obj
 0001:000058f0       __seh_longjmp_unwind4@4    100068f0 f   libvcruntime:exsup4.obj
 0001:00005920       @_EH4_CallFilterFunc@8     10006920 f   libvcruntime:exsup4.obj
 0001:00005940       @_EH4_TransferToHandler@8  10006940 f   libvcruntime:exsup4.obj
 0001:00005960       @_EH4_GlobalUnwind2@8      10006960 f   libvcruntime:exsup4.obj
 0001:00005980       @_EH4_LocalUnwind@16       10006980 f   libvcruntime:exsup4.obj
 0001:00005997       ___vcrt_initialize_locks   10006997 f   libvcruntime:locks.obj
 0001:000059d3       ___vcrt_lock               100069d3 f   libvcruntime:locks.obj
 0001:000059e8       ___vcrt_uninitialize_locks 100069e8 f   libvcruntime:locks.obj
 0001:00005a17       ___vcrt_unlock             10006a17 f   libvcruntime:locks.obj
 0001:00005a2c       ??$?0$00@DName@@QAE@PBDU?$StringLifeSelector@$00@@@Z 10006a2c f i libvcruntime:undname.obj
 0001:00005a5f       ??$?0$00@pcharNode@@QAE@PBDHU?$StringLifeSelector@$00@@@Z 10006a5f f i libvcruntime:undname.obj
 0001:00005a7a       ??$?0$01@DName@@QAE@PBDU?$StringLifeSelector@$01@@@Z 10006a7a f i libvcruntime:undname.obj
 0001:00005aad       ??$?0$01@pcharNode@@QAE@PBDHU?$StringLifeSelector@$01@@@Z 10006aad f i libvcruntime:undname.obj
 0001:00005aed       ??$?0$0A@@DName@@QAE@PBDU?$StringLifeSelector@$0A@@@@Z 10006aed f i libvcruntime:undname.obj
 0001:00005b20       ??$?0$0A@@pcharNode@@QAE@PBDHU?$StringLifeSelector@$0A@@@@Z 10006b20 f i libvcruntime:undname.obj
 0001:00005b60       ??$?0_K$0A@@?$optional@_K@std@@QAE@$$QA_K@Z 10006b60 f i libvcruntime:undname.obj
 0001:00005b7a       ??$?0_K@?$_Optional_construct_base@_K@std@@QAE@Uin_place_t@1@$$QA_K@Z 10006b7a f i libvcruntime:undname.obj
 0001:00005b94       ??$?0_K@?$_Optional_destruct_base@_K$00@std@@QAE@Uin_place_t@1@$$QA_K@Z 10006b94 f i libvcruntime:undname.obj
 0001:00005bae       ??$append@VDNameNode@@@DName@@AAEXPBVDNameNode@@@Z 10006bae f i libvcruntime:undname.obj
 0001:00005bef       ??$append@VDNameStatusNode@@@DName@@AAEXPBVDNameStatusNode@@@Z 10006bef f i libvcruntime:undname.obj
 0001:00005c30       ??$append@VcharNode@@@DName@@AAEXPBVcharNode@@@Z 10006c30 f i libvcruntime:undname.obj
 0001:00005c71       ??$append@VpDNameNode@@@DName@@AAEXPBVpDNameNode@@@Z 10006c71 f i libvcruntime:undname.obj
 0001:00005cb2       ??$append@VpcharNode@@@DName@@AAEXPBVpcharNode@@@Z 10006cb2 f i libvcruntime:undname.obj
 0001:00005cf3       ??$doPchar@$00@DName@@AAEXPBDH@Z 10006cf3 f i libvcruntime:undname.obj
 0001:00005d5f       ??$doPchar@$01@DName@@AAEXPBDH@Z 10006d5f f i libvcruntime:undname.obj
 0001:00005dd0       ??$doPchar@$0A@@DName@@AAEXPBDH@Z 10006dd0 f i libvcruntime:undname.obj
 0001:00005e41       ??$forward@_K@std@@YA$$QA_KAA_K@Z 10006e41 f i libvcruntime:undname.obj
 0001:00005f05       ??$size@D$04@std@@YAIAAY04$$CBD@Z 10006f05 f i libvcruntime:undname.obj
 0001:00005f09       ??0?$_Optional_construct_base@_K@std@@QAE@XZ 10006f09 f i libvcruntime:undname.obj
 0001:00005f10       ??0?$_Optional_destruct_base@_K$00@std@@QAE@XZ 10006f10 f i libvcruntime:undname.obj
 0001:00005f17       ??0?$optional@_K@std@@QAE@XZ 10006f17 f i libvcruntime:undname.obj
 0001:00005f1e       ??0Block@_HeapManager@@QAE@XZ 10006f1e f i libvcruntime:undname.obj
 0001:00005f24       ??0DName@@QAE@AAPBDD@Z     10006f24 f   libvcruntime:undname.obj
 0001:00005fad       ??0DName@@QAE@ABUStringLiteral@@@Z 10006fad f   libvcruntime:undname.obj
 0001:00005fd4       ??0DName@@QAE@ABV0@@Z      10006fd4 f i libvcruntime:undname.obj
 0001:00005fea       ??0DName@@QAE@D@Z          10006fea f   libvcruntime:undname.obj
 0001:00006006       ??0DName@@QAE@PAV0@@Z      10007006 f   libvcruntime:undname.obj
 0001:0000604d       ??0DName@@QAE@W4DNameStatus@@@Z 1000704d f   libvcruntime:undname.obj
 0001:0000608d       ??0DName@@QAE@XZ           1000708d f i libvcruntime:undname.obj
 0001:00006097       ??0DName@@QAE@_J@Z         10007097 f   libvcruntime:undname.obj
 0001:00006121       ??0DName@@QAE@_K@Z         10007121 f   libvcruntime:undname.obj
 0001:00006185       ??0DNameNode@@IAE@XZ       10007185 f i libvcruntime:undname.obj
 0001:0000618e       ??0Replicator@@QAE@XZ      1000718e f i libvcruntime:undname.obj
 0001:000061ab       ??0UnDecorator@@QAE@PBDP6APADJ@ZK@Z 100071ab f i libvcruntime:undname.obj
 0001:0000620f       ??0_Nontrivial_dummy_type@std@@QAE@XZ 1000720f f i libvcruntime:undname.obj
 0001:00006212       ??0charNode@@QAE@D@Z       10007212 f i libvcruntime:undname.obj
 0001:00006227       ??0pDNameNode@@QAE@PAVDName@@@Z 10007227 f   libvcruntime:undname.obj
 0001:0000624f       ??0pairNode@@QAE@PBVDNameNode@@0@Z 1000724f f i libvcruntime:undname.obj
 0001:00006275       ??2@YAPAXIAAV_HeapManager@@H@Z 10007275 f   libvcruntime:undname.obj
 0001:00006294       ??4DName@@QAEAAV0@ABUStringLiteral@@@Z 10007294 f   libvcruntime:undname.obj
 0001:000062b5       ??4DName@@QAEAAV0@ABV0@@Z  100072b5 f   libvcruntime:undname.obj
 0001:000062cb       ??4DName@@QAEAAV0@D@Z      100072cb f i libvcruntime:undname.obj
 0001:000062e7       ??4DName@@QAEAAV0@PAV0@@Z  100072e7 f   libvcruntime:undname.obj
 0001:0000632a       ??4DName@@QAEAAV0@W4DNameStatus@@@Z 1000732a f   libvcruntime:undname.obj
 0001:0000635c       ??AReplicator@@QBE?AVDName@@H@Z 1000735c f   libvcruntime:undname.obj
 0001:00006398       ??B?$optional@_K@std@@QBE_NXZ 10007398 f i libvcruntime:undname.obj
 0001:0000639c       ??D?$_Optional_construct_base@_K@std@@QGAEAA_KXZ 1000739c f i libvcruntime:undname.obj
 0001:0000639f       ??H@YA?AVDName@@ABUStringLiteral@@ABV0@@Z 1000739f f i libvcruntime:undname.obj
 0001:000063c1       ??H@YA?AVDName@@DABV0@@Z   100073c1 f i libvcruntime:undname.obj
 0001:000063ec       ??H@YA?AVDName@@W4DNameStatus@@ABV0@@Z 100073ec f i libvcruntime:undname.obj
 0001:0000640e       ??HDName@@QBE?AV0@ABUStringLiteral@@@Z 1000740e f   libvcruntime:undname.obj
 0001:00006430       ??HDName@@QBE?AV0@ABV0@@Z  10007430 f   libvcruntime:undname.obj
 0001:00006452       ??HDName@@QBE?AV0@D@Z      10007452 f   libvcruntime:undname.obj
 0001:00006474       ??HDName@@QBE?AV0@PAV0@@Z  10007474 f   libvcruntime:undname.obj
 0001:00006496       ??HDName@@QBE?AV0@W4DNameStatus@@@Z 10007496 f   libvcruntime:undname.obj
 0001:000064b8       ??HStringLiteral@@QBE?AU0@H@Z 100074b8 f i libvcruntime:undname.obj
 0001:000064d2       ??YDName@@QAEAAV0@ABUStringLiteral@@@Z 100074d2 f   libvcruntime:undname.obj
 0001:0000652a       ??YDName@@QAEAAV0@ABV0@@Z  1000752a f   libvcruntime:undname.obj
 0001:00006581       ??YDName@@QAEAAV0@D@Z      10007581 f   libvcruntime:undname.obj
 0001:000065d6       ??YDName@@QAEAAV0@PAV0@@Z  100075d6 f   libvcruntime:undname.obj
 0001:0000663a       ??YDName@@QAEAAV0@W4DNameStatus@@@Z 1000763a f   libvcruntime:undname.obj
 0001:0000667a       ??YReplicator@@QAEAAV0@ABVDName@@@Z 1000767a f   libvcruntime:undname.obj
 0001:000066ba       ??_5DName@@QAEAAV0@ABV0@@Z 100076ba f   libvcruntime:undname.obj
 0001:000066d9       ??__K_l@@YA?AUStringLiteral@@PBDI@Z 100076d9 f i libvcruntime:undname.obj
 0001:000066e4       ?Constructor@_HeapManager@@QAEXP6APAXI@ZP6AXPAX@Z@Z 100076e4 f i libvcruntime:undname.obj
 0001:00006701       ?Destructor@_HeapManager@@QAEXXZ 10007701 f i libvcruntime:undname.obj
 0001:00006745       ?UScore@UnDecorator@@SA?AUStringLiteral@@W4Tokens@@@Z 10007745 f   libvcruntime:undname.obj
 0001:0000676c       ?composeDeclaration@UnDecorator@@CA?AVDName@@ABV2@@Z 1000776c f i libvcruntime:undname.obj
 0001:000074fd       ?doAccessSpecifiers@UnDecorator@@SAHXZ 100084fd f i libvcruntime:undname.obj
 0001:0000750b       ?doAllocationLanguage@UnDecorator@@SAHXZ 1000850b f i libvcruntime:undname.obj
 0001:00007519       ?doAllocationModel@UnDecorator@@SAHXZ 10008519 f i libvcruntime:undname.obj
 0001:00007527       ?doEcsu@UnDecorator@@SAHXZ 10008527 f i libvcruntime:undname.obj
 0001:00007535       ?doEllipsis@UnDecorator@@SAHXZ 10008535 f i libvcruntime:undname.obj
 0001:00007543       ?doFunctionReturns@UnDecorator@@SAHXZ 10008543 f i libvcruntime:undname.obj
 0001:00007551       ?doMSKeywords@UnDecorator@@SAHXZ 10008551 f i libvcruntime:undname.obj
 0001:0000755e       ?doMemberTypes@UnDecorator@@SAHXZ 1000855e f i libvcruntime:undname.obj
 0001:0000756c       ?doNameOnly@UnDecorator@@SAHXZ 1000856c f i libvcruntime:undname.obj
 0001:00007577       ?doNoIdentCharCheck@UnDecorator@@SAHXZ 10008577 f i libvcruntime:undname.obj
 0001:00007582       ?doPchar@DName@@AAEXD@Z    10008582 f   libvcruntime:undname.obj
 0001:000075ba       ?doPtr64@UnDecorator@@SAHXZ 100085ba f i libvcruntime:undname.obj
 0001:000075c8       ?doRestrictionSpec@UnDecorator@@SAHXZ 100085c8 f i libvcruntime:undname.obj
 0001:000075d6       ?doThisTypes@UnDecorator@@SAHXZ 100085d6 f i libvcruntime:undname.obj
 0001:000075e8       ?doThrowTypes@UnDecorator@@SAHXZ 100085e8 f i libvcruntime:undname.obj
 0001:000075f6       ?doTypeOnly@UnDecorator@@SAHXZ 100085f6 f i libvcruntime:undname.obj
 0001:00007601       ?doUnderScore@UnDecorator@@SAHXZ 10008601 f i libvcruntime:undname.obj
 0001:0000760c       ?getAddressOf@UnDecorator@@CA?AVDName@@XZ 1000860c f   libvcruntime:undname.obj
 0001:00007674       ?getArgumentList@UnDecorator@@CA?AVDName@@XZ 10008674 f   libvcruntime:undname.obj
 0001:00007781       ?getArgumentTypes@UnDecorator@@CA?AVDName@@XZ 10008781 f   libvcruntime:undname.obj
 0001:00007889       ?getArrayAccess@UnDecorator@@CA?AVDName@@XZ 10008889 f   libvcruntime:undname.obj
 0001:000078fd       ?getArrayObject@UnDecorator@@CA?AVDName@@XZ 100088fd f   libvcruntime:undname.obj
 0001:0000799b       ?getArrayType@UnDecorator@@CA?AVDName@@ABV2@@Z 1000899b f i libvcruntime:undname.obj
 0001:00007b38       ?getBasedType@UnDecorator@@CA?AVDName@@XZ 10008b38 f   libvcruntime:undname.obj
 0001:00007be7       ?getBasicDataType@UnDecorator@@CA?AVDName@@ABV2@@Z 10008be7 f   libvcruntime:undname.obj
 0001:00008143       ?getCHPEName@UnDecorator@@QAEPADPADH@Z 10009143 f i libvcruntime:undname.obj
 0001:00008220       ?getCallIndex@UnDecorator@@CA?AVDName@@XZ 10009220 f i libvcruntime:undname.obj
 0001:00008234       ?getCallingConvention@UnDecorator@@CA?AVDName@@XZ 10009234 f   libvcruntime:undname.obj
 0001:000082fe       ?getDataIndirectType@UnDecorator@@CA?AVDName@@ABV2@W4IndirectionKind@@0H@Z 100092fe f   libvcruntime:undname.obj
 0001:00008a84       ?getDataIndirectType@UnDecorator@@CA?AVDName@@XZ 10009a84 f i libvcruntime:undname.obj
 0001:00008ab2       ?getDataType@UnDecorator@@CA?AVDName@@PAV2@@Z 10009ab2 f   libvcruntime:undname.obj
 0001:00008b89       ?getDecoratedName@UnDecorator@@CA?AVDName@@XZ 10009b89 f   libvcruntime:undname.obj
 0001:00008ddd       ?getDimension@UnDecorator@@CA?AVDName@@_N@Z 10009ddd f   libvcruntime:undname.obj
 0001:00008ef4       ?getDispatchTarget@UnDecorator@@CA?AVDName@@XZ 10009ef4 f   libvcruntime:undname.obj
 0001:00008f45       ?getDisplacement@UnDecorator@@CA?AVDName@@XZ 10009f45 f i libvcruntime:undname.obj
 0001:00008f59       ?getECSUDataType@UnDecorator@@CA?AVDName@@XZ 10009f59 f   libvcruntime:undname.obj
 0001:00009103       ?getECSUName@UnDecorator@@CA?AVDName@@XZ 1000a103 f i libvcruntime:undname.obj
 0001:00009114       ?getEnumType@UnDecorator@@CA?AVDName@@XZ 1000a114 f i libvcruntime:undname.obj
 0001:00009228       ?getExtendedDataIndirectType@UnDecorator@@CA?AVDName@@AAW4IndirectionKind@@AA_NH@Z 1000a228 f   libvcruntime:undname.obj
 0001:0000942b       ?getExternalDataType@UnDecorator@@CA?AVDName@@ABV2@@Z 1000a42b f i libvcruntime:undname.obj
 0001:00009490       ?getFloatingPoint@UnDecorator@@CA?AVDName@@H@Z 1000a490 f   libvcruntime:undname.obj
 0001:00009553       ?getFunctionIndirectType@UnDecorator@@CA?AVDName@@ABV2@@Z 1000a553 f   libvcruntime:undname.obj
 0001:000098fd       ?getGuardNumber@UnDecorator@@CA?AVDName@@XZ 1000a8fd f i libvcruntime:undname.obj
 0001:00009911       ?getLastChar@DName@@QBEDXZ 1000a911 f i libvcruntime:undname.obj
 0001:00009931       ?getLastChar@DNameStatusNode@@UBEDXZ 1000a931 f i libvcruntime:undname.obj
 0001:0000993d       ?getLastChar@charNode@@UBEDXZ 1000a93d f i libvcruntime:undname.obj
 0001:00009941       ?getLastChar@pDNameNode@@UBEDXZ 1000a941 f i libvcruntime:undname.obj
 0001:0000994f       ?getLastChar@pairNode@@UBEDXZ 1000a94f f i libvcruntime:undname.obj
 0001:00009984       ?getLastChar@pcharNode@@UBEDXZ 1000a984 f i libvcruntime:undname.obj
 0001:00009996       ?getLexicalFrame@UnDecorator@@CA?AVDName@@XZ 1000a996 f i libvcruntime:undname.obj
 0001:000099c7       ?getMemberAccess@UnDecorator@@CA?AVDName@@XZ 1000a9c7 f   libvcruntime:undname.obj
 0001:00009a37       ?getMemoryWithBuffer@_HeapManager@@QAEPAXI@Z 1000aa37 f   libvcruntime:undname.obj
 0001:00009aa1       ?getMemoryWithoutBuffer@_HeapManager@@QAEPAXI@Z 1000aaa1 f   libvcruntime:undname.obj
 0001:00009ac1       ?getNoexcept@UnDecorator@@CA?AVDName@@XZ 1000aac1 f   libvcruntime:undname.obj
 0001:00009b09       ?getNumberOfDimensions@UnDecorator@@CAHXZ 1000ab09 f   libvcruntime:undname.obj
 0001:00009b63       ?getOperatorName@UnDecorator@@CA?AVDName@@_NPA_N@Z 1000ab63 f i libvcruntime:undname.obj
 0001:0000a429       ?getPointerToMember@UnDecorator@@CA?AVDName@@XZ 1000b429 f   libvcruntime:undname.obj
 0001:0000a4e5       ?getPointerType@UnDecorator@@CA?AVDName@@ABV2@0@Z 1000b4e5 f i libvcruntime:undname.obj
 0001:0000a500       ?getPointerTypeArray@UnDecorator@@CA?AVDName@@ABV2@0@Z 1000b500 f i libvcruntime:undname.obj
 0001:0000a51b       ?getPrimaryDataType@UnDecorator@@CA?AVDName@@ABV2@@Z 1000b51b f   libvcruntime:undname.obj
 0001:0000a769       ?getPtrRefDataType@UnDecorator@@CA?AVDName@@ABV2@H@Z 1000b769 f   libvcruntime:undname.obj
 0001:0000a8d6       ?getPtrRefType@UnDecorator@@CA?AVDName@@ABV2@0W4IndirectionKind@@@Z 1000b8d6 f   libvcruntime:undname.obj
 0001:0000a9e7       ?getReferenceType@UnDecorator@@CA?AVDName@@ABV2@0W4IndirectionKind@@@Z 1000b9e7 f i libvcruntime:undname.obj
 0001:0000aa03       ?getRestrictionSpec@UnDecorator@@CA?AVDName@@XZ 1000ba03 f   libvcruntime:undname.obj
 0001:0000ab1c       ?getReturnType@UnDecorator@@CA?AVDName@@PAV2@@Z 1000bb1c f   libvcruntime:undname.obj
 0001:0000ab4b       ?getScope@UnDecorator@@CA?AVDName@@XZ 1000bb4b f   libvcruntime:undname.obj
 0001:0000af09       ?getScopedName@UnDecorator@@CA?AVDName@@XZ 1000bf09 f   libvcruntime:undname.obj
 0001:0000affe       ?getSignedDimension@UnDecorator@@CA?AVDName@@XZ 1000bffe f   libvcruntime:undname.obj
 0001:0000b04f       ?getStorageConvention@UnDecorator@@CA?AVDName@@XZ 1000c04f f i libvcruntime:undname.obj
 0001:0000b060       ?getString@DName@@QBEPADPAD0@Z 1000c060 f i libvcruntime:undname.obj
 0001:0000b08d       ?getString@DName@@QBEPADPADH@Z 1000c08d f i libvcruntime:undname.obj
 0001:0000b0e2       ?getString@DNameStatusNode@@UBEPADPAD0@Z 1000c0e2 f i libvcruntime:undname.obj
 0001:0000b129       ?getString@charNode@@UBEPADPAD0@Z 1000c129 f i libvcruntime:undname.obj
 0001:0000b13e       ?getString@pDNameNode@@UBEPADPAD0@Z 1000c13e f i libvcruntime:undname.obj
 0001:0000b155       ?getString@pairNode@@UBEPADPAD0@Z 1000c155 f i libvcruntime:undname.obj
 0001:0000b19b       ?getString@pcharNode@@UBEPADPAD0@Z 1000c19b f i libvcruntime:undname.obj
 0001:0000b1b6       ?getStringEncoding@UnDecorator@@CA?AVDName@@W4PrefixKind@@H@Z 1000c1b6 f   libvcruntime:undname.obj
 0001:0000b249       ?getStringHelper@@YAPADPADPBD1H@Z 1000c249 f i libvcruntime:undname.obj
 0001:0000b273       ?getStringObject@UnDecorator@@CA?AVDName@@XZ 1000c273 f   libvcruntime:undname.obj
 0001:0000b2df       ?getSymbolName@UnDecorator@@CA?AVDName@@XZ 1000c2df f i libvcruntime:undname.obj
 0001:0000b327       ?getTemplateArgumentList@UnDecorator@@CA?AVDName@@XZ 1000c327 f   libvcruntime:undname.obj
 0001:0000b4d7       ?getTemplateName@UnDecorator@@CA?AVDName@@_N@Z 1000c4d7 f   libvcruntime:undname.obj
 0001:0000b652       ?getTemplateNonTypeArgument@UnDecorator@@CA?AVDName@@XZ 1000c652 f   libvcruntime:undname.obj
 0001:0000ba1a       ?getTemplateTypeArgument@UnDecorator@@CA?AVDName@@XZ 1000ca1a f   libvcruntime:undname.obj
 0001:0000bb2b       ?getThisType@UnDecorator@@CA?AVDName@@XZ 1000cb2b f i libvcruntime:undname.obj
 0001:0000bb5a       ?getThrowTypes@UnDecorator@@CA?AVDName@@XZ 1000cb5a f   libvcruntime:undname.obj
 0001:0000bb79       ?getTypeEncoding@UnDecorator@@CAHXZ 1000cb79 f i libvcruntime:undname.obj
 0001:0000beb5       ?getUndecoratedName@UnDecorator@@QAEPADPADH@Z 1000ceb5 f i libvcruntime:undname.obj
 0001:0000bfd4       ?getUnionObject@UnDecorator@@CA?AVDName@@XZ 1000cfd4 f   libvcruntime:undname.obj
 0001:0000c07b       ?getVCallThunkType@UnDecorator@@CA?AVDName@@XZ 1000d07b f i libvcruntime:undname.obj
 0001:0000c0c5       ?getValue@UnDecorator@@CA?AV?$optional@_K@std@@XZ 1000d0c5 f   libvcruntime:undname.obj
 0001:0000c115       ?getValueObject@UnDecorator@@CA?AVDName@@XZ 1000d115 f   libvcruntime:undname.obj
 0001:0000c241       ?getVbTableType@UnDecorator@@CA?AVDName@@ABV2@@Z 1000d241 f i libvcruntime:undname.obj
 0001:0000c256       ?getVdispMapType@UnDecorator@@CA?AVDName@@ABV2@@Z 1000d256 f i libvcruntime:undname.obj
 0001:0000c2b7       ?getVfTableType@UnDecorator@@CA?AVDName@@ABV2@@Z 1000d2b7 f i libvcruntime:undname.obj
 0001:0000c40b       ?getZName@UnDecorator@@CA?AVDName@@_N0@Z 1000d40b f   libvcruntime:undname.obj
 0001:0000c624       ?get_current_character_and_increment_buffer@UnDecorator@@CADXZ 1000d624 f i libvcruntime:undname.obj
 0001:0000c638       ?haveTemplateParameters@UnDecorator@@SAHXZ 1000d638 f i libvcruntime:undname.obj
 0001:0000c643       ?increment_buffer@UnDecorator@@CA_NI@Z 1000d643 f i libvcruntime:undname.obj
 0001:0000c66b       ?increment_buffer_no_check@UnDecorator@@CAXI@Z 1000d66b f i libvcruntime:undname.obj
 0001:0000c679       ?increment_buffer_no_check@UnDecorator@@CAXXZ 1000d679 f i libvcruntime:undname.obj
 0001:0000c680       ?isArray@DName@@QBEHXZ     1000d680 f i libvcruntime:undname.obj
 0001:0000c68a       ?isComArray@DName@@QBEHXZ  1000d68a f i libvcruntime:undname.obj
 0001:0000c694       ?isEmpty@DName@@QBEHXZ     1000d694 f i libvcruntime:undname.obj
 0001:0000c69c       ?isFull@Replicator@@QBEHXZ 1000d69c f i libvcruntime:undname.obj
 0001:0000c6a5       ?isNoTE@DName@@QBEHXZ      1000d6a5 f i libvcruntime:undname.obj
 0001:0000c6af       ?isPinPtr@DName@@QBEHXZ    1000d6af f i libvcruntime:undname.obj
 0001:0000c6b9       ?isPtrRef@DName@@QBEHXZ    1000d6b9 f i libvcruntime:undname.obj
 0001:0000c6c3       ?isUDC@DName@@QBEHXZ       1000d6c3 f i libvcruntime:undname.obj
 0001:0000c6d4       ?isUDTThunk@DName@@QBEHXZ  1000d6d4 f i libvcruntime:undname.obj
 0001:0000c6e5       ?isVCallThunk@DName@@QBEHXZ 1000d6e5 f i libvcruntime:undname.obj
 0001:0000c6ef       ?isValid@DName@@QBEHXZ     1000d6ef f i libvcruntime:undname.obj
 0001:0000c6f9       ?length@DName@@QBEHXZ      1000d6f9 f i libvcruntime:undname.obj
 0001:0000c718       ?length@DNameStatusNode@@UBEHXZ 1000d718 f i libvcruntime:undname.obj
 0001:0000c71c       ?length@charNode@@UBEHXZ   1000d71c f i libvcruntime:undname.obj
 0001:0000c720       ?length@pDNameNode@@UBEHXZ 1000d720 f i libvcruntime:undname.obj
 0001:0000c72e       ?length@pairNode@@UBEHXZ   1000d72e f i libvcruntime:undname.obj
 0001:0000c777       ?length@pcharNode@@UBEHXZ  1000d777 f i libvcruntime:undname.obj
 0001:0000c77b       ?make@DNameStatusNode@@SAPBV1@W4DNameStatus@@@Z 1000d77b f i libvcruntime:undname.obj
 0001:0000c797       ?parseDecoratedName@UnDecorator@@CA?AVDName@@XZ 1000d797 f   libvcruntime:undname.obj
 0001:0000c892       ?raw_length@DNameStatusNode@@UBEHXZ 1000d892 f i libvcruntime:undname.obj
 0001:0000c896       ?raw_length@charNode@@UBEHXZ 1000d896 f i libvcruntime:undname.obj
 0001:0000c89a       ?raw_length@pDNameNode@@UBEHXZ 1000d89a f i libvcruntime:undname.obj
 0001:0000c89e       ?raw_length@pairNode@@UBEHXZ 1000d89e f i libvcruntime:undname.obj
 0001:0000c8a2       ?raw_length@pcharNode@@UBEHXZ 1000d8a2 f i libvcruntime:undname.obj
 0001:0000c8a6       ?setIsArray@DName@@QAEXXZ  1000d8a6 f i libvcruntime:undname.obj
 0001:0000c8ae       ?setIsComArray@DName@@QAEXXZ 1000d8ae f i libvcruntime:undname.obj
 0001:0000c8b6       ?setIsNoTE@DName@@QAEXXZ   1000d8b6 f i libvcruntime:undname.obj
 0001:0000c8be       ?setIsPinPtr@DName@@QAEXXZ 1000d8be f i libvcruntime:undname.obj
 0001:0000c8c6       ?setIsUDC@DName@@QAEXXZ    1000d8c6 f i libvcruntime:undname.obj
 0001:0000c8d3       ?setIsVCallThunk@DName@@QAEXXZ 1000d8d3 f i libvcruntime:undname.obj
 0001:0000c8db       ?setPtrRef@DName@@QAEAAV1@XZ 1000d8db f i libvcruntime:undname.obj
 0001:0000c8e5       ?status@DName@@QBE?AW4DNameStatus@@XZ 1000d8e5 f i libvcruntime:undname.obj
 0001:0000c951       ___unDName                 1000d951 f   libvcruntime:undname.obj
 0001:0000c974       ___unDNameEx               1000d974 f   libvcruntime:undname.obj
 0001:0000ca13       __vsprintf_s_l             1000da13 f i libvcruntime:undname.obj
 0001:0000ca40       _snprintf                  1000da40 f i libvcruntime:undname.obj
 0001:0000ca5a       _sprintf_s                 1000da5a f i libvcruntime:undname.obj
 0001:0000ca76       _unDNameGenerateCHPE       1000da76 f   libvcruntime:undname.obj
 0001:0000cb13       _vsnprintf                 1000db13 f i libvcruntime:undname.obj
 0001:0000cb43       ??$__crt_interlocked_exchange_pointer@UHINSTANCE__@@PAU1@@@YAPAUHINSTANCE__@@PDSAU0@QAU0@@Z 1000db43 f i libvcruntime:winapi_downlevel.obj
 0001:0000cb50       ??$__crt_interlocked_exchange_pointer@UHINSTANCE__@@PAX@@YAPAUHINSTANCE__@@PDSAU0@QAX@Z 1000db50 f i libvcruntime:winapi_downlevel.obj
 0001:0000cb5d       ??$__crt_interlocked_exchange_pointer@XPAX@@YAPAXPDSAXQAX@Z 1000db5d f i libvcruntime:winapi_downlevel.obj
 0001:0000cb6a       ??$__crt_interlocked_read_pointer@UHINSTANCE__@@@@YAPAUHINSTANCE__@@PDSAU0@@Z 1000db6a f i libvcruntime:winapi_downlevel.obj
 0001:0000cb75       ??$__crt_interlocked_read_pointer@X@@YAPAXPDSAX@Z 1000db75 f i libvcruntime:winapi_downlevel.obj
 0001:0000ce01       ___vcrt_FlsAlloc           1000de01 f   libvcruntime:winapi_downlevel.obj
 0001:0000ce3c       ___vcrt_FlsFree            1000de3c f   libvcruntime:winapi_downlevel.obj
 0001:0000ce77       ___vcrt_FlsGetValue        1000de77 f   libvcruntime:winapi_downlevel.obj
 0001:0000ceb2       ___vcrt_FlsSetValue        1000deb2 f   libvcruntime:winapi_downlevel.obj
 0001:0000cef0       ___vcrt_InitializeCriticalSectionEx 1000def0 f   libvcruntime:winapi_downlevel.obj
 0001:0000cf4b       __get_unexpected           1000df4b f   libvcruntime:unexpected.obj
 0001:0000cf5d       _set_unexpected            1000df5d f   libvcruntime:unexpected.obj
 0001:0000cf7b       _unexpected                1000df7b f   libvcruntime:unexpected.obj
 0001:0000cf98       ?GetCurrentState@__FrameHandler3@@SAHPAUEHRegistrationNode@@PAXPBU_s_FuncInfo@@@Z 1000df98 f   libvcruntime:ehstate.obj
 0001:0000cfb5       ?SetState@__FrameHandler3@@SAXPAUEHRegistrationNode@@PBU_s_FuncInfo@@H@Z 1000dfb5 f   libvcruntime:ehstate.obj
 0001:0000cfd0       __global_unwind2           1000dfd0 f   libvcruntime:exsup.obj
 0001:0000d050       __local_unwind2            1000e050 f   libvcruntime:exsup.obj
 0001:0000d0f0       __abnormal_termination     1000e0f0 f   libvcruntime:exsup.obj
 0001:0000d120       __NLG_Notify1              1000e120 f   libvcruntime:exsup.obj
 0001:0000d130       __NLG_Notify               1000e130 f   libvcruntime:exsup.obj
 0001:0000d147       __NLG_Dispatch             1000e147     libvcruntime:exsup.obj
 0001:0000d147       __NLG_Dispatch2            1000e147     libvcruntime:exsup.obj
 0001:0000d150       __NLG_Call                 1000e150 f   libvcruntime:exsup.obj
 0001:0000d152       __NLG_Return2              1000e152     libvcruntime:exsup.obj
 0001:0000d153       ??$__crt_interlocked_exchange_pointer@$$A6AXXZP6AXXZ@@YAP6AXXZPDS6AXXZQ6AXXZ@Z 1000e153 f i libvcruntime:purevirt.obj
 0001:0000d160       ??$__crt_interlocked_read_pointer@$$A6AXXZ@@YAP6AXXZPDS6AXXZ@Z 1000e160 f i libvcruntime:purevirt.obj
 0001:0000d16b       __get_purecall_handler     1000e16b f   libvcruntime:purevirt.obj
 0001:0000d172       __purecall                 1000e172 f   libvcruntime:purevirt.obj
 0001:0000d18e       __set_purecall_handler     1000e18e f   libvcruntime:purevirt.obj
 0001:0000d1f7       _strcpy_s                  1000e1f7 f   libucrt:strcpy_s.obj
 0001:0000d2b4       _strcat_s                  1000e2b4 f   libucrt:strcat_s.obj
 0001:0000d3ce       _strncpy_s                 1000e3ce f   libucrt:strncpy_s.obj
 0001:0000d3d9       _free                      1000e3d9 f   libucrt:free.obj
 0001:0000d3f4       _malloc                    1000e3f4 f   libucrt:malloc.obj
 0001:0000d3ff       _realloc                   1000e3ff f   libucrt:realloc.obj
 0001:0000d90c       __i64toa                   1000e90c f   libucrt:xtoa.obj
 0001:0000d94d       __i64toa_s                 1000e94d f   libucrt:xtoa.obj
 0001:0000d98c       __i64tow                   1000e98c f   libucrt:xtoa.obj
 0001:0000d9cd       __i64tow_s                 1000e9cd f   libucrt:xtoa.obj
 0001:0000da0c       __itoa                     1000ea0c f   libucrt:xtoa.obj
 0001:0000da41       __itoa_s                   1000ea41 f   libucrt:xtoa.obj
 0001:0000da74       __itow                     1000ea74 f   libucrt:xtoa.obj
 0001:0000daa9       __itow_s                   1000eaa9 f   libucrt:xtoa.obj
 0001:0000dadc       __ltoa                     1000eadc f   libucrt:xtoa.obj
 0001:0000db11       __ltoa_s                   1000eb11 f   libucrt:xtoa.obj
 0001:0000db44       __ltow                     1000eb44 f   libucrt:xtoa.obj
 0001:0000db79       __ltow_s                   1000eb79 f   libucrt:xtoa.obj
 0001:0000dbac       __ui64toa                  1000ebac f   libucrt:xtoa.obj
 0001:0000dbce       __ui64toa_s                1000ebce f   libucrt:xtoa.obj
 0001:0000dbee       __ui64tow                  1000ebee f   libucrt:xtoa.obj
 0001:0000dc10       __ui64tow_s                1000ec10 f   libucrt:xtoa.obj
 0001:0000dc30       __ultoa                    1000ec30 f   libucrt:xtoa.obj
 0001:0000dc4f       __ultoa_s                  1000ec4f f   libucrt:xtoa.obj
 0001:0000dc6c       __ultow                    1000ec6c f   libucrt:xtoa.obj
 0001:0000dc8b       __ultow_s                  1000ec8b f   libucrt:xtoa.obj
 0001:0000dca8       ??$?0ABV?$stream_output_adapter@D@__crt_stdio_output@@AB_KABQBDAAV__crt_cached_ptd_host@@ABQAD@?$format_validation_base@DV?$stream_output_adapter@D@__crt_stdio_output@@@__crt_stdio_output@@IAE@ABV?$stream_output_adapter@D@1@AB_KABQBDAAV__crt_cached_ptd_host@@ABQAD@Z 1000eca8 f i libucrt:output.obj
 0001:0000dccb       ??$?0ABV?$stream_output_adapter@D@__crt_stdio_output@@AB_KABQBDAAV__crt_cached_ptd_host@@ABQAD@?$positional_parameter_base@DV?$stream_output_adapter@D@__crt_stdio_output@@@__crt_stdio_output@@IAE@ABV?$stream_output_adapter@D@1@AB_KABQBDAAV__crt_cached_ptd_host@@ABQAD@Z 1000eccb f i libucrt:output.obj
 0001:0000dd13       ??$?0ABV?$stream_output_adapter@D@__crt_stdio_output@@AB_KABQBDAAV__crt_cached_ptd_host@@ABQAD@?$standard_base@DV?$stream_output_adapter@D@__crt_stdio_output@@@__crt_stdio_output@@IAE@ABV?$stream_output_adapter@D@1@AB_KABQBDAAV__crt_cached_ptd_host@@ABQAD@Z 1000ed13 f i libucrt:output.obj
 0001:0000dd46       ??$?0ABV?$stream_output_adapter@_W@__crt_stdio_output@@AB_KABQB_WAAV__crt_cached_ptd_host@@ABQAD@?$format_validation_base@_WV?$stream_output_adapter@_W@__crt_stdio_output@@@__crt_stdio_output@@IAE@ABV?$stream_output_adapter@_W@1@AB_KABQB_WAAV__crt_cached_ptd_host@@ABQAD@Z 1000ed46 f i libucrt:output.obj
 0001:0000dd69       ??$?0ABV?$stream_output_adapter@_W@__crt_stdio_output@@AB_KABQB_WAAV__crt_cached_ptd_host@@ABQAD@?$positional_parameter_base@_WV?$stream_output_adapter@_W@__crt_stdio_output@@@__crt_stdio_output@@IAE@ABV?$stream_output_adapter@_W@1@AB_KABQB_WAAV__crt_cached_ptd_host@@ABQAD@Z 1000ed69 f i libucrt:output.obj
 0001:0000ddb1       ??$?0ABV?$stream_output_adapter@_W@__crt_stdio_output@@AB_KABQB_WAAV__crt_cached_ptd_host@@ABQAD@?$standard_base@_WV?$stream_output_adapter@_W@__crt_stdio_output@@@__crt_stdio_output@@IAE@ABV?$stream_output_adapter@_W@1@AB_KABQB_WAAV__crt_cached_ptd_host@@ABQAD@Z 1000edb1 f i libucrt:output.obj
 0001:0000dde4       ??$?0ABV?$string_output_adapter@D@__crt_stdio_output@@AB_KABQBDAAV__crt_cached_ptd_host@@ABQAD@?$format_validation_base@DV?$string_output_adapter@D@__crt_stdio_output@@@__crt_stdio_output@@IAE@ABV?$string_output_adapter@D@1@AB_KABQBDAAV__crt_cached_ptd_host@@ABQAD@Z 1000ede4 f i libucrt:output.obj
 0001:0000de07       ??$?0ABV?$string_output_adapter@D@__crt_stdio_output@@AB_KABQBDAAV__crt_cached_ptd_host@@ABQAD@?$positional_parameter_base@DV?$string_output_adapter@D@__crt_stdio_output@@@__crt_stdio_output@@IAE@ABV?$string_output_adapter@D@1@AB_KABQBDAAV__crt_cached_ptd_host@@ABQAD@Z 1000ee07 f i libucrt:output.obj
 0001:0000de4f       ??$?0ABV?$string_output_adapter@D@__crt_stdio_output@@AB_KABQBDAAV__crt_cached_ptd_host@@ABQAD@?$standard_base@DV?$string_output_adapter@D@__crt_stdio_output@@@__crt_stdio_output@@IAE@ABV?$string_output_adapter@D@1@AB_KABQBDAAV__crt_cached_ptd_host@@ABQAD@Z 1000ee4f f i libucrt:output.obj
 0001:0000de82       ??$?0ABV?$string_output_adapter@_W@__crt_stdio_output@@AB_KABQB_WAAV__crt_cached_ptd_host@@ABQAD@?$format_validation_base@_WV?$string_output_adapter@_W@__crt_stdio_output@@@__crt_stdio_output@@IAE@ABV?$string_output_adapter@_W@1@AB_KABQB_WAAV__crt_cached_ptd_host@@ABQAD@Z 1000ee82 f i libucrt:output.obj
 0001:0000dea5       ??$?0ABV?$string_output_adapter@_W@__crt_stdio_output@@AB_KABQB_WAAV__crt_cached_ptd_host@@ABQAD@?$positional_parameter_base@_WV?$string_output_adapter@_W@__crt_stdio_output@@@__crt_stdio_output@@IAE@ABV?$string_output_adapter@_W@1@AB_KABQB_WAAV__crt_cached_ptd_host@@ABQAD@Z 1000eea5 f i libucrt:output.obj
 0001:0000deed       ??$?0ABV?$string_output_adapter@_W@__crt_stdio_output@@AB_KABQB_WAAV__crt_cached_ptd_host@@ABQAD@?$standard_base@_WV?$string_output_adapter@_W@__crt_stdio_output@@@__crt_stdio_output@@IAE@ABV?$string_output_adapter@_W@1@AB_KABQB_WAAV__crt_cached_ptd_host@@ABQAD@Z 1000eeed f i libucrt:output.obj
 0001:0000e226       ??$__crt_interlocked_read@J@@YAJPDJ@Z 1000f226 f i libucrt:output.obj
 0001:0000e233       ??$_tcstol_internal@DPAPAD$0A@@@YAJAAV__crt_cached_ptd_host@@QBDQAPADH@Z 1000f233 f i libucrt:output.obj
 0001:0000e25e       ??$_tcstol_internal@_WPAPA_W$0A@@@YAJAAV__crt_cached_ptd_host@@QB_WQAPA_WH@Z 1000f25e f i libucrt:output.obj
 0001:0000f1b8       ??$count@D@formatting_buffer@__crt_stdio_output@@QBEIXZ 100101b8 f i libucrt:output.obj
 0001:0000f1d0       ??$count@_W@formatting_buffer@__crt_stdio_output@@QBEIXZ 100101d0 f i libucrt:output.obj
 0001:0000f1e9       ??$data@D@formatting_buffer@__crt_stdio_output@@QAEPADXZ 100101e9 f i libucrt:output.obj
 0001:0000f1f6       ??$data@_W@formatting_buffer@__crt_stdio_output@@QAEPA_WXZ 100101f6 f i libucrt:output.obj
 0001:0000f203       ??$ensure_buffer_is_big_enough@D@formatting_buffer@__crt_stdio_output@@QAE_NIAAV__crt_cached_ptd_host@@@Z 10010203 f i libucrt:output.obj
 0001:0000f284       ??$ensure_buffer_is_big_enough@_W@formatting_buffer@__crt_stdio_output@@QAE_NIAAV__crt_cached_ptd_host@@@Z 10010284 f i libucrt:output.obj
 0001:0000f306       ??$extract_argument_from_va_list@C_J@?$positional_parameter_base@DV?$stream_output_adapter@D@__crt_stdio_output@@@__crt_stdio_output@@IAE_NAA_J@Z 10010306 f i libucrt:output.obj
 0001:0000f395       ??$extract_argument_from_va_list@C_J@?$positional_parameter_base@DV?$string_output_adapter@D@__crt_stdio_output@@@__crt_stdio_output@@IAE_NAA_J@Z 10010395 f i libucrt:output.obj
 0001:0000f424       ??$extract_argument_from_va_list@C_J@?$positional_parameter_base@_WV?$stream_output_adapter@_W@__crt_stdio_output@@@__crt_stdio_output@@IAE_NAA_J@Z 10010424 f i libucrt:output.obj
 0001:0000f4b4       ??$extract_argument_from_va_list@C_J@?$positional_parameter_base@_WV?$string_output_adapter@_W@__crt_stdio_output@@@__crt_stdio_output@@IAE_NAA_J@Z 100104b4 f i libucrt:output.obj
 0001:0000f544       ??$extract_argument_from_va_list@C_J@?$standard_base@DV?$stream_output_adapter@D@__crt_stdio_output@@@__crt_stdio_output@@IAE_NAA_J@Z 10010544 f i libucrt:output.obj
 0001:0000f564       ??$extract_argument_from_va_list@C_J@?$standard_base@DV?$string_output_adapter@D@__crt_stdio_output@@@__crt_stdio_output@@IAE_NAA_J@Z 10010564 f i libucrt:output.obj
 0001:0000f584       ??$extract_argument_from_va_list@C_J@?$standard_base@_WV?$stream_output_adapter@_W@__crt_stdio_output@@@__crt_stdio_output@@IAE_NAA_J@Z 10010584 f i libucrt:output.obj
 0001:0000f5a4       ??$extract_argument_from_va_list@C_J@?$standard_base@_WV?$string_output_adapter@_W@__crt_stdio_output@@@__crt_stdio_output@@IAE_NAA_J@Z 100105a4 f i libucrt:output.obj
 0001:0000f5c4       ??$extract_argument_from_va_list@E_J@?$positional_parameter_base@DV?$stream_output_adapter@D@__crt_stdio_output@@@__crt_stdio_output@@IAE_NAA_J@Z 100105c4 f i libucrt:output.obj
 0001:0000f653       ??$extract_argument_from_va_list@E_J@?$positional_parameter_base@DV?$string_output_adapter@D@__crt_stdio_output@@@__crt_stdio_output@@IAE_NAA_J@Z 10010653 f i libucrt:output.obj
 0001:0000f6e2       ??$extract_argument_from_va_list@E_J@?$positional_parameter_base@_WV?$stream_output_adapter@_W@__crt_stdio_output@@@__crt_stdio_output@@IAE_NAA_J@Z 100106e2 f i libucrt:output.obj
 0001:0000f772       ??$extract_argument_from_va_list@E_J@?$positional_parameter_base@_WV?$string_output_adapter@_W@__crt_stdio_output@@@__crt_stdio_output@@IAE_NAA_J@Z 10010772 f i libucrt:output.obj
 0001:0000f802       ??$extract_argument_from_va_list@E_J@?$standard_base@DV?$stream_output_adapter@D@__crt_stdio_output@@@__crt_stdio_output@@IAE_NAA_J@Z 10010802 f i libucrt:output.obj
 0001:0000f822       ??$extract_argument_from_va_list@E_J@?$standard_base@DV?$string_output_adapter@D@__crt_stdio_output@@@__crt_stdio_output@@IAE_NAA_J@Z 10010822 f i libucrt:output.obj
 0001:0000f842       ??$extract_argument_from_va_list@E_J@?$standard_base@_WV?$stream_output_adapter@_W@__crt_stdio_output@@@__crt_stdio_output@@IAE_NAA_J@Z 10010842 f i libucrt:output.obj
 0001:0000f862       ??$extract_argument_from_va_list@E_J@?$standard_base@_WV?$string_output_adapter@_W@__crt_stdio_output@@@__crt_stdio_output@@IAE_NAA_J@Z 10010862 f i libucrt:output.obj
 0001:0000f882       ??$extract_argument_from_va_list@F_J@?$positional_parameter_base@DV?$stream_output_adapter@D@__crt_stdio_output@@@__crt_stdio_output@@IAE_NAA_J@Z 10010882 f i libucrt:output.obj
 0001:0000f911       ??$extract_argument_from_va_list@F_J@?$positional_parameter_base@DV?$string_output_adapter@D@__crt_stdio_output@@@__crt_stdio_output@@IAE_NAA_J@Z 10010911 f i libucrt:output.obj
 0001:0000f9a0       ??$extract_argument_from_va_list@F_J@?$positional_parameter_base@_WV?$stream_output_adapter@_W@__crt_stdio_output@@@__crt_stdio_output@@IAE_NAA_J@Z 100109a0 f i libucrt:output.obj
 0001:0000fa30       ??$extract_argument_from_va_list@F_J@?$positional_parameter_base@_WV?$string_output_adapter@_W@__crt_stdio_output@@@__crt_stdio_output@@IAE_NAA_J@Z 10010a30 f i libucrt:output.obj
 0001:0000fac0       ??$extract_argument_from_va_list@F_J@?$standard_base@DV?$stream_output_adapter@D@__crt_stdio_output@@@__crt_stdio_output@@IAE_NAA_J@Z 10010ac0 f i libucrt:output.obj
 0001:0000fae0       ??$extract_argument_from_va_list@F_J@?$standard_base@DV?$string_output_adapter@D@__crt_stdio_output@@@__crt_stdio_output@@IAE_NAA_J@Z 10010ae0 f i libucrt:output.obj
 0001:0000fb00       ??$extract_argument_from_va_list@F_J@?$standard_base@_WV?$stream_output_adapter@_W@__crt_stdio_output@@@__crt_stdio_output@@IAE_NAA_J@Z 10010b00 f i libucrt:output.obj
 0001:0000fb20       ??$extract_argument_from_va_list@F_J@?$standard_base@_WV?$string_output_adapter@_W@__crt_stdio_output@@@__crt_stdio_output@@IAE_NAA_J@Z 10010b20 f i libucrt:output.obj
 0001:0000fb40       ??$extract_argument_from_va_list@GD@?$positional_parameter_base@DV?$stream_output_adapter@D@__crt_stdio_output@@@__crt_stdio_output@@IAE_NAAD@Z 10010b40 f i libucrt:output.obj
 0001:0000fbce       ??$extract_argument_from_va_list@GD@?$positional_parameter_base@DV?$string_output_adapter@D@__crt_stdio_output@@@__crt_stdio_output@@IAE_NAAD@Z 10010bce f i libucrt:output.obj
 0001:0000fc5c       ??$extract_argument_from_va_list@GD@?$standard_base@DV?$stream_output_adapter@D@__crt_stdio_output@@@__crt_stdio_output@@IAE_NAAD@Z 10010c5c f i libucrt:output.obj
 0001:0000fc77       ??$extract_argument_from_va_list@GD@?$standard_base@DV?$string_output_adapter@D@__crt_stdio_output@@@__crt_stdio_output@@IAE_NAAD@Z 10010c77 f i libucrt:output.obj
 0001:0000fc92       ??$extract_argument_from_va_list@G_J@?$positional_parameter_base@DV?$stream_output_adapter@D@__crt_stdio_output@@@__crt_stdio_output@@IAE_NAA_J@Z 10010c92 f i libucrt:output.obj
 0001:0000fd21       ??$extract_argument_from_va_list@G_J@?$positional_parameter_base@DV?$string_output_adapter@D@__crt_stdio_output@@@__crt_stdio_output@@IAE_NAA_J@Z 10010d21 f i libucrt:output.obj
 0001:0000fdb0       ??$extract_argument_from_va_list@G_J@?$positional_parameter_base@_WV?$stream_output_adapter@_W@__crt_stdio_output@@@__crt_stdio_output@@IAE_NAA_J@Z 10010db0 f i libucrt:output.obj
 0001:0000fe40       ??$extract_argument_from_va_list@G_J@?$positional_parameter_base@_WV?$string_output_adapter@_W@__crt_stdio_output@@@__crt_stdio_output@@IAE_NAA_J@Z 10010e40 f i libucrt:output.obj
 0001:0000fed0       ??$extract_argument_from_va_list@G_J@?$standard_base@DV?$stream_output_adapter@D@__crt_stdio_output@@@__crt_stdio_output@@IAE_NAA_J@Z 10010ed0 f i libucrt:output.obj
 0001:0000fef0       ??$extract_argument_from_va_list@G_J@?$standard_base@DV?$string_output_adapter@D@__crt_stdio_output@@@__crt_stdio_output@@IAE_NAA_J@Z 10010ef0 f i libucrt:output.obj
 0001:0000ff10       ??$extract_argument_from_va_list@G_J@?$standard_base@_WV?$stream_output_adapter@_W@__crt_stdio_output@@@__crt_stdio_output@@IAE_NAA_J@Z 10010f10 f i libucrt:output.obj
 0001:0000ff30       ??$extract_argument_from_va_list@G_J@?$standard_base@_WV?$string_output_adapter@_W@__crt_stdio_output@@@__crt_stdio_output@@IAE_NAA_J@Z 10010f30 f i libucrt:output.obj
 0001:0000ff50       ??$extract_argument_from_va_list@H_J@?$positional_parameter_base@DV?$stream_output_adapter@D@__crt_stdio_output@@@__crt_stdio_output@@IAE_NAA_J@Z 10010f50 f i libucrt:output.obj
 0001:0000ffd9       ??$extract_argument_from_va_list@H_J@?$positional_parameter_base@DV?$string_output_adapter@D@__crt_stdio_output@@@__crt_stdio_output@@IAE_NAA_J@Z 10010fd9 f i libucrt:output.obj
 0001:00010062       ??$extract_argument_from_va_list@H_J@?$positional_parameter_base@_WV?$stream_output_adapter@_W@__crt_stdio_output@@@__crt_stdio_output@@IAE_NAA_J@Z 10011062 f i libucrt:output.obj
 0001:000100ec       ??$extract_argument_from_va_list@H_J@?$positional_parameter_base@_WV?$string_output_adapter@_W@__crt_stdio_output@@@__crt_stdio_output@@IAE_NAA_J@Z 100110ec f i libucrt:output.obj
 0001:00010176       ??$extract_argument_from_va_list@H_J@?$standard_base@DV?$stream_output_adapter@D@__crt_stdio_output@@@__crt_stdio_output@@IAE_NAA_J@Z 10011176 f i libucrt:output.obj
 0001:00010195       ??$extract_argument_from_va_list@H_J@?$standard_base@DV?$string_output_adapter@D@__crt_stdio_output@@@__crt_stdio_output@@IAE_NAA_J@Z 10011195 f i libucrt:output.obj
 0001:000101b4       ??$extract_argument_from_va_list@H_J@?$standard_base@_WV?$stream_output_adapter@_W@__crt_stdio_output@@@__crt_stdio_output@@IAE_NAA_J@Z 100111b4 f i libucrt:output.obj
 0001:000101d3       ??$extract_argument_from_va_list@H_J@?$standard_base@_WV?$string_output_adapter@_W@__crt_stdio_output@@@__crt_stdio_output@@IAE_NAA_J@Z 100111d3 f i libucrt:output.obj
 0001:000101f2       ??$extract_argument_from_va_list@I_J@?$positional_parameter_base@DV?$stream_output_adapter@D@__crt_stdio_output@@@__crt_stdio_output@@IAE_NAA_J@Z 100111f2 f i libucrt:output.obj
 0001:00010288       ??$extract_argument_from_va_list@I_J@?$positional_parameter_base@DV?$string_output_adapter@D@__crt_stdio_output@@@__crt_stdio_output@@IAE_NAA_J@Z 10011288 f i libucrt:output.obj
 0001:0001031e       ??$extract_argument_from_va_list@I_J@?$positional_parameter_base@_WV?$stream_output_adapter@_W@__crt_stdio_output@@@__crt_stdio_output@@IAE_NAA_J@Z 1001131e f i libucrt:output.obj
 0001:000103b5       ??$extract_argument_from_va_list@I_J@?$positional_parameter_base@_WV?$string_output_adapter@_W@__crt_stdio_output@@@__crt_stdio_output@@IAE_NAA_J@Z 100113b5 f i libucrt:output.obj
 0001:0001044c       ??$extract_argument_from_va_list@I_J@?$standard_base@DV?$stream_output_adapter@D@__crt_stdio_output@@@__crt_stdio_output@@IAE_NAA_J@Z 1001144c f i libucrt:output.obj
 0001:0001046b       ??$extract_argument_from_va_list@I_J@?$standard_base@DV?$string_output_adapter@D@__crt_stdio_output@@@__crt_stdio_output@@IAE_NAA_J@Z 1001146b f i libucrt:output.obj
 0001:0001048a       ??$extract_argument_from_va_list@I_J@?$standard_base@_WV?$stream_output_adapter@_W@__crt_stdio_output@@@__crt_stdio_output@@IAE_NAA_J@Z 1001148a f i libucrt:output.obj
 0001:000104a9       ??$extract_argument_from_va_list@I_J@?$standard_base@_WV?$string_output_adapter@_W@__crt_stdio_output@@@__crt_stdio_output@@IAE_NAA_J@Z 100114a9 f i libucrt:output.obj
 0001:000104c8       ??$extract_argument_from_va_list@PADPAD@?$positional_parameter_base@DV?$stream_output_adapter@D@__crt_stdio_output@@@__crt_stdio_output@@IAE_NAAPAD@Z 100114c8 f i libucrt:output.obj
 0001:00010556       ??$extract_argument_from_va_list@PADPAD@?$positional_parameter_base@DV?$string_output_adapter@D@__crt_stdio_output@@@__crt_stdio_output@@IAE_NAAPAD@Z 10011556 f i libucrt:output.obj
 0001:000105e4       ??$extract_argument_from_va_list@PADPAD@?$positional_parameter_base@_WV?$stream_output_adapter@_W@__crt_stdio_output@@@__crt_stdio_output@@IAE_NAAPAD@Z 100115e4 f i libucrt:output.obj
 0001:00010673       ??$extract_argument_from_va_list@PADPAD@?$positional_parameter_base@_WV?$string_output_adapter@_W@__crt_stdio_output@@@__crt_stdio_output@@IAE_NAAPAD@Z 10011673 f i libucrt:output.obj
 0001:00010702       ??$extract_argument_from_va_list@PADPAD@?$standard_base@DV?$stream_output_adapter@D@__crt_stdio_output@@@__crt_stdio_output@@IAE_NAAPAD@Z 10011702 f i libucrt:output.obj
 0001:0001071f       ??$extract_argument_from_va_list@PADPAD@?$standard_base@DV?$string_output_adapter@D@__crt_stdio_output@@@__crt_stdio_output@@IAE_NAAPAD@Z 1001171f f i libucrt:output.obj
 0001:0001073c       ??$extract_argument_from_va_list@PADPAD@?$standard_base@_WV?$stream_output_adapter@_W@__crt_stdio_output@@@__crt_stdio_output@@IAE_NAAPAD@Z 1001173c f i libucrt:output.obj
 0001:00010759       ??$extract_argument_from_va_list@PADPAD@?$standard_base@_WV?$string_output_adapter@_W@__crt_stdio_output@@@__crt_stdio_output@@IAE_NAAPAD@Z 10011759 f i libucrt:output.obj
 0001:00010776       ??$extract_argument_from_va_list@PAUansi_string@?1??type_case_Z@?$output_processor@DV?$stream_output_adapter@D@__crt_stdio_output@@V?$format_validation_base@DV?$stream_output_adapter@D@__crt_stdio_output@@@2@@__crt_stdio_output@@AAE_NXZ@PAU1?1??234@AAE_NXZ@@?$standard_base@DV?$stream_output_adapter@D@__crt_stdio_output@@@__crt_stdio_output@@IAE_NAAPAUansi_string@?1??type_case_Z@?$output_processor@DV?$stream_output_adapter@D@__crt_stdio_output@@V?$format_validation_base@DV?$stream_output_adapter@D@__crt_stdio_output@@@2@@1@AAE_NXZ@@Z 10011776 f i libucrt:output.obj
 0001:00010793       ??$extract_argument_from_va_list@PAUansi_string@?1??type_case_Z@?$output_processor@DV?$stream_output_adapter@D@__crt_stdio_output@@V?$positional_parameter_base@DV?$stream_output_adapter@D@__crt_stdio_output@@@2@@__crt_stdio_output@@AAE_NXZ@PAU1?1??234@AAE_NXZ@@?$positional_parameter_base@DV?$stream_output_adapter@D@__crt_stdio_output@@@__crt_stdio_output@@IAE_NAAPAUansi_string@?1??type_case_Z@?$output_processor@DV?$stream_output_adapter@D@__crt_stdio_output@@V?$positional_parameter_base@DV?$stream_output_adapter@D@__crt_stdio_output@@@2@@1@AAE_NXZ@@Z 10011793 f i libucrt:output.obj
 0001:00010821       ??$extract_argument_from_va_list@PAUansi_string@?1??type_case_Z@?$output_processor@DV?$stream_output_adapter@D@__crt_stdio_output@@V?$positional_parameter_base@DV?$stream_output_adapter@D@__crt_stdio_output@@@2@@__crt_stdio_output@@AAE_NXZ@PAU1?1??234@AAE_NXZ@@?$standard_base@DV?$stream_output_adapter@D@__crt_stdio_output@@@__crt_stdio_output@@IAE_NAAPAUansi_string@?1??type_case_Z@?$output_processor@DV?$stream_output_adapter@D@__crt_stdio_output@@V?$positional_parameter_base@DV?$stream_output_adapter@D@__crt_stdio_output@@@2@@1@AAE_NXZ@@Z 10011821 f i libucrt:output.obj
 0001:0001083e       ??$extract_argument_from_va_list@PAUansi_string@?1??type_case_Z@?$output_processor@DV?$stream_output_adapter@D@__crt_stdio_output@@V?$standard_base@DV?$stream_output_adapter@D@__crt_stdio_output@@@2@@__crt_stdio_output@@AAE_NXZ@PAU1?1??234@AAE_NXZ@@?$standard_base@DV?$stream_output_adapter@D@__crt_stdio_output@@@__crt_stdio_output@@IAE_NAAPAUansi_string@?1??type_case_Z@?$output_processor@DV?$stream_output_adapter@D@__crt_stdio_output@@V?$standard_base@DV?$stream_output_adapter@D@__crt_stdio_output@@@2@@1@AAE_NXZ@@Z 1001183e f i libucrt:output.obj
 0001:0001085b       ??$extract_argument_from_va_list@PAUansi_string@?1??type_case_Z@?$output_processor@DV?$string_output_adapter@D@__crt_stdio_output@@V?$format_validation_base@DV?$string_output_adapter@D@__crt_stdio_output@@@2@@__crt_stdio_output@@AAE_NXZ@PAU1?1??234@AAE_NXZ@@?$standard_base@DV?$string_output_adapter@D@__crt_stdio_output@@@__crt_stdio_output@@IAE_NAAPAUansi_string@?1??type_case_Z@?$output_processor@DV?$string_output_adapter@D@__crt_stdio_output@@V?$format_validation_base@DV?$string_output_adapter@D@__crt_stdio_output@@@2@@1@AAE_NXZ@@Z 1001185b f i libucrt:output.obj
 0001:00010878       ??$extract_argument_from_va_list@PAUansi_string@?1??type_case_Z@?$output_processor@DV?$string_output_adapter@D@__crt_stdio_output@@V?$positional_parameter_base@DV?$string_output_adapter@D@__crt_stdio_output@@@2@@__crt_stdio_output@@AAE_NXZ@PAU1?1??234@AAE_NXZ@@?$positional_parameter_base@DV?$string_output_adapter@D@__crt_stdio_output@@@__crt_stdio_output@@IAE_NAAPAUansi_string@?1??type_case_Z@?$output_processor@DV?$string_output_adapter@D@__crt_stdio_output@@V?$positional_parameter_base@DV?$string_output_adapter@D@__crt_stdio_output@@@2@@1@AAE_NXZ@@Z 10011878 f i libucrt:output.obj
 0001:00010906       ??$extract_argument_from_va_list@PAUansi_string@?1??type_case_Z@?$output_processor@DV?$string_output_adapter@D@__crt_stdio_output@@V?$positional_parameter_base@DV?$string_output_adapter@D@__crt_stdio_output@@@2@@__crt_stdio_output@@AAE_NXZ@PAU1?1??234@AAE_NXZ@@?$standard_base@DV?$string_output_adapter@D@__crt_stdio_output@@@__crt_stdio_output@@IAE_NAAPAUansi_string@?1??type_case_Z@?$output_processor@DV?$string_output_adapter@D@__crt_stdio_output@@V?$positional_parameter_base@DV?$string_output_adapter@D@__crt_stdio_output@@@2@@1@AAE_NXZ@@Z 10011906 f i libucrt:output.obj
 0001:00010923       ??$extract_argument_from_va_list@PAUansi_string@?1??type_case_Z@?$output_processor@DV?$string_output_adapter@D@__crt_stdio_output@@V?$standard_base@DV?$string_output_adapter@D@__crt_stdio_output@@@2@@__crt_stdio_output@@AAE_NXZ@PAU1?1??234@AAE_NXZ@@?$standard_base@DV?$string_output_adapter@D@__crt_stdio_output@@@__crt_stdio_output@@IAE_NAAPAUansi_string@?1??type_case_Z@?$output_processor@DV?$string_output_adapter@D@__crt_stdio_output@@V?$standard_base@DV?$string_output_adapter@D@__crt_stdio_output@@@2@@1@AAE_NXZ@@Z 10011923 f i libucrt:output.obj
 0001:00010940       ??$extract_argument_from_va_list@PAUansi_string@?1??type_case_Z@?$output_processor@_WV?$stream_output_adapter@_W@__crt_stdio_output@@V?$format_validation_base@_WV?$stream_output_adapter@_W@__crt_stdio_output@@@2@@__crt_stdio_output@@AAE_NXZ@PAU1?1??234@AAE_NXZ@@?$standard_base@_WV?$stream_output_adapter@_W@__crt_stdio_output@@@__crt_stdio_output@@IAE_NAAPAUansi_string@?1??type_case_Z@?$output_processor@_WV?$stream_output_adapter@_W@__crt_stdio_output@@V?$format_validation_base@_WV?$stream_output_adapter@_W@__crt_stdio_output@@@2@@1@AAE_NXZ@@Z 10011940 f i libucrt:output.obj
 0001:0001095d       ??$extract_argument_from_va_list@PAUansi_string@?1??type_case_Z@?$output_processor@_WV?$stream_output_adapter@_W@__crt_stdio_output@@V?$positional_parameter_base@_WV?$stream_output_adapter@_W@__crt_stdio_output@@@2@@__crt_stdio_output@@AAE_NXZ@PAU1?1??234@AAE_NXZ@@?$positional_parameter_base@_WV?$stream_output_adapter@_W@__crt_stdio_output@@@__crt_stdio_output@@IAE_NAAPAUansi_string@?1??type_case_Z@?$output_processor@_WV?$stream_output_adapter@_W@__crt_stdio_output@@V?$positional_parameter_base@_WV?$stream_output_adapter@_W@__crt_stdio_output@@@2@@1@AAE_NXZ@@Z 1001195d f i libucrt:output.obj
 0001:000109ec       ??$extract_argument_from_va_list@PAUansi_string@?1??type_case_Z@?$output_processor@_WV?$stream_output_adapter@_W@__crt_stdio_output@@V?$positional_parameter_base@_WV?$stream_output_adapter@_W@__crt_stdio_output@@@2@@__crt_stdio_output@@AAE_NXZ@PAU1?1??234@AAE_NXZ@@?$standard_base@_WV?$stream_output_adapter@_W@__crt_stdio_output@@@__crt_stdio_output@@IAE_NAAPAUansi_string@?1??type_case_Z@?$output_processor@_WV?$stream_output_adapter@_W@__crt_stdio_output@@V?$positional_parameter_base@_WV?$stream_output_adapter@_W@__crt_stdio_output@@@2@@1@AAE_NXZ@@Z 100119ec f i libucrt:output.obj
 0001:00010a09       ??$extract_argument_from_va_list@PAUansi_string@?1??type_case_Z@?$output_processor@_WV?$stream_output_adapter@_W@__crt_stdio_output@@V?$standard_base@_WV?$stream_output_adapter@_W@__crt_stdio_output@@@2@@__crt_stdio_output@@AAE_NXZ@PAU1?1??234@AAE_NXZ@@?$standard_base@_WV?$stream_output_adapter@_W@__crt_stdio_output@@@__crt_stdio_output@@IAE_NAAPAUansi_string@?1??type_case_Z@?$output_processor@_WV?$stream_output_adapter@_W@__crt_stdio_output@@V?$standard_base@_WV?$stream_output_adapter@_W@__crt_stdio_output@@@2@@1@AAE_NXZ@@Z 10011a09 f i libucrt:output.obj
 0001:00010a26       ??$extract_argument_from_va_list@PAUansi_string@?1??type_case_Z@?$output_processor@_WV?$string_output_adapter@_W@__crt_stdio_output@@V?$format_validation_base@_WV?$string_output_adapter@_W@__crt_stdio_output@@@2@@__crt_stdio_output@@AAE_NXZ@PAU1?1??234@AAE_NXZ@@?$standard_base@_WV?$string_output_adapter@_W@__crt_stdio_output@@@__crt_stdio_output@@IAE_NAAPAUansi_string@?1??type_case_Z@?$output_processor@_WV?$string_output_adapter@_W@__crt_stdio_output@@V?$format_validation_base@_WV?$string_output_adapter@_W@__crt_stdio_output@@@2@@1@AAE_NXZ@@Z 10011a26 f i libucrt:output.obj
 0001:00010a43       ??$extract_argument_from_va_list@PAUansi_string@?1??type_case_Z@?$output_processor@_WV?$string_output_adapter@_W@__crt_stdio_output@@V?$positional_parameter_base@_WV?$string_output_adapter@_W@__crt_stdio_output@@@2@@__crt_stdio_output@@AAE_NXZ@PAU1?1??234@AAE_NXZ@@?$positional_parameter_base@_WV?$string_output_adapter@_W@__crt_stdio_output@@@__crt_stdio_output@@IAE_NAAPAUansi_string@?1??type_case_Z@?$output_processor@_WV?$string_output_adapter@_W@__crt_stdio_output@@V?$positional_parameter_base@_WV?$string_output_adapter@_W@__crt_stdio_output@@@2@@1@AAE_NXZ@@Z 10011a43 f i libucrt:output.obj
 0001:00010ad2       ??$extract_argument_from_va_list@PAUansi_string@?1??type_case_Z@?$output_processor@_WV?$string_output_adapter@_W@__crt_stdio_output@@V?$positional_parameter_base@_WV?$string_output_adapter@_W@__crt_stdio_output@@@2@@__crt_stdio_output@@AAE_NXZ@PAU1?1??234@AAE_NXZ@@?$standard_base@_WV?$string_output_adapter@_W@__crt_stdio_output@@@__crt_stdio_output@@IAE_NAAPAUansi_string@?1??type_case_Z@?$output_processor@_WV?$string_output_adapter@_W@__crt_stdio_output@@V?$positional_parameter_base@_WV?$string_output_adapter@_W@__crt_stdio_output@@@2@@1@AAE_NXZ@@Z 10011ad2 f i libucrt:output.obj
 0001:00010aef       ??$extract_argument_from_va_list@PAUansi_string@?1??type_case_Z@?$output_processor@_WV?$string_output_adapter@_W@__crt_stdio_output@@V?$standard_base@_WV?$string_output_adapter@_W@__crt_stdio_output@@@2@@__crt_stdio_output@@AAE_NXZ@PAU1?1??234@AAE_NXZ@@?$standard_base@_WV?$string_output_adapter@_W@__crt_stdio_output@@@__crt_stdio_output@@IAE_NAAPAUansi_string@?1??type_case_Z@?$output_processor@_WV?$string_output_adapter@_W@__crt_stdio_output@@V?$standard_base@_WV?$string_output_adapter@_W@__crt_stdio_output@@@2@@1@AAE_NXZ@@Z 10011aef f i libucrt:output.obj
 0001:00010b0c       ??$extract_argument_from_va_list@PAXPAX@?$positional_parameter_base@DV?$stream_output_adapter@D@__crt_stdio_output@@@__crt_stdio_output@@IAE_NAAPAX@Z 10011b0c f i libucrt:output.obj
 0001:00010b9a       ??$extract_argument_from_va_list@PAXPAX@?$positional_parameter_base@DV?$string_output_adapter@D@__crt_stdio_output@@@__crt_stdio_output@@IAE_NAAPAX@Z 10011b9a f i libucrt:output.obj
 0001:00010c28       ??$extract_argument_from_va_list@PAXPAX@?$positional_parameter_base@_WV?$stream_output_adapter@_W@__crt_stdio_output@@@__crt_stdio_output@@IAE_NAAPAX@Z 10011c28 f i libucrt:output.obj
 0001:00010cb7       ??$extract_argument_from_va_list@PAXPAX@?$positional_parameter_base@_WV?$string_output_adapter@_W@__crt_stdio_output@@@__crt_stdio_output@@IAE_NAAPAX@Z 10011cb7 f i libucrt:output.obj
 0001:00010d46       ??$extract_argument_from_va_list@PAXPAX@?$standard_base@DV?$stream_output_adapter@D@__crt_stdio_output@@@__crt_stdio_output@@IAE_NAAPAX@Z 10011d46 f i libucrt:output.obj
 0001:00010d63       ??$extract_argument_from_va_list@PAXPAX@?$standard_base@DV?$string_output_adapter@D@__crt_stdio_output@@@__crt_stdio_output@@IAE_NAAPAX@Z 10011d63 f i libucrt:output.obj
 0001:00010d80       ??$extract_argument_from_va_list@PAXPAX@?$standard_base@_WV?$stream_output_adapter@_W@__crt_stdio_output@@@__crt_stdio_output@@IAE_NAAPAX@Z 10011d80 f i libucrt:output.obj
 0001:00010d9d       ??$extract_argument_from_va_list@PAXPAX@?$standard_base@_WV?$string_output_adapter@_W@__crt_stdio_output@@@__crt_stdio_output@@IAE_NAAPAX@Z 10011d9d f i libucrt:output.obj
 0001:00010dba       ??$extract_argument_from_va_list@U_CRT_DOUBLE@@U1@@?$positional_parameter_base@DV?$stream_output_adapter@D@__crt_stdio_output@@@__crt_stdio_output@@IAE_NAAU_CRT_DOUBLE@@@Z 10011dba f i libucrt:output.obj
 0001:00010e50       ??$extract_argument_from_va_list@U_CRT_DOUBLE@@U1@@?$positional_parameter_base@DV?$string_output_adapter@D@__crt_stdio_output@@@__crt_stdio_output@@IAE_NAAU_CRT_DOUBLE@@@Z 10011e50 f i libucrt:output.obj
 0001:00010ee6       ??$extract_argument_from_va_list@U_CRT_DOUBLE@@U1@@?$positional_parameter_base@_WV?$stream_output_adapter@_W@__crt_stdio_output@@@__crt_stdio_output@@IAE_NAAU_CRT_DOUBLE@@@Z 10011ee6 f i libucrt:output.obj
 0001:00010f7d       ??$extract_argument_from_va_list@U_CRT_DOUBLE@@U1@@?$positional_parameter_base@_WV?$string_output_adapter@_W@__crt_stdio_output@@@__crt_stdio_output@@IAE_NAAU_CRT_DOUBLE@@@Z 10011f7d f i libucrt:output.obj
 0001:00011014       ??$extract_argument_from_va_list@U_CRT_DOUBLE@@U1@@?$standard_base@DV?$stream_output_adapter@D@__crt_stdio_output@@@__crt_stdio_output@@IAE_NAAU_CRT_DOUBLE@@@Z 10012014 f i libucrt:output.obj
 0001:00011035       ??$extract_argument_from_va_list@U_CRT_DOUBLE@@U1@@?$standard_base@DV?$string_output_adapter@D@__crt_stdio_output@@@__crt_stdio_output@@IAE_NAAU_CRT_DOUBLE@@@Z 10012035 f i libucrt:output.obj
 0001:00011056       ??$extract_argument_from_va_list@U_CRT_DOUBLE@@U1@@?$standard_base@_WV?$stream_output_adapter@_W@__crt_stdio_output@@@__crt_stdio_output@@IAE_NAAU_CRT_DOUBLE@@@Z 10012056 f i libucrt:output.obj
 0001:00011077       ??$extract_argument_from_va_list@U_CRT_DOUBLE@@U1@@?$standard_base@_WV?$string_output_adapter@_W@__crt_stdio_output@@@__crt_stdio_output@@IAE_NAAU_CRT_DOUBLE@@@Z 10012077 f i libucrt:output.obj
 0001:00011098       ??$extract_argument_from_va_list@_J_J@?$positional_parameter_base@DV?$stream_output_adapter@D@__crt_stdio_output@@@__crt_stdio_output@@IAE_NAA_J@Z 10012098 f i libucrt:output.obj
 0001:00011132       ??$extract_argument_from_va_list@_J_J@?$positional_parameter_base@DV?$string_output_adapter@D@__crt_stdio_output@@@__crt_stdio_output@@IAE_NAA_J@Z 10012132 f i libucrt:output.obj
 0001:000111cc       ??$extract_argument_from_va_list@_J_J@?$positional_parameter_base@_WV?$stream_output_adapter@_W@__crt_stdio_output@@@__crt_stdio_output@@IAE_NAA_J@Z 100121cc f i libucrt:output.obj
 0001:00011267       ??$extract_argument_from_va_list@_J_J@?$positional_parameter_base@_WV?$string_output_adapter@_W@__crt_stdio_output@@@__crt_stdio_output@@IAE_NAA_J@Z 10012267 f i libucrt:output.obj
 0001:00011302       ??$extract_argument_from_va_list@_J_J@?$standard_base@DV?$stream_output_adapter@D@__crt_stdio_output@@@__crt_stdio_output@@IAE_NAA_J@Z 10012302 f i libucrt:output.obj
 0001:00011323       ??$extract_argument_from_va_list@_J_J@?$standard_base@DV?$string_output_adapter@D@__crt_stdio_output@@@__crt_stdio_output@@IAE_NAA_J@Z 10012323 f i libucrt:output.obj
 0001:00011344       ??$extract_argument_from_va_list@_J_J@?$standard_base@_WV?$stream_output_adapter@_W@__crt_stdio_output@@@__crt_stdio_output@@IAE_NAA_J@Z 10012344 f i libucrt:output.obj
 0001:00011365       ??$extract_argument_from_va_list@_J_J@?$standard_base@_WV?$string_output_adapter@_W@__crt_stdio_output@@@__crt_stdio_output@@IAE_NAA_J@Z 10012365 f i libucrt:output.obj
 0001:00011386       ??$extract_argument_from_va_list@_K_J@?$positional_parameter_base@DV?$stream_output_adapter@D@__crt_stdio_output@@@__crt_stdio_output@@IAE_NAA_J@Z 10012386 f i libucrt:output.obj
 0001:00011420       ??$extract_argument_from_va_list@_K_J@?$positional_parameter_base@DV?$string_output_adapter@D@__crt_stdio_output@@@__crt_stdio_output@@IAE_NAA_J@Z 10012420 f i libucrt:output.obj
 0001:000114ba       ??$extract_argument_from_va_list@_K_J@?$positional_parameter_base@_WV?$stream_output_adapter@_W@__crt_stdio_output@@@__crt_stdio_output@@IAE_NAA_J@Z 100124ba f i libucrt:output.obj
 0001:00011555       ??$extract_argument_from_va_list@_K_J@?$positional_parameter_base@_WV?$string_output_adapter@_W@__crt_stdio_output@@@__crt_stdio_output@@IAE_NAA_J@Z 10012555 f i libucrt:output.obj
 0001:000115f0       ??$extract_argument_from_va_list@_K_J@?$standard_base@DV?$stream_output_adapter@D@__crt_stdio_output@@@__crt_stdio_output@@IAE_NAA_J@Z 100125f0 f i libucrt:output.obj
 0001:00011611       ??$extract_argument_from_va_list@_K_J@?$standard_base@DV?$string_output_adapter@D@__crt_stdio_output@@@__crt_stdio_output@@IAE_NAA_J@Z 10012611 f i libucrt:output.obj
 0001:00011632       ??$extract_argument_from_va_list@_K_J@?$standard_base@_WV?$stream_output_adapter@_W@__crt_stdio_output@@@__crt_stdio_output@@IAE_NAA_J@Z 10012632 f i libucrt:output.obj
 0001:00011653       ??$extract_argument_from_va_list@_K_J@?$standard_base@_WV?$string_output_adapter@_W@__crt_stdio_output@@@__crt_stdio_output@@IAE_NAA_J@Z 10012653 f i libucrt:output.obj
 0001:00011674       ??$extract_argument_from_va_list@_W_W@?$positional_parameter_base@DV?$stream_output_adapter@D@__crt_stdio_output@@@__crt_stdio_output@@IAE_NAA_W@Z 10012674 f i libucrt:output.obj
 0001:00011706       ??$extract_argument_from_va_list@_W_W@?$positional_parameter_base@DV?$string_output_adapter@D@__crt_stdio_output@@@__crt_stdio_output@@IAE_NAA_W@Z 10012706 f i libucrt:output.obj
 0001:00011798       ??$extract_argument_from_va_list@_W_W@?$positional_parameter_base@_WV?$stream_output_adapter@_W@__crt_stdio_output@@@__crt_stdio_output@@IAE_NAA_W@Z 10012798 f i libucrt:output.obj
 0001:0001182b       ??$extract_argument_from_va_list@_W_W@?$positional_parameter_base@_WV?$string_output_adapter@_W@__crt_stdio_output@@@__crt_stdio_output@@IAE_NAA_W@Z 1001282b f i libucrt:output.obj
 0001:000118be       ??$extract_argument_from_va_list@_W_W@?$standard_base@DV?$stream_output_adapter@D@__crt_stdio_output@@@__crt_stdio_output@@IAE_NAA_W@Z 100128be f i libucrt:output.obj
 0001:000118db       ??$extract_argument_from_va_list@_W_W@?$standard_base@DV?$string_output_adapter@D@__crt_stdio_output@@@__crt_stdio_output@@IAE_NAA_W@Z 100128db f i libucrt:output.obj
 0001:000118f8       ??$extract_argument_from_va_list@_W_W@?$standard_base@_WV?$stream_output_adapter@_W@__crt_stdio_output@@@__crt_stdio_output@@IAE_NAA_W@Z 100128f8 f i libucrt:output.obj
 0001:00011915       ??$extract_argument_from_va_list@_W_W@?$standard_base@_WV?$string_output_adapter@_W@__crt_stdio_output@@@__crt_stdio_output@@IAE_NAA_W@Z 10012915 f i libucrt:output.obj
 0001:00011932       ??$get_parameter_type@D@?$positional_parameter_base@DV?$stream_output_adapter@D@__crt_stdio_output@@@__crt_stdio_output@@CA?AW4parameter_type@01@PAD@Z 10012932 f i libucrt:output.obj
 0001:00011936       ??$get_parameter_type@D@?$positional_parameter_base@DV?$string_output_adapter@D@__crt_stdio_output@@@__crt_stdio_output@@CA?AW4parameter_type@01@PAD@Z 10012936 f i libucrt:output.obj
 0001:0001193a       ??$get_parameter_type@D@?$positional_parameter_base@_WV?$stream_output_adapter@_W@__crt_stdio_output@@@__crt_stdio_output@@CA?AW4parameter_type@01@PAD@Z 1001293a f i libucrt:output.obj
 0001:0001193e       ??$get_parameter_type@D@?$positional_parameter_base@_WV?$string_output_adapter@_W@__crt_stdio_output@@@__crt_stdio_output@@CA?AW4parameter_type@01@PAD@Z 1001293e f i libucrt:output.obj
 0001:00011942       ??$get_parameter_type@Uansi_string@?1??type_case_Z@?$output_processor@DV?$stream_output_adapter@D@__crt_stdio_output@@V?$positional_parameter_base@DV?$stream_output_adapter@D@__crt_stdio_output@@@2@@__crt_stdio_output@@AAE_NXZ@@?$positional_parameter_base@DV?$stream_output_adapter@D@__crt_stdio_output@@@__crt_stdio_output@@CA?AW4parameter_type@01@PAUansi_string@?1??type_case_Z@?$output_processor@DV?$stream_output_adapter@D@__crt_stdio_output@@V?$positional_parameter_base@DV?$stream_output_adapter@D@__crt_stdio_output@@@2@@1@AAE_NXZ@@Z 10012942 f i libucrt:output.obj
 0001:00011946       ??$get_parameter_type@Uansi_string@?1??type_case_Z@?$output_processor@DV?$string_output_adapter@D@__crt_stdio_output@@V?$positional_parameter_base@DV?$string_output_adapter@D@__crt_stdio_output@@@2@@__crt_stdio_output@@AAE_NXZ@@?$positional_parameter_base@DV?$string_output_adapter@D@__crt_stdio_output@@@__crt_stdio_output@@CA?AW4parameter_type@01@PAUansi_string@?1??type_case_Z@?$output_processor@DV?$string_output_adapter@D@__crt_stdio_output@@V?$positional_parameter_base@DV?$string_output_adapter@D@__crt_stdio_output@@@2@@1@AAE_NXZ@@Z 10012946 f i libucrt:output.obj
 0001:0001194a       ??$get_parameter_type@Uansi_string@?1??type_case_Z@?$output_processor@_WV?$stream_output_adapter@_W@__crt_stdio_output@@V?$positional_parameter_base@_WV?$stream_output_adapter@_W@__crt_stdio_output@@@2@@__crt_stdio_output@@AAE_NXZ@@?$positional_parameter_base@_WV?$stream_output_adapter@_W@__crt_stdio_output@@@__crt_stdio_output@@CA?AW4parameter_type@01@PAUansi_string@?1??type_case_Z@?$output_processor@_WV?$stream_output_adapter@_W@__crt_stdio_output@@V?$positional_parameter_base@_WV?$stream_output_adapter@_W@__crt_stdio_output@@@2@@1@AAE_NXZ@@Z 1001294a f i libucrt:output.obj
 0001:0001194e       ??$get_parameter_type@Uansi_string@?1??type_case_Z@?$output_processor@_WV?$string_output_adapter@_W@__crt_stdio_output@@V?$positional_parameter_base@_WV?$string_output_adapter@_W@__crt_stdio_output@@@2@@__crt_stdio_output@@AAE_NXZ@@?$positional_parameter_base@_WV?$string_output_adapter@_W@__crt_stdio_output@@@__crt_stdio_output@@CA?AW4parameter_type@01@PAUansi_string@?1??type_case_Z@?$output_processor@_WV?$string_output_adapter@_W@__crt_stdio_output@@V?$positional_parameter_base@_WV?$string_output_adapter@_W@__crt_stdio_output@@@2@@1@AAE_NXZ@@Z 1001294e f i libucrt:output.obj
 0001:00011952       ??$get_parameter_type@X@?$positional_parameter_base@DV?$stream_output_adapter@D@__crt_stdio_output@@@__crt_stdio_output@@CA?AW4parameter_type@01@PAX@Z 10012952 f i libucrt:output.obj
 0001:00011956       ??$get_parameter_type@X@?$positional_parameter_base@DV?$string_output_adapter@D@__crt_stdio_output@@@__crt_stdio_output@@CA?AW4parameter_type@01@PAX@Z 10012956 f i libucrt:output.obj
 0001:0001195a       ??$get_parameter_type@X@?$positional_parameter_base@_WV?$stream_output_adapter@_W@__crt_stdio_output@@@__crt_stdio_output@@CA?AW4parameter_type@01@PAX@Z 1001295a f i libucrt:output.obj
 0001:0001195e       ??$get_parameter_type@X@?$positional_parameter_base@_WV?$string_output_adapter@_W@__crt_stdio_output@@@__crt_stdio_output@@CA?AW4parameter_type@01@PAX@Z 1001295e f i libucrt:output.obj
 0001:00011962       ??$is_character_specifier@D@?$positional_parameter_base@DV?$stream_output_adapter@D@__crt_stdio_output@@@__crt_stdio_output@@CA_ND@Z 10012962 f i libucrt:output.obj
 0001:0001197a       ??$is_character_specifier@D@?$positional_parameter_base@DV?$string_output_adapter@D@__crt_stdio_output@@@__crt_stdio_output@@CA_ND@Z 1001297a f i libucrt:output.obj
 0001:00011992       ??$is_character_specifier@_W@?$positional_parameter_base@_WV?$stream_output_adapter@_W@__crt_stdio_output@@@__crt_stdio_output@@CA_N_W@Z 10012992 f i libucrt:output.obj
 0001:000119ad       ??$is_character_specifier@_W@?$positional_parameter_base@_WV?$string_output_adapter@_W@__crt_stdio_output@@@__crt_stdio_output@@CA_N_W@Z 100129ad f i libucrt:output.obj
 0001:000119c8       ??$is_integral_specifier@D@?$positional_parameter_base@DV?$stream_output_adapter@D@__crt_stdio_output@@@__crt_stdio_output@@CA_ND@Z 100129c8 f i libucrt:output.obj
 0001:000119f4       ??$is_integral_specifier@D@?$positional_parameter_base@DV?$string_output_adapter@D@__crt_stdio_output@@@__crt_stdio_output@@CA_ND@Z 100129f4 f i libucrt:output.obj
 0001:00011a20       ??$is_integral_specifier@_W@?$positional_parameter_base@_WV?$stream_output_adapter@_W@__crt_stdio_output@@@__crt_stdio_output@@CA_N_W@Z 10012a20 f i libucrt:output.obj
 0001:00011a5b       ??$is_integral_specifier@_W@?$positional_parameter_base@_WV?$string_output_adapter@_W@__crt_stdio_output@@@__crt_stdio_output@@CA_N_W@Z 10012a5b f i libucrt:output.obj
 0001:00011a96       ??$is_overflow_condition@K@__crt_strtox@@YA_NIK@Z 10012a96 f i libucrt:output.obj
 0001:00011aca       ??$is_pointer_specifier@D@?$positional_parameter_base@DV?$stream_output_adapter@D@__crt_stdio_output@@@__crt_stdio_output@@CA_ND@Z 10012aca f i libucrt:output.obj
 0001:00011ad8       ??$is_pointer_specifier@D@?$positional_parameter_base@DV?$string_output_adapter@D@__crt_stdio_output@@@__crt_stdio_output@@CA_ND@Z 10012ad8 f i libucrt:output.obj
 0001:00011ae6       ??$is_pointer_specifier@_W@?$positional_parameter_base@_WV?$stream_output_adapter@_W@__crt_stdio_output@@@__crt_stdio_output@@CA_N_W@Z 10012ae6 f i libucrt:output.obj
 0001:00011af5       ??$is_pointer_specifier@_W@?$positional_parameter_base@_WV?$string_output_adapter@_W@__crt_stdio_output@@@__crt_stdio_output@@CA_N_W@Z 10012af5 f i libucrt:output.obj
 0001:00011b04       ??$is_string_specifier@D@?$positional_parameter_base@DV?$stream_output_adapter@D@__crt_stdio_output@@@__crt_stdio_output@@CA_ND@Z 10012b04 f i libucrt:output.obj
 0001:00011b1c       ??$is_string_specifier@D@?$positional_parameter_base@DV?$string_output_adapter@D@__crt_stdio_output@@@__crt_stdio_output@@CA_ND@Z 10012b1c f i libucrt:output.obj
 0001:00011b34       ??$is_string_specifier@_W@?$positional_parameter_base@_WV?$stream_output_adapter@_W@__crt_stdio_output@@@__crt_stdio_output@@CA_N_W@Z 10012b34 f i libucrt:output.obj
 0001:00011b4f       ??$is_string_specifier@_W@?$positional_parameter_base@_WV?$string_output_adapter@_W@__crt_stdio_output@@@__crt_stdio_output@@CA_N_W@Z 10012b4f f i libucrt:output.obj
 0001:00011b6a       ??$is_wide_character_specifier@D@__crt_stdio_output@@YA_N_KDW4length_modifier@0@@Z 10012b6a f i libucrt:output.obj
 0001:00011b9b       ??$is_wide_character_specifier@_W@__crt_stdio_output@@YA_N_K_WW4length_modifier@0@@Z 10012b9b f i libucrt:output.obj
 0001:00011be9       ??$make_c_string_character_source@DPAPAD@__crt_strtox@@YA?AV?$c_string_character_source@D@0@QBDQAPAD@Z 10012be9 f i libucrt:output.obj
 0001:00011c04       ??$make_c_string_character_source@_WPAPA_W@__crt_strtox@@YA?AV?$c_string_character_source@_W@0@QB_WQAPA_W@Z 10012c04 f i libucrt:output.obj
 0001:00011c1f       ??$parse_integer@KV?$c_string_character_source@D@__crt_strtox@@$0A@@__crt_strtox@@YAKAAV__crt_cached_ptd_host@@V?$c_string_character_source@D@0@H_N@Z 10012c1f f i libucrt:output.obj
 0001:00011e2e       ??$parse_integer@KV?$c_string_character_source@_W@__crt_strtox@@$0A@@__crt_strtox@@YAKAAV__crt_cached_ptd_host@@V?$c_string_character_source@_W@0@H_N@Z 10012e2e f i libucrt:output.obj
 0001:00012401       ??$peek_va_arg@C@__crt_stdio_output@@YACPAD@Z 10013401 f i libucrt:output.obj
 0001:0001240d       ??$peek_va_arg@E@__crt_stdio_output@@YAEPAD@Z 1001340d f i libucrt:output.obj
 0001:00012419       ??$peek_va_arg@F@__crt_stdio_output@@YAFPAD@Z 10013419 f i libucrt:output.obj
 0001:00012426       ??$peek_va_arg@G@__crt_stdio_output@@YAGPAD@Z 10013426 f i libucrt:output.obj
 0001:00012433       ??$peek_va_arg@H@__crt_stdio_output@@YAHPAD@Z 10013433 f i libucrt:output.obj
 0001:0001243f       ??$peek_va_arg@I@__crt_stdio_output@@YAIPAD@Z 1001343f f i libucrt:output.obj
 0001:0001244b       ??$peek_va_arg@PAD@__crt_stdio_output@@YAPADPAD@Z 1001344b f i libucrt:output.obj
 0001:00012457       ??$peek_va_arg@PAUansi_string@?1??type_case_Z@?$output_processor@DV?$stream_output_adapter@D@__crt_stdio_output@@V?$positional_parameter_base@DV?$stream_output_adapter@D@__crt_stdio_output@@@2@@__crt_stdio_output@@AAE_NXZ@@__crt_stdio_output@@YAPAUansi_string@?1??type_case_Z@?$output_processor@DV?$stream_output_adapter@D@__crt_stdio_output@@V?$positional_parameter_base@DV?$stream_output_adapter@D@__crt_stdio_output@@@2@@0@AAE_NXZ@PAD@Z 10013457 f i libucrt:output.obj
 0001:00012463       ??$peek_va_arg@PAUansi_string@?1??type_case_Z@?$output_processor@DV?$string_output_adapter@D@__crt_stdio_output@@V?$positional_parameter_base@DV?$string_output_adapter@D@__crt_stdio_output@@@2@@__crt_stdio_output@@AAE_NXZ@@__crt_stdio_output@@YAPAUansi_string@?1??type_case_Z@?$output_processor@DV?$string_output_adapter@D@__crt_stdio_output@@V?$positional_parameter_base@DV?$string_output_adapter@D@__crt_stdio_output@@@2@@0@AAE_NXZ@PAD@Z 10013463 f i libucrt:output.obj
 0001:0001246f       ??$peek_va_arg@PAUansi_string@?1??type_case_Z@?$output_processor@_WV?$stream_output_adapter@_W@__crt_stdio_output@@V?$positional_parameter_base@_WV?$stream_output_adapter@_W@__crt_stdio_output@@@2@@__crt_stdio_output@@AAE_NXZ@@__crt_stdio_output@@YAPAUansi_string@?1??type_case_Z@?$output_processor@_WV?$stream_output_adapter@_W@__crt_stdio_output@@V?$positional_parameter_base@_WV?$stream_output_adapter@_W@__crt_stdio_output@@@2@@0@AAE_NXZ@PAD@Z 1001346f f i libucrt:output.obj
 0001:0001247b       ??$peek_va_arg@PAUansi_string@?1??type_case_Z@?$output_processor@_WV?$string_output_adapter@_W@__crt_stdio_output@@V?$positional_parameter_base@_WV?$string_output_adapter@_W@__crt_stdio_output@@@2@@__crt_stdio_output@@AAE_NXZ@@__crt_stdio_output@@YAPAUansi_string@?1??type_case_Z@?$output_processor@_WV?$string_output_adapter@_W@__crt_stdio_output@@V?$positional_parameter_base@_WV?$string_output_adapter@_W@__crt_stdio_output@@@2@@0@AAE_NXZ@PAD@Z 1001347b f i libucrt:output.obj
 0001:00012487       ??$peek_va_arg@PAX@__crt_stdio_output@@YAPAXPAD@Z 10013487 f i libucrt:output.obj
 0001:00012493       ??$peek_va_arg@U_CRT_DOUBLE@@@__crt_stdio_output@@YA?AU_CRT_DOUBLE@@PAD@Z 10013493 f i libucrt:output.obj
 0001:000124a2       ??$peek_va_arg@_J@__crt_stdio_output@@YA_JPAD@Z 100134a2 f i libucrt:output.obj
 0001:000124b1       ??$peek_va_arg@_K@__crt_stdio_output@@YA_KPAD@Z 100134b1 f i libucrt:output.obj
 0001:000124c0       ??$peek_va_arg@_W@__crt_stdio_output@@YA_WPAD@Z 100134c0 f i libucrt:output.obj
 0001:000124cd       ??$puttc_nolock_internal@ABDPAU_iobuf@@AAV__crt_cached_ptd_host@@@?$__crt_char_traits@D@@SAHABD$$QAPAU_iobuf@@AAV__crt_cached_ptd_host@@@Z 100134cd f i libucrt:output.obj
 0001:000124eb       ??$puttc_nolock_internal@AB_WPAU_iobuf@@AAV__crt_cached_ptd_host@@@?$__crt_char_traits@_W@@SAGAB_W$$QAPAU_iobuf@@AAV__crt_cached_ptd_host@@@Z 100134eb f i libucrt:output.obj
 0001:00012509       ??$read_va_arg@C@__crt_stdio_output@@YACAAPAD@Z 10013509 f i libucrt:output.obj
 0001:0001251c       ??$read_va_arg@E@__crt_stdio_output@@YAEAAPAD@Z 1001351c f i libucrt:output.obj
 0001:0001252f       ??$read_va_arg@F@__crt_stdio_output@@YAFAAPAD@Z 1001352f f i libucrt:output.obj
 0001:00012543       ??$read_va_arg@G@__crt_stdio_output@@YAGAAPAD@Z 10013543 f i libucrt:output.obj
 0001:00012557       ??$read_va_arg@H@__crt_stdio_output@@YAHAAPAD@Z 10013557 f i libucrt:output.obj
 0001:0001256a       ??$read_va_arg@I@__crt_stdio_output@@YAIAAPAD@Z 1001356a f i libucrt:output.obj
 0001:0001257d       ??$read_va_arg@PAD@__crt_stdio_output@@YAPADAAPAD@Z 1001357d f i libucrt:output.obj
 0001:00012590       ??$read_va_arg@PAUansi_string@?1??type_case_Z@?$output_processor@DV?$stream_output_adapter@D@__crt_stdio_output@@V?$format_validation_base@DV?$stream_output_adapter@D@__crt_stdio_output@@@2@@__crt_stdio_output@@AAE_NXZ@@__crt_stdio_output@@YAPAUansi_string@?1??type_case_Z@?$output_processor@DV?$stream_output_adapter@D@__crt_stdio_output@@V?$format_validation_base@DV?$stream_output_adapter@D@__crt_stdio_output@@@2@@0@AAE_NXZ@AAPAD@Z 10013590 f i libucrt:output.obj
 0001:000125a3       ??$read_va_arg@PAUansi_string@?1??type_case_Z@?$output_processor@DV?$stream_output_adapter@D@__crt_stdio_output@@V?$positional_parameter_base@DV?$stream_output_adapter@D@__crt_stdio_output@@@2@@__crt_stdio_output@@AAE_NXZ@@__crt_stdio_output@@YAPAUansi_string@?1??type_case_Z@?$output_processor@DV?$stream_output_adapter@D@__crt_stdio_output@@V?$positional_parameter_base@DV?$stream_output_adapter@D@__crt_stdio_output@@@2@@0@AAE_NXZ@AAPAD@Z 100135a3 f i libucrt:output.obj
 0001:000125b6       ??$read_va_arg@PAUansi_string@?1??type_case_Z@?$output_processor@DV?$stream_output_adapter@D@__crt_stdio_output@@V?$standard_base@DV?$stream_output_adapter@D@__crt_stdio_output@@@2@@__crt_stdio_output@@AAE_NXZ@@__crt_stdio_output@@YAPAUansi_string@?1??type_case_Z@?$output_processor@DV?$stream_output_adapter@D@__crt_stdio_output@@V?$standard_base@DV?$stream_output_adapter@D@__crt_stdio_output@@@2@@0@AAE_NXZ@AAPAD@Z 100135b6 f i libucrt:output.obj
 0001:000125c9       ??$read_va_arg@PAUansi_string@?1??type_case_Z@?$output_processor@DV?$string_output_adapter@D@__crt_stdio_output@@V?$format_validation_base@DV?$string_output_adapter@D@__crt_stdio_output@@@2@@__crt_stdio_output@@AAE_NXZ@@__crt_stdio_output@@YAPAUansi_string@?1??type_case_Z@?$output_processor@DV?$string_output_adapter@D@__crt_stdio_output@@V?$format_validation_base@DV?$string_output_adapter@D@__crt_stdio_output@@@2@@0@AAE_NXZ@AAPAD@Z 100135c9 f i libucrt:output.obj
 0001:000125dc       ??$read_va_arg@PAUansi_string@?1??type_case_Z@?$output_processor@DV?$string_output_adapter@D@__crt_stdio_output@@V?$positional_parameter_base@DV?$string_output_adapter@D@__crt_stdio_output@@@2@@__crt_stdio_output@@AAE_NXZ@@__crt_stdio_output@@YAPAUansi_string@?1??type_case_Z@?$output_processor@DV?$string_output_adapter@D@__crt_stdio_output@@V?$positional_parameter_base@DV?$string_output_adapter@D@__crt_stdio_output@@@2@@0@AAE_NXZ@AAPAD@Z 100135dc f i libucrt:output.obj
 0001:000125ef       ??$read_va_arg@PAUansi_string@?1??type_case_Z@?$output_processor@DV?$string_output_adapter@D@__crt_stdio_output@@V?$standard_base@DV?$string_output_adapter@D@__crt_stdio_output@@@2@@__crt_stdio_output@@AAE_NXZ@@__crt_stdio_output@@YAPAUansi_string@?1??type_case_Z@?$output_processor@DV?$string_output_adapter@D@__crt_stdio_output@@V?$standard_base@DV?$string_output_adapter@D@__crt_stdio_output@@@2@@0@AAE_NXZ@AAPAD@Z 100135ef f i libucrt:output.obj
 0001:00012602       ??$read_va_arg@PAUansi_string@?1??type_case_Z@?$output_processor@_WV?$stream_output_adapter@_W@__crt_stdio_output@@V?$format_validation_base@_WV?$stream_output_adapter@_W@__crt_stdio_output@@@2@@__crt_stdio_output@@AAE_NXZ@@__crt_stdio_output@@YAPAUansi_string@?1??type_case_Z@?$output_processor@_WV?$stream_output_adapter@_W@__crt_stdio_output@@V?$format_validation_base@_WV?$stream_output_adapter@_W@__crt_stdio_output@@@2@@0@AAE_NXZ@AAPAD@Z 10013602 f i libucrt:output.obj
 0001:00012615       ??$read_va_arg@PAUansi_string@?1??type_case_Z@?$output_processor@_WV?$stream_output_adapter@_W@__crt_stdio_output@@V?$positional_parameter_base@_WV?$stream_output_adapter@_W@__crt_stdio_output@@@2@@__crt_stdio_output@@AAE_NXZ@@__crt_stdio_output@@YAPAUansi_string@?1??type_case_Z@?$output_processor@_WV?$stream_output_adapter@_W@__crt_stdio_output@@V?$positional_parameter_base@_WV?$stream_output_adapter@_W@__crt_stdio_output@@@2@@0@AAE_NXZ@AAPAD@Z 10013615 f i libucrt:output.obj
 0001:00012628       ??$read_va_arg@PAUansi_string@?1??type_case_Z@?$output_processor@_WV?$stream_output_adapter@_W@__crt_stdio_output@@V?$standard_base@_WV?$stream_output_adapter@_W@__crt_stdio_output@@@2@@__crt_stdio_output@@AAE_NXZ@@__crt_stdio_output@@YAPAUansi_string@?1??type_case_Z@?$output_processor@_WV?$stream_output_adapter@_W@__crt_stdio_output@@V?$standard_base@_WV?$stream_output_adapter@_W@__crt_stdio_output@@@2@@0@AAE_NXZ@AAPAD@Z 10013628 f i libucrt:output.obj
 0001:0001263b       ??$read_va_arg@PAUansi_string@?1??type_case_Z@?$output_processor@_WV?$string_output_adapter@_W@__crt_stdio_output@@V?$format_validation_base@_WV?$string_output_adapter@_W@__crt_stdio_output@@@2@@__crt_stdio_output@@AAE_NXZ@@__crt_stdio_output@@YAPAUansi_string@?1??type_case_Z@?$output_processor@_WV?$string_output_adapter@_W@__crt_stdio_output@@V?$format_validation_base@_WV?$string_output_adapter@_W@__crt_stdio_output@@@2@@0@AAE_NXZ@AAPAD@Z 1001363b f i libucrt:output.obj
 0001:0001264e       ??$read_va_arg@PAUansi_string@?1??type_case_Z@?$output_processor@_WV?$string_output_adapter@_W@__crt_stdio_output@@V?$positional_parameter_base@_WV?$string_output_adapter@_W@__crt_stdio_output@@@2@@__crt_stdio_output@@AAE_NXZ@@__crt_stdio_output@@YAPAUansi_string@?1??type_case_Z@?$output_processor@_WV?$string_output_adapter@_W@__crt_stdio_output@@V?$positional_parameter_base@_WV?$string_output_adapter@_W@__crt_stdio_output@@@2@@0@AAE_NXZ@AAPAD@Z 1001364e f i libucrt:output.obj
 0001:00012661       ??$read_va_arg@PAUansi_string@?1??type_case_Z@?$output_processor@_WV?$string_output_adapter@_W@__crt_stdio_output@@V?$standard_base@_WV?$string_output_adapter@_W@__crt_stdio_output@@@2@@__crt_stdio_output@@AAE_NXZ@@__crt_stdio_output@@YAPAUansi_string@?1??type_case_Z@?$output_processor@_WV?$string_output_adapter@_W@__crt_stdio_output@@V?$standard_base@_WV?$string_output_adapter@_W@__crt_stdio_output@@@2@@0@AAE_NXZ@AAPAD@Z 10013661 f i libucrt:output.obj
 0001:00012674       ??$read_va_arg@PAX@__crt_stdio_output@@YAPAXAAPAD@Z 10013674 f i libucrt:output.obj
 0001:00012687       ??$read_va_arg@U_CRT_DOUBLE@@@__crt_stdio_output@@YA?AU_CRT_DOUBLE@@AAPAD@Z 10013687 f i libucrt:output.obj
 0001:0001269d       ??$read_va_arg@_J@__crt_stdio_output@@YA_JAAPAD@Z 1001369d f i libucrt:output.obj
 0001:000126b3       ??$read_va_arg@_K@__crt_stdio_output@@YA_KAAPAD@Z 100136b3 f i libucrt:output.obj
 0001:000126c9       ??$read_va_arg@_W@__crt_stdio_output@@YA_WAAPAD@Z 100136c9 f i libucrt:output.obj
 0001:000126dd       ??$scratch_count@D@formatting_buffer@__crt_stdio_output@@QBEIXZ 100136dd f i libucrt:output.obj
 0001:000126e2       ??$scratch_data@D@formatting_buffer@__crt_stdio_output@@QAEPADXZ 100136e2 f i libucrt:output.obj
 0001:00012700       ??$type_case_integer@$07@?$output_processor@DV?$stream_output_adapter@D@__crt_stdio_output@@V?$format_validation_base@DV?$stream_output_adapter@D@__crt_stdio_output@@@2@@__crt_stdio_output@@AAE_N_N@Z 10013700 f i libucrt:output.obj
 0001:0001288d       ??$type_case_integer@$07@?$output_processor@DV?$stream_output_adapter@D@__crt_stdio_output@@V?$positional_parameter_base@DV?$stream_output_adapter@D@__crt_stdio_output@@@2@@__crt_stdio_output@@AAE_N_N@Z 1001388d f i libucrt:output.obj
 0001:00012a29       ??$type_case_integer@$07@?$output_processor@DV?$stream_output_adapter@D@__crt_stdio_output@@V?$standard_base@DV?$stream_output_adapter@D@__crt_stdio_output@@@2@@__crt_stdio_output@@AAE_N_N@Z 10013a29 f i libucrt:output.obj
 0001:00012bb6       ??$type_case_integer@$07@?$output_processor@DV?$string_output_adapter@D@__crt_stdio_output@@V?$format_validation_base@DV?$string_output_adapter@D@__crt_stdio_output@@@2@@__crt_stdio_output@@AAE_N_N@Z 10013bb6 f i libucrt:output.obj
 0001:00012d43       ??$type_case_integer@$07@?$output_processor@DV?$string_output_adapter@D@__crt_stdio_output@@V?$positional_parameter_base@DV?$string_output_adapter@D@__crt_stdio_output@@@2@@__crt_stdio_output@@AAE_N_N@Z 10013d43 f i libucrt:output.obj
 0001:00012edf       ??$type_case_integer@$07@?$output_processor@DV?$string_output_adapter@D@__crt_stdio_output@@V?$standard_base@DV?$string_output_adapter@D@__crt_stdio_output@@@2@@__crt_stdio_output@@AAE_N_N@Z 10013edf f i libucrt:output.obj
 0001:0001306c       ??$type_case_integer@$07@?$output_processor@_WV?$stream_output_adapter@_W@__crt_stdio_output@@V?$format_validation_base@_WV?$stream_output_adapter@_W@__crt_stdio_output@@@2@@__crt_stdio_output@@AAE_N_N@Z 1001406c f i libucrt:output.obj
 0001:000131fe       ??$type_case_integer@$07@?$output_processor@_WV?$stream_output_adapter@_W@__crt_stdio_output@@V?$positional_parameter_base@_WV?$stream_output_adapter@_W@__crt_stdio_output@@@2@@__crt_stdio_output@@AAE_N_N@Z 100141fe f i libucrt:output.obj
 0001:0001339e       ??$type_case_integer@$07@?$output_processor@_WV?$stream_output_adapter@_W@__crt_stdio_output@@V?$standard_base@_WV?$stream_output_adapter@_W@__crt_stdio_output@@@2@@__crt_stdio_output@@AAE_N_N@Z 1001439e f i libucrt:output.obj
 0001:00013530       ??$type_case_integer@$07@?$output_processor@_WV?$string_output_adapter@_W@__crt_stdio_output@@V?$format_validation_base@_WV?$string_output_adapter@_W@__crt_stdio_output@@@2@@__crt_stdio_output@@AAE_N_N@Z 10014530 f i libucrt:output.obj
 0001:000136c2       ??$type_case_integer@$07@?$output_processor@_WV?$string_output_adapter@_W@__crt_stdio_output@@V?$positional_parameter_base@_WV?$string_output_adapter@_W@__crt_stdio_output@@@2@@__crt_stdio_output@@AAE_N_N@Z 100146c2 f i libucrt:output.obj
 0001:00013862       ??$type_case_integer@$07@?$output_processor@_WV?$string_output_adapter@_W@__crt_stdio_output@@V?$standard_base@_WV?$string_output_adapter@_W@__crt_stdio_output@@@2@@__crt_stdio_output@@AAE_N_N@Z 10014862 f i libucrt:output.obj
 0001:000139f4       ??$type_case_integer@$09@?$output_processor@DV?$stream_output_adapter@D@__crt_stdio_output@@V?$format_validation_base@DV?$stream_output_adapter@D@__crt_stdio_output@@@2@@__crt_stdio_output@@AAE_N_N@Z 100149f4 f i libucrt:output.obj
 0001:00013b81       ??$type_case_integer@$09@?$output_processor@DV?$stream_output_adapter@D@__crt_stdio_output@@V?$positional_parameter_base@DV?$stream_output_adapter@D@__crt_stdio_output@@@2@@__crt_stdio_output@@AAE_N_N@Z 10014b81 f i libucrt:output.obj
 0001:00013d1d       ??$type_case_integer@$09@?$output_processor@DV?$stream_output_adapter@D@__crt_stdio_output@@V?$standard_base@DV?$stream_output_adapter@D@__crt_stdio_output@@@2@@__crt_stdio_output@@AAE_N_N@Z 10014d1d f i libucrt:output.obj
 0001:00013eaa       ??$type_case_integer@$09@?$output_processor@DV?$string_output_adapter@D@__crt_stdio_output@@V?$format_validation_base@DV?$string_output_adapter@D@__crt_stdio_output@@@2@@__crt_stdio_output@@AAE_N_N@Z 10014eaa f i libucrt:output.obj
 0001:00014037       ??$type_case_integer@$09@?$output_processor@DV?$string_output_adapter@D@__crt_stdio_output@@V?$positional_parameter_base@DV?$string_output_adapter@D@__crt_stdio_output@@@2@@__crt_stdio_output@@AAE_N_N@Z 10015037 f i libucrt:output.obj
 0001:000141d3       ??$type_case_integer@$09@?$output_processor@DV?$string_output_adapter@D@__crt_stdio_output@@V?$standard_base@DV?$string_output_adapter@D@__crt_stdio_output@@@2@@__crt_stdio_output@@AAE_N_N@Z 100151d3 f i libucrt:output.obj
 0001:00014360       ??$type_case_integer@$09@?$output_processor@_WV?$stream_output_adapter@_W@__crt_stdio_output@@V?$format_validation_base@_WV?$stream_output_adapter@_W@__crt_stdio_output@@@2@@__crt_stdio_output@@AAE_N_N@Z 10015360 f i libucrt:output.obj
 0001:000144f2       ??$type_case_integer@$09@?$output_processor@_WV?$stream_output_adapter@_W@__crt_stdio_output@@V?$positional_parameter_base@_WV?$stream_output_adapter@_W@__crt_stdio_output@@@2@@__crt_stdio_output@@AAE_N_N@Z 100154f2 f i libucrt:output.obj
 0001:00014692       ??$type_case_integer@$09@?$output_processor@_WV?$stream_output_adapter@_W@__crt_stdio_output@@V?$standard_base@_WV?$stream_output_adapter@_W@__crt_stdio_output@@@2@@__crt_stdio_output@@AAE_N_N@Z 10015692 f i libucrt:output.obj
 0001:00014824       ??$type_case_integer@$09@?$output_processor@_WV?$string_output_adapter@_W@__crt_stdio_output@@V?$format_validation_base@_WV?$string_output_adapter@_W@__crt_stdio_output@@@2@@__crt_stdio_output@@AAE_N_N@Z 10015824 f i libucrt:output.obj
 0001:000149b6       ??$type_case_integer@$09@?$output_processor@_WV?$string_output_adapter@_W@__crt_stdio_output@@V?$positional_parameter_base@_WV?$string_output_adapter@_W@__crt_stdio_output@@@2@@__crt_stdio_output@@AAE_N_N@Z 100159b6 f i libucrt:output.obj
 0001:00014b56       ??$type_case_integer@$09@?$output_processor@_WV?$string_output_adapter@_W@__crt_stdio_output@@V?$standard_base@_WV?$string_output_adapter@_W@__crt_stdio_output@@@2@@__crt_stdio_output@@AAE_N_N@Z 10015b56 f i libucrt:output.obj
 0001:00014ce8       ??$type_case_integer@$0BA@@?$output_processor@DV?$stream_output_adapter@D@__crt_stdio_output@@V?$format_validation_base@DV?$stream_output_adapter@D@__crt_stdio_output@@@2@@__crt_stdio_output@@AAE_N_N@Z 10015ce8 f i libucrt:output.obj
 0001:00014e75       ??$type_case_integer@$0BA@@?$output_processor@DV?$stream_output_adapter@D@__crt_stdio_output@@V?$positional_parameter_base@DV?$stream_output_adapter@D@__crt_stdio_output@@@2@@__crt_stdio_output@@AAE_N_N@Z 10015e75 f i libucrt:output.obj
 0001:00015011       ??$type_case_integer@$0BA@@?$output_processor@DV?$stream_output_adapter@D@__crt_stdio_output@@V?$standard_base@DV?$stream_output_adapter@D@__crt_stdio_output@@@2@@__crt_stdio_output@@AAE_N_N@Z 10016011 f i libucrt:output.obj
 0001:0001519e       ??$type_case_integer@$0BA@@?$output_processor@DV?$string_output_adapter@D@__crt_stdio_output@@V?$format_validation_base@DV?$string_output_adapter@D@__crt_stdio_output@@@2@@__crt_stdio_output@@AAE_N_N@Z 1001619e f i libucrt:output.obj
 0001:0001532b       ??$type_case_integer@$0BA@@?$output_processor@DV?$string_output_adapter@D@__crt_stdio_output@@V?$positional_parameter_base@DV?$string_output_adapter@D@__crt_stdio_output@@@2@@__crt_stdio_output@@AAE_N_N@Z 1001632b f i libucrt:output.obj
 0001:000154c7       ??$type_case_integer@$0BA@@?$output_processor@DV?$string_output_adapter@D@__crt_stdio_output@@V?$standard_base@DV?$string_output_adapter@D@__crt_stdio_output@@@2@@__crt_stdio_output@@AAE_N_N@Z 100164c7 f i libucrt:output.obj
 0001:00015654       ??$type_case_integer@$0BA@@?$output_processor@_WV?$stream_output_adapter@_W@__crt_stdio_output@@V?$format_validation_base@_WV?$stream_output_adapter@_W@__crt_stdio_output@@@2@@__crt_stdio_output@@AAE_N_N@Z 10016654 f i libucrt:output.obj
 0001:000157e6       ??$type_case_integer@$0BA@@?$output_processor@_WV?$stream_output_adapter@_W@__crt_stdio_output@@V?$positional_parameter_base@_WV?$stream_output_adapter@_W@__crt_stdio_output@@@2@@__crt_stdio_output@@AAE_N_N@Z 100167e6 f i libucrt:output.obj
 0001:00015986       ??$type_case_integer@$0BA@@?$output_processor@_WV?$stream_output_adapter@_W@__crt_stdio_output@@V?$standard_base@_WV?$stream_output_adapter@_W@__crt_stdio_output@@@2@@__crt_stdio_output@@AAE_N_N@Z 10016986 f i libucrt:output.obj
 0001:00015b18       ??$type_case_integer@$0BA@@?$output_processor@_WV?$string_output_adapter@_W@__crt_stdio_output@@V?$format_validation_base@_WV?$string_output_adapter@_W@__crt_stdio_output@@@2@@__crt_stdio_output@@AAE_N_N@Z 10016b18 f i libucrt:output.obj
 0001:00015caa       ??$type_case_integer@$0BA@@?$output_processor@_WV?$string_output_adapter@_W@__crt_stdio_output@@V?$positional_parameter_base@_WV?$string_output_adapter@_W@__crt_stdio_output@@@2@@__crt_stdio_output@@AAE_N_N@Z 10016caa f i libucrt:output.obj
 0001:00015e4a       ??$type_case_integer@$0BA@@?$output_processor@_WV?$string_output_adapter@_W@__crt_stdio_output@@V?$standard_base@_WV?$string_output_adapter@_W@__crt_stdio_output@@@2@@__crt_stdio_output@@AAE_N_N@Z 10016e4a f i libucrt:output.obj
 0001:00015fdc       ??$type_case_integer_parse_into_buffer@I$07@?$output_processor@DV?$stream_output_adapter@D@__crt_stdio_output@@V?$format_validation_base@DV?$stream_output_adapter@D@__crt_stdio_output@@@2@@__crt_stdio_output@@AAEXI_N@Z 10016fdc f i libucrt:output.obj
 0001:0001603f       ??$type_case_integer_parse_into_buffer@I$07@?$output_processor@DV?$stream_output_adapter@D@__crt_stdio_output@@V?$positional_parameter_base@DV?$stream_output_adapter@D@__crt_stdio_output@@@2@@__crt_stdio_output@@AAEXI_N@Z 1001703f f i libucrt:output.obj
 0001:000160a2       ??$type_case_integer_parse_into_buffer@I$07@?$output_processor@DV?$stream_output_adapter@D@__crt_stdio_output@@V?$standard_base@DV?$stream_output_adapter@D@__crt_stdio_output@@@2@@__crt_stdio_output@@AAEXI_N@Z 100170a2 f i libucrt:output.obj
 0001:00016105       ??$type_case_integer_parse_into_buffer@I$07@?$output_processor@DV?$string_output_adapter@D@__crt_stdio_output@@V?$format_validation_base@DV?$string_output_adapter@D@__crt_stdio_output@@@2@@__crt_stdio_output@@AAEXI_N@Z 10017105 f i libucrt:output.obj
 0001:00016168       ??$type_case_integer_parse_into_buffer@I$07@?$output_processor@DV?$string_output_adapter@D@__crt_stdio_output@@V?$positional_parameter_base@DV?$string_output_adapter@D@__crt_stdio_output@@@2@@__crt_stdio_output@@AAEXI_N@Z 10017168 f i libucrt:output.obj
 0001:000161cb       ??$type_case_integer_parse_into_buffer@I$07@?$output_processor@DV?$string_output_adapter@D@__crt_stdio_output@@V?$standard_base@DV?$string_output_adapter@D@__crt_stdio_output@@@2@@__crt_stdio_output@@AAEXI_N@Z 100171cb f i libucrt:output.obj
 0001:0001622e       ??$type_case_integer_parse_into_buffer@I$07@?$output_processor@_WV?$stream_output_adapter@_W@__crt_stdio_output@@V?$format_validation_base@_WV?$stream_output_adapter@_W@__crt_stdio_output@@@2@@__crt_stdio_output@@AAEXI_N@Z 1001722e f i libucrt:output.obj
 0001:000162a1       ??$type_case_integer_parse_into_buffer@I$07@?$output_processor@_WV?$stream_output_adapter@_W@__crt_stdio_output@@V?$positional_parameter_base@_WV?$stream_output_adapter@_W@__crt_stdio_output@@@2@@__crt_stdio_output@@AAEXI_N@Z 100172a1 f i libucrt:output.obj
 0001:00016314       ??$type_case_integer_parse_into_buffer@I$07@?$output_processor@_WV?$stream_output_adapter@_W@__crt_stdio_output@@V?$standard_base@_WV?$stream_output_adapter@_W@__crt_stdio_output@@@2@@__crt_stdio_output@@AAEXI_N@Z 10017314 f i libucrt:output.obj
 0001:00016387       ??$type_case_integer_parse_into_buffer@I$07@?$output_processor@_WV?$string_output_adapter@_W@__crt_stdio_output@@V?$format_validation_base@_WV?$string_output_adapter@_W@__crt_stdio_output@@@2@@__crt_stdio_output@@AAEXI_N@Z 10017387 f i libucrt:output.obj
 0001:000163fa       ??$type_case_integer_parse_into_buffer@I$07@?$output_processor@_WV?$string_output_adapter@_W@__crt_stdio_output@@V?$positional_parameter_base@_WV?$string_output_adapter@_W@__crt_stdio_output@@@2@@__crt_stdio_output@@AAEXI_N@Z 100173fa f i libucrt:output.obj
 0001:0001646d       ??$type_case_integer_parse_into_buffer@I$07@?$output_processor@_WV?$string_output_adapter@_W@__crt_stdio_output@@V?$standard_base@_WV?$string_output_adapter@_W@__crt_stdio_output@@@2@@__crt_stdio_output@@AAEXI_N@Z 1001746d f i libucrt:output.obj
 0001:000164e0       ??$type_case_integer_parse_into_buffer@I$09@?$output_processor@DV?$stream_output_adapter@D@__crt_stdio_output@@V?$format_validation_base@DV?$stream_output_adapter@D@__crt_stdio_output@@@2@@__crt_stdio_output@@AAEXI_N@Z 100174e0 f i libucrt:output.obj
 0001:00016567       ??$type_case_integer_parse_into_buffer@I$09@?$output_processor@DV?$stream_output_adapter@D@__crt_stdio_output@@V?$positional_parameter_base@DV?$stream_output_adapter@D@__crt_stdio_output@@@2@@__crt_stdio_output@@AAEXI_N@Z 10017567 f i libucrt:output.obj
 0001:000165ee       ??$type_case_integer_parse_into_buffer@I$09@?$output_processor@DV?$stream_output_adapter@D@__crt_stdio_output@@V?$standard_base@DV?$stream_output_adapter@D@__crt_stdio_output@@@2@@__crt_stdio_output@@AAEXI_N@Z 100175ee f i libucrt:output.obj
 0001:00016675       ??$type_case_integer_parse_into_buffer@I$09@?$output_processor@DV?$string_output_adapter@D@__crt_stdio_output@@V?$format_validation_base@DV?$string_output_adapter@D@__crt_stdio_output@@@2@@__crt_stdio_output@@AAEXI_N@Z 10017675 f i libucrt:output.obj
 0001:000166fc       ??$type_case_integer_parse_into_buffer@I$09@?$output_processor@DV?$string_output_adapter@D@__crt_stdio_output@@V?$positional_parameter_base@DV?$string_output_adapter@D@__crt_stdio_output@@@2@@__crt_stdio_output@@AAEXI_N@Z 100176fc f i libucrt:output.obj
 0001:00016783       ??$type_case_integer_parse_into_buffer@I$09@?$output_processor@DV?$string_output_adapter@D@__crt_stdio_output@@V?$standard_base@DV?$string_output_adapter@D@__crt_stdio_output@@@2@@__crt_stdio_output@@AAEXI_N@Z 10017783 f i libucrt:output.obj
 0001:0001680a       ??$type_case_integer_parse_into_buffer@I$09@?$output_processor@_WV?$stream_output_adapter@_W@__crt_stdio_output@@V?$format_validation_base@_WV?$stream_output_adapter@_W@__crt_stdio_output@@@2@@__crt_stdio_output@@AAEXI_N@Z 1001780a f i libucrt:output.obj
 0001:000168a6       ??$type_case_integer_parse_into_buffer@I$09@?$output_processor@_WV?$stream_output_adapter@_W@__crt_stdio_output@@V?$positional_parameter_base@_WV?$stream_output_adapter@_W@__crt_stdio_output@@@2@@__crt_stdio_output@@AAEXI_N@Z 100178a6 f i libucrt:output.obj
 0001:00016942       ??$type_case_integer_parse_into_buffer@I$09@?$output_processor@_WV?$stream_output_adapter@_W@__crt_stdio_output@@V?$standard_base@_WV?$stream_output_adapter@_W@__crt_stdio_output@@@2@@__crt_stdio_output@@AAEXI_N@Z 10017942 f i libucrt:output.obj
 0001:000169de       ??$type_case_integer_parse_into_buffer@I$09@?$output_processor@_WV?$string_output_adapter@_W@__crt_stdio_output@@V?$format_validation_base@_WV?$string_output_adapter@_W@__crt_stdio_output@@@2@@__crt_stdio_output@@AAEXI_N@Z 100179de f i libucrt:output.obj
 0001:00016a7a       ??$type_case_integer_parse_into_buffer@I$09@?$output_processor@_WV?$string_output_adapter@_W@__crt_stdio_output@@V?$positional_parameter_base@_WV?$string_output_adapter@_W@__crt_stdio_output@@@2@@__crt_stdio_output@@AAEXI_N@Z 10017a7a f i libucrt:output.obj
 0001:00016b16       ??$type_case_integer_parse_into_buffer@I$09@?$output_processor@_WV?$string_output_adapter@_W@__crt_stdio_output@@V?$standard_base@_WV?$string_output_adapter@_W@__crt_stdio_output@@@2@@__crt_stdio_output@@AAEXI_N@Z 10017b16 f i libucrt:output.obj
 0001:00016bb2       ??$type_case_integer_parse_into_buffer@I$0BA@@?$output_processor@DV?$stream_output_adapter@D@__crt_stdio_output@@V?$format_validation_base@DV?$stream_output_adapter@D@__crt_stdio_output@@@2@@__crt_stdio_output@@AAEXI_N@Z 10017bb2 f i libucrt:output.obj
 0001:00016c2f       ??$type_case_integer_parse_into_buffer@I$0BA@@?$output_processor@DV?$stream_output_adapter@D@__crt_stdio_output@@V?$positional_parameter_base@DV?$stream_output_adapter@D@__crt_stdio_output@@@2@@__crt_stdio_output@@AAEXI_N@Z 10017c2f f i libucrt:output.obj
 0001:00016cac       ??$type_case_integer_parse_into_buffer@I$0BA@@?$output_processor@DV?$stream_output_adapter@D@__crt_stdio_output@@V?$standard_base@DV?$stream_output_adapter@D@__crt_stdio_output@@@2@@__crt_stdio_output@@AAEXI_N@Z 10017cac f i libucrt:output.obj
 0001:00016d29       ??$type_case_integer_parse_into_buffer@I$0BA@@?$output_processor@DV?$string_output_adapter@D@__crt_stdio_output@@V?$format_validation_base@DV?$string_output_adapter@D@__crt_stdio_output@@@2@@__crt_stdio_output@@AAEXI_N@Z 10017d29 f i libucrt:output.obj
 0001:00016da6       ??$type_case_integer_parse_into_buffer@I$0BA@@?$output_processor@DV?$string_output_adapter@D@__crt_stdio_output@@V?$positional_parameter_base@DV?$string_output_adapter@D@__crt_stdio_output@@@2@@__crt_stdio_output@@AAEXI_N@Z 10017da6 f i libucrt:output.obj
 0001:00016e23       ??$type_case_integer_parse_into_buffer@I$0BA@@?$output_processor@DV?$string_output_adapter@D@__crt_stdio_output@@V?$standard_base@DV?$string_output_adapter@D@__crt_stdio_output@@@2@@__crt_stdio_output@@AAEXI_N@Z 10017e23 f i libucrt:output.obj
 0001:00016ea0       ??$type_case_integer_parse_into_buffer@I$0BA@@?$output_processor@_WV?$stream_output_adapter@_W@__crt_stdio_output@@V?$format_validation_base@_WV?$stream_output_adapter@_W@__crt_stdio_output@@@2@@__crt_stdio_output@@AAEXI_N@Z 10017ea0 f i libucrt:output.obj
 0001:00016f2a       ??$type_case_integer_parse_into_buffer@I$0BA@@?$output_processor@_WV?$stream_output_adapter@_W@__crt_stdio_output@@V?$positional_parameter_base@_WV?$stream_output_adapter@_W@__crt_stdio_output@@@2@@__crt_stdio_output@@AAEXI_N@Z 10017f2a f i libucrt:output.obj
 0001:00016fb4       ??$type_case_integer_parse_into_buffer@I$0BA@@?$output_processor@_WV?$stream_output_adapter@_W@__crt_stdio_output@@V?$standard_base@_WV?$stream_output_adapter@_W@__crt_stdio_output@@@2@@__crt_stdio_output@@AAEXI_N@Z 10017fb4 f i libucrt:output.obj
 0001:0001703e       ??$type_case_integer_parse_into_buffer@I$0BA@@?$output_processor@_WV?$string_output_adapter@_W@__crt_stdio_output@@V?$format_validation_base@_WV?$string_output_adapter@_W@__crt_stdio_output@@@2@@__crt_stdio_output@@AAEXI_N@Z 1001803e f i libucrt:output.obj
 0001:000170c8       ??$type_case_integer_parse_into_buffer@I$0BA@@?$output_processor@_WV?$string_output_adapter@_W@__crt_stdio_output@@V?$positional_parameter_base@_WV?$string_output_adapter@_W@__crt_stdio_output@@@2@@__crt_stdio_output@@AAEXI_N@Z 100180c8 f i libucrt:output.obj
 0001:00017152       ??$type_case_integer_parse_into_buffer@I$0BA@@?$output_processor@_WV?$string_output_adapter@_W@__crt_stdio_output@@V?$standard_base@_WV?$string_output_adapter@_W@__crt_stdio_output@@@2@@__crt_stdio_output@@AAEXI_N@Z 10018152 f i libucrt:output.obj
 0001:000171dc       ??$type_case_integer_parse_into_buffer@_K$07@?$output_processor@DV?$stream_output_adapter@D@__crt_stdio_output@@V?$format_validation_base@DV?$stream_output_adapter@D@__crt_stdio_output@@@2@@__crt_stdio_output@@AAEX_K_N@Z 100181dc f i libucrt:output.obj
 0001:00017254       ??$type_case_integer_parse_into_buffer@_K$07@?$output_processor@DV?$stream_output_adapter@D@__crt_stdio_output@@V?$positional_parameter_base@DV?$stream_output_adapter@D@__crt_stdio_output@@@2@@__crt_stdio_output@@AAEX_K_N@Z 10018254 f i libucrt:output.obj
 0001:000172cc       ??$type_case_integer_parse_into_buffer@_K$07@?$output_processor@DV?$stream_output_adapter@D@__crt_stdio_output@@V?$standard_base@DV?$stream_output_adapter@D@__crt_stdio_output@@@2@@__crt_stdio_output@@AAEX_K_N@Z 100182cc f i libucrt:output.obj
 0001:00017344       ??$type_case_integer_parse_into_buffer@_K$07@?$output_processor@DV?$string_output_adapter@D@__crt_stdio_output@@V?$format_validation_base@DV?$string_output_adapter@D@__crt_stdio_output@@@2@@__crt_stdio_output@@AAEX_K_N@Z 10018344 f i libucrt:output.obj
 0001:000173bc       ??$type_case_integer_parse_into_buffer@_K$07@?$output_processor@DV?$string_output_adapter@D@__crt_stdio_output@@V?$positional_parameter_base@DV?$string_output_adapter@D@__crt_stdio_output@@@2@@__crt_stdio_output@@AAEX_K_N@Z 100183bc f i libucrt:output.obj
 0001:00017434       ??$type_case_integer_parse_into_buffer@_K$07@?$output_processor@DV?$string_output_adapter@D@__crt_stdio_output@@V?$standard_base@DV?$string_output_adapter@D@__crt_stdio_output@@@2@@__crt_stdio_output@@AAEX_K_N@Z 10018434 f i libucrt:output.obj
 0001:000174ac       ??$type_case_integer_parse_into_buffer@_K$07@?$output_processor@_WV?$stream_output_adapter@_W@__crt_stdio_output@@V?$format_validation_base@_WV?$stream_output_adapter@_W@__crt_stdio_output@@@2@@__crt_stdio_output@@AAEX_K_N@Z 100184ac f i libucrt:output.obj
 0001:00017533       ??$type_case_integer_parse_into_buffer@_K$07@?$output_processor@_WV?$stream_output_adapter@_W@__crt_stdio_output@@V?$positional_parameter_base@_WV?$stream_output_adapter@_W@__crt_stdio_output@@@2@@__crt_stdio_output@@AAEX_K_N@Z 10018533 f i libucrt:output.obj
 0001:000175ba       ??$type_case_integer_parse_into_buffer@_K$07@?$output_processor@_WV?$stream_output_adapter@_W@__crt_stdio_output@@V?$standard_base@_WV?$stream_output_adapter@_W@__crt_stdio_output@@@2@@__crt_stdio_output@@AAEX_K_N@Z 100185ba f i libucrt:output.obj
 0001:00017641       ??$type_case_integer_parse_into_buffer@_K$07@?$output_processor@_WV?$string_output_adapter@_W@__crt_stdio_output@@V?$format_validation_base@_WV?$string_output_adapter@_W@__crt_stdio_output@@@2@@__crt_stdio_output@@AAEX_K_N@Z 10018641 f i libucrt:output.obj
 0001:000176c8       ??$type_case_integer_parse_into_buffer@_K$07@?$output_processor@_WV?$string_output_adapter@_W@__crt_stdio_output@@V?$positional_parameter_base@_WV?$string_output_adapter@_W@__crt_stdio_output@@@2@@__crt_stdio_output@@AAEX_K_N@Z 100186c8 f i libucrt:output.obj
 0001:0001774f       ??$type_case_integer_parse_into_buffer@_K$07@?$output_processor@_WV?$string_output_adapter@_W@__crt_stdio_output@@V?$standard_base@_WV?$string_output_adapter@_W@__crt_stdio_output@@@2@@__crt_stdio_output@@AAEX_K_N@Z 1001874f f i libucrt:output.obj
 0001:000177d6       ??$type_case_integer_parse_into_buffer@_K$09@?$output_processor@DV?$stream_output_adapter@D@__crt_stdio_output@@V?$format_validation_base@DV?$stream_output_adapter@D@__crt_stdio_output@@@2@@__crt_stdio_output@@AAEX_K_N@Z 100187d6 f i libucrt:output.obj
 0001:0001787d       ??$type_case_integer_parse_into_buffer@_K$09@?$output_processor@DV?$stream_output_adapter@D@__crt_stdio_output@@V?$positional_parameter_base@DV?$stream_output_adapter@D@__crt_stdio_output@@@2@@__crt_stdio_output@@AAEX_K_N@Z 1001887d f i libucrt:output.obj
 0001:00017924       ??$type_case_integer_parse_into_buffer@_K$09@?$output_processor@DV?$stream_output_adapter@D@__crt_stdio_output@@V?$standard_base@DV?$stream_output_adapter@D@__crt_stdio_output@@@2@@__crt_stdio_output@@AAEX_K_N@Z 10018924 f i libucrt:output.obj
 0001:000179cb       ??$type_case_integer_parse_into_buffer@_K$09@?$output_processor@DV?$string_output_adapter@D@__crt_stdio_output@@V?$format_validation_base@DV?$string_output_adapter@D@__crt_stdio_output@@@2@@__crt_stdio_output@@AAEX_K_N@Z 100189cb f i libucrt:output.obj
 0001:00017a72       ??$type_case_integer_parse_into_buffer@_K$09@?$output_processor@DV?$string_output_adapter@D@__crt_stdio_output@@V?$positional_parameter_base@DV?$string_output_adapter@D@__crt_stdio_output@@@2@@__crt_stdio_output@@AAEX_K_N@Z 10018a72 f i libucrt:output.obj
 0001:00017b19       ??$type_case_integer_parse_into_buffer@_K$09@?$output_processor@DV?$string_output_adapter@D@__crt_stdio_output@@V?$standard_base@DV?$string_output_adapter@D@__crt_stdio_output@@@2@@__crt_stdio_output@@AAEX_K_N@Z 10018b19 f i libucrt:output.obj
 0001:00017bc0       ??$type_case_integer_parse_into_buffer@_K$09@?$output_processor@_WV?$stream_output_adapter@_W@__crt_stdio_output@@V?$format_validation_base@_WV?$stream_output_adapter@_W@__crt_stdio_output@@@2@@__crt_stdio_output@@AAEX_K_N@Z 10018bc0 f i libucrt:output.obj
 0001:00017c7d       ??$type_case_integer_parse_into_buffer@_K$09@?$output_processor@_WV?$stream_output_adapter@_W@__crt_stdio_output@@V?$positional_parameter_base@_WV?$stream_output_adapter@_W@__crt_stdio_output@@@2@@__crt_stdio_output@@AAEX_K_N@Z 10018c7d f i libucrt:output.obj
 0001:00017d3a       ??$type_case_integer_parse_into_buffer@_K$09@?$output_processor@_WV?$stream_output_adapter@_W@__crt_stdio_output@@V?$standard_base@_WV?$stream_output_adapter@_W@__crt_stdio_output@@@2@@__crt_stdio_output@@AAEX_K_N@Z 10018d3a f i libucrt:output.obj
 0001:00017df7       ??$type_case_integer_parse_into_buffer@_K$09@?$output_processor@_WV?$string_output_adapter@_W@__crt_stdio_output@@V?$format_validation_base@_WV?$string_output_adapter@_W@__crt_stdio_output@@@2@@__crt_stdio_output@@AAEX_K_N@Z 10018df7 f i libucrt:output.obj
 0001:00017eb4       ??$type_case_integer_parse_into_buffer@_K$09@?$output_processor@_WV?$string_output_adapter@_W@__crt_stdio_output@@V?$positional_parameter_base@_WV?$string_output_adapter@_W@__crt_stdio_output@@@2@@__crt_stdio_output@@AAEX_K_N@Z 10018eb4 f i libucrt:output.obj
 0001:00017f71       ??$type_case_integer_parse_into_buffer@_K$09@?$output_processor@_WV?$string_output_adapter@_W@__crt_stdio_output@@V?$standard_base@_WV?$string_output_adapter@_W@__crt_stdio_output@@@2@@__crt_stdio_output@@AAEX_K_N@Z 10018f71 f i libucrt:output.obj
 0001:0001802e       ??$type_case_integer_parse_into_buffer@_K$0BA@@?$output_processor@DV?$stream_output_adapter@D@__crt_stdio_output@@V?$format_validation_base@DV?$stream_output_adapter@D@__crt_stdio_output@@@2@@__crt_stdio_output@@AAEX_K_N@Z 1001902e f i libucrt:output.obj
 0001:000180b8       ??$type_case_integer_parse_into_buffer@_K$0BA@@?$output_processor@DV?$stream_output_adapter@D@__crt_stdio_output@@V?$positional_parameter_base@DV?$stream_output_adapter@D@__crt_stdio_output@@@2@@__crt_stdio_output@@AAEX_K_N@Z 100190b8 f i libucrt:output.obj
 0001:00018142       ??$type_case_integer_parse_into_buffer@_K$0BA@@?$output_processor@DV?$stream_output_adapter@D@__crt_stdio_output@@V?$standard_base@DV?$stream_output_adapter@D@__crt_stdio_output@@@2@@__crt_stdio_output@@AAEX_K_N@Z 10019142 f i libucrt:output.obj
 0001:000181cc       ??$type_case_integer_parse_into_buffer@_K$0BA@@?$output_processor@DV?$string_output_adapter@D@__crt_stdio_output@@V?$format_validation_base@DV?$string_output_adapter@D@__crt_stdio_output@@@2@@__crt_stdio_output@@AAEX_K_N@Z 100191cc f i libucrt:output.obj
 0001:00018256       ??$type_case_integer_parse_into_buffer@_K$0BA@@?$output_processor@DV?$string_output_adapter@D@__crt_stdio_output@@V?$positional_parameter_base@DV?$string_output_adapter@D@__crt_stdio_output@@@2@@__crt_stdio_output@@AAEX_K_N@Z 10019256 f i libucrt:output.obj
 0001:000182e0       ??$type_case_integer_parse_into_buffer@_K$0BA@@?$output_processor@DV?$string_output_adapter@D@__crt_stdio_output@@V?$standard_base@DV?$string_output_adapter@D@__crt_stdio_output@@@2@@__crt_stdio_output@@AAEX_K_N@Z 100192e0 f i libucrt:output.obj
 0001:0001836a       ??$type_case_integer_parse_into_buffer@_K$0BA@@?$output_processor@_WV?$stream_output_adapter@_W@__crt_stdio_output@@V?$format_validation_base@_WV?$stream_output_adapter@_W@__crt_stdio_output@@@2@@__crt_stdio_output@@AAEX_K_N@Z 1001936a f i libucrt:output.obj
 0001:00018400       ??$type_case_integer_parse_into_buffer@_K$0BA@@?$output_processor@_WV?$stream_output_adapter@_W@__crt_stdio_output@@V?$positional_parameter_base@_WV?$stream_output_adapter@_W@__crt_stdio_output@@@2@@__crt_stdio_output@@AAEX_K_N@Z 10019400 f i libucrt:output.obj
 0001:00018496       ??$type_case_integer_parse_into_buffer@_K$0BA@@?$output_processor@_WV?$stream_output_adapter@_W@__crt_stdio_output@@V?$standard_base@_WV?$stream_output_adapter@_W@__crt_stdio_output@@@2@@__crt_stdio_output@@AAEX_K_N@Z 10019496 f i libucrt:output.obj
 0001:0001852c       ??$type_case_integer_parse_into_buffer@_K$0BA@@?$output_processor@_WV?$string_output_adapter@_W@__crt_stdio_output@@V?$format_validation_base@_WV?$string_output_adapter@_W@__crt_stdio_output@@@2@@__crt_stdio_output@@AAEX_K_N@Z 1001952c f i libucrt:output.obj
 0001:000185c2       ??$type_case_integer_parse_into_buffer@_K$0BA@@?$output_processor@_WV?$string_output_adapter@_W@__crt_stdio_output@@V?$positional_parameter_base@_WV?$string_output_adapter@_W@__crt_stdio_output@@@2@@__crt_stdio_output@@AAEX_K_N@Z 100195c2 f i libucrt:output.obj
 0001:00018658       ??$type_case_integer_parse_into_buffer@_K$0BA@@?$output_processor@_WV?$string_output_adapter@_W@__crt_stdio_output@@V?$standard_base@_WV?$string_output_adapter@_W@__crt_stdio_output@@@2@@__crt_stdio_output@@AAEX_K_N@Z 10019658 f i libucrt:output.obj
 0001:000186ee       ??$write_multiple_characters@V?$stream_output_adapter@D@__crt_stdio_output@@D@__crt_stdio_output@@YAXABV?$stream_output_adapter@D@0@DHQAHAAV__crt_cached_ptd_host@@@Z 100196ee f i libucrt:output.obj
 0001:0001871d       ??$write_multiple_characters@V?$stream_output_adapter@_W@__crt_stdio_output@@D@__crt_stdio_output@@YAXABV?$stream_output_adapter@_W@0@DHQAHAAV__crt_cached_ptd_host@@@Z 1001971d f i libucrt:output.obj
 0001:00018751       ??$write_multiple_characters@V?$string_output_adapter@D@__crt_stdio_output@@D@__crt_stdio_output@@YAXABV?$string_output_adapter@D@0@DHQAHAAV__crt_cached_ptd_host@@@Z 10019751 f i libucrt:output.obj
 0001:000187b4       ??$write_multiple_characters@V?$string_output_adapter@_W@__crt_stdio_output@@D@__crt_stdio_output@@YAXABV?$string_output_adapter@_W@0@DHQAHAAV__crt_cached_ptd_host@@@Z 100197b4 f i libucrt:output.obj
 0001:000189e3       ??0?$c_string_character_source@D@__crt_strtox@@QAE@QBDQAPBD@Z 100199e3 f i libucrt:output.obj
 0001:000189ff       ??0?$c_string_character_source@_W@__crt_strtox@@QAE@QB_WQAPB_W@Z 100199ff f i libucrt:output.obj
 0001:00018a1b       ??0?$cached@H@__crt_cached_ptd_host@@QAE@XZ 10019a1b f i libucrt:output.obj
 0001:00018a22       ??0?$cached@K@__crt_cached_ptd_host@@QAE@XZ 10019a22 f i libucrt:output.obj
 0001:00018a29       ??0?$common_data@D@__crt_stdio_output@@IAE@AAV__crt_cached_ptd_host@@@Z 10019a29 f i libucrt:output.obj
 0001:00018a70       ??0?$common_data@_W@__crt_stdio_output@@IAE@AAV__crt_cached_ptd_host@@@Z 10019a70 f i libucrt:output.obj
 0001:00018abc       ??0?$output_adapter_data@DV?$stream_output_adapter@D@__crt_stdio_output@@@__crt_stdio_output@@IAE@ABV?$stream_output_adapter@D@1@_KQBDAAV__crt_cached_ptd_host@@QAD@Z 10019abc f i libucrt:output.obj
 0001:00018b23       ??0?$output_adapter_data@DV?$string_output_adapter@D@__crt_stdio_output@@@__crt_stdio_output@@IAE@ABV?$string_output_adapter@D@1@_KQBDAAV__crt_cached_ptd_host@@QAD@Z 10019b23 f i libucrt:output.obj
 0001:00018b8a       ??0?$output_adapter_data@_WV?$stream_output_adapter@_W@__crt_stdio_output@@@__crt_stdio_output@@IAE@ABV?$stream_output_adapter@_W@1@_KQB_WAAV__crt_cached_ptd_host@@QAD@Z 10019b8a f i libucrt:output.obj
 0001:00018bf6       ??0?$output_adapter_data@_WV?$string_output_adapter@_W@__crt_stdio_output@@@__crt_stdio_output@@IAE@ABV?$string_output_adapter@_W@1@_KQB_WAAV__crt_cached_ptd_host@@QAD@Z 10019bf6 f i libucrt:output.obj
 0001:00018c62       ??0?$output_processor@DV?$stream_output_adapter@D@__crt_stdio_output@@V?$format_validation_base@DV?$stream_output_adapter@D@__crt_stdio_output@@@2@@__crt_stdio_output@@QAE@ABV?$stream_output_adapter@D@1@_KQBDAAV__crt_cached_ptd_host@@QAD@Z 10019c62 f i libucrt:output.obj
 0001:00018c8f       ??0?$output_processor@DV?$stream_output_adapter@D@__crt_stdio_output@@V?$positional_parameter_base@DV?$stream_output_adapter@D@__crt_stdio_output@@@2@@__crt_stdio_output@@QAE@ABV?$stream_output_adapter@D@1@_KQBDAAV__crt_cached_ptd_host@@QAD@Z 10019c8f f i libucrt:output.obj
 0001:00018cb5       ??0?$output_processor@DV?$stream_output_adapter@D@__crt_stdio_output@@V?$standard_base@DV?$stream_output_adapter@D@__crt_stdio_output@@@2@@__crt_stdio_output@@QAE@ABV?$stream_output_adapter@D@1@_KQBDAAV__crt_cached_ptd_host@@QAD@Z 10019cb5 f i libucrt:output.obj
 0001:00018ce2       ??0?$output_processor@DV?$string_output_adapter@D@__crt_stdio_output@@V?$format_validation_base@DV?$string_output_adapter@D@__crt_stdio_output@@@2@@__crt_stdio_output@@QAE@ABV?$string_output_adapter@D@1@_KQBDAAV__crt_cached_ptd_host@@QAD@Z 10019ce2 f i libucrt:output.obj
 0001:00018d0f       ??0?$output_processor@DV?$string_output_adapter@D@__crt_stdio_output@@V?$positional_parameter_base@DV?$string_output_adapter@D@__crt_stdio_output@@@2@@__crt_stdio_output@@QAE@ABV?$string_output_adapter@D@1@_KQBDAAV__crt_cached_ptd_host@@QAD@Z 10019d0f f i libucrt:output.obj
 0001:00018d35       ??0?$output_processor@DV?$string_output_adapter@D@__crt_stdio_output@@V?$standard_base@DV?$string_output_adapter@D@__crt_stdio_output@@@2@@__crt_stdio_output@@QAE@ABV?$string_output_adapter@D@1@_KQBDAAV__crt_cached_ptd_host@@QAD@Z 10019d35 f i libucrt:output.obj
 0001:00018d62       ??0?$output_processor@_WV?$stream_output_adapter@_W@__crt_stdio_output@@V?$format_validation_base@_WV?$stream_output_adapter@_W@__crt_stdio_output@@@2@@__crt_stdio_output@@QAE@ABV?$stream_output_adapter@_W@1@_KQB_WAAV__crt_cached_ptd_host@@QAD@Z 10019d62 f i libucrt:output.obj
 0001:00018d8f       ??0?$output_processor@_WV?$stream_output_adapter@_W@__crt_stdio_output@@V?$positional_parameter_base@_WV?$stream_output_adapter@_W@__crt_stdio_output@@@2@@__crt_stdio_output@@QAE@ABV?$stream_output_adapter@_W@1@_KQB_WAAV__crt_cached_ptd_host@@QAD@Z 10019d8f f i libucrt:output.obj
 0001:00018db5       ??0?$output_processor@_WV?$stream_output_adapter@_W@__crt_stdio_output@@V?$standard_base@_WV?$stream_output_adapter@_W@__crt_stdio_output@@@2@@__crt_stdio_output@@QAE@ABV?$stream_output_adapter@_W@1@_KQB_WAAV__crt_cached_ptd_host@@QAD@Z 10019db5 f i libucrt:output.obj
 0001:00018de2       ??0?$output_processor@_WV?$string_output_adapter@_W@__crt_stdio_output@@V?$format_validation_base@_WV?$string_output_adapter@_W@__crt_stdio_output@@@2@@__crt_stdio_output@@QAE@ABV?$string_output_adapter@_W@1@_KQB_WAAV__crt_cached_ptd_host@@QAD@Z 10019de2 f i libucrt:output.obj
 0001:00018e0f       ??0?$output_processor@_WV?$string_output_adapter@_W@__crt_stdio_output@@V?$positional_parameter_base@_WV?$string_output_adapter@_W@__crt_stdio_output@@@2@@__crt_stdio_output@@QAE@ABV?$string_output_adapter@_W@1@_KQB_WAAV__crt_cached_ptd_host@@QAD@Z 10019e0f f i libucrt:output.obj
 0001:00018e35       ??0?$output_processor@_WV?$string_output_adapter@_W@__crt_stdio_output@@V?$standard_base@_WV?$string_output_adapter@_W@__crt_stdio_output@@@2@@__crt_stdio_output@@QAE@ABV?$string_output_adapter@_W@1@_KQB_WAAV__crt_cached_ptd_host@@QAD@Z 10019e35 f i libucrt:output.obj
 0001:00018e62       ??0?$stream_output_adapter@D@__crt_stdio_output@@QAE@QAU_iobuf@@@Z 10019e62 f i libucrt:output.obj
 0001:00018e72       ??0?$stream_output_adapter@_W@__crt_stdio_output@@QAE@QAU_iobuf@@@Z 10019e72 f i libucrt:output.obj
 0001:00018e82       ??0?$string_output_adapter@D@__crt_stdio_output@@QAE@QAU?$string_output_adapter_context@D@1@@Z 10019e82 f i libucrt:output.obj
 0001:00018e92       ??0?$string_output_adapter@_W@__crt_stdio_output@@QAE@QAU?$string_output_adapter_context@_W@1@@Z 10019e92 f i libucrt:output.obj
 0001:00018ea2       ??0__acrt_stdio_temporary_buffering_guard@@QAE@QAU_iobuf@@AAV__crt_cached_ptd_host@@@Z 10019ea2 f i libucrt:output.obj
 0001:00018ed0       ??0__crt_cached_ptd_host@@QAE@QAU__crt_locale_pointers@@@Z 10019ed0 f i libucrt:output.obj
 0001:00018f2d       ??0__crt_scoped_get_last_error_reset@@QAE@XZ 10019f2d f i libucrt:output.obj
 0001:00018f3e       ??0__crt_stdio_stream@@QAE@QAU_iobuf@@@Z 10019f3e f i libucrt:output.obj
 0001:00018f4e       ??0formatting_buffer@__crt_stdio_output@@QAE@XZ 10019f4e f i libucrt:output.obj
 0001:00018f5f       ??0guard@?$cached@H@__crt_cached_ptd_host@@QAE@AAU12@@Z 10019f5f f i libucrt:output.obj
 0001:00018f7e       ??1?$c_string_character_source@D@__crt_strtox@@QAE@XZ 10019f7e f i libucrt:output.obj
 0001:00018f8a       ??1?$c_string_character_source@_W@__crt_strtox@@QAE@XZ 10019f8a f i libucrt:output.obj
 0001:00018f96       ??1?$common_data@D@__crt_stdio_output@@QAE@XZ 10019f96 f i libucrt:output.obj
 0001:00018f9e       ??1?$common_data@_W@__crt_stdio_output@@QAE@XZ 10019f9e f i libucrt:output.obj
 0001:00018fa6       ??1?$format_validation_base@DV?$stream_output_adapter@D@__crt_stdio_output@@@__crt_stdio_output@@QAE@XZ 10019fa6 f i libucrt:output.obj
 0001:00018fae       ??1?$format_validation_base@DV?$string_output_adapter@D@__crt_stdio_output@@@__crt_stdio_output@@QAE@XZ 10019fae f i libucrt:output.obj
 0001:00018fb6       ??1?$format_validation_base@_WV?$stream_output_adapter@_W@__crt_stdio_output@@@__crt_stdio_output@@QAE@XZ 10019fb6 f i libucrt:output.obj
 0001:00018fbe       ??1?$format_validation_base@_WV?$string_output_adapter@_W@__crt_stdio_output@@@__crt_stdio_output@@QAE@XZ 10019fbe f i libucrt:output.obj
 0001:00018fc6       ??1?$output_adapter_data@DV?$stream_output_adapter@D@__crt_stdio_output@@@__crt_stdio_output@@QAE@XZ 10019fc6 f i libucrt:output.obj
 0001:00018fce       ??1?$output_adapter_data@DV?$string_output_adapter@D@__crt_stdio_output@@@__crt_stdio_output@@QAE@XZ 10019fce f i libucrt:output.obj
 0001:00018fd6       ??1?$output_adapter_data@_WV?$stream_output_adapter@_W@__crt_stdio_output@@@__crt_stdio_output@@QAE@XZ 10019fd6 f i libucrt:output.obj
 0001:00018fde       ??1?$output_adapter_data@_WV?$string_output_adapter@_W@__crt_stdio_output@@@__crt_stdio_output@@QAE@XZ 10019fde f i libucrt:output.obj
 0001:00018fe6       ??1?$output_processor@DV?$stream_output_adapter@D@__crt_stdio_output@@V?$format_validation_base@DV?$stream_output_adapter@D@__crt_stdio_output@@@2@@__crt_stdio_output@@QAE@XZ 10019fe6 f i libucrt:output.obj
 0001:00018fee       ??1?$output_processor@DV?$stream_output_adapter@D@__crt_stdio_output@@V?$positional_parameter_base@DV?$stream_output_adapter@D@__crt_stdio_output@@@2@@__crt_stdio_output@@QAE@XZ 10019fee f i libucrt:output.obj
 0001:00018ff6       ??1?$output_processor@DV?$stream_output_adapter@D@__crt_stdio_output@@V?$standard_base@DV?$stream_output_adapter@D@__crt_stdio_output@@@2@@__crt_stdio_output@@QAE@XZ 10019ff6 f i libucrt:output.obj
 0001:00018ffe       ??1?$output_processor@DV?$string_output_adapter@D@__crt_stdio_output@@V?$format_validation_base@DV?$string_output_adapter@D@__crt_stdio_output@@@2@@__crt_stdio_output@@QAE@XZ 10019ffe f i libucrt:output.obj
 0001:00019006       ??1?$output_processor@DV?$string_output_adapter@D@__crt_stdio_output@@V?$positional_parameter_base@DV?$string_output_adapter@D@__crt_stdio_output@@@2@@__crt_stdio_output@@QAE@XZ 1001a006 f i libucrt:output.obj
 0001:0001900e       ??1?$output_processor@DV?$string_output_adapter@D@__crt_stdio_output@@V?$standard_base@DV?$string_output_adapter@D@__crt_stdio_output@@@2@@__crt_stdio_output@@QAE@XZ 1001a00e f i libucrt:output.obj
 0001:00019016       ??1?$output_processor@_WV?$stream_output_adapter@_W@__crt_stdio_output@@V?$format_validation_base@_WV?$stream_output_adapter@_W@__crt_stdio_output@@@2@@__crt_stdio_output@@QAE@XZ 1001a016 f i libucrt:output.obj
 0001:0001901e       ??1?$output_processor@_WV?$stream_output_adapter@_W@__crt_stdio_output@@V?$positional_parameter_base@_WV?$stream_output_adapter@_W@__crt_stdio_output@@@2@@__crt_stdio_output@@QAE@XZ 1001a01e f i libucrt:output.obj
 0001:00019026       ??1?$output_processor@_WV?$stream_output_adapter@_W@__crt_stdio_output@@V?$standard_base@_WV?$stream_output_adapter@_W@__crt_stdio_output@@@2@@__crt_stdio_output@@QAE@XZ 1001a026 f i libucrt:output.obj
 0001:0001902e       ??1?$output_processor@_WV?$string_output_adapter@_W@__crt_stdio_output@@V?$format_validation_base@_WV?$string_output_adapter@_W@__crt_stdio_output@@@2@@__crt_stdio_output@@QAE@XZ 1001a02e f i libucrt:output.obj
 0001:00019036       ??1?$output_processor@_WV?$string_output_adapter@_W@__crt_stdio_output@@V?$positional_parameter_base@_WV?$string_output_adapter@_W@__crt_stdio_output@@@2@@__crt_stdio_output@@QAE@XZ 1001a036 f i libucrt:output.obj
 0001:0001903e       ??1?$output_processor@_WV?$string_output_adapter@_W@__crt_stdio_output@@V?$standard_base@_WV?$string_output_adapter@_W@__crt_stdio_output@@@2@@__crt_stdio_output@@QAE@XZ 1001a03e f i libucrt:output.obj
 0001:00019046       ??1?$positional_parameter_base@DV?$stream_output_adapter@D@__crt_stdio_output@@@__crt_stdio_output@@QAE@XZ 1001a046 f i libucrt:output.obj
 0001:0001904e       ??1?$positional_parameter_base@DV?$string_output_adapter@D@__crt_stdio_output@@@__crt_stdio_output@@QAE@XZ 1001a04e f i libucrt:output.obj
 0001:00019056       ??1?$positional_parameter_base@_WV?$stream_output_adapter@_W@__crt_stdio_output@@@__crt_stdio_output@@QAE@XZ 1001a056 f i libucrt:output.obj
 0001:0001905e       ??1?$positional_parameter_base@_WV?$string_output_adapter@_W@__crt_stdio_output@@@__crt_stdio_output@@QAE@XZ 1001a05e f i libucrt:output.obj
 0001:00019066       ??1?$standard_base@DV?$stream_output_adapter@D@__crt_stdio_output@@@__crt_stdio_output@@QAE@XZ 1001a066 f i libucrt:output.obj
 0001:0001906e       ??1?$standard_base@DV?$string_output_adapter@D@__crt_stdio_output@@@__crt_stdio_output@@QAE@XZ 1001a06e f i libucrt:output.obj
 0001:00019076       ??1?$standard_base@_WV?$stream_output_adapter@_W@__crt_stdio_output@@@__crt_stdio_output@@QAE@XZ 1001a076 f i libucrt:output.obj
 0001:0001907e       ??1?$standard_base@_WV?$string_output_adapter@_W@__crt_stdio_output@@@__crt_stdio_output@@QAE@XZ 1001a07e f i libucrt:output.obj
 0001:00019086       ??1__acrt_stdio_temporary_buffering_guard@@QAE@XZ 1001a086 f i libucrt:output.obj
 0001:000190a0       ??1__crt_cached_ptd_host@@QAE@XZ 1001a0a0 f i libucrt:output.obj
 0001:000190dc       ??1__crt_scoped_get_last_error_reset@@QAE@XZ 1001a0dc f i libucrt:output.obj
 0001:000190e5       ??1formatting_buffer@__crt_stdio_output@@QAE@XZ 1001a0e5 f i libucrt:output.obj
 0001:000190ff       ??1guard@?$cached@H@__crt_cached_ptd_host@@QAE@XZ 1001a0ff f i libucrt:output.obj
 0001:00019115       ??4?$__crt_unique_heap_ptr@DU__crt_internal_free_policy@@@@QAEAAV0@$$QAV0@@Z 1001a115 f i libucrt:output.obj
 0001:00019139       ??A?$spectre_mitigated_lookup_table@Ustate_transition_pair@__crt_stdio_output@@$0IA@@__crt_stdio_output@@QBEABUstate_transition_pair@1@I@Z 1001a139 f i libucrt:output.obj
 0001:0001914b       ??C__crt_stdio_stream@@QBEPAU__crt_stdio_stream_data@@XZ 1001a14b f i libucrt:output.obj
 0001:000195b4       ?adjust_hexit@?$output_processor@DV?$stream_output_adapter@D@__crt_stdio_output@@V?$format_validation_base@DV?$stream_output_adapter@D@__crt_stdio_output@@@2@@__crt_stdio_output@@CADH_N@Z 1001a5b4 f i libucrt:output.obj
 0001:000195c8       ?adjust_hexit@?$output_processor@DV?$stream_output_adapter@D@__crt_stdio_output@@V?$positional_parameter_base@DV?$stream_output_adapter@D@__crt_stdio_output@@@2@@__crt_stdio_output@@CADH_N@Z 1001a5c8 f i libucrt:output.obj
 0001:000195dc       ?adjust_hexit@?$output_processor@DV?$stream_output_adapter@D@__crt_stdio_output@@V?$standard_base@DV?$stream_output_adapter@D@__crt_stdio_output@@@2@@__crt_stdio_output@@CADH_N@Z 1001a5dc f i libucrt:output.obj
 0001:000195f0       ?adjust_hexit@?$output_processor@DV?$string_output_adapter@D@__crt_stdio_output@@V?$format_validation_base@DV?$string_output_adapter@D@__crt_stdio_output@@@2@@__crt_stdio_output@@CADH_N@Z 1001a5f0 f i libucrt:output.obj
 0001:00019604       ?adjust_hexit@?$output_processor@DV?$string_output_adapter@D@__crt_stdio_output@@V?$positional_parameter_base@DV?$string_output_adapter@D@__crt_stdio_output@@@2@@__crt_stdio_output@@CADH_N@Z 1001a604 f i libucrt:output.obj
 0001:00019618       ?adjust_hexit@?$output_processor@DV?$string_output_adapter@D@__crt_stdio_output@@V?$standard_base@DV?$string_output_adapter@D@__crt_stdio_output@@@2@@__crt_stdio_output@@CADH_N@Z 1001a618 f i libucrt:output.obj
 0001:0001962c       ?adjust_hexit@?$output_processor@_WV?$stream_output_adapter@_W@__crt_stdio_output@@V?$format_validation_base@_WV?$stream_output_adapter@_W@__crt_stdio_output@@@2@@__crt_stdio_output@@CADH_N@Z 1001a62c f i libucrt:output.obj
 0001:00019640       ?adjust_hexit@?$output_processor@_WV?$stream_output_adapter@_W@__crt_stdio_output@@V?$positional_parameter_base@_WV?$stream_output_adapter@_W@__crt_stdio_output@@@2@@__crt_stdio_output@@CADH_N@Z 1001a640 f i libucrt:output.obj
 0001:00019654       ?adjust_hexit@?$output_processor@_WV?$stream_output_adapter@_W@__crt_stdio_output@@V?$standard_base@_WV?$stream_output_adapter@_W@__crt_stdio_output@@@2@@__crt_stdio_output@@CADH_N@Z 1001a654 f i libucrt:output.obj
 0001:00019668       ?adjust_hexit@?$output_processor@_WV?$string_output_adapter@_W@__crt_stdio_output@@V?$format_validation_base@_WV?$string_output_adapter@_W@__crt_stdio_output@@@2@@__crt_stdio_output@@CADH_N@Z 1001a668 f i libucrt:output.obj
 0001:0001967c       ?adjust_hexit@?$output_processor@_WV?$string_output_adapter@_W@__crt_stdio_output@@V?$positional_parameter_base@_WV?$string_output_adapter@_W@__crt_stdio_output@@@2@@__crt_stdio_output@@CADH_N@Z 1001a67c f i libucrt:output.obj
 0001:00019690       ?adjust_hexit@?$output_processor@_WV?$string_output_adapter@_W@__crt_stdio_output@@V?$standard_base@_WV?$string_output_adapter@_W@__crt_stdio_output@@@2@@__crt_stdio_output@@CADH_N@Z 1001a690 f i libucrt:output.obj
 0001:000196a4       ?advance_to_next_pass@?$positional_parameter_base@DV?$stream_output_adapter@D@__crt_stdio_output@@@__crt_stdio_output@@IAE_NXZ 1001a6a4 f i libucrt:output.obj
 0001:000196f2       ?advance_to_next_pass@?$positional_parameter_base@DV?$string_output_adapter@D@__crt_stdio_output@@@__crt_stdio_output@@IAE_NXZ 1001a6f2 f i libucrt:output.obj
 0001:00019740       ?advance_to_next_pass@?$positional_parameter_base@_WV?$stream_output_adapter@_W@__crt_stdio_output@@@__crt_stdio_output@@IAE_NXZ 1001a740 f i libucrt:output.obj
 0001:0001978e       ?advance_to_next_pass@?$positional_parameter_base@_WV?$string_output_adapter@_W@__crt_stdio_output@@@__crt_stdio_output@@IAE_NXZ 1001a78e f i libucrt:output.obj
 0001:000197dc       ?advance_to_next_pass@?$standard_base@DV?$stream_output_adapter@D@__crt_stdio_output@@@__crt_stdio_output@@IAE_NXZ 1001a7dc f i libucrt:output.obj
 0001:000197ed       ?advance_to_next_pass@?$standard_base@DV?$string_output_adapter@D@__crt_stdio_output@@@__crt_stdio_output@@IAE_NXZ 1001a7ed f i libucrt:output.obj
 0001:000197fe       ?advance_to_next_pass@?$standard_base@_WV?$stream_output_adapter@_W@__crt_stdio_output@@@__crt_stdio_output@@IAE_NXZ 1001a7fe f i libucrt:output.obj
 0001:0001980f       ?advance_to_next_pass@?$standard_base@_WV?$string_output_adapter@_W@__crt_stdio_output@@@__crt_stdio_output@@IAE_NXZ 1001a80f f i libucrt:output.obj
 0001:00019820       ?check@?$cached@H@__crt_cached_ptd_host@@QBE_NH@Z 1001a820 f i libucrt:output.obj
 0001:00019840       ?check_synchronize_global_state_index@__crt_cached_ptd_host@@AAEIABV__crt_scoped_get_last_error_reset@@@Z 1001a840 f i libucrt:output.obj
 0001:00019860       ?check_synchronize_per_thread_data@__crt_cached_ptd_host@@AAEPAU__acrt_ptd@@XZ 1001a860 f i libucrt:output.obj
 0001:000198bc       ?create_guard@?$cached@H@__crt_cached_ptd_host@@QAE?AVguard@12@XZ 1001a8bc f i libucrt:output.obj
 0001:000198d9       ?crop_zeroes@__crt_stdio_output@@YAXPADQAU__crt_locale_pointers@@@Z 1001a8d9 f i libucrt:output.obj
 0001:00019939       ?disable@guard@?$cached@H@__crt_cached_ptd_host@@QAEXXZ 1001a939 f i libucrt:output.obj
 0001:0001993e       ?enable@guard@?$cached@H@__crt_cached_ptd_host@@QAEXXZ 1001a93e f i libucrt:output.obj
 0001:00019943       ?find_next_state@?$output_processor@DV?$stream_output_adapter@D@__crt_stdio_output@@V?$format_validation_base@DV?$stream_output_adapter@D@__crt_stdio_output@@@2@@__crt_stdio_output@@ABE?AW4state@2@DW432@@Z 1001a943 f i libucrt:output.obj
 0001:00019980       ?find_next_state@?$output_processor@DV?$stream_output_adapter@D@__crt_stdio_output@@V?$positional_parameter_base@DV?$stream_output_adapter@D@__crt_stdio_output@@@2@@__crt_stdio_output@@ABE?AW4state@2@DW432@@Z 1001a980 f i libucrt:output.obj
 0001:000199bd       ?find_next_state@?$output_processor@DV?$stream_output_adapter@D@__crt_stdio_output@@V?$standard_base@DV?$stream_output_adapter@D@__crt_stdio_output@@@2@@__crt_stdio_output@@ABE?AW4state@2@DW432@@Z 1001a9bd f i libucrt:output.obj
 0001:000199f8       ?find_next_state@?$output_processor@DV?$string_output_adapter@D@__crt_stdio_output@@V?$format_validation_base@DV?$string_output_adapter@D@__crt_stdio_output@@@2@@__crt_stdio_output@@ABE?AW4state@2@DW432@@Z 1001a9f8 f i libucrt:output.obj
 0001:00019a35       ?find_next_state@?$output_processor@DV?$string_output_adapter@D@__crt_stdio_output@@V?$positional_parameter_base@DV?$string_output_adapter@D@__crt_stdio_output@@@2@@__crt_stdio_output@@ABE?AW4state@2@DW432@@Z 1001aa35 f i libucrt:output.obj
 0001:00019a72       ?find_next_state@?$output_processor@DV?$string_output_adapter@D@__crt_stdio_output@@V?$standard_base@DV?$string_output_adapter@D@__crt_stdio_output@@@2@@__crt_stdio_output@@ABE?AW4state@2@DW432@@Z 1001aa72 f i libucrt:output.obj
 0001:00019aad       ?find_next_state@?$output_processor@_WV?$stream_output_adapter@_W@__crt_stdio_output@@V?$format_validation_base@_WV?$stream_output_adapter@_W@__crt_stdio_output@@@2@@__crt_stdio_output@@ABE?AW4state@2@_WW432@@Z 1001aaad f i libucrt:output.obj
 0001:00019ae9       ?find_next_state@?$output_processor@_WV?$stream_output_adapter@_W@__crt_stdio_output@@V?$positional_parameter_base@_WV?$stream_output_adapter@_W@__crt_stdio_output@@@2@@__crt_stdio_output@@ABE?AW4state@2@_WW432@@Z 1001aae9 f i libucrt:output.obj
 0001:00019b25       ?find_next_state@?$output_processor@_WV?$stream_output_adapter@_W@__crt_stdio_output@@V?$standard_base@_WV?$stream_output_adapter@_W@__crt_stdio_output@@@2@@__crt_stdio_output@@ABE?AW4state@2@_WW432@@Z 1001ab25 f i libucrt:output.obj
 0001:00019b5f       ?find_next_state@?$output_processor@_WV?$string_output_adapter@_W@__crt_stdio_output@@V?$format_validation_base@_WV?$string_output_adapter@_W@__crt_stdio_output@@@2@@__crt_stdio_output@@ABE?AW4state@2@_WW432@@Z 1001ab5f f i libucrt:output.obj
 0001:00019b9b       ?find_next_state@?$output_processor@_WV?$string_output_adapter@_W@__crt_stdio_output@@V?$positional_parameter_base@_WV?$string_output_adapter@_W@__crt_stdio_output@@@2@@__crt_stdio_output@@ABE?AW4state@2@_WW432@@Z 1001ab9b f i libucrt:output.obj
 0001:00019bd7       ?find_next_state@?$output_processor@_WV?$string_output_adapter@_W@__crt_stdio_output@@V?$standard_base@_WV?$string_output_adapter@_W@__crt_stdio_output@@@2@@__crt_stdio_output@@ABE?AW4state@2@_WW432@@Z 1001abd7 f i libucrt:output.obj
 0001:00019c11       ?force_decimal_point@__crt_stdio_output@@YAXPADQAU__crt_locale_pointers@@@Z 1001ac11 f i libucrt:output.obj
 0001:00019c70       ?force_synchronize_global_state_index@__crt_cached_ptd_host@@AAEIABV__crt_scoped_get_last_error_reset@@@Z 1001ac70 f i libucrt:output.obj
 0001:00019c80       ?force_synchronize_per_thread_data@__crt_cached_ptd_host@@AAEPAU__acrt_ptd@@XZ 1001ac80 f i libucrt:output.obj
 0001:00019ccd       ?get@?$c_string_character_source@D@__crt_strtox@@QAEDXZ 1001accd f i libucrt:output.obj
 0001:00019cd5       ?get@?$c_string_character_source@_W@__crt_strtox@@QAE_WXZ 1001acd5 f i libucrt:output.obj
 0001:00019ce0       ?get_current_state_index@__crt_state_management@@YAIABV__crt_scoped_get_last_error_reset@@@Z 1001ace0 f i libucrt:output.obj
 0001:00019cf0       ?get_errno@__crt_cached_ptd_host@@QAE@XZ 1001acf0 f i libucrt:output.obj
 0001:00019cf4       ?get_flags@__crt_stdio_stream@@QBEJXZ 1001acf4 f i libucrt:output.obj
 0001:00019d00       ?get_locale@__crt_cached_ptd_host@@QAEPAU__crt_locale_pointers@@XZ 1001ad00 f i libucrt:output.obj
 0001:00019d15       ?get_parameter_type@?$positional_parameter_base@DV?$stream_output_adapter@D@__crt_stdio_output@@@__crt_stdio_output@@CA?AW4parameter_type@12@F@Z 1001ad15 f i libucrt:output.obj
 0001:00019d19       ?get_parameter_type@?$positional_parameter_base@DV?$stream_output_adapter@D@__crt_stdio_output@@@__crt_stdio_output@@CA?AW4parameter_type@12@G@Z 1001ad19 f i libucrt:output.obj
 0001:00019d1d       ?get_parameter_type@?$positional_parameter_base@DV?$stream_output_adapter@D@__crt_stdio_output@@@__crt_stdio_output@@CA?AW4parameter_type@12@H@Z 1001ad1d f i libucrt:output.obj
 0001:00019d21       ?get_parameter_type@?$positional_parameter_base@DV?$stream_output_adapter@D@__crt_stdio_output@@@__crt_stdio_output@@CA?AW4parameter_type@12@I@Z 1001ad21 f i libucrt:output.obj
 0001:00019d25       ?get_parameter_type@?$positional_parameter_base@DV?$stream_output_adapter@D@__crt_stdio_output@@@__crt_stdio_output@@CA?AW4parameter_type@12@U_CRT_DOUBLE@@@Z 1001ad25 f i libucrt:output.obj
 0001:00019d29       ?get_parameter_type@?$positional_parameter_base@DV?$stream_output_adapter@D@__crt_stdio_output@@@__crt_stdio_output@@CA?AW4parameter_type@12@_J@Z 1001ad29 f i libucrt:output.obj
 0001:00019d2d       ?get_parameter_type@?$positional_parameter_base@DV?$stream_output_adapter@D@__crt_stdio_output@@@__crt_stdio_output@@CA?AW4parameter_type@12@_K@Z 1001ad2d f i libucrt:output.obj
 0001:00019d31       ?get_parameter_type@?$positional_parameter_base@DV?$stream_output_adapter@D@__crt_stdio_output@@@__crt_stdio_output@@CA?AW4parameter_type@12@_W@Z 1001ad31 f i libucrt:output.obj
 0001:00019d35       ?get_parameter_type@?$positional_parameter_base@DV?$string_output_adapter@D@__crt_stdio_output@@@__crt_stdio_output@@CA?AW4parameter_type@12@F@Z 1001ad35 f i libucrt:output.obj
 0001:00019d39       ?get_parameter_type@?$positional_parameter_base@DV?$string_output_adapter@D@__crt_stdio_output@@@__crt_stdio_output@@CA?AW4parameter_type@12@G@Z 1001ad39 f i libucrt:output.obj
 0001:00019d3d       ?get_parameter_type@?$positional_parameter_base@DV?$string_output_adapter@D@__crt_stdio_output@@@__crt_stdio_output@@CA?AW4parameter_type@12@H@Z 1001ad3d f i libucrt:output.obj
 0001:00019d41       ?get_parameter_type@?$positional_parameter_base@DV?$string_output_adapter@D@__crt_stdio_output@@@__crt_stdio_output@@CA?AW4parameter_type@12@I@Z 1001ad41 f i libucrt:output.obj
 0001:00019d45       ?get_parameter_type@?$positional_parameter_base@DV?$string_output_adapter@D@__crt_stdio_output@@@__crt_stdio_output@@CA?AW4parameter_type@12@U_CRT_DOUBLE@@@Z 1001ad45 f i libucrt:output.obj
 0001:00019d49       ?get_parameter_type@?$positional_parameter_base@DV?$string_output_adapter@D@__crt_stdio_output@@@__crt_stdio_output@@CA?AW4parameter_type@12@_J@Z 1001ad49 f i libucrt:output.obj
 0001:00019d4d       ?get_parameter_type@?$positional_parameter_base@DV?$string_output_adapter@D@__crt_stdio_output@@@__crt_stdio_output@@CA?AW4parameter_type@12@_K@Z 1001ad4d f i libucrt:output.obj
 0001:00019d51       ?get_parameter_type@?$positional_parameter_base@DV?$string_output_adapter@D@__crt_stdio_output@@@__crt_stdio_output@@CA?AW4parameter_type@12@_W@Z 1001ad51 f i libucrt:output.obj
 0001:00019d55       ?get_parameter_type@?$positional_parameter_base@_WV?$stream_output_adapter@_W@__crt_stdio_output@@@__crt_stdio_output@@CA?AW4parameter_type@12@F@Z 1001ad55 f i libucrt:output.obj
 0001:00019d59       ?get_parameter_type@?$positional_parameter_base@_WV?$stream_output_adapter@_W@__crt_stdio_output@@@__crt_stdio_output@@CA?AW4parameter_type@12@G@Z 1001ad59 f i libucrt:output.obj
 0001:00019d5d       ?get_parameter_type@?$positional_parameter_base@_WV?$stream_output_adapter@_W@__crt_stdio_output@@@__crt_stdio_output@@CA?AW4parameter_type@12@H@Z 1001ad5d f i libucrt:output.obj
 0001:00019d61       ?get_parameter_type@?$positional_parameter_base@_WV?$stream_output_adapter@_W@__crt_stdio_output@@@__crt_stdio_output@@CA?AW4parameter_type@12@I@Z 1001ad61 f i libucrt:output.obj
 0001:00019d65       ?get_parameter_type@?$positional_parameter_base@_WV?$stream_output_adapter@_W@__crt_stdio_output@@@__crt_stdio_output@@CA?AW4parameter_type@12@U_CRT_DOUBLE@@@Z 1001ad65 f i libucrt:output.obj
 0001:00019d69       ?get_parameter_type@?$positional_parameter_base@_WV?$stream_output_adapter@_W@__crt_stdio_output@@@__crt_stdio_output@@CA?AW4parameter_type@12@_J@Z 1001ad69 f i libucrt:output.obj
 0001:00019d6d       ?get_parameter_type@?$positional_parameter_base@_WV?$stream_output_adapter@_W@__crt_stdio_output@@@__crt_stdio_output@@CA?AW4parameter_type@12@_K@Z 1001ad6d f i libucrt:output.obj
 0001:00019d71       ?get_parameter_type@?$positional_parameter_base@_WV?$stream_output_adapter@_W@__crt_stdio_output@@@__crt_stdio_output@@CA?AW4parameter_type@12@_W@Z 1001ad71 f i libucrt:output.obj
 0001:00019d75       ?get_parameter_type@?$positional_parameter_base@_WV?$string_output_adapter@_W@__crt_stdio_output@@@__crt_stdio_output@@CA?AW4parameter_type@12@F@Z 1001ad75 f i libucrt:output.obj
 0001:00019d79       ?get_parameter_type@?$positional_parameter_base@_WV?$string_output_adapter@_W@__crt_stdio_output@@@__crt_stdio_output@@CA?AW4parameter_type@12@G@Z 1001ad79 f i libucrt:output.obj
 0001:00019d7d       ?get_parameter_type@?$positional_parameter_base@_WV?$string_output_adapter@_W@__crt_stdio_output@@@__crt_stdio_output@@CA?AW4parameter_type@12@H@Z 1001ad7d f i libucrt:output.obj
 0001:00019d81       ?get_parameter_type@?$positional_parameter_base@_WV?$string_output_adapter@_W@__crt_stdio_output@@@__crt_stdio_output@@CA?AW4parameter_type@12@I@Z 1001ad81 f i libucrt:output.obj
 0001:00019d85       ?get_parameter_type@?$positional_parameter_base@_WV?$string_output_adapter@_W@__crt_stdio_output@@@__crt_stdio_output@@CA?AW4parameter_type@12@U_CRT_DOUBLE@@@Z 1001ad85 f i libucrt:output.obj
 0001:00019d89       ?get_parameter_type@?$positional_parameter_base@_WV?$string_output_adapter@_W@__crt_stdio_output@@@__crt_stdio_output@@CA?AW4parameter_type@12@_J@Z 1001ad89 f i libucrt:output.obj
 0001:00019d8d       ?get_parameter_type@?$positional_parameter_base@_WV?$string_output_adapter@_W@__crt_stdio_output@@@__crt_stdio_output@@CA?AW4parameter_type@12@_K@Z 1001ad8d f i libucrt:output.obj
 0001:00019d91       ?get_parameter_type@?$positional_parameter_base@_WV?$string_output_adapter@_W@__crt_stdio_output@@@__crt_stdio_output@@CA?AW4parameter_type@12@_W@Z 1001ad91 f i libucrt:output.obj
 0001:00019da0       ?get_raw_ptd@__crt_cached_ptd_host@@QAEPAU__acrt_ptd@@XZ 1001ada0 f i libucrt:output.obj
 0001:00019dfc       ?has_flag@?$output_processor@DV?$stream_output_adapter@D@__crt_stdio_output@@V?$format_validation_base@DV?$stream_output_adapter@D@__crt_stdio_output@@@2@@__crt_stdio_output@@ABE_NI@Z 1001adfc f i libucrt:output.obj
 0001:00019e0e       ?has_flag@?$output_processor@DV?$stream_output_adapter@D@__crt_stdio_output@@V?$positional_parameter_base@DV?$stream_output_adapter@D@__crt_stdio_output@@@2@@__crt_stdio_output@@ABE_NI@Z 1001ae0e f i libucrt:output.obj
 0001:00019e20       ?has_flag@?$output_processor@DV?$stream_output_adapter@D@__crt_stdio_output@@V?$standard_base@DV?$stream_output_adapter@D@__crt_stdio_output@@@2@@__crt_stdio_output@@ABE_NI@Z 1001ae20 f i libucrt:output.obj
 0001:00019e32       ?has_flag@?$output_processor@DV?$string_output_adapter@D@__crt_stdio_output@@V?$format_validation_base@DV?$string_output_adapter@D@__crt_stdio_output@@@2@@__crt_stdio_output@@ABE_NI@Z 1001ae32 f i libucrt:output.obj
 0001:00019e44       ?has_flag@?$output_processor@DV?$string_output_adapter@D@__crt_stdio_output@@V?$positional_parameter_base@DV?$string_output_adapter@D@__crt_stdio_output@@@2@@__crt_stdio_output@@ABE_NI@Z 1001ae44 f i libucrt:output.obj
 0001:00019e56       ?has_flag@?$output_processor@DV?$string_output_adapter@D@__crt_stdio_output@@V?$standard_base@DV?$string_output_adapter@D@__crt_stdio_output@@@2@@__crt_stdio_output@@ABE_NI@Z 1001ae56 f i libucrt:output.obj
 0001:00019e68       ?has_flag@?$output_processor@_WV?$stream_output_adapter@_W@__crt_stdio_output@@V?$format_validation_base@_WV?$stream_output_adapter@_W@__crt_stdio_output@@@2@@__crt_stdio_output@@ABE_NI@Z 1001ae68 f i libucrt:output.obj
 0001:00019e7a       ?has_flag@?$output_processor@_WV?$stream_output_adapter@_W@__crt_stdio_output@@V?$positional_parameter_base@_WV?$stream_output_adapter@_W@__crt_stdio_output@@@2@@__crt_stdio_output@@ABE_NI@Z 1001ae7a f i libucrt:output.obj
 0001:00019e8c       ?has_flag@?$output_processor@_WV?$stream_output_adapter@_W@__crt_stdio_output@@V?$standard_base@_WV?$stream_output_adapter@_W@__crt_stdio_output@@@2@@__crt_stdio_output@@ABE_NI@Z 1001ae8c f i libucrt:output.obj
 0001:00019e9e       ?has_flag@?$output_processor@_WV?$string_output_adapter@_W@__crt_stdio_output@@V?$format_validation_base@_WV?$string_output_adapter@_W@__crt_stdio_output@@@2@@__crt_stdio_output@@ABE_NI@Z 1001ae9e f i libucrt:output.obj
 0001:00019eb0       ?has_flag@?$output_processor@_WV?$string_output_adapter@_W@__crt_stdio_output@@V?$positional_parameter_base@_WV?$string_output_adapter@_W@__crt_stdio_output@@@2@@__crt_stdio_output@@ABE_NI@Z 1001aeb0 f i libucrt:output.obj
 0001:00019ec2       ?has_flag@?$output_processor@_WV?$string_output_adapter@_W@__crt_stdio_output@@V?$standard_base@_WV?$string_output_adapter@_W@__crt_stdio_output@@@2@@__crt_stdio_output@@ABE_NI@Z 1001aec2 f i libucrt:output.obj
 0001:00019ed4       ?is_positional_parameter_reappearance_consistent@?$positional_parameter_base@DV?$stream_output_adapter@D@__crt_stdio_output@@@__crt_stdio_output@@AAE_NABUparameter_data@12@W4parameter_type@12@DW4length_modifier@2@@Z 1001aed4 f i libucrt:output.obj
 0001:00019fee       ?is_positional_parameter_reappearance_consistent@?$positional_parameter_base@DV?$string_output_adapter@D@__crt_stdio_output@@@__crt_stdio_output@@AAE_NABUparameter_data@12@W4parameter_type@12@DW4length_modifier@2@@Z 1001afee f i libucrt:output.obj
 0001:0001a108       ?is_positional_parameter_reappearance_consistent@?$positional_parameter_base@_WV?$stream_output_adapter@_W@__crt_stdio_output@@@__crt_stdio_output@@AAE_NABUparameter_data@12@W4parameter_type@12@_WW4length_modifier@2@@Z 1001b108 f i libucrt:output.obj
 0001:0001a223       ?is_positional_parameter_reappearance_consistent@?$positional_parameter_base@_WV?$string_output_adapter@_W@__crt_stdio_output@@@__crt_stdio_output@@AAE_NABUparameter_data@12@W4parameter_type@12@_WW4length_modifier@2@@Z 1001b223 f i libucrt:output.obj
 0001:0001a33e       ?is_string_backed@__crt_stdio_stream@@QBE_NXZ 1001b33e f i libucrt:output.obj
 0001:0001a34a       ?maximum_signed_value@__crt_strtox@@YAJK@Z 1001b34a f i libucrt:output.obj
 0001:0001a350       ?minimum_signed_value@__crt_strtox@@YAJK@Z 1001b350 f i libucrt:output.obj
 0001:0001a356       ?narrow_null_string@?$output_processor@DV?$stream_output_adapter@D@__crt_stdio_output@@V?$format_validation_base@DV?$stream_output_adapter@D@__crt_stdio_output@@@2@@__crt_stdio_output@@CAPADXZ 1001b356 f i libucrt:output.obj
 0001:0001a35c       ?narrow_null_string@?$output_processor@DV?$stream_output_adapter@D@__crt_stdio_output@@V?$positional_parameter_base@DV?$stream_output_adapter@D@__crt_stdio_output@@@2@@__crt_stdio_output@@CAPADXZ 1001b35c f i libucrt:output.obj
 0001:0001a362       ?narrow_null_string@?$output_processor@DV?$stream_output_adapter@D@__crt_stdio_output@@V?$standard_base@DV?$stream_output_adapter@D@__crt_stdio_output@@@2@@__crt_stdio_output@@CAPADXZ 1001b362 f i libucrt:output.obj
 0001:0001a368       ?narrow_null_string@?$output_processor@DV?$string_output_adapter@D@__crt_stdio_output@@V?$format_validation_base@DV?$string_output_adapter@D@__crt_stdio_output@@@2@@__crt_stdio_output@@CAPADXZ 1001b368 f i libucrt:output.obj
 0001:0001a36e       ?narrow_null_string@?$output_processor@DV?$string_output_adapter@D@__crt_stdio_output@@V?$positional_parameter_base@DV?$string_output_adapter@D@__crt_stdio_output@@@2@@__crt_stdio_output@@CAPADXZ 1001b36e f i libucrt:output.obj
 0001:0001a374       ?narrow_null_string@?$output_processor@DV?$string_output_adapter@D@__crt_stdio_output@@V?$standard_base@DV?$string_output_adapter@D@__crt_stdio_output@@@2@@__crt_stdio_output@@CAPADXZ 1001b374 f i libucrt:output.obj
 0001:0001a37a       ?narrow_null_string@?$output_processor@_WV?$stream_output_adapter@_W@__crt_stdio_output@@V?$format_validation_base@_WV?$stream_output_adapter@_W@__crt_stdio_output@@@2@@__crt_stdio_output@@CAPADXZ 1001b37a f i libucrt:output.obj
 0001:0001a380       ?narrow_null_string@?$output_processor@_WV?$stream_output_adapter@_W@__crt_stdio_output@@V?$positional_parameter_base@_WV?$stream_output_adapter@_W@__crt_stdio_output@@@2@@__crt_stdio_output@@CAPADXZ 1001b380 f i libucrt:output.obj
 0001:0001a386       ?narrow_null_string@?$output_processor@_WV?$stream_output_adapter@_W@__crt_stdio_output@@V?$standard_base@_WV?$stream_output_adapter@_W@__crt_stdio_output@@@2@@__crt_stdio_output@@CAPADXZ 1001b386 f i libucrt:output.obj
 0001:0001a38c       ?narrow_null_string@?$output_processor@_WV?$string_output_adapter@_W@__crt_stdio_output@@V?$format_validation_base@_WV?$string_output_adapter@_W@__crt_stdio_output@@@2@@__crt_stdio_output@@CAPADXZ 1001b38c f i libucrt:output.obj
 0001:0001a392       ?narrow_null_string@?$output_processor@_WV?$string_output_adapter@_W@__crt_stdio_output@@V?$positional_parameter_base@_WV?$string_output_adapter@_W@__crt_stdio_output@@@2@@__crt_stdio_output@@CAPADXZ 1001b392 f i libucrt:output.obj
 0001:0001a398       ?narrow_null_string@?$output_processor@_WV?$string_output_adapter@_W@__crt_stdio_output@@V?$standard_base@_WV?$string_output_adapter@_W@__crt_stdio_output@@@2@@__crt_stdio_output@@CAPADXZ 1001b398 f i libucrt:output.obj
 0001:0001a39e       ?parse_digit@__crt_strtox@@YAID@Z 1001b39e f i libucrt:output.obj
 0001:0001a3d8       ?parse_digit@__crt_strtox@@YAI_W@Z 1001b3d8 f i libucrt:output.obj
 0001:0001a5a0       ?parse_int_from_format_string@?$output_processor@DV?$stream_output_adapter@D@__crt_stdio_output@@V?$format_validation_base@DV?$stream_output_adapter@D@__crt_stdio_output@@@2@@__crt_stdio_output@@AAE_NQAH@Z 1001b5a0 f i libucrt:output.obj
 0001:0001a618       ?parse_int_from_format_string@?$output_processor@DV?$stream_output_adapter@D@__crt_stdio_output@@V?$positional_parameter_base@DV?$stream_output_adapter@D@__crt_stdio_output@@@2@@__crt_stdio_output@@AAE_NQAH@Z 1001b618 f i libucrt:output.obj
 0001:0001a690       ?parse_int_from_format_string@?$output_processor@DV?$stream_output_adapter@D@__crt_stdio_output@@V?$standard_base@DV?$stream_output_adapter@D@__crt_stdio_output@@@2@@__crt_stdio_output@@AAE_NQAH@Z 1001b690 f i libucrt:output.obj
 0001:0001a708       ?parse_int_from_format_string@?$output_processor@DV?$string_output_adapter@D@__crt_stdio_output@@V?$format_validation_base@DV?$string_output_adapter@D@__crt_stdio_output@@@2@@__crt_stdio_output@@AAE_NQAH@Z 1001b708 f i libucrt:output.obj
 0001:0001a780       ?parse_int_from_format_string@?$output_processor@DV?$string_output_adapter@D@__crt_stdio_output@@V?$positional_parameter_base@DV?$string_output_adapter@D@__crt_stdio_output@@@2@@__crt_stdio_output@@AAE_NQAH@Z 1001b780 f i libucrt:output.obj
 0001:0001a7f8       ?parse_int_from_format_string@?$output_processor@DV?$string_output_adapter@D@__crt_stdio_output@@V?$standard_base@DV?$string_output_adapter@D@__crt_stdio_output@@@2@@__crt_stdio_output@@AAE_NQAH@Z 1001b7f8 f i libucrt:output.obj
 0001:0001a870       ?parse_int_from_format_string@?$output_processor@_WV?$stream_output_adapter@_W@__crt_stdio_output@@V?$format_validation_base@_WV?$stream_output_adapter@_W@__crt_stdio_output@@@2@@__crt_stdio_output@@AAE_NQAH@Z 1001b870 f i libucrt:output.obj
 0001:0001a8ea       ?parse_int_from_format_string@?$output_processor@_WV?$stream_output_adapter@_W@__crt_stdio_output@@V?$positional_parameter_base@_WV?$stream_output_adapter@_W@__crt_stdio_output@@@2@@__crt_stdio_output@@AAE_NQAH@Z 1001b8ea f i libucrt:output.obj
 0001:0001a964       ?parse_int_from_format_string@?$output_processor@_WV?$stream_output_adapter@_W@__crt_stdio_output@@V?$standard_base@_WV?$stream_output_adapter@_W@__crt_stdio_output@@@2@@__crt_stdio_output@@AAE_NQAH@Z 1001b964 f i libucrt:output.obj
 0001:0001a9de       ?parse_int_from_format_string@?$output_processor@_WV?$string_output_adapter@_W@__crt_stdio_output@@V?$format_validation_base@_WV?$string_output_adapter@_W@__crt_stdio_output@@@2@@__crt_stdio_output@@AAE_NQAH@Z 1001b9de f i libucrt:output.obj
 0001:0001aa58       ?parse_int_from_format_string@?$output_processor@_WV?$string_output_adapter@_W@__crt_stdio_output@@V?$positional_parameter_base@_WV?$string_output_adapter@_W@__crt_stdio_output@@@2@@__crt_stdio_output@@AAE_NQAH@Z 1001ba58 f i libucrt:output.obj
 0001:0001aad2       ?parse_int_from_format_string@?$output_processor@_WV?$string_output_adapter@_W@__crt_stdio_output@@V?$standard_base@_WV?$string_output_adapter@_W@__crt_stdio_output@@@2@@__crt_stdio_output@@AAE_NQAH@Z 1001bad2 f i libucrt:output.obj
 0001:0001ab4c       ?process@?$output_processor@DV?$stream_output_adapter@D@__crt_stdio_output@@V?$format_validation_base@DV?$stream_output_adapter@D@__crt_stdio_output@@@2@@__crt_stdio_output@@QAEHXZ 1001bb4c f i libucrt:output.obj
 0001:0001ae0c       ?process@?$output_processor@DV?$stream_output_adapter@D@__crt_stdio_output@@V?$positional_parameter_base@DV?$stream_output_adapter@D@__crt_stdio_output@@@2@@__crt_stdio_output@@QAEHXZ 1001be0c f i libucrt:output.obj
 0001:0001b0e0       ?process@?$output_processor@DV?$stream_output_adapter@D@__crt_stdio_output@@V?$standard_base@DV?$stream_output_adapter@D@__crt_stdio_output@@@2@@__crt_stdio_output@@QAEHXZ 1001c0e0 f i libucrt:output.obj
 0001:0001b390       ?process@?$output_processor@DV?$string_output_adapter@D@__crt_stdio_output@@V?$format_validation_base@DV?$string_output_adapter@D@__crt_stdio_output@@@2@@__crt_stdio_output@@QAEHXZ 1001c390 f i libucrt:output.obj
 0001:0001b674       ?process@?$output_processor@DV?$string_output_adapter@D@__crt_stdio_output@@V?$positional_parameter_base@DV?$string_output_adapter@D@__crt_stdio_output@@@2@@__crt_stdio_output@@QAEHXZ 1001c674 f i libucrt:output.obj
 0001:0001b974       ?process@?$output_processor@DV?$string_output_adapter@D@__crt_stdio_output@@V?$standard_base@DV?$string_output_adapter@D@__crt_stdio_output@@@2@@__crt_stdio_output@@QAEHXZ 1001c974 f i libucrt:output.obj
 0001:0001bc48       ?process@?$output_processor@_WV?$stream_output_adapter@_W@__crt_stdio_output@@V?$format_validation_base@_WV?$stream_output_adapter@_W@__crt_stdio_output@@@2@@__crt_stdio_output@@QAEHXZ 1001cc48 f i libucrt:output.obj
 0001:0001be64       ?process@?$output_processor@_WV?$stream_output_adapter@_W@__crt_stdio_output@@V?$positional_parameter_base@_WV?$stream_output_adapter@_W@__crt_stdio_output@@@2@@__crt_stdio_output@@QAEHXZ 1001ce64 f i libucrt:output.obj
 0001:0001c0b8       ?process@?$output_processor@_WV?$stream_output_adapter@_W@__crt_stdio_output@@V?$standard_base@_WV?$stream_output_adapter@_W@__crt_stdio_output@@@2@@__crt_stdio_output@@QAEHXZ 1001d0b8 f i libucrt:output.obj
 0001:0001c2c8       ?process@?$output_processor@_WV?$string_output_adapter@_W@__crt_stdio_output@@V?$format_validation_base@_WV?$string_output_adapter@_W@__crt_stdio_output@@@2@@__crt_stdio_output@@QAEHXZ 1001d2c8 f i libucrt:output.obj
 0001:0001c508       ?process@?$output_processor@_WV?$string_output_adapter@_W@__crt_stdio_output@@V?$positional_parameter_base@_WV?$string_output_adapter@_W@__crt_stdio_output@@@2@@__crt_stdio_output@@QAEHXZ 1001d508 f i libucrt:output.obj
 0001:0001c770       ?process@?$output_processor@_WV?$string_output_adapter@_W@__crt_stdio_output@@V?$standard_base@_WV?$string_output_adapter@_W@__crt_stdio_output@@@2@@__crt_stdio_output@@QAEHXZ 1001d770 f i libucrt:output.obj
 0001:0001c9ac       ?public_stream@__crt_stdio_stream@@QBEPAU_iobuf@@XZ 1001d9ac f i libucrt:output.obj
 0001:0001c9af       ?restore_state@?$c_string_character_source@D@__crt_strtox@@QAE_NQBD@Z 1001d9af f i libucrt:output.obj
 0001:0001c9bf       ?restore_state@?$c_string_character_source@_W@__crt_strtox@@QAE_NQB_W@Z 1001d9bf f i libucrt:output.obj
 0001:0001c9cf       ?save_state@?$c_string_character_source@D@__crt_strtox@@QBEPBDXZ 1001d9cf f i libucrt:output.obj
 0001:0001c9d2       ?save_state@?$c_string_character_source@_W@__crt_strtox@@QBEPB_WXZ 1001d9d2 f i libucrt:output.obj
 0001:0001c9d5       ?set@?$cached@H@__crt_cached_ptd_host@@QAEHH@Z 1001d9d5 f i libucrt:output.obj
 0001:0001c9e7       ?set_flag@?$output_processor@DV?$stream_output_adapter@D@__crt_stdio_output@@V?$format_validation_base@DV?$stream_output_adapter@D@__crt_stdio_output@@@2@@__crt_stdio_output@@AAEXI@Z 1001d9e7 f i libucrt:output.obj
 0001:0001c9f6       ?set_flag@?$output_processor@DV?$stream_output_adapter@D@__crt_stdio_output@@V?$positional_parameter_base@DV?$stream_output_adapter@D@__crt_stdio_output@@@2@@__crt_stdio_output@@AAEXI@Z 1001d9f6 f i libucrt:output.obj
 0001:0001ca05       ?set_flag@?$output_processor@DV?$stream_output_adapter@D@__crt_stdio_output@@V?$standard_base@DV?$stream_output_adapter@D@__crt_stdio_output@@@2@@__crt_stdio_output@@AAEXI@Z 1001da05 f i libucrt:output.obj
 0001:0001ca14       ?set_flag@?$output_processor@DV?$string_output_adapter@D@__crt_stdio_output@@V?$format_validation_base@DV?$string_output_adapter@D@__crt_stdio_output@@@2@@__crt_stdio_output@@AAEXI@Z 1001da14 f i libucrt:output.obj
 0001:0001ca23       ?set_flag@?$output_processor@DV?$string_output_adapter@D@__crt_stdio_output@@V?$positional_parameter_base@DV?$string_output_adapter@D@__crt_stdio_output@@@2@@__crt_stdio_output@@AAEXI@Z 1001da23 f i libucrt:output.obj
 0001:0001ca32       ?set_flag@?$output_processor@DV?$string_output_adapter@D@__crt_stdio_output@@V?$standard_base@DV?$string_output_adapter@D@__crt_stdio_output@@@2@@__crt_stdio_output@@AAEXI@Z 1001da32 f i libucrt:output.obj
 0001:0001ca41       ?set_flag@?$output_processor@_WV?$stream_output_adapter@_W@__crt_stdio_output@@V?$format_validation_base@_WV?$stream_output_adapter@_W@__crt_stdio_output@@@2@@__crt_stdio_output@@AAEXI@Z 1001da41 f i libucrt:output.obj
 0001:0001ca50       ?set_flag@?$output_processor@_WV?$stream_output_adapter@_W@__crt_stdio_output@@V?$positional_parameter_base@_WV?$stream_output_adapter@_W@__crt_stdio_output@@@2@@__crt_stdio_output@@AAEXI@Z 1001da50 f i libucrt:output.obj
 0001:0001ca5f       ?set_flag@?$output_processor@_WV?$stream_output_adapter@_W@__crt_stdio_output@@V?$standard_base@_WV?$stream_output_adapter@_W@__crt_stdio_output@@@2@@__crt_stdio_output@@AAEXI@Z 1001da5f f i libucrt:output.obj
 0001:0001ca6e       ?set_flag@?$output_processor@_WV?$string_output_adapter@_W@__crt_stdio_output@@V?$format_validation_base@_WV?$string_output_adapter@_W@__crt_stdio_output@@@2@@__crt_stdio_output@@AAEXI@Z 1001da6e f i libucrt:output.obj
 0001:0001ca7d       ?set_flag@?$output_processor@_WV?$string_output_adapter@_W@__crt_stdio_output@@V?$positional_parameter_base@_WV?$string_output_adapter@_W@__crt_stdio_output@@@2@@__crt_stdio_output@@AAEXI@Z 1001da7d f i libucrt:output.obj
 0001:0001ca8c       ?set_flag@?$output_processor@_WV?$string_output_adapter@_W@__crt_stdio_output@@V?$standard_base@_WV?$string_output_adapter@_W@__crt_stdio_output@@@2@@__crt_stdio_output@@AAEXI@Z 1001da8c f i libucrt:output.obj
 0001:0001ca9b       ?should_format@?$positional_parameter_base@DV?$stream_output_adapter@D@__crt_stdio_output@@@__crt_stdio_output@@IAE_NXZ 1001da9b f i libucrt:output.obj
 0001:0001cab1       ?should_format@?$positional_parameter_base@DV?$string_output_adapter@D@__crt_stdio_output@@@__crt_stdio_output@@IAE_NXZ 1001dab1 f i libucrt:output.obj
 0001:0001cac7       ?should_format@?$positional_parameter_base@_WV?$stream_output_adapter@_W@__crt_stdio_output@@@__crt_stdio_output@@IAE_NXZ 1001dac7 f i libucrt:output.obj
 0001:0001cadd       ?should_format@?$positional_parameter_base@_WV?$string_output_adapter@_W@__crt_stdio_output@@@__crt_stdio_output@@IAE_NXZ 1001dadd f i libucrt:output.obj
 0001:0001caf3       ?should_format@?$standard_base@DV?$stream_output_adapter@D@__crt_stdio_output@@@__crt_stdio_output@@IAE_NXZ 1001daf3 f i libucrt:output.obj
 0001:0001caf6       ?should_format@?$standard_base@DV?$string_output_adapter@D@__crt_stdio_output@@@__crt_stdio_output@@IAE_NXZ 1001daf6 f i libucrt:output.obj
 0001:0001caf9       ?should_format@?$standard_base@_WV?$stream_output_adapter@_W@__crt_stdio_output@@@__crt_stdio_output@@IAE_NXZ 1001daf9 f i libucrt:output.obj
 0001:0001cafc       ?should_format@?$standard_base@_WV?$string_output_adapter@_W@__crt_stdio_output@@@__crt_stdio_output@@IAE_NXZ 1001dafc f i libucrt:output.obj
 0001:0001caff       ?should_skip_normal_state_processing@?$positional_parameter_base@DV?$stream_output_adapter@D@__crt_stdio_output@@@__crt_stdio_output@@IAE_NXZ 1001daff f i libucrt:output.obj
 0001:0001cb29       ?should_skip_normal_state_processing@?$positional_parameter_base@DV?$string_output_adapter@D@__crt_stdio_output@@@__crt_stdio_output@@IAE_NXZ 1001db29 f i libucrt:output.obj
 0001:0001cb53       ?should_skip_normal_state_processing@?$positional_parameter_base@_WV?$stream_output_adapter@_W@__crt_stdio_output@@@__crt_stdio_output@@IAE_NXZ 1001db53 f i libucrt:output.obj
 0001:0001cb7d       ?should_skip_normal_state_processing@?$positional_parameter_base@_WV?$string_output_adapter@_W@__crt_stdio_output@@@__crt_stdio_output@@IAE_NXZ 1001db7d f i libucrt:output.obj
 0001:0001cba7       ?should_skip_normal_state_processing@?$standard_base@DV?$stream_output_adapter@D@__crt_stdio_output@@@__crt_stdio_output@@IAE_NXZ 1001dba7 f i libucrt:output.obj
 0001:0001cbaa       ?should_skip_normal_state_processing@?$standard_base@DV?$string_output_adapter@D@__crt_stdio_output@@@__crt_stdio_output@@IAE_NXZ 1001dbaa f i libucrt:output.obj
 0001:0001cbad       ?should_skip_normal_state_processing@?$standard_base@_WV?$stream_output_adapter@_W@__crt_stdio_output@@@__crt_stdio_output@@IAE_NXZ 1001dbad f i libucrt:output.obj
 0001:0001cbb0       ?should_skip_normal_state_processing@?$standard_base@_WV?$string_output_adapter@_W@__crt_stdio_output@@@__crt_stdio_output@@IAE_NXZ 1001dbb0 f i libucrt:output.obj
 0001:0001cbb3       ?should_skip_type_state_output@?$positional_parameter_base@DV?$stream_output_adapter@D@__crt_stdio_output@@@__crt_stdio_output@@IBE_NXZ 1001dbb3 f i libucrt:output.obj
 0001:0001cbca       ?should_skip_type_state_output@?$positional_parameter_base@DV?$string_output_adapter@D@__crt_stdio_output@@@__crt_stdio_output@@IBE_NXZ 1001dbca f i libucrt:output.obj
 0001:0001cbe1       ?should_skip_type_state_output@?$positional_parameter_base@_WV?$stream_output_adapter@_W@__crt_stdio_output@@@__crt_stdio_output@@IBE_NXZ 1001dbe1 f i libucrt:output.obj
 0001:0001cbf8       ?should_skip_type_state_output@?$positional_parameter_base@_WV?$string_output_adapter@_W@__crt_stdio_output@@@__crt_stdio_output@@IBE_NXZ 1001dbf8 f i libucrt:output.obj
 0001:0001cc0f       ?should_skip_type_state_output@?$standard_base@DV?$stream_output_adapter@D@__crt_stdio_output@@@__crt_stdio_output@@IBE_NXZ 1001dc0f f i libucrt:output.obj
 0001:0001cc12       ?should_skip_type_state_output@?$standard_base@DV?$string_output_adapter@D@__crt_stdio_output@@@__crt_stdio_output@@IBE_NXZ 1001dc12 f i libucrt:output.obj
 0001:0001cc15       ?should_skip_type_state_output@?$standard_base@_WV?$stream_output_adapter@_W@__crt_stdio_output@@@__crt_stdio_output@@IBE_NXZ 1001dc15 f i libucrt:output.obj
 0001:0001cc18       ?should_skip_type_state_output@?$standard_base@_WV?$string_output_adapter@_W@__crt_stdio_output@@@__crt_stdio_output@@IBE_NXZ 1001dc18 f i libucrt:output.obj
 0001:0001cc1b       ?state_case_dot@?$output_processor@DV?$stream_output_adapter@D@__crt_stdio_output@@V?$format_validation_base@DV?$stream_output_adapter@D@__crt_stdio_output@@@2@@__crt_stdio_output@@AAE_NXZ 1001dc1b f i libucrt:output.obj
 0001:0001cc22       ?state_case_dot@?$output_processor@DV?$stream_output_adapter@D@__crt_stdio_output@@V?$positional_parameter_base@DV?$stream_output_adapter@D@__crt_stdio_output@@@2@@__crt_stdio_output@@AAE_NXZ 1001dc22 f i libucrt:output.obj
 0001:0001cc29       ?state_case_dot@?$output_processor@DV?$stream_output_adapter@D@__crt_stdio_output@@V?$standard_base@DV?$stream_output_adapter@D@__crt_stdio_output@@@2@@__crt_stdio_output@@AAE_NXZ 1001dc29 f i libucrt:output.obj
 0001:0001cc30       ?state_case_dot@?$output_processor@DV?$string_output_adapter@D@__crt_stdio_output@@V?$format_validation_base@DV?$string_output_adapter@D@__crt_stdio_output@@@2@@__crt_stdio_output@@AAE_NXZ 1001dc30 f i libucrt:output.obj
 0001:0001cc37       ?state_case_dot@?$output_processor@DV?$string_output_adapter@D@__crt_stdio_output@@V?$positional_parameter_base@DV?$string_output_adapter@D@__crt_stdio_output@@@2@@__crt_stdio_output@@AAE_NXZ 1001dc37 f i libucrt:output.obj
 0001:0001cc3e       ?state_case_dot@?$output_processor@DV?$string_output_adapter@D@__crt_stdio_output@@V?$standard_base@DV?$string_output_adapter@D@__crt_stdio_output@@@2@@__crt_stdio_output@@AAE_NXZ 1001dc3e f i libucrt:output.obj
 0001:0001cc45       ?state_case_dot@?$output_processor@_WV?$stream_output_adapter@_W@__crt_stdio_output@@V?$format_validation_base@_WV?$stream_output_adapter@_W@__crt_stdio_output@@@2@@__crt_stdio_output@@AAE_NXZ 1001dc45 f i libucrt:output.obj
 0001:0001cc4c       ?state_case_dot@?$output_processor@_WV?$stream_output_adapter@_W@__crt_stdio_output@@V?$positional_parameter_base@_WV?$stream_output_adapter@_W@__crt_stdio_output@@@2@@__crt_stdio_output@@AAE_NXZ 1001dc4c f i libucrt:output.obj
 0001:0001cc53       ?state_case_dot@?$output_processor@_WV?$stream_output_adapter@_W@__crt_stdio_output@@V?$standard_base@_WV?$stream_output_adapter@_W@__crt_stdio_output@@@2@@__crt_stdio_output@@AAE_NXZ 1001dc53 f i libucrt:output.obj
 0001:0001cc5a       ?state_case_dot@?$output_processor@_WV?$string_output_adapter@_W@__crt_stdio_output@@V?$format_validation_base@_WV?$string_output_adapter@_W@__crt_stdio_output@@@2@@__crt_stdio_output@@AAE_NXZ 1001dc5a f i libucrt:output.obj
 0001:0001cc61       ?state_case_dot@?$output_processor@_WV?$string_output_adapter@_W@__crt_stdio_output@@V?$positional_parameter_base@_WV?$string_output_adapter@_W@__crt_stdio_output@@@2@@__crt_stdio_output@@AAE_NXZ 1001dc61 f i libucrt:output.obj
 0001:0001cc68       ?state_case_dot@?$output_processor@_WV?$string_output_adapter@_W@__crt_stdio_output@@V?$standard_base@_WV?$string_output_adapter@_W@__crt_stdio_output@@@2@@__crt_stdio_output@@AAE_NXZ 1001dc68 f i libucrt:output.obj
 0001:0001cc6f       ?state_case_flag@?$output_processor@DV?$stream_output_adapter@D@__crt_stdio_output@@V?$format_validation_base@DV?$stream_output_adapter@D@__crt_stdio_output@@@2@@__crt_stdio_output@@AAE_NXZ 1001dc6f f i libucrt:output.obj
 0001:0001ccac       ?state_case_flag@?$output_processor@DV?$stream_output_adapter@D@__crt_stdio_output@@V?$positional_parameter_base@DV?$stream_output_adapter@D@__crt_stdio_output@@@2@@__crt_stdio_output@@AAE_NXZ 1001dcac f i libucrt:output.obj
 0001:0001cce9       ?state_case_flag@?$output_processor@DV?$stream_output_adapter@D@__crt_stdio_output@@V?$standard_base@DV?$stream_output_adapter@D@__crt_stdio_output@@@2@@__crt_stdio_output@@AAE_NXZ 1001dce9 f i libucrt:output.obj
 0001:0001cd26       ?state_case_flag@?$output_processor@DV?$string_output_adapter@D@__crt_stdio_output@@V?$format_validation_base@DV?$string_output_adapter@D@__crt_stdio_output@@@2@@__crt_stdio_output@@AAE_NXZ 1001dd26 f i libucrt:output.obj
 0001:0001cd63       ?state_case_flag@?$output_processor@DV?$string_output_adapter@D@__crt_stdio_output@@V?$positional_parameter_base@DV?$string_output_adapter@D@__crt_stdio_output@@@2@@__crt_stdio_output@@AAE_NXZ 1001dd63 f i libucrt:output.obj
 0001:0001cda0       ?state_case_flag@?$output_processor@DV?$string_output_adapter@D@__crt_stdio_output@@V?$standard_base@DV?$string_output_adapter@D@__crt_stdio_output@@@2@@__crt_stdio_output@@AAE_NXZ 1001dda0 f i libucrt:output.obj
 0001:0001cddd       ?state_case_flag@?$output_processor@_WV?$stream_output_adapter@_W@__crt_stdio_output@@V?$format_validation_base@_WV?$stream_output_adapter@_W@__crt_stdio_output@@@2@@__crt_stdio_output@@AAE_NXZ 1001dddd f i libucrt:output.obj
 0001:0001ce1a       ?state_case_flag@?$output_processor@_WV?$stream_output_adapter@_W@__crt_stdio_output@@V?$positional_parameter_base@_WV?$stream_output_adapter@_W@__crt_stdio_output@@@2@@__crt_stdio_output@@AAE_NXZ 1001de1a f i libucrt:output.obj
 0001:0001ce57       ?state_case_flag@?$output_processor@_WV?$stream_output_adapter@_W@__crt_stdio_output@@V?$standard_base@_WV?$stream_output_adapter@_W@__crt_stdio_output@@@2@@__crt_stdio_output@@AAE_NXZ 1001de57 f i libucrt:output.obj
 0001:0001ce94       ?state_case_flag@?$output_processor@_WV?$string_output_adapter@_W@__crt_stdio_output@@V?$format_validation_base@_WV?$string_output_adapter@_W@__crt_stdio_output@@@2@@__crt_stdio_output@@AAE_NXZ 1001de94 f i libucrt:output.obj
 0001:0001ced1       ?state_case_flag@?$output_processor@_WV?$string_output_adapter@_W@__crt_stdio_output@@V?$positional_parameter_base@_WV?$string_output_adapter@_W@__crt_stdio_output@@@2@@__crt_stdio_output@@AAE_NXZ 1001ded1 f i libucrt:output.obj
 0001:0001cf0e       ?state_case_flag@?$output_processor@_WV?$string_output_adapter@_W@__crt_stdio_output@@V?$standard_base@_WV?$string_output_adapter@_W@__crt_stdio_output@@@2@@__crt_stdio_output@@AAE_NXZ 1001df0e f i libucrt:output.obj
 0001:0001cf4b       ?state_case_normal@?$output_processor@DV?$stream_output_adapter@D@__crt_stdio_output@@V?$format_validation_base@DV?$stream_output_adapter@D@__crt_stdio_output@@@2@@__crt_stdio_output@@AAE_NXZ 1001df4b f i libucrt:output.obj
 0001:0001d008       ?state_case_normal@?$output_processor@DV?$stream_output_adapter@D@__crt_stdio_output@@V?$positional_parameter_base@DV?$stream_output_adapter@D@__crt_stdio_output@@@2@@__crt_stdio_output@@AAE_NXZ 1001e008 f i libucrt:output.obj
 0001:0001d0d0       ?state_case_normal@?$output_processor@DV?$stream_output_adapter@D@__crt_stdio_output@@V?$standard_base@DV?$stream_output_adapter@D@__crt_stdio_output@@@2@@__crt_stdio_output@@AAE_NXZ 1001e0d0 f i libucrt:output.obj
 0001:0001d18d       ?state_case_normal@?$output_processor@DV?$string_output_adapter@D@__crt_stdio_output@@V?$format_validation_base@DV?$string_output_adapter@D@__crt_stdio_output@@@2@@__crt_stdio_output@@AAE_NXZ 1001e18d f i libucrt:output.obj
 0001:0001d289       ?state_case_normal@?$output_processor@DV?$string_output_adapter@D@__crt_stdio_output@@V?$positional_parameter_base@DV?$string_output_adapter@D@__crt_stdio_output@@@2@@__crt_stdio_output@@AAE_NXZ 1001e289 f i libucrt:output.obj
 0001:0001d390       ?state_case_normal@?$output_processor@DV?$string_output_adapter@D@__crt_stdio_output@@V?$standard_base@DV?$string_output_adapter@D@__crt_stdio_output@@@2@@__crt_stdio_output@@AAE_NXZ 1001e390 f i libucrt:output.obj
 0001:0001d48c       ?state_case_normal@?$output_processor@_WV?$stream_output_adapter@_W@__crt_stdio_output@@V?$format_validation_base@_WV?$stream_output_adapter@_W@__crt_stdio_output@@@2@@__crt_stdio_output@@AAE_NXZ 1001e48c f i libucrt:output.obj
 0001:0001d4aa       ?state_case_normal@?$output_processor@_WV?$stream_output_adapter@_W@__crt_stdio_output@@V?$positional_parameter_base@_WV?$stream_output_adapter@_W@__crt_stdio_output@@@2@@__crt_stdio_output@@AAE_NXZ 1001e4aa f i libucrt:output.obj
 0001:0001d4d7       ?state_case_normal@?$output_processor@_WV?$stream_output_adapter@_W@__crt_stdio_output@@V?$standard_base@_WV?$stream_output_adapter@_W@__crt_stdio_output@@@2@@__crt_stdio_output@@AAE_NXZ 1001e4d7 f i libucrt:output.obj
 0001:0001d4f5       ?state_case_normal@?$output_processor@_WV?$string_output_adapter@_W@__crt_stdio_output@@V?$format_validation_base@_WV?$string_output_adapter@_W@__crt_stdio_output@@@2@@__crt_stdio_output@@AAE_NXZ 1001e4f5 f i libucrt:output.obj
 0001:0001d53d       ?state_case_normal@?$output_processor@_WV?$string_output_adapter@_W@__crt_stdio_output@@V?$positional_parameter_base@_WV?$string_output_adapter@_W@__crt_stdio_output@@@2@@__crt_stdio_output@@AAE_NXZ 1001e53d f i libucrt:output.obj
 0001:0001d590       ?state_case_normal@?$output_processor@_WV?$string_output_adapter@_W@__crt_stdio_output@@V?$standard_base@_WV?$string_output_adapter@_W@__crt_stdio_output@@@2@@__crt_stdio_output@@AAE_NXZ 1001e590 f i libucrt:output.obj
 0001:0001d5d8       ?state_case_normal_common@?$output_processor@DV?$stream_output_adapter@D@__crt_stdio_output@@V?$format_validation_base@DV?$stream_output_adapter@D@__crt_stdio_output@@@2@@__crt_stdio_output@@AAE_NXZ 1001e5d8 f i libucrt:output.obj
 0001:0001d670       ?state_case_normal_common@?$output_processor@DV?$stream_output_adapter@D@__crt_stdio_output@@V?$positional_parameter_base@DV?$stream_output_adapter@D@__crt_stdio_output@@@2@@__crt_stdio_output@@AAE_NXZ 1001e670 f i libucrt:output.obj
 0001:0001d708       ?state_case_normal_common@?$output_processor@DV?$stream_output_adapter@D@__crt_stdio_output@@V?$standard_base@DV?$stream_output_adapter@D@__crt_stdio_output@@@2@@__crt_stdio_output@@AAE_NXZ 1001e708 f i libucrt:output.obj
 0001:0001d7a0       ?state_case_normal_common@?$output_processor@DV?$string_output_adapter@D@__crt_stdio_output@@V?$format_validation_base@DV?$string_output_adapter@D@__crt_stdio_output@@@2@@__crt_stdio_output@@AAE_NXZ 1001e7a0 f i libucrt:output.obj
 0001:0001d880       ?state_case_normal_common@?$output_processor@DV?$string_output_adapter@D@__crt_stdio_output@@V?$positional_parameter_base@DV?$string_output_adapter@D@__crt_stdio_output@@@2@@__crt_stdio_output@@AAE_NXZ 1001e880 f i libucrt:output.obj
 0001:0001d960       ?state_case_normal_common@?$output_processor@DV?$string_output_adapter@D@__crt_stdio_output@@V?$standard_base@DV?$string_output_adapter@D@__crt_stdio_output@@@2@@__crt_stdio_output@@AAE_NXZ 1001e960 f i libucrt:output.obj
 0001:0001da40       ?state_case_normal_common@?$output_processor@_WV?$stream_output_adapter@_W@__crt_stdio_output@@V?$format_validation_base@_WV?$stream_output_adapter@_W@__crt_stdio_output@@@2@@__crt_stdio_output@@AAE_NXZ 1001ea40 f i libucrt:output.obj
 0001:0001da5e       ?state_case_normal_common@?$output_processor@_WV?$stream_output_adapter@_W@__crt_stdio_output@@V?$positional_parameter_base@_WV?$stream_output_adapter@_W@__crt_stdio_output@@@2@@__crt_stdio_output@@AAE_NXZ 1001ea5e f i libucrt:output.obj
 0001:0001da7c       ?state_case_normal_common@?$output_processor@_WV?$stream_output_adapter@_W@__crt_stdio_output@@V?$standard_base@_WV?$stream_output_adapter@_W@__crt_stdio_output@@@2@@__crt_stdio_output@@AAE_NXZ 1001ea7c f i libucrt:output.obj
 0001:0001da9a       ?state_case_normal_common@?$output_processor@_WV?$string_output_adapter@_W@__crt_stdio_output@@V?$format_validation_base@_WV?$string_output_adapter@_W@__crt_stdio_output@@@2@@__crt_stdio_output@@AAE_NXZ 1001ea9a f i libucrt:output.obj
 0001:0001dae2       ?state_case_normal_common@?$output_processor@_WV?$string_output_adapter@_W@__crt_stdio_output@@V?$positional_parameter_base@_WV?$string_output_adapter@_W@__crt_stdio_output@@@2@@__crt_stdio_output@@AAE_NXZ 1001eae2 f i libucrt:output.obj
 0001:0001db2a       ?state_case_normal_common@?$output_processor@_WV?$string_output_adapter@_W@__crt_stdio_output@@V?$standard_base@_WV?$string_output_adapter@_W@__crt_stdio_output@@@2@@__crt_stdio_output@@AAE_NXZ 1001eb2a f i libucrt:output.obj
 0001:0001db72       ?state_case_normal_tchar@?$output_processor@DV?$stream_output_adapter@D@__crt_stdio_output@@V?$format_validation_base@DV?$stream_output_adapter@D@__crt_stdio_output@@@2@@__crt_stdio_output@@AAE_ND@Z 1001eb72 f i libucrt:output.obj
 0001:0001dbf9       ?state_case_normal_tchar@?$output_processor@DV?$stream_output_adapter@D@__crt_stdio_output@@V?$positional_parameter_base@DV?$stream_output_adapter@D@__crt_stdio_output@@@2@@__crt_stdio_output@@AAE_ND@Z 1001ebf9 f i libucrt:output.obj
 0001:0001dc80       ?state_case_normal_tchar@?$output_processor@DV?$stream_output_adapter@D@__crt_stdio_output@@V?$standard_base@DV?$stream_output_adapter@D@__crt_stdio_output@@@2@@__crt_stdio_output@@AAE_ND@Z 1001ec80 f i libucrt:output.obj
 0001:0001dd07       ?state_case_normal_tchar@?$output_processor@DV?$string_output_adapter@D@__crt_stdio_output@@V?$format_validation_base@DV?$string_output_adapter@D@__crt_stdio_output@@@2@@__crt_stdio_output@@AAE_ND@Z 1001ed07 f i libucrt:output.obj
 0001:0001ddb2       ?state_case_normal_tchar@?$output_processor@DV?$string_output_adapter@D@__crt_stdio_output@@V?$positional_parameter_base@DV?$string_output_adapter@D@__crt_stdio_output@@@2@@__crt_stdio_output@@AAE_ND@Z 1001edb2 f i libucrt:output.obj
 0001:0001de5d       ?state_case_normal_tchar@?$output_processor@DV?$string_output_adapter@D@__crt_stdio_output@@V?$standard_base@DV?$string_output_adapter@D@__crt_stdio_output@@@2@@__crt_stdio_output@@AAE_ND@Z 1001ee5d f i libucrt:output.obj
 0001:0001df08       ?state_case_normal_tchar@?$output_processor@_WV?$stream_output_adapter@_W@__crt_stdio_output@@V?$format_validation_base@_WV?$stream_output_adapter@_W@__crt_stdio_output@@@2@@__crt_stdio_output@@AAE_N_W@Z 1001ef08 f i libucrt:output.obj
 0001:0001df11       ?state_case_normal_tchar@?$output_processor@_WV?$stream_output_adapter@_W@__crt_stdio_output@@V?$positional_parameter_base@_WV?$stream_output_adapter@_W@__crt_stdio_output@@@2@@__crt_stdio_output@@AAE_N_W@Z 1001ef11 f i libucrt:output.obj
 0001:0001df1a       ?state_case_normal_tchar@?$output_processor@_WV?$stream_output_adapter@_W@__crt_stdio_output@@V?$standard_base@_WV?$stream_output_adapter@_W@__crt_stdio_output@@@2@@__crt_stdio_output@@AAE_N_W@Z 1001ef1a f i libucrt:output.obj
 0001:0001df23       ?state_case_normal_tchar@?$output_processor@_WV?$string_output_adapter@_W@__crt_stdio_output@@V?$format_validation_base@_WV?$string_output_adapter@_W@__crt_stdio_output@@@2@@__crt_stdio_output@@AAE_N_W@Z 1001ef23 f i libucrt:output.obj
 0001:0001df2c       ?state_case_normal_tchar@?$output_processor@_WV?$string_output_adapter@_W@__crt_stdio_output@@V?$positional_parameter_base@_WV?$string_output_adapter@_W@__crt_stdio_output@@@2@@__crt_stdio_output@@AAE_N_W@Z 1001ef2c f i libucrt:output.obj
 0001:0001df35       ?state_case_normal_tchar@?$output_processor@_WV?$string_output_adapter@_W@__crt_stdio_output@@V?$standard_base@_WV?$string_output_adapter@_W@__crt_stdio_output@@@2@@__crt_stdio_output@@AAE_N_W@Z 1001ef35 f i libucrt:output.obj
 0001:0001df3e       ?state_case_percent@?$output_processor@DV?$stream_output_adapter@D@__crt_stdio_output@@V?$format_validation_base@DV?$stream_output_adapter@D@__crt_stdio_output@@@2@@__crt_stdio_output@@AAE_NXZ 1001ef3e f i libucrt:output.obj
 0001:0001df56       ?state_case_percent@?$output_processor@DV?$stream_output_adapter@D@__crt_stdio_output@@V?$positional_parameter_base@DV?$stream_output_adapter@D@__crt_stdio_output@@@2@@__crt_stdio_output@@AAE_NXZ 1001ef56 f i libucrt:output.obj
 0001:0001df6e       ?state_case_percent@?$output_processor@DV?$stream_output_adapter@D@__crt_stdio_output@@V?$standard_base@DV?$stream_output_adapter@D@__crt_stdio_output@@@2@@__crt_stdio_output@@AAE_NXZ 1001ef6e f i libucrt:output.obj
 0001:0001df86       ?state_case_percent@?$output_processor@DV?$string_output_adapter@D@__crt_stdio_output@@V?$format_validation_base@DV?$string_output_adapter@D@__crt_stdio_output@@@2@@__crt_stdio_output@@AAE_NXZ 1001ef86 f i libucrt:output.obj
 0001:0001df9e       ?state_case_percent@?$output_processor@DV?$string_output_adapter@D@__crt_stdio_output@@V?$positional_parameter_base@DV?$string_output_adapter@D@__crt_stdio_output@@@2@@__crt_stdio_output@@AAE_NXZ 1001ef9e f i libucrt:output.obj
 0001:0001dfb6       ?state_case_percent@?$output_processor@DV?$string_output_adapter@D@__crt_stdio_output@@V?$standard_base@DV?$string_output_adapter@D@__crt_stdio_output@@@2@@__crt_stdio_output@@AAE_NXZ 1001efb6 f i libucrt:output.obj
 0001:0001dfce       ?state_case_percent@?$output_processor@_WV?$stream_output_adapter@_W@__crt_stdio_output@@V?$format_validation_base@_WV?$stream_output_adapter@_W@__crt_stdio_output@@@2@@__crt_stdio_output@@AAE_NXZ 1001efce f i libucrt:output.obj
 0001:0001dfe6       ?state_case_percent@?$output_processor@_WV?$stream_output_adapter@_W@__crt_stdio_output@@V?$positional_parameter_base@_WV?$stream_output_adapter@_W@__crt_stdio_output@@@2@@__crt_stdio_output@@AAE_NXZ 1001efe6 f i libucrt:output.obj
 0001:0001dffe       ?state_case_percent@?$output_processor@_WV?$stream_output_adapter@_W@__crt_stdio_output@@V?$standard_base@_WV?$stream_output_adapter@_W@__crt_stdio_output@@@2@@__crt_stdio_output@@AAE_NXZ 1001effe f i libucrt:output.obj
 0001:0001e016       ?state_case_percent@?$output_processor@_WV?$string_output_adapter@_W@__crt_stdio_output@@V?$format_validation_base@_WV?$string_output_adapter@_W@__crt_stdio_output@@@2@@__crt_stdio_output@@AAE_NXZ 1001f016 f i libucrt:output.obj
 0001:0001e02e       ?state_case_percent@?$output_processor@_WV?$string_output_adapter@_W@__crt_stdio_output@@V?$positional_parameter_base@_WV?$string_output_adapter@_W@__crt_stdio_output@@@2@@__crt_stdio_output@@AAE_NXZ 1001f02e f i libucrt:output.obj
 0001:0001e046       ?state_case_percent@?$output_processor@_WV?$string_output_adapter@_W@__crt_stdio_output@@V?$standard_base@_WV?$string_output_adapter@_W@__crt_stdio_output@@@2@@__crt_stdio_output@@AAE_NXZ 1001f046 f i libucrt:output.obj
 0001:0001e05e       ?state_case_precision@?$output_processor@DV?$stream_output_adapter@D@__crt_stdio_output@@V?$format_validation_base@DV?$stream_output_adapter@D@__crt_stdio_output@@@2@@__crt_stdio_output@@AAE_NXZ 1001f05e f i libucrt:output.obj
 0001:0001e08a       ?state_case_precision@?$output_processor@DV?$stream_output_adapter@D@__crt_stdio_output@@V?$positional_parameter_base@DV?$stream_output_adapter@D@__crt_stdio_output@@@2@@__crt_stdio_output@@AAE_NXZ 1001f08a f i libucrt:output.obj
 0001:0001e0c4       ?state_case_precision@?$output_processor@DV?$stream_output_adapter@D@__crt_stdio_output@@V?$standard_base@DV?$stream_output_adapter@D@__crt_stdio_output@@@2@@__crt_stdio_output@@AAE_NXZ 1001f0c4 f i libucrt:output.obj
 0001:0001e0f0       ?state_case_precision@?$output_processor@DV?$string_output_adapter@D@__crt_stdio_output@@V?$format_validation_base@DV?$string_output_adapter@D@__crt_stdio_output@@@2@@__crt_stdio_output@@AAE_NXZ 1001f0f0 f i libucrt:output.obj
 0001:0001e11c       ?state_case_precision@?$output_processor@DV?$string_output_adapter@D@__crt_stdio_output@@V?$positional_parameter_base@DV?$string_output_adapter@D@__crt_stdio_output@@@2@@__crt_stdio_output@@AAE_NXZ 1001f11c f i libucrt:output.obj
 0001:0001e156       ?state_case_precision@?$output_processor@DV?$string_output_adapter@D@__crt_stdio_output@@V?$standard_base@DV?$string_output_adapter@D@__crt_stdio_output@@@2@@__crt_stdio_output@@AAE_NXZ 1001f156 f i libucrt:output.obj
 0001:0001e182       ?state_case_precision@?$output_processor@_WV?$stream_output_adapter@_W@__crt_stdio_output@@V?$format_validation_base@_WV?$stream_output_adapter@_W@__crt_stdio_output@@@2@@__crt_stdio_output@@AAE_NXZ 1001f182 f i libucrt:output.obj
 0001:0001e1af       ?state_case_precision@?$output_processor@_WV?$stream_output_adapter@_W@__crt_stdio_output@@V?$positional_parameter_base@_WV?$stream_output_adapter@_W@__crt_stdio_output@@@2@@__crt_stdio_output@@AAE_NXZ 1001f1af f i libucrt:output.obj
 0001:0001e1ea       ?state_case_precision@?$output_processor@_WV?$stream_output_adapter@_W@__crt_stdio_output@@V?$standard_base@_WV?$stream_output_adapter@_W@__crt_stdio_output@@@2@@__crt_stdio_output@@AAE_NXZ 1001f1ea f i libucrt:output.obj
 0001:0001e217       ?state_case_precision@?$output_processor@_WV?$string_output_adapter@_W@__crt_stdio_output@@V?$format_validation_base@_WV?$string_output_adapter@_W@__crt_stdio_output@@@2@@__crt_stdio_output@@AAE_NXZ 1001f217 f i libucrt:output.obj
 0001:0001e244       ?state_case_precision@?$output_processor@_WV?$string_output_adapter@_W@__crt_stdio_output@@V?$positional_parameter_base@_WV?$string_output_adapter@_W@__crt_stdio_output@@@2@@__crt_stdio_output@@AAE_NXZ 1001f244 f i libucrt:output.obj
 0001:0001e27f       ?state_case_precision@?$output_processor@_WV?$string_output_adapter@_W@__crt_stdio_output@@V?$standard_base@_WV?$string_output_adapter@_W@__crt_stdio_output@@@2@@__crt_stdio_output@@AAE_NXZ 1001f27f f i libucrt:output.obj
 0001:0001e2ac       ?state_case_size@?$output_processor@DV?$stream_output_adapter@D@__crt_stdio_output@@V?$format_validation_base@DV?$stream_output_adapter@D@__crt_stdio_output@@@2@@__crt_stdio_output@@AAE_NXZ 1001f2ac f i libucrt:output.obj
 0001:0001e405       ?state_case_size@?$output_processor@DV?$stream_output_adapter@D@__crt_stdio_output@@V?$positional_parameter_base@DV?$stream_output_adapter@D@__crt_stdio_output@@@2@@__crt_stdio_output@@AAE_NXZ 1001f405 f i libucrt:output.obj
 0001:0001e55e       ?state_case_size@?$output_processor@DV?$stream_output_adapter@D@__crt_stdio_output@@V?$standard_base@DV?$stream_output_adapter@D@__crt_stdio_output@@@2@@__crt_stdio_output@@AAE_NXZ 1001f55e f i libucrt:output.obj
 0001:0001e6b7       ?state_case_size@?$output_processor@DV?$string_output_adapter@D@__crt_stdio_output@@V?$format_validation_base@DV?$string_output_adapter@D@__crt_stdio_output@@@2@@__crt_stdio_output@@AAE_NXZ 1001f6b7 f i libucrt:output.obj
 0001:0001e810       ?state_case_size@?$output_processor@DV?$string_output_adapter@D@__crt_stdio_output@@V?$positional_parameter_base@DV?$string_output_adapter@D@__crt_stdio_output@@@2@@__crt_stdio_output@@AAE_NXZ 1001f810 f i libucrt:output.obj
 0001:0001e969       ?state_case_size@?$output_processor@DV?$string_output_adapter@D@__crt_stdio_output@@V?$standard_base@DV?$string_output_adapter@D@__crt_stdio_output@@@2@@__crt_stdio_output@@AAE_NXZ 1001f969 f i libucrt:output.obj
 0001:0001eac2       ?state_case_size@?$output_processor@_WV?$stream_output_adapter@_W@__crt_stdio_output@@V?$format_validation_base@_WV?$stream_output_adapter@_W@__crt_stdio_output@@@2@@__crt_stdio_output@@AAE_NXZ 1001fac2 f i libucrt:output.obj
 0001:0001ec4c       ?state_case_size@?$output_processor@_WV?$stream_output_adapter@_W@__crt_stdio_output@@V?$positional_parameter_base@_WV?$stream_output_adapter@_W@__crt_stdio_output@@@2@@__crt_stdio_output@@AAE_NXZ 1001fc4c f i libucrt:output.obj
 0001:0001edd6       ?state_case_size@?$output_processor@_WV?$stream_output_adapter@_W@__crt_stdio_output@@V?$standard_base@_WV?$stream_output_adapter@_W@__crt_stdio_output@@@2@@__crt_stdio_output@@AAE_NXZ 1001fdd6 f i libucrt:output.obj
 0001:0001ef60       ?state_case_size@?$output_processor@_WV?$string_output_adapter@_W@__crt_stdio_output@@V?$format_validation_base@_WV?$string_output_adapter@_W@__crt_stdio_output@@@2@@__crt_stdio_output@@AAE_NXZ 1001ff60 f i libucrt:output.obj
 0001:0001f0ea       ?state_case_size@?$output_processor@_WV?$string_output_adapter@_W@__crt_stdio_output@@V?$positional_parameter_base@_WV?$string_output_adapter@_W@__crt_stdio_output@@@2@@__crt_stdio_output@@AAE_NXZ 100200ea f i libucrt:output.obj
 0001:0001f274       ?state_case_size@?$output_processor@_WV?$string_output_adapter@_W@__crt_stdio_output@@V?$standard_base@_WV?$string_output_adapter@_W@__crt_stdio_output@@@2@@__crt_stdio_output@@AAE_NXZ 10020274 f i libucrt:output.obj
 0001:0001f3fe       ?state_case_type@?$output_processor@DV?$stream_output_adapter@D@__crt_stdio_output@@V?$format_validation_base@DV?$stream_output_adapter@D@__crt_stdio_output@@@2@@__crt_stdio_output@@AAE_NXZ 100203fe f i libucrt:output.obj
 0001:0001f740       ?state_case_type@?$output_processor@DV?$stream_output_adapter@D@__crt_stdio_output@@V?$positional_parameter_base@DV?$stream_output_adapter@D@__crt_stdio_output@@@2@@__crt_stdio_output@@AAE_NXZ 10020740 f i libucrt:output.obj
 0001:0001fa91       ?state_case_type@?$output_processor@DV?$stream_output_adapter@D@__crt_stdio_output@@V?$standard_base@DV?$stream_output_adapter@D@__crt_stdio_output@@@2@@__crt_stdio_output@@AAE_NXZ 10020a91 f i libucrt:output.obj
 0001:0001fdd3       ?state_case_type@?$output_processor@DV?$string_output_adapter@D@__crt_stdio_output@@V?$format_validation_base@DV?$string_output_adapter@D@__crt_stdio_output@@@2@@__crt_stdio_output@@AAE_NXZ 10020dd3 f i libucrt:output.obj
 0001:00020132       ?state_case_type@?$output_processor@DV?$string_output_adapter@D@__crt_stdio_output@@V?$positional_parameter_base@DV?$string_output_adapter@D@__crt_stdio_output@@@2@@__crt_stdio_output@@AAE_NXZ 10021132 f i libucrt:output.obj
 0001:000204a0       ?state_case_type@?$output_processor@DV?$string_output_adapter@D@__crt_stdio_output@@V?$standard_base@DV?$string_output_adapter@D@__crt_stdio_output@@@2@@__crt_stdio_output@@AAE_NXZ 100214a0 f i libucrt:output.obj
 0001:000207ff       ?state_case_type@?$output_processor@_WV?$stream_output_adapter@_W@__crt_stdio_output@@V?$format_validation_base@_WV?$stream_output_adapter@_W@__crt_stdio_output@@@2@@__crt_stdio_output@@AAE_NXZ 100217ff f i libucrt:output.obj
 0001:00020b5d       ?state_case_type@?$output_processor@_WV?$stream_output_adapter@_W@__crt_stdio_output@@V?$positional_parameter_base@_WV?$stream_output_adapter@_W@__crt_stdio_output@@@2@@__crt_stdio_output@@AAE_NXZ 10021b5d f i libucrt:output.obj
 0001:00020eca       ?state_case_type@?$output_processor@_WV?$stream_output_adapter@_W@__crt_stdio_output@@V?$standard_base@_WV?$stream_output_adapter@_W@__crt_stdio_output@@@2@@__crt_stdio_output@@AAE_NXZ 10021eca f i libucrt:output.obj
 0001:00021228       ?state_case_type@?$output_processor@_WV?$string_output_adapter@_W@__crt_stdio_output@@V?$format_validation_base@_WV?$string_output_adapter@_W@__crt_stdio_output@@@2@@__crt_stdio_output@@AAE_NXZ 10022228 f i libucrt:output.obj
 0001:0002161c       ?state_case_type@?$output_processor@_WV?$string_output_adapter@_W@__crt_stdio_output@@V?$positional_parameter_base@_WV?$string_output_adapter@_W@__crt_stdio_output@@@2@@__crt_stdio_output@@AAE_NXZ 1002261c f i libucrt:output.obj
 0001:00021a1f       ?state_case_type@?$output_processor@_WV?$string_output_adapter@_W@__crt_stdio_output@@V?$standard_base@_WV?$string_output_adapter@_W@__crt_stdio_output@@@2@@__crt_stdio_output@@AAE_NXZ 10022a1f f i libucrt:output.obj
 0001:00021e13       ?state_case_width@?$output_processor@DV?$stream_output_adapter@D@__crt_stdio_output@@V?$format_validation_base@DV?$stream_output_adapter@D@__crt_stdio_output@@@2@@__crt_stdio_output@@AAE_NXZ 10022e13 f i libucrt:output.obj
 0001:00021e44       ?state_case_width@?$output_processor@DV?$stream_output_adapter@D@__crt_stdio_output@@V?$positional_parameter_base@DV?$stream_output_adapter@D@__crt_stdio_output@@@2@@__crt_stdio_output@@AAE_NXZ 10022e44 f i libucrt:output.obj
 0001:00021e84       ?state_case_width@?$output_processor@DV?$stream_output_adapter@D@__crt_stdio_output@@V?$standard_base@DV?$stream_output_adapter@D@__crt_stdio_output@@@2@@__crt_stdio_output@@AAE_NXZ 10022e84 f i libucrt:output.obj
 0001:00021eb5       ?state_case_width@?$output_processor@DV?$string_output_adapter@D@__crt_stdio_output@@V?$format_validation_base@DV?$string_output_adapter@D@__crt_stdio_output@@@2@@__crt_stdio_output@@AAE_NXZ 10022eb5 f i libucrt:output.obj
 0001:00021ee6       ?state_case_width@?$output_processor@DV?$string_output_adapter@D@__crt_stdio_output@@V?$positional_parameter_base@DV?$string_output_adapter@D@__crt_stdio_output@@@2@@__crt_stdio_output@@AAE_NXZ 10022ee6 f i libucrt:output.obj
 0001:00021f26       ?state_case_width@?$output_processor@DV?$string_output_adapter@D@__crt_stdio_output@@V?$standard_base@DV?$string_output_adapter@D@__crt_stdio_output@@@2@@__crt_stdio_output@@AAE_NXZ 10022f26 f i libucrt:output.obj
 0001:00021f57       ?state_case_width@?$output_processor@_WV?$stream_output_adapter@_W@__crt_stdio_output@@V?$format_validation_base@_WV?$stream_output_adapter@_W@__crt_stdio_output@@@2@@__crt_stdio_output@@AAE_NXZ 10022f57 f i libucrt:output.obj
 0001:00021f89       ?state_case_width@?$output_processor@_WV?$stream_output_adapter@_W@__crt_stdio_output@@V?$positional_parameter_base@_WV?$stream_output_adapter@_W@__crt_stdio_output@@@2@@__crt_stdio_output@@AAE_NXZ 10022f89 f i libucrt:output.obj
 0001:00021fca       ?state_case_width@?$output_processor@_WV?$stream_output_adapter@_W@__crt_stdio_output@@V?$standard_base@_WV?$stream_output_adapter@_W@__crt_stdio_output@@@2@@__crt_stdio_output@@AAE_NXZ 10022fca f i libucrt:output.obj
 0001:00021ffc       ?state_case_width@?$output_processor@_WV?$string_output_adapter@_W@__crt_stdio_output@@V?$format_validation_base@_WV?$string_output_adapter@_W@__crt_stdio_output@@@2@@__crt_stdio_output@@AAE_NXZ 10022ffc f i libucrt:output.obj
 0001:0002202e       ?state_case_width@?$output_processor@_WV?$string_output_adapter@_W@__crt_stdio_output@@V?$positional_parameter_base@_WV?$string_output_adapter@_W@__crt_stdio_output@@@2@@__crt_stdio_output@@AAE_NXZ 1002302e f i libucrt:output.obj
 0001:0002206f       ?state_case_width@?$output_processor@_WV?$string_output_adapter@_W@__crt_stdio_output@@V?$standard_base@_WV?$string_output_adapter@_W@__crt_stdio_output@@@2@@__crt_stdio_output@@AAE_NXZ 1002306f f i libucrt:output.obj
 0001:000220a1       ?state_count@?$format_validation_base@DV?$stream_output_adapter@D@__crt_stdio_output@@@__crt_stdio_output@@KAIXZ 100230a1 f i libucrt:output.obj
 0001:000220a5       ?state_count@?$format_validation_base@DV?$string_output_adapter@D@__crt_stdio_output@@@__crt_stdio_output@@KAIXZ 100230a5 f i libucrt:output.obj
 0001:000220a9       ?state_count@?$format_validation_base@_WV?$stream_output_adapter@_W@__crt_stdio_output@@@__crt_stdio_output@@KAIXZ 100230a9 f i libucrt:output.obj
 0001:000220ad       ?state_count@?$format_validation_base@_WV?$string_output_adapter@_W@__crt_stdio_output@@@__crt_stdio_output@@KAIXZ 100230ad f i libucrt:output.obj
 0001:000220b1       ?state_count@?$standard_base@DV?$stream_output_adapter@D@__crt_stdio_output@@@__crt_stdio_output@@KAIXZ 100230b1 f i libucrt:output.obj
 0001:000220b5       ?state_count@?$standard_base@DV?$string_output_adapter@D@__crt_stdio_output@@@__crt_stdio_output@@KAIXZ 100230b5 f i libucrt:output.obj
 0001:000220b9       ?state_count@?$standard_base@_WV?$stream_output_adapter@_W@__crt_stdio_output@@@__crt_stdio_output@@KAIXZ 100230b9 f i libucrt:output.obj
 0001:000220bd       ?state_count@?$standard_base@_WV?$string_output_adapter@_W@__crt_stdio_output@@@__crt_stdio_output@@KAIXZ 100230bd f i libucrt:output.obj
 0001:000220c1       ?state_transition_table@?$format_validation_base@DV?$stream_output_adapter@D@__crt_stdio_output@@@__crt_stdio_output@@KAABV?$spectre_mitigated_lookup_table@Ustate_transition_pair@__crt_stdio_output@@$0IA@@2@XZ 100230c1 f i libucrt:output.obj
 0001:000220c7       ?state_transition_table@?$format_validation_base@DV?$string_output_adapter@D@__crt_stdio_output@@@__crt_stdio_output@@KAABV?$spectre_mitigated_lookup_table@Ustate_transition_pair@__crt_stdio_output@@$0IA@@2@XZ 100230c7 f i libucrt:output.obj
 0001:000220cd       ?state_transition_table@?$format_validation_base@_WV?$stream_output_adapter@_W@__crt_stdio_output@@@__crt_stdio_output@@KAABV?$spectre_mitigated_lookup_table@Ustate_transition_pair@__crt_stdio_output@@$0IA@@2@XZ 100230cd f i libucrt:output.obj
 0001:000220d3       ?state_transition_table@?$format_validation_base@_WV?$string_output_adapter@_W@__crt_stdio_output@@@__crt_stdio_output@@KAABV?$spectre_mitigated_lookup_table@Ustate_transition_pair@__crt_stdio_output@@$0IA@@2@XZ 100230d3 f i libucrt:output.obj
 0001:000220d9       ?state_transition_table@?$standard_base@DV?$stream_output_adapter@D@__crt_stdio_output@@@__crt_stdio_output@@KAABV?$spectre_mitigated_lookup_table@Ustate_transition_pair@__crt_stdio_output@@$0IA@@2@XZ 100230d9 f i libucrt:output.obj
 0001:000220df       ?state_transition_table@?$standard_base@DV?$string_output_adapter@D@__crt_stdio_output@@@__crt_stdio_output@@KAABV?$spectre_mitigated_lookup_table@Ustate_transition_pair@__crt_stdio_output@@$0IA@@2@XZ 100230df f i libucrt:output.obj
 0001:000220e5       ?state_transition_table@?$standard_base@_WV?$stream_output_adapter@_W@__crt_stdio_output@@@__crt_stdio_output@@KAABV?$spectre_mitigated_lookup_table@Ustate_transition_pair@__crt_stdio_output@@$0IA@@2@XZ 100230e5 f i libucrt:output.obj
 0001:000220eb       ?state_transition_table@?$standard_base@_WV?$string_output_adapter@_W@__crt_stdio_output@@@__crt_stdio_output@@KAABV?$spectre_mitigated_lookup_table@Ustate_transition_pair@__crt_stdio_output@@$0IA@@2@XZ 100230eb f i libucrt:output.obj
 0001:000220f1       ?tchar_string@?$common_data@D@__crt_stdio_output@@IAEAAPADD@Z 100230f1 f i libucrt:output.obj
 0001:000220f7       ?tchar_string@?$common_data@D@__crt_stdio_output@@IAEAAPADXZ 100230f7 f i libucrt:output.obj
 0001:000220fb       ?tchar_string@?$common_data@_W@__crt_stdio_output@@IAEAAPA_WXZ 100230fb f i libucrt:output.obj
 0001:000220ff       ?tchar_string@?$common_data@_W@__crt_stdio_output@@IAEAAPA_W_W@Z 100230ff f i libucrt:output.obj
 0001:00022105       ?to_integer_size@__crt_stdio_output@@YAIW4length_modifier@1@@Z 10023105 f i libucrt:output.obj
 0001:00022159       ?type_case_X@?$output_processor@DV?$stream_output_adapter@D@__crt_stdio_output@@V?$format_validation_base@DV?$stream_output_adapter@D@__crt_stdio_output@@@2@@__crt_stdio_output@@AAE_NXZ 10023159 f i libucrt:output.obj
 0001:00022161       ?type_case_X@?$output_processor@DV?$stream_output_adapter@D@__crt_stdio_output@@V?$positional_parameter_base@DV?$stream_output_adapter@D@__crt_stdio_output@@@2@@__crt_stdio_output@@AAE_NXZ 10023161 f i libucrt:output.obj
 0001:00022169       ?type_case_X@?$output_processor@DV?$stream_output_adapter@D@__crt_stdio_output@@V?$standard_base@DV?$stream_output_adapter@D@__crt_stdio_output@@@2@@__crt_stdio_output@@AAE_NXZ 10023169 f i libucrt:output.obj
 0001:00022171       ?type_case_X@?$output_processor@DV?$string_output_adapter@D@__crt_stdio_output@@V?$format_validation_base@DV?$string_output_adapter@D@__crt_stdio_output@@@2@@__crt_stdio_output@@AAE_NXZ 10023171 f i libucrt:output.obj
 0001:00022179       ?type_case_X@?$output_processor@DV?$string_output_adapter@D@__crt_stdio_output@@V?$positional_parameter_base@DV?$string_output_adapter@D@__crt_stdio_output@@@2@@__crt_stdio_output@@AAE_NXZ 10023179 f i libucrt:output.obj
 0001:00022181       ?type_case_X@?$output_processor@DV?$string_output_adapter@D@__crt_stdio_output@@V?$standard_base@DV?$string_output_adapter@D@__crt_stdio_output@@@2@@__crt_stdio_output@@AAE_NXZ 10023181 f i libucrt:output.obj
 0001:00022189       ?type_case_X@?$output_processor@_WV?$stream_output_adapter@_W@__crt_stdio_output@@V?$format_validation_base@_WV?$stream_output_adapter@_W@__crt_stdio_output@@@2@@__crt_stdio_output@@AAE_NXZ 10023189 f i libucrt:output.obj
 0001:00022191       ?type_case_X@?$output_processor@_WV?$stream_output_adapter@_W@__crt_stdio_output@@V?$positional_parameter_base@_WV?$stream_output_adapter@_W@__crt_stdio_output@@@2@@__crt_stdio_output@@AAE_NXZ 10023191 f i libucrt:output.obj
 0001:00022199       ?type_case_X@?$output_processor@_WV?$stream_output_adapter@_W@__crt_stdio_output@@V?$standard_base@_WV?$stream_output_adapter@_W@__crt_stdio_output@@@2@@__crt_stdio_output@@AAE_NXZ 10023199 f i libucrt:output.obj
 0001:000221a1       ?type_case_X@?$output_processor@_WV?$string_output_adapter@_W@__crt_stdio_output@@V?$format_validation_base@_WV?$string_output_adapter@_W@__crt_stdio_output@@@2@@__crt_stdio_output@@AAE_NXZ 100231a1 f i libucrt:output.obj
 0001:000221a9       ?type_case_X@?$output_processor@_WV?$string_output_adapter@_W@__crt_stdio_output@@V?$positional_parameter_base@_WV?$string_output_adapter@_W@__crt_stdio_output@@@2@@__crt_stdio_output@@AAE_NXZ 100231a9 f i libucrt:output.obj
 0001:000221b1       ?type_case_X@?$output_processor@_WV?$string_output_adapter@_W@__crt_stdio_output@@V?$standard_base@_WV?$string_output_adapter@_W@__crt_stdio_output@@@2@@__crt_stdio_output@@AAE_NXZ 100231b1 f i libucrt:output.obj
 0001:000221b9       ?type_case_Z@?$output_processor@DV?$stream_output_adapter@D@__crt_stdio_output@@V?$format_validation_base@DV?$stream_output_adapter@D@__crt_stdio_output@@@2@@__crt_stdio_output@@AAE_NXZ 100231b9 f i libucrt:output.obj
 0001:0002221c       ?type_case_Z@?$output_processor@DV?$stream_output_adapter@D@__crt_stdio_output@@V?$positional_parameter_base@DV?$stream_output_adapter@D@__crt_stdio_output@@@2@@__crt_stdio_output@@AAE_NXZ 1002321c f i libucrt:output.obj
 0001:00022296       ?type_case_Z@?$output_processor@DV?$stream_output_adapter@D@__crt_stdio_output@@V?$standard_base@DV?$stream_output_adapter@D@__crt_stdio_output@@@2@@__crt_stdio_output@@AAE_NXZ 10023296 f i libucrt:output.obj
 0001:000222f9       ?type_case_Z@?$output_processor@DV?$string_output_adapter@D@__crt_stdio_output@@V?$format_validation_base@DV?$string_output_adapter@D@__crt_stdio_output@@@2@@__crt_stdio_output@@AAE_NXZ 100232f9 f i libucrt:output.obj
 0001:0002235c       ?type_case_Z@?$output_processor@DV?$string_output_adapter@D@__crt_stdio_output@@V?$positional_parameter_base@DV?$string_output_adapter@D@__crt_stdio_output@@@2@@__crt_stdio_output@@AAE_NXZ 1002335c f i libucrt:output.obj
 0001:000223d6       ?type_case_Z@?$output_processor@DV?$string_output_adapter@D@__crt_stdio_output@@V?$standard_base@DV?$string_output_adapter@D@__crt_stdio_output@@@2@@__crt_stdio_output@@AAE_NXZ 100233d6 f i libucrt:output.obj
 0001:00022439       ?type_case_Z@?$output_processor@_WV?$stream_output_adapter@_W@__crt_stdio_output@@V?$format_validation_base@_WV?$stream_output_adapter@_W@__crt_stdio_output@@@2@@__crt_stdio_output@@AAE_NXZ 10023439 f i libucrt:output.obj
 0001:0002249c       ?type_case_Z@?$output_processor@_WV?$stream_output_adapter@_W@__crt_stdio_output@@V?$positional_parameter_base@_WV?$stream_output_adapter@_W@__crt_stdio_output@@@2@@__crt_stdio_output@@AAE_NXZ 1002349c f i libucrt:output.obj
 0001:00022516       ?type_case_Z@?$output_processor@_WV?$stream_output_adapter@_W@__crt_stdio_output@@V?$standard_base@_WV?$stream_output_adapter@_W@__crt_stdio_output@@@2@@__crt_stdio_output@@AAE_NXZ 10023516 f i libucrt:output.obj
 0001:00022579       ?type_case_Z@?$output_processor@_WV?$string_output_adapter@_W@__crt_stdio_output@@V?$format_validation_base@_WV?$string_output_adapter@_W@__crt_stdio_output@@@2@@__crt_stdio_output@@AAE_NXZ 10023579 f i libucrt:output.obj
 0001:000225dc       ?type_case_Z@?$output_processor@_WV?$string_output_adapter@_W@__crt_stdio_output@@V?$positional_parameter_base@_WV?$string_output_adapter@_W@__crt_stdio_output@@@2@@__crt_stdio_output@@AAE_NXZ 100235dc f i libucrt:output.obj
 0001:00022656       ?type_case_Z@?$output_processor@_WV?$string_output_adapter@_W@__crt_stdio_output@@V?$standard_base@_WV?$string_output_adapter@_W@__crt_stdio_output@@@2@@__crt_stdio_output@@AAE_NXZ 10023656 f i libucrt:output.obj
 0001:000226b9       ?type_case_a@?$output_processor@DV?$stream_output_adapter@D@__crt_stdio_output@@V?$format_validation_base@DV?$stream_output_adapter@D@__crt_stdio_output@@@2@@__crt_stdio_output@@AAE_NXZ 100236b9 f i libucrt:output.obj
 0001:0002284a       ?type_case_a@?$output_processor@DV?$stream_output_adapter@D@__crt_stdio_output@@V?$positional_parameter_base@DV?$stream_output_adapter@D@__crt_stdio_output@@@2@@__crt_stdio_output@@AAE_NXZ 1002384a f i libucrt:output.obj
 0001:000229f8       ?type_case_a@?$output_processor@DV?$stream_output_adapter@D@__crt_stdio_output@@V?$standard_base@DV?$stream_output_adapter@D@__crt_stdio_output@@@2@@__crt_stdio_output@@AAE_NXZ 100239f8 f i libucrt:output.obj
 0001:00022b89       ?type_case_a@?$output_processor@DV?$string_output_adapter@D@__crt_stdio_output@@V?$format_validation_base@DV?$string_output_adapter@D@__crt_stdio_output@@@2@@__crt_stdio_output@@AAE_NXZ 10023b89 f i libucrt:output.obj
 0001:00022d1a       ?type_case_a@?$output_processor@DV?$string_output_adapter@D@__crt_stdio_output@@V?$positional_parameter_base@DV?$string_output_adapter@D@__crt_stdio_output@@@2@@__crt_stdio_output@@AAE_NXZ 10023d1a f i libucrt:output.obj
 0001:00022ec8       ?type_case_a@?$output_processor@DV?$string_output_adapter@D@__crt_stdio_output@@V?$standard_base@DV?$string_output_adapter@D@__crt_stdio_output@@@2@@__crt_stdio_output@@AAE_NXZ 10023ec8 f i libucrt:output.obj
 0001:00023059       ?type_case_a@?$output_processor@_WV?$stream_output_adapter@_W@__crt_stdio_output@@V?$format_validation_base@_WV?$stream_output_adapter@_W@__crt_stdio_output@@@2@@__crt_stdio_output@@AAE_NXZ 10024059 f i libucrt:output.obj
 0001:00023200       ?type_case_a@?$output_processor@_WV?$stream_output_adapter@_W@__crt_stdio_output@@V?$positional_parameter_base@_WV?$stream_output_adapter@_W@__crt_stdio_output@@@2@@__crt_stdio_output@@AAE_NXZ 10024200 f i libucrt:output.obj
 0001:000233c4       ?type_case_a@?$output_processor@_WV?$stream_output_adapter@_W@__crt_stdio_output@@V?$standard_base@_WV?$stream_output_adapter@_W@__crt_stdio_output@@@2@@__crt_stdio_output@@AAE_NXZ 100243c4 f i libucrt:output.obj
 0001:0002356b       ?type_case_a@?$output_processor@_WV?$string_output_adapter@_W@__crt_stdio_output@@V?$format_validation_base@_WV?$string_output_adapter@_W@__crt_stdio_output@@@2@@__crt_stdio_output@@AAE_NXZ 1002456b f i libucrt:output.obj
 0001:00023712       ?type_case_a@?$output_processor@_WV?$string_output_adapter@_W@__crt_stdio_output@@V?$positional_parameter_base@_WV?$string_output_adapter@_W@__crt_stdio_output@@@2@@__crt_stdio_output@@AAE_NXZ 10024712 f i libucrt:output.obj
 0001:000238d6       ?type_case_a@?$output_processor@_WV?$string_output_adapter@_W@__crt_stdio_output@@V?$standard_base@_WV?$string_output_adapter@_W@__crt_stdio_output@@@2@@__crt_stdio_output@@AAE_NXZ 100248d6 f i libucrt:output.obj
 0001:00023a7d       ?type_case_c@?$output_processor@DV?$stream_output_adapter@D@__crt_stdio_output@@V?$format_validation_base@DV?$stream_output_adapter@D@__crt_stdio_output@@@2@@__crt_stdio_output@@AAE_NXZ 10024a7d f i libucrt:output.obj
 0001:00023a85       ?type_case_c@?$output_processor@DV?$stream_output_adapter@D@__crt_stdio_output@@V?$positional_parameter_base@DV?$stream_output_adapter@D@__crt_stdio_output@@@2@@__crt_stdio_output@@AAE_NXZ 10024a85 f i libucrt:output.obj
 0001:00023a8d       ?type_case_c@?$output_processor@DV?$stream_output_adapter@D@__crt_stdio_output@@V?$standard_base@DV?$stream_output_adapter@D@__crt_stdio_output@@@2@@__crt_stdio_output@@AAE_NXZ 10024a8d f i libucrt:output.obj
 0001:00023a95       ?type_case_c@?$output_processor@DV?$string_output_adapter@D@__crt_stdio_output@@V?$format_validation_base@DV?$string_output_adapter@D@__crt_stdio_output@@@2@@__crt_stdio_output@@AAE_NXZ 10024a95 f i libucrt:output.obj
 0001:00023a9d       ?type_case_c@?$output_processor@DV?$string_output_adapter@D@__crt_stdio_output@@V?$positional_parameter_base@DV?$string_output_adapter@D@__crt_stdio_output@@@2@@__crt_stdio_output@@AAE_NXZ 10024a9d f i libucrt:output.obj
 0001:00023aa5       ?type_case_c@?$output_processor@DV?$string_output_adapter@D@__crt_stdio_output@@V?$standard_base@DV?$string_output_adapter@D@__crt_stdio_output@@@2@@__crt_stdio_output@@AAE_NXZ 10024aa5 f i libucrt:output.obj
 0001:00023aad       ?type_case_c@?$output_processor@_WV?$stream_output_adapter@_W@__crt_stdio_output@@V?$format_validation_base@_WV?$stream_output_adapter@_W@__crt_stdio_output@@@2@@__crt_stdio_output@@AAE_NXZ 10024aad f i libucrt:output.obj
 0001:00023ab5       ?type_case_c@?$output_processor@_WV?$stream_output_adapter@_W@__crt_stdio_output@@V?$positional_parameter_base@_WV?$stream_output_adapter@_W@__crt_stdio_output@@@2@@__crt_stdio_output@@AAE_NXZ 10024ab5 f i libucrt:output.obj
 0001:00023abd       ?type_case_c@?$output_processor@_WV?$stream_output_adapter@_W@__crt_stdio_output@@V?$standard_base@_WV?$stream_output_adapter@_W@__crt_stdio_output@@@2@@__crt_stdio_output@@AAE_NXZ 10024abd f i libucrt:output.obj
 0001:00023ac5       ?type_case_c@?$output_processor@_WV?$string_output_adapter@_W@__crt_stdio_output@@V?$format_validation_base@_WV?$string_output_adapter@_W@__crt_stdio_output@@@2@@__crt_stdio_output@@AAE_NXZ 10024ac5 f i libucrt:output.obj
 0001:00023acd       ?type_case_c@?$output_processor@_WV?$string_output_adapter@_W@__crt_stdio_output@@V?$positional_parameter_base@_WV?$string_output_adapter@_W@__crt_stdio_output@@@2@@__crt_stdio_output@@AAE_NXZ 10024acd f i libucrt:output.obj
 0001:00023ad5       ?type_case_c@?$output_processor@_WV?$string_output_adapter@_W@__crt_stdio_output@@V?$standard_base@_WV?$string_output_adapter@_W@__crt_stdio_output@@@2@@__crt_stdio_output@@AAE_NXZ 10024ad5 f i libucrt:output.obj
 0001:00023add       ?type_case_c_tchar@?$output_processor@DV?$stream_output_adapter@D@__crt_stdio_output@@V?$format_validation_base@DV?$stream_output_adapter@D@__crt_stdio_output@@@2@@__crt_stdio_output@@AAE_ND@Z 10024add f i libucrt:output.obj
 0001:00023b72       ?type_case_c_tchar@?$output_processor@DV?$stream_output_adapter@D@__crt_stdio_output@@V?$positional_parameter_base@DV?$stream_output_adapter@D@__crt_stdio_output@@@2@@__crt_stdio_output@@AAE_ND@Z 10024b72 f i libucrt:output.obj
 0001:00023c31       ?type_case_c_tchar@?$output_processor@DV?$stream_output_adapter@D@__crt_stdio_output@@V?$standard_base@DV?$stream_output_adapter@D@__crt_stdio_output@@@2@@__crt_stdio_output@@AAE_ND@Z 10024c31 f i libucrt:output.obj
 0001:00023cc6       ?type_case_c_tchar@?$output_processor@DV?$string_output_adapter@D@__crt_stdio_output@@V?$format_validation_base@DV?$string_output_adapter@D@__crt_stdio_output@@@2@@__crt_stdio_output@@AAE_ND@Z 10024cc6 f i libucrt:output.obj
 0001:00023d5b       ?type_case_c_tchar@?$output_processor@DV?$string_output_adapter@D@__crt_stdio_output@@V?$positional_parameter_base@DV?$string_output_adapter@D@__crt_stdio_output@@@2@@__crt_stdio_output@@AAE_ND@Z 10024d5b f i libucrt:output.obj
 0001:00023e1a       ?type_case_c_tchar@?$output_processor@DV?$string_output_adapter@D@__crt_stdio_output@@V?$standard_base@DV?$string_output_adapter@D@__crt_stdio_output@@@2@@__crt_stdio_output@@AAE_ND@Z 10024e1a f i libucrt:output.obj
 0001:00023eaf       ?type_case_c_tchar@?$output_processor@_WV?$stream_output_adapter@_W@__crt_stdio_output@@V?$format_validation_base@_WV?$stream_output_adapter@_W@__crt_stdio_output@@@2@@__crt_stdio_output@@AAE_N_W@Z 10024eaf f i libucrt:output.obj
 0001:00023f57       ?type_case_c_tchar@?$output_processor@_WV?$stream_output_adapter@_W@__crt_stdio_output@@V?$positional_parameter_base@_WV?$stream_output_adapter@_W@__crt_stdio_output@@@2@@__crt_stdio_output@@AAE_N_W@Z 10024f57 f i libucrt:output.obj
 0001:00024022       ?type_case_c_tchar@?$output_processor@_WV?$stream_output_adapter@_W@__crt_stdio_output@@V?$standard_base@_WV?$stream_output_adapter@_W@__crt_stdio_output@@@2@@__crt_stdio_output@@AAE_N_W@Z 10025022 f i libucrt:output.obj
 0001:000240ca       ?type_case_c_tchar@?$output_processor@_WV?$string_output_adapter@_W@__crt_stdio_output@@V?$format_validation_base@_WV?$string_output_adapter@_W@__crt_stdio_output@@@2@@__crt_stdio_output@@AAE_N_W@Z 100250ca f i libucrt:output.obj
 0001:00024172       ?type_case_c_tchar@?$output_processor@_WV?$string_output_adapter@_W@__crt_stdio_output@@V?$positional_parameter_base@_WV?$string_output_adapter@_W@__crt_stdio_output@@@2@@__crt_stdio_output@@AAE_N_W@Z 10025172 f i libucrt:output.obj
 0001:0002423d       ?type_case_c_tchar@?$output_processor@_WV?$string_output_adapter@_W@__crt_stdio_output@@V?$standard_base@_WV?$string_output_adapter@_W@__crt_stdio_output@@@2@@__crt_stdio_output@@AAE_N_W@Z 1002523d f i libucrt:output.obj
 0001:000242e5       ?type_case_d@?$output_processor@DV?$stream_output_adapter@D@__crt_stdio_output@@V?$format_validation_base@DV?$stream_output_adapter@D@__crt_stdio_output@@@2@@__crt_stdio_output@@AAE_NXZ 100252e5 f i libucrt:output.obj
 0001:000242f1       ?type_case_d@?$output_processor@DV?$stream_output_adapter@D@__crt_stdio_output@@V?$positional_parameter_base@DV?$stream_output_adapter@D@__crt_stdio_output@@@2@@__crt_stdio_output@@AAE_NXZ 100252f1 f i libucrt:output.obj
 0001:000242fd       ?type_case_d@?$output_processor@DV?$stream_output_adapter@D@__crt_stdio_output@@V?$standard_base@DV?$stream_output_adapter@D@__crt_stdio_output@@@2@@__crt_stdio_output@@AAE_NXZ 100252fd f i libucrt:output.obj
 0001:00024309       ?type_case_d@?$output_processor@DV?$string_output_adapter@D@__crt_stdio_output@@V?$format_validation_base@DV?$string_output_adapter@D@__crt_stdio_output@@@2@@__crt_stdio_output@@AAE_NXZ 10025309 f i libucrt:output.obj
 0001:00024315       ?type_case_d@?$output_processor@DV?$string_output_adapter@D@__crt_stdio_output@@V?$positional_parameter_base@DV?$string_output_adapter@D@__crt_stdio_output@@@2@@__crt_stdio_output@@AAE_NXZ 10025315 f i libucrt:output.obj
 0001:00024321       ?type_case_d@?$output_processor@DV?$string_output_adapter@D@__crt_stdio_output@@V?$standard_base@DV?$string_output_adapter@D@__crt_stdio_output@@@2@@__crt_stdio_output@@AAE_NXZ 10025321 f i libucrt:output.obj
 0001:0002432d       ?type_case_d@?$output_processor@_WV?$stream_output_adapter@_W@__crt_stdio_output@@V?$format_validation_base@_WV?$stream_output_adapter@_W@__crt_stdio_output@@@2@@__crt_stdio_output@@AAE_NXZ 1002532d f i libucrt:output.obj
 0001:00024339       ?type_case_d@?$output_processor@_WV?$stream_output_adapter@_W@__crt_stdio_output@@V?$positional_parameter_base@_WV?$stream_output_adapter@_W@__crt_stdio_output@@@2@@__crt_stdio_output@@AAE_NXZ 10025339 f i libucrt:output.obj
 0001:00024345       ?type_case_d@?$output_processor@_WV?$stream_output_adapter@_W@__crt_stdio_output@@V?$standard_base@_WV?$stream_output_adapter@_W@__crt_stdio_output@@@2@@__crt_stdio_output@@AAE_NXZ 10025345 f i libucrt:output.obj
 0001:00024351       ?type_case_d@?$output_processor@_WV?$string_output_adapter@_W@__crt_stdio_output@@V?$format_validation_base@_WV?$string_output_adapter@_W@__crt_stdio_output@@@2@@__crt_stdio_output@@AAE_NXZ 10025351 f i libucrt:output.obj
 0001:0002435d       ?type_case_d@?$output_processor@_WV?$string_output_adapter@_W@__crt_stdio_output@@V?$positional_parameter_base@_WV?$string_output_adapter@_W@__crt_stdio_output@@@2@@__crt_stdio_output@@AAE_NXZ 1002535d f i libucrt:output.obj
 0001:00024369       ?type_case_d@?$output_processor@_WV?$string_output_adapter@_W@__crt_stdio_output@@V?$standard_base@_WV?$string_output_adapter@_W@__crt_stdio_output@@@2@@__crt_stdio_output@@AAE_NXZ 10025369 f i libucrt:output.obj
 0001:00024375       ?type_case_n@?$output_processor@DV?$stream_output_adapter@D@__crt_stdio_output@@V?$format_validation_base@DV?$stream_output_adapter@D@__crt_stdio_output@@@2@@__crt_stdio_output@@AAE_NXZ 10025375 f i libucrt:output.obj
 0001:000243fa       ?type_case_n@?$output_processor@DV?$stream_output_adapter@D@__crt_stdio_output@@V?$positional_parameter_base@DV?$stream_output_adapter@D@__crt_stdio_output@@@2@@__crt_stdio_output@@AAE_NXZ 100253fa f i libucrt:output.obj
 0001:000244a7       ?type_case_n@?$output_processor@DV?$stream_output_adapter@D@__crt_stdio_output@@V?$standard_base@DV?$stream_output_adapter@D@__crt_stdio_output@@@2@@__crt_stdio_output@@AAE_NXZ 100254a7 f i libucrt:output.obj
 0001:0002452c       ?type_case_n@?$output_processor@DV?$string_output_adapter@D@__crt_stdio_output@@V?$format_validation_base@DV?$string_output_adapter@D@__crt_stdio_output@@@2@@__crt_stdio_output@@AAE_NXZ 1002552c f i libucrt:output.obj
 0001:000245b1       ?type_case_n@?$output_processor@DV?$string_output_adapter@D@__crt_stdio_output@@V?$positional_parameter_base@DV?$string_output_adapter@D@__crt_stdio_output@@@2@@__crt_stdio_output@@AAE_NXZ 100255b1 f i libucrt:output.obj
 0001:0002465e       ?type_case_n@?$output_processor@DV?$string_output_adapter@D@__crt_stdio_output@@V?$standard_base@DV?$string_output_adapter@D@__crt_stdio_output@@@2@@__crt_stdio_output@@AAE_NXZ 1002565e f i libucrt:output.obj
 0001:000246e3       ?type_case_n@?$output_processor@_WV?$stream_output_adapter@_W@__crt_stdio_output@@V?$format_validation_base@_WV?$stream_output_adapter@_W@__crt_stdio_output@@@2@@__crt_stdio_output@@AAE_NXZ 100256e3 f i libucrt:output.obj
 0001:00024768       ?type_case_n@?$output_processor@_WV?$stream_output_adapter@_W@__crt_stdio_output@@V?$positional_parameter_base@_WV?$stream_output_adapter@_W@__crt_stdio_output@@@2@@__crt_stdio_output@@AAE_NXZ 10025768 f i libucrt:output.obj
 0001:00024815       ?type_case_n@?$output_processor@_WV?$stream_output_adapter@_W@__crt_stdio_output@@V?$standard_base@_WV?$stream_output_adapter@_W@__crt_stdio_output@@@2@@__crt_stdio_output@@AAE_NXZ 10025815 f i libucrt:output.obj
 0001:0002489a       ?type_case_n@?$output_processor@_WV?$string_output_adapter@_W@__crt_stdio_output@@V?$format_validation_base@_WV?$string_output_adapter@_W@__crt_stdio_output@@@2@@__crt_stdio_output@@AAE_NXZ 1002589a f i libucrt:output.obj
 0001:0002491f       ?type_case_n@?$output_processor@_WV?$string_output_adapter@_W@__crt_stdio_output@@V?$positional_parameter_base@_WV?$string_output_adapter@_W@__crt_stdio_output@@@2@@__crt_stdio_output@@AAE_NXZ 1002591f f i libucrt:output.obj
 0001:000249cc       ?type_case_n@?$output_processor@_WV?$string_output_adapter@_W@__crt_stdio_output@@V?$standard_base@_WV?$string_output_adapter@_W@__crt_stdio_output@@@2@@__crt_stdio_output@@AAE_NXZ 100259cc f i libucrt:output.obj
 0001:00024a51       ?type_case_o@?$output_processor@DV?$stream_output_adapter@D@__crt_stdio_output@@V?$format_validation_base@DV?$stream_output_adapter@D@__crt_stdio_output@@@2@@__crt_stdio_output@@AAE_NXZ 10025a51 f i libucrt:output.obj
 0001:00024a6e       ?type_case_o@?$output_processor@DV?$stream_output_adapter@D@__crt_stdio_output@@V?$positional_parameter_base@DV?$stream_output_adapter@D@__crt_stdio_output@@@2@@__crt_stdio_output@@AAE_NXZ 10025a6e f i libucrt:output.obj
 0001:00024a8b       ?type_case_o@?$output_processor@DV?$stream_output_adapter@D@__crt_stdio_output@@V?$standard_base@DV?$stream_output_adapter@D@__crt_stdio_output@@@2@@__crt_stdio_output@@AAE_NXZ 10025a8b f i libucrt:output.obj
 0001:00024aa8       ?type_case_o@?$output_processor@DV?$string_output_adapter@D@__crt_stdio_output@@V?$format_validation_base@DV?$string_output_adapter@D@__crt_stdio_output@@@2@@__crt_stdio_output@@AAE_NXZ 10025aa8 f i libucrt:output.obj
 0001:00024ac5       ?type_case_o@?$output_processor@DV?$string_output_adapter@D@__crt_stdio_output@@V?$positional_parameter_base@DV?$string_output_adapter@D@__crt_stdio_output@@@2@@__crt_stdio_output@@AAE_NXZ 10025ac5 f i libucrt:output.obj
 0001:00024ae2       ?type_case_o@?$output_processor@DV?$string_output_adapter@D@__crt_stdio_output@@V?$standard_base@DV?$string_output_adapter@D@__crt_stdio_output@@@2@@__crt_stdio_output@@AAE_NXZ 10025ae2 f i libucrt:output.obj
 0001:00024aff       ?type_case_o@?$output_processor@_WV?$stream_output_adapter@_W@__crt_stdio_output@@V?$format_validation_base@_WV?$stream_output_adapter@_W@__crt_stdio_output@@@2@@__crt_stdio_output@@AAE_NXZ 10025aff f i libucrt:output.obj
 0001:00024b1c       ?type_case_o@?$output_processor@_WV?$stream_output_adapter@_W@__crt_stdio_output@@V?$positional_parameter_base@_WV?$stream_output_adapter@_W@__crt_stdio_output@@@2@@__crt_stdio_output@@AAE_NXZ 10025b1c f i libucrt:output.obj
 0001:00024b39       ?type_case_o@?$output_processor@_WV?$stream_output_adapter@_W@__crt_stdio_output@@V?$standard_base@_WV?$stream_output_adapter@_W@__crt_stdio_output@@@2@@__crt_stdio_output@@AAE_NXZ 10025b39 f i libucrt:output.obj
 0001:00024b56       ?type_case_o@?$output_processor@_WV?$string_output_adapter@_W@__crt_stdio_output@@V?$format_validation_base@_WV?$string_output_adapter@_W@__crt_stdio_output@@@2@@__crt_stdio_output@@AAE_NXZ 10025b56 f i libucrt:output.obj
 0001:00024b73       ?type_case_o@?$output_processor@_WV?$string_output_adapter@_W@__crt_stdio_output@@V?$positional_parameter_base@_WV?$string_output_adapter@_W@__crt_stdio_output@@@2@@__crt_stdio_output@@AAE_NXZ 10025b73 f i libucrt:output.obj
 0001:00024b90       ?type_case_o@?$output_processor@_WV?$string_output_adapter@_W@__crt_stdio_output@@V?$standard_base@_WV?$string_output_adapter@_W@__crt_stdio_output@@@2@@__crt_stdio_output@@AAE_NXZ 10025b90 f i libucrt:output.obj
 0001:00024bad       ?type_case_p@?$output_processor@DV?$stream_output_adapter@D@__crt_stdio_output@@V?$format_validation_base@DV?$stream_output_adapter@D@__crt_stdio_output@@@2@@__crt_stdio_output@@AAE_NXZ 10025bad f i libucrt:output.obj
 0001:00024bc3       ?type_case_p@?$output_processor@DV?$stream_output_adapter@D@__crt_stdio_output@@V?$positional_parameter_base@DV?$stream_output_adapter@D@__crt_stdio_output@@@2@@__crt_stdio_output@@AAE_NXZ 10025bc3 f i libucrt:output.obj
 0001:00024bd9       ?type_case_p@?$output_processor@DV?$stream_output_adapter@D@__crt_stdio_output@@V?$standard_base@DV?$stream_output_adapter@D@__crt_stdio_output@@@2@@__crt_stdio_output@@AAE_NXZ 10025bd9 f i libucrt:output.obj
 0001:00024bef       ?type_case_p@?$output_processor@DV?$string_output_adapter@D@__crt_stdio_output@@V?$format_validation_base@DV?$string_output_adapter@D@__crt_stdio_output@@@2@@__crt_stdio_output@@AAE_NXZ 10025bef f i libucrt:output.obj
 0001:00024c05       ?type_case_p@?$output_processor@DV?$string_output_adapter@D@__crt_stdio_output@@V?$positional_parameter_base@DV?$string_output_adapter@D@__crt_stdio_output@@@2@@__crt_stdio_output@@AAE_NXZ 10025c05 f i libucrt:output.obj
 0001:00024c1b       ?type_case_p@?$output_processor@DV?$string_output_adapter@D@__crt_stdio_output@@V?$standard_base@DV?$string_output_adapter@D@__crt_stdio_output@@@2@@__crt_stdio_output@@AAE_NXZ 10025c1b f i libucrt:output.obj
 0001:00024c31       ?type_case_p@?$output_processor@_WV?$stream_output_adapter@_W@__crt_stdio_output@@V?$format_validation_base@_WV?$stream_output_adapter@_W@__crt_stdio_output@@@2@@__crt_stdio_output@@AAE_NXZ 10025c31 f i libucrt:output.obj
 0001:00024c47       ?type_case_p@?$output_processor@_WV?$stream_output_adapter@_W@__crt_stdio_output@@V?$positional_parameter_base@_WV?$stream_output_adapter@_W@__crt_stdio_output@@@2@@__crt_stdio_output@@AAE_NXZ 10025c47 f i libucrt:output.obj
 0001:00024c5d       ?type_case_p@?$output_processor@_WV?$stream_output_adapter@_W@__crt_stdio_output@@V?$standard_base@_WV?$stream_output_adapter@_W@__crt_stdio_output@@@2@@__crt_stdio_output@@AAE_NXZ 10025c5d f i libucrt:output.obj
 0001:00024c73       ?type_case_p@?$output_processor@_WV?$string_output_adapter@_W@__crt_stdio_output@@V?$format_validation_base@_WV?$string_output_adapter@_W@__crt_stdio_output@@@2@@__crt_stdio_output@@AAE_NXZ 10025c73 f i libucrt:output.obj
 0001:00024c89       ?type_case_p@?$output_processor@_WV?$string_output_adapter@_W@__crt_stdio_output@@V?$positional_parameter_base@_WV?$string_output_adapter@_W@__crt_stdio_output@@@2@@__crt_stdio_output@@AAE_NXZ 10025c89 f i libucrt:output.obj
 0001:00024c9f       ?type_case_p@?$output_processor@_WV?$string_output_adapter@_W@__crt_stdio_output@@V?$standard_base@_WV?$string_output_adapter@_W@__crt_stdio_output@@@2@@__crt_stdio_output@@AAE_NXZ 10025c9f f i libucrt:output.obj
 0001:00024cb5       ?type_case_s@?$output_processor@DV?$stream_output_adapter@D@__crt_stdio_output@@V?$format_validation_base@DV?$stream_output_adapter@D@__crt_stdio_output@@@2@@__crt_stdio_output@@AAE_NXZ 10025cb5 f i libucrt:output.obj
 0001:00024d27       ?type_case_s@?$output_processor@DV?$stream_output_adapter@D@__crt_stdio_output@@V?$positional_parameter_base@DV?$stream_output_adapter@D@__crt_stdio_output@@@2@@__crt_stdio_output@@AAE_NXZ 10025d27 f i libucrt:output.obj
 0001:00024da5       ?type_case_s@?$output_processor@DV?$stream_output_adapter@D@__crt_stdio_output@@V?$standard_base@DV?$stream_output_adapter@D@__crt_stdio_output@@@2@@__crt_stdio_output@@AAE_NXZ 10025da5 f i libucrt:output.obj
 0001:00024e17       ?type_case_s@?$output_processor@DV?$string_output_adapter@D@__crt_stdio_output@@V?$format_validation_base@DV?$string_output_adapter@D@__crt_stdio_output@@@2@@__crt_stdio_output@@AAE_NXZ 10025e17 f i libucrt:output.obj
 0001:00024e89       ?type_case_s@?$output_processor@DV?$string_output_adapter@D@__crt_stdio_output@@V?$positional_parameter_base@DV?$string_output_adapter@D@__crt_stdio_output@@@2@@__crt_stdio_output@@AAE_NXZ 10025e89 f i libucrt:output.obj
 0001:00024f07       ?type_case_s@?$output_processor@DV?$string_output_adapter@D@__crt_stdio_output@@V?$standard_base@DV?$string_output_adapter@D@__crt_stdio_output@@@2@@__crt_stdio_output@@AAE_NXZ 10025f07 f i libucrt:output.obj
 0001:00024f79       ?type_case_s@?$output_processor@_WV?$stream_output_adapter@_W@__crt_stdio_output@@V?$format_validation_base@_WV?$stream_output_adapter@_W@__crt_stdio_output@@@2@@__crt_stdio_output@@AAE_NXZ 10025f79 f i libucrt:output.obj
 0001:00024fed       ?type_case_s@?$output_processor@_WV?$stream_output_adapter@_W@__crt_stdio_output@@V?$positional_parameter_base@_WV?$stream_output_adapter@_W@__crt_stdio_output@@@2@@__crt_stdio_output@@AAE_NXZ 10025fed f i libucrt:output.obj
 0001:0002506d       ?type_case_s@?$output_processor@_WV?$stream_output_adapter@_W@__crt_stdio_output@@V?$standard_base@_WV?$stream_output_adapter@_W@__crt_stdio_output@@@2@@__crt_stdio_output@@AAE_NXZ 1002606d f i libucrt:output.obj
 0001:000250e1       ?type_case_s@?$output_processor@_WV?$string_output_adapter@_W@__crt_stdio_output@@V?$format_validation_base@_WV?$string_output_adapter@_W@__crt_stdio_output@@@2@@__crt_stdio_output@@AAE_NXZ 100260e1 f i libucrt:output.obj
 0001:00025155       ?type_case_s@?$output_processor@_WV?$string_output_adapter@_W@__crt_stdio_output@@V?$positional_parameter_base@_WV?$string_output_adapter@_W@__crt_stdio_output@@@2@@__crt_stdio_output@@AAE_NXZ 10026155 f i libucrt:output.obj
 0001:000251d5       ?type_case_s@?$output_processor@_WV?$string_output_adapter@_W@__crt_stdio_output@@V?$standard_base@_WV?$string_output_adapter@_W@__crt_stdio_output@@@2@@__crt_stdio_output@@AAE_NXZ 100261d5 f i libucrt:output.obj
 0001:00025249       ?type_case_s_compute_narrow_string_length@?$output_processor@DV?$stream_output_adapter@D@__crt_stdio_output@@V?$format_validation_base@DV?$stream_output_adapter@D@__crt_stdio_output@@@2@@__crt_stdio_output@@AAEHHD@Z 10026249 f i libucrt:output.obj
 0001:0002525f       ?type_case_s_compute_narrow_string_length@?$output_processor@DV?$stream_output_adapter@D@__crt_stdio_output@@V?$positional_parameter_base@DV?$stream_output_adapter@D@__crt_stdio_output@@@2@@__crt_stdio_output@@AAEHHD@Z 1002625f f i libucrt:output.obj
 0001:00025275       ?type_case_s_compute_narrow_string_length@?$output_processor@DV?$stream_output_adapter@D@__crt_stdio_output@@V?$standard_base@DV?$stream_output_adapter@D@__crt_stdio_output@@@2@@__crt_stdio_output@@AAEHHD@Z 10026275 f i libucrt:output.obj
 0001:0002528b       ?type_case_s_compute_narrow_string_length@?$output_processor@DV?$string_output_adapter@D@__crt_stdio_output@@V?$format_validation_base@DV?$string_output_adapter@D@__crt_stdio_output@@@2@@__crt_stdio_output@@AAEHHD@Z 1002628b f i libucrt:output.obj
 0001:000252a1       ?type_case_s_compute_narrow_string_length@?$output_processor@DV?$string_output_adapter@D@__crt_stdio_output@@V?$positional_parameter_base@DV?$string_output_adapter@D@__crt_stdio_output@@@2@@__crt_stdio_output@@AAEHHD@Z 100262a1 f i libucrt:output.obj
 0001:000252b7       ?type_case_s_compute_narrow_string_length@?$output_processor@DV?$string_output_adapter@D@__crt_stdio_output@@V?$standard_base@DV?$string_output_adapter@D@__crt_stdio_output@@@2@@__crt_stdio_output@@AAEHHD@Z 100262b7 f i libucrt:output.obj
 0001:000252cd       ?type_case_s_compute_narrow_string_length@?$output_processor@_WV?$stream_output_adapter@_W@__crt_stdio_output@@V?$format_validation_base@_WV?$stream_output_adapter@_W@__crt_stdio_output@@@2@@__crt_stdio_output@@AAEHH_W@Z 100262cd f i libucrt:output.obj
 0001:00025322       ?type_case_s_compute_narrow_string_length@?$output_processor@_WV?$stream_output_adapter@_W@__crt_stdio_output@@V?$positional_parameter_base@_WV?$stream_output_adapter@_W@__crt_stdio_output@@@2@@__crt_stdio_output@@AAEHH_W@Z 10026322 f i libucrt:output.obj
 0001:00025377       ?type_case_s_compute_narrow_string_length@?$output_processor@_WV?$stream_output_adapter@_W@__crt_stdio_output@@V?$standard_base@_WV?$stream_output_adapter@_W@__crt_stdio_output@@@2@@__crt_stdio_output@@AAEHH_W@Z 10026377 f i libucrt:output.obj
 0001:000253cc       ?type_case_s_compute_narrow_string_length@?$output_processor@_WV?$string_output_adapter@_W@__crt_stdio_output@@V?$format_validation_base@_WV?$string_output_adapter@_W@__crt_stdio_output@@@2@@__crt_stdio_output@@AAEHH_W@Z 100263cc f i libucrt:output.obj
 0001:00025421       ?type_case_s_compute_narrow_string_length@?$output_processor@_WV?$string_output_adapter@_W@__crt_stdio_output@@V?$positional_parameter_base@_WV?$string_output_adapter@_W@__crt_stdio_output@@@2@@__crt_stdio_output@@AAEHH_W@Z 10026421 f i libucrt:output.obj
 0001:00025476       ?type_case_s_compute_narrow_string_length@?$output_processor@_WV?$string_output_adapter@_W@__crt_stdio_output@@V?$standard_base@_WV?$string_output_adapter@_W@__crt_stdio_output@@@2@@__crt_stdio_output@@AAEHH_W@Z 10026476 f i libucrt:output.obj
 0001:000254cb       ?type_case_u@?$output_processor@DV?$stream_output_adapter@D@__crt_stdio_output@@V?$format_validation_base@DV?$stream_output_adapter@D@__crt_stdio_output@@@2@@__crt_stdio_output@@AAE_NXZ 100264cb f i libucrt:output.obj
 0001:000254d3       ?type_case_u@?$output_processor@DV?$stream_output_adapter@D@__crt_stdio_output@@V?$positional_parameter_base@DV?$stream_output_adapter@D@__crt_stdio_output@@@2@@__crt_stdio_output@@AAE_NXZ 100264d3 f i libucrt:output.obj
 0001:000254db       ?type_case_u@?$output_processor@DV?$stream_output_adapter@D@__crt_stdio_output@@V?$standard_base@DV?$stream_output_adapter@D@__crt_stdio_output@@@2@@__crt_stdio_output@@AAE_NXZ 100264db f i libucrt:output.obj
 0001:000254e3       ?type_case_u@?$output_processor@DV?$string_output_adapter@D@__crt_stdio_output@@V?$format_validation_base@DV?$string_output_adapter@D@__crt_stdio_output@@@2@@__crt_stdio_output@@AAE_NXZ 100264e3 f i libucrt:output.obj
 0001:000254eb       ?type_case_u@?$output_processor@DV?$string_output_adapter@D@__crt_stdio_output@@V?$positional_parameter_base@DV?$string_output_adapter@D@__crt_stdio_output@@@2@@__crt_stdio_output@@AAE_NXZ 100264eb f i libucrt:output.obj
 0001:000254f3       ?type_case_u@?$output_processor@DV?$string_output_adapter@D@__crt_stdio_output@@V?$standard_base@DV?$string_output_adapter@D@__crt_stdio_output@@@2@@__crt_stdio_output@@AAE_NXZ 100264f3 f i libucrt:output.obj
 0001:000254fb       ?type_case_u@?$output_processor@_WV?$stream_output_adapter@_W@__crt_stdio_output@@V?$format_validation_base@_WV?$stream_output_adapter@_W@__crt_stdio_output@@@2@@__crt_stdio_output@@AAE_NXZ 100264fb f i libucrt:output.obj
 0001:00025503       ?type_case_u@?$output_processor@_WV?$stream_output_adapter@_W@__crt_stdio_output@@V?$positional_parameter_base@_WV?$stream_output_adapter@_W@__crt_stdio_output@@@2@@__crt_stdio_output@@AAE_NXZ 10026503 f i libucrt:output.obj
 0001:0002550b       ?type_case_u@?$output_processor@_WV?$stream_output_adapter@_W@__crt_stdio_output@@V?$standard_base@_WV?$stream_output_adapter@_W@__crt_stdio_output@@@2@@__crt_stdio_output@@AAE_NXZ 1002650b f i libucrt:output.obj
 0001:00025513       ?type_case_u@?$output_processor@_WV?$string_output_adapter@_W@__crt_stdio_output@@V?$format_validation_base@_WV?$string_output_adapter@_W@__crt_stdio_output@@@2@@__crt_stdio_output@@AAE_NXZ 10026513 f i libucrt:output.obj
 0001:0002551b       ?type_case_u@?$output_processor@_WV?$string_output_adapter@_W@__crt_stdio_output@@V?$positional_parameter_base@_WV?$string_output_adapter@_W@__crt_stdio_output@@@2@@__crt_stdio_output@@AAE_NXZ 1002651b f i libucrt:output.obj
 0001:00025523       ?type_case_u@?$output_processor@_WV?$string_output_adapter@_W@__crt_stdio_output@@V?$standard_base@_WV?$string_output_adapter@_W@__crt_stdio_output@@@2@@__crt_stdio_output@@AAE_NXZ 10026523 f i libucrt:output.obj
 0001:0002552b       ?type_case_x@?$output_processor@DV?$stream_output_adapter@D@__crt_stdio_output@@V?$format_validation_base@DV?$stream_output_adapter@D@__crt_stdio_output@@@2@@__crt_stdio_output@@AAE_NXZ 1002652b f i libucrt:output.obj
 0001:00025533       ?type_case_x@?$output_processor@DV?$stream_output_adapter@D@__crt_stdio_output@@V?$positional_parameter_base@DV?$stream_output_adapter@D@__crt_stdio_output@@@2@@__crt_stdio_output@@AAE_NXZ 10026533 f i libucrt:output.obj
 0001:0002553b       ?type_case_x@?$output_processor@DV?$stream_output_adapter@D@__crt_stdio_output@@V?$standard_base@DV?$stream_output_adapter@D@__crt_stdio_output@@@2@@__crt_stdio_output@@AAE_NXZ 1002653b f i libucrt:output.obj
 0001:00025543       ?type_case_x@?$output_processor@DV?$string_output_adapter@D@__crt_stdio_output@@V?$format_validation_base@DV?$string_output_adapter@D@__crt_stdio_output@@@2@@__crt_stdio_output@@AAE_NXZ 10026543 f i libucrt:output.obj
 0001:0002554b       ?type_case_x@?$output_processor@DV?$string_output_adapter@D@__crt_stdio_output@@V?$positional_parameter_base@DV?$string_output_adapter@D@__crt_stdio_output@@@2@@__crt_stdio_output@@AAE_NXZ 1002654b f i libucrt:output.obj
 0001:00025553       ?type_case_x@?$output_processor@DV?$string_output_adapter@D@__crt_stdio_output@@V?$standard_base@DV?$string_output_adapter@D@__crt_stdio_output@@@2@@__crt_stdio_output@@AAE_NXZ 10026553 f i libucrt:output.obj
 0001:0002555b       ?type_case_x@?$output_processor@_WV?$stream_output_adapter@_W@__crt_stdio_output@@V?$format_validation_base@_WV?$stream_output_adapter@_W@__crt_stdio_output@@@2@@__crt_stdio_output@@AAE_NXZ 1002655b f i libucrt:output.obj
 0001:00025563       ?type_case_x@?$output_processor@_WV?$stream_output_adapter@_W@__crt_stdio_output@@V?$positional_parameter_base@_WV?$stream_output_adapter@_W@__crt_stdio_output@@@2@@__crt_stdio_output@@AAE_NXZ 10026563 f i libucrt:output.obj
 0001:0002556b       ?type_case_x@?$output_processor@_WV?$stream_output_adapter@_W@__crt_stdio_output@@V?$standard_base@_WV?$stream_output_adapter@_W@__crt_stdio_output@@@2@@__crt_stdio_output@@AAE_NXZ 1002656b f i libucrt:output.obj
 0001:00025573       ?type_case_x@?$output_processor@_WV?$string_output_adapter@_W@__crt_stdio_output@@V?$format_validation_base@_WV?$string_output_adapter@_W@__crt_stdio_output@@@2@@__crt_stdio_output@@AAE_NXZ 10026573 f i libucrt:output.obj
 0001:0002557b       ?type_case_x@?$output_processor@_WV?$string_output_adapter@_W@__crt_stdio_output@@V?$positional_parameter_base@_WV?$string_output_adapter@_W@__crt_stdio_output@@@2@@__crt_stdio_output@@AAE_NXZ 1002657b f i libucrt:output.obj
 0001:00025583       ?type_case_x@?$output_processor@_WV?$string_output_adapter@_W@__crt_stdio_output@@V?$standard_base@_WV?$string_output_adapter@_W@__crt_stdio_output@@@2@@__crt_stdio_output@@AAE_NXZ 10026583 f i libucrt:output.obj
 0001:0002558b       ?unget@?$c_string_character_source@D@__crt_strtox@@QAEXD@Z 1002658b f i libucrt:output.obj
 0001:000255b4       ?unget@?$c_string_character_source@_W@__crt_strtox@@QAEX_W@Z 100265b4 f i libucrt:output.obj
 0001:000255e2       ?unsafe_value@?$cached@H@__crt_cached_ptd_host@@QAEHXZ 100265e2 f i libucrt:output.obj
 0001:000255e5       ?unsafe_value@?$cached@K@__crt_cached_ptd_host@@QAEKXZ 100265e5 f i libucrt:output.obj
 0001:000255e8       ?unset_flag@?$output_processor@DV?$stream_output_adapter@D@__crt_stdio_output@@V?$format_validation_base@DV?$stream_output_adapter@D@__crt_stdio_output@@@2@@__crt_stdio_output@@AAEXI@Z 100265e8 f i libucrt:output.obj
 0001:000255f9       ?unset_flag@?$output_processor@DV?$stream_output_adapter@D@__crt_stdio_output@@V?$positional_parameter_base@DV?$stream_output_adapter@D@__crt_stdio_output@@@2@@__crt_stdio_output@@AAEXI@Z 100265f9 f i libucrt:output.obj
 0001:0002560a       ?unset_flag@?$output_processor@DV?$stream_output_adapter@D@__crt_stdio_output@@V?$standard_base@DV?$stream_output_adapter@D@__crt_stdio_output@@@2@@__crt_stdio_output@@AAEXI@Z 1002660a f i libucrt:output.obj
 0001:0002561b       ?unset_flag@?$output_processor@DV?$string_output_adapter@D@__crt_stdio_output@@V?$format_validation_base@DV?$string_output_adapter@D@__crt_stdio_output@@@2@@__crt_stdio_output@@AAEXI@Z 1002661b f i libucrt:output.obj
 0001:0002562c       ?unset_flag@?$output_processor@DV?$string_output_adapter@D@__crt_stdio_output@@V?$positional_parameter_base@DV?$string_output_adapter@D@__crt_stdio_output@@@2@@__crt_stdio_output@@AAEXI@Z 1002662c f i libucrt:output.obj
 0001:0002563d       ?unset_flag@?$output_processor@DV?$string_output_adapter@D@__crt_stdio_output@@V?$standard_base@DV?$string_output_adapter@D@__crt_stdio_output@@@2@@__crt_stdio_output@@AAEXI@Z 1002663d f i libucrt:output.obj
 0001:0002564e       ?unset_flag@?$output_processor@_WV?$stream_output_adapter@_W@__crt_stdio_output@@V?$format_validation_base@_WV?$stream_output_adapter@_W@__crt_stdio_output@@@2@@__crt_stdio_output@@AAEXI@Z 1002664e f i libucrt:output.obj
 0001:0002565f       ?unset_flag@?$output_processor@_WV?$stream_output_adapter@_W@__crt_stdio_output@@V?$positional_parameter_base@_WV?$stream_output_adapter@_W@__crt_stdio_output@@@2@@__crt_stdio_output@@AAEXI@Z 1002665f f i libucrt:output.obj
 0001:00025670       ?unset_flag@?$output_processor@_WV?$stream_output_adapter@_W@__crt_stdio_output@@V?$standard_base@_WV?$stream_output_adapter@_W@__crt_stdio_output@@@2@@__crt_stdio_output@@AAEXI@Z 10026670 f i libucrt:output.obj
 0001:00025681       ?unset_flag@?$output_processor@_WV?$string_output_adapter@_W@__crt_stdio_output@@V?$format_validation_base@_WV?$string_output_adapter@_W@__crt_stdio_output@@@2@@__crt_stdio_output@@AAEXI@Z 10026681 f i libucrt:output.obj
 0001:00025692       ?unset_flag@?$output_processor@_WV?$string_output_adapter@_W@__crt_stdio_output@@V?$positional_parameter_base@_WV?$string_output_adapter@_W@__crt_stdio_output@@@2@@__crt_stdio_output@@AAEXI@Z 10026692 f i libucrt:output.obj
 0001:000256a3       ?unset_flag@?$output_processor@_WV?$string_output_adapter@_W@__crt_stdio_output@@V?$standard_base@_WV?$string_output_adapter@_W@__crt_stdio_output@@@2@@__crt_stdio_output@@AAEXI@Z 100266a3 f i libucrt:output.obj
 0001:000256b4       ?update_field_width@?$positional_parameter_base@DV?$stream_output_adapter@D@__crt_stdio_output@@@__crt_stdio_output@@IAE_NXZ 100266b4 f i libucrt:output.obj
 0001:00025789       ?update_field_width@?$positional_parameter_base@DV?$string_output_adapter@D@__crt_stdio_output@@@__crt_stdio_output@@IAE_NXZ 10026789 f i libucrt:output.obj
 0001:0002585e       ?update_field_width@?$positional_parameter_base@_WV?$stream_output_adapter@_W@__crt_stdio_output@@@__crt_stdio_output@@IAE_NXZ 1002685e f i libucrt:output.obj
 0001:00025934       ?update_field_width@?$positional_parameter_base@_WV?$string_output_adapter@_W@__crt_stdio_output@@@__crt_stdio_output@@IAE_NXZ 10026934 f i libucrt:output.obj
 0001:00025a0a       ?update_field_width@?$standard_base@DV?$stream_output_adapter@D@__crt_stdio_output@@@__crt_stdio_output@@IAE_NXZ 10026a0a f i libucrt:output.obj
 0001:00025a1b       ?update_field_width@?$standard_base@DV?$string_output_adapter@D@__crt_stdio_output@@@__crt_stdio_output@@IAE_NXZ 10026a1b f i libucrt:output.obj
 0001:00025a2c       ?update_field_width@?$standard_base@_WV?$stream_output_adapter@_W@__crt_stdio_output@@@__crt_stdio_output@@IAE_NXZ 10026a2c f i libucrt:output.obj
 0001:00025a3d       ?update_field_width@?$standard_base@_WV?$string_output_adapter@_W@__crt_stdio_output@@@__crt_stdio_output@@IAE_NXZ 10026a3d f i libucrt:output.obj
 0001:00025a50       ?update_locale@__crt_cached_ptd_host@@AAEXXZ 10026a50 f i libucrt:output.obj
 0001:00025a60       ?update_locale_slow@__crt_cached_ptd_host@@AAEXXZ 10026a60 f i libucrt:output.obj
 0001:00025abb       ?update_precision@?$positional_parameter_base@DV?$stream_output_adapter@D@__crt_stdio_output@@@__crt_stdio_output@@IAE_NXZ 10026abb f i libucrt:output.obj
 0001:00025b90       ?update_precision@?$positional_parameter_base@DV?$string_output_adapter@D@__crt_stdio_output@@@__crt_stdio_output@@IAE_NXZ 10026b90 f i libucrt:output.obj
 0001:00025c65       ?update_precision@?$positional_parameter_base@_WV?$stream_output_adapter@_W@__crt_stdio_output@@@__crt_stdio_output@@IAE_NXZ 10026c65 f i libucrt:output.obj
 0001:00025d3b       ?update_precision@?$positional_parameter_base@_WV?$string_output_adapter@_W@__crt_stdio_output@@@__crt_stdio_output@@IAE_NXZ 10026d3b f i libucrt:output.obj
 0001:00025e11       ?update_precision@?$standard_base@DV?$stream_output_adapter@D@__crt_stdio_output@@@__crt_stdio_output@@IAE_NXZ 10026e11 f i libucrt:output.obj
 0001:00025e22       ?update_precision@?$standard_base@DV?$string_output_adapter@D@__crt_stdio_output@@@__crt_stdio_output@@IAE_NXZ 10026e22 f i libucrt:output.obj
 0001:00025e33       ?update_precision@?$standard_base@_WV?$stream_output_adapter@_W@__crt_stdio_output@@@__crt_stdio_output@@IAE_NXZ 10026e33 f i libucrt:output.obj
 0001:00025e44       ?update_precision@?$standard_base@_WV?$string_output_adapter@_W@__crt_stdio_output@@@__crt_stdio_output@@IAE_NXZ 10026e44 f i libucrt:output.obj
 0001:00025e55       ?valid@?$cached@H@__crt_cached_ptd_host@@QBE_NXZ 10026e55 f i libucrt:output.obj
 0001:00025e59       ?valid@?$cached@K@__crt_cached_ptd_host@@QBE_NXZ 10026e59 f i libucrt:output.obj
 0001:00025e5d       ?valid@__crt_stdio_stream@@QBE_NXZ 10026e5d f i libucrt:output.obj
 0001:00025e64       ?validate@?$c_string_character_source@D@__crt_strtox@@QBE_NXZ 10026e64 f i libucrt:output.obj
 0001:00025e7f       ?validate@?$c_string_character_source@_W@__crt_strtox@@QBE_NXZ 10026e7f f i libucrt:output.obj
 0001:00025e9a       ?validate@?$stream_output_adapter@D@__crt_stdio_output@@QBE_NAAV__crt_cached_ptd_host@@@Z 10026e9a f i libucrt:output.obj
 0001:00025ed2       ?validate@?$stream_output_adapter@_W@__crt_stdio_output@@QBE_NAAV__crt_cached_ptd_host@@@Z 10026ed2 f i libucrt:output.obj
 0001:00025f03       ?validate@?$string_output_adapter@D@__crt_stdio_output@@QBE_NAAV__crt_cached_ptd_host@@@Z 10026f03 f i libucrt:output.obj
 0001:00025f34       ?validate@?$string_output_adapter@_W@__crt_stdio_output@@QBE_NAAV__crt_cached_ptd_host@@@Z 10026f34 f i libucrt:output.obj
 0001:00025f65       ?validate_and_store_parameter_data@?$positional_parameter_base@DV?$stream_output_adapter@D@__crt_stdio_output@@@__crt_stdio_output@@AAE_NAAUparameter_data@12@W4parameter_type@12@DW4length_modifier@2@@Z 10026f65 f i libucrt:output.obj
 0001:00025fc7       ?validate_and_store_parameter_data@?$positional_parameter_base@DV?$string_output_adapter@D@__crt_stdio_output@@@__crt_stdio_output@@AAE_NAAUparameter_data@12@W4parameter_type@12@DW4length_modifier@2@@Z 10026fc7 f i libucrt:output.obj
 0001:00026029       ?validate_and_store_parameter_data@?$positional_parameter_base@_WV?$stream_output_adapter@_W@__crt_stdio_output@@@__crt_stdio_output@@AAE_NAAUparameter_data@12@W4parameter_type@12@_WW4length_modifier@2@@Z 10027029 f i libucrt:output.obj
 0001:0002608d       ?validate_and_store_parameter_data@?$positional_parameter_base@_WV?$string_output_adapter@_W@__crt_stdio_output@@@__crt_stdio_output@@AAE_NAAUparameter_data@12@W4parameter_type@12@_WW4length_modifier@2@@Z 1002708d f i libucrt:output.obj
 0001:000260f1       ?validate_and_update_state_at_beginning_of_format_character@?$positional_parameter_base@DV?$stream_output_adapter@D@__crt_stdio_output@@@__crt_stdio_output@@IAE_NXZ 100270f1 f i libucrt:output.obj
 0001:00026208       ?validate_and_update_state_at_beginning_of_format_character@?$positional_parameter_base@DV?$string_output_adapter@D@__crt_stdio_output@@@__crt_stdio_output@@IAE_NXZ 10027208 f i libucrt:output.obj
 0001:0002631f       ?validate_and_update_state_at_beginning_of_format_character@?$positional_parameter_base@_WV?$stream_output_adapter@_W@__crt_stdio_output@@@__crt_stdio_output@@IAE_NXZ 1002731f f i libucrt:output.obj
 0001:00026443       ?validate_and_update_state_at_beginning_of_format_character@?$positional_parameter_base@_WV?$string_output_adapter@_W@__crt_stdio_output@@@__crt_stdio_output@@IAE_NXZ 10027443 f i libucrt:output.obj
 0001:00026567       ?validate_and_update_state_at_beginning_of_format_character@?$standard_base@DV?$stream_output_adapter@D@__crt_stdio_output@@@__crt_stdio_output@@IAE_NXZ 10027567 f i libucrt:output.obj
 0001:0002656a       ?validate_and_update_state_at_beginning_of_format_character@?$standard_base@DV?$string_output_adapter@D@__crt_stdio_output@@@__crt_stdio_output@@IAE_NXZ 1002756a f i libucrt:output.obj
 0001:0002656d       ?validate_and_update_state_at_beginning_of_format_character@?$standard_base@_WV?$stream_output_adapter@_W@__crt_stdio_output@@@__crt_stdio_output@@IAE_NXZ 1002756d f i libucrt:output.obj
 0001:00026570       ?validate_and_update_state_at_beginning_of_format_character@?$standard_base@_WV?$string_output_adapter@_W@__crt_stdio_output@@@__crt_stdio_output@@IAE_NXZ 10027570 f i libucrt:output.obj
 0001:00026573       ?validate_and_update_state_at_end_of_format_string@?$format_validation_base@DV?$stream_output_adapter@D@__crt_stdio_output@@@__crt_stdio_output@@IAE_NXZ 10027573 f i libucrt:output.obj
 0001:000265a4       ?validate_and_update_state_at_end_of_format_string@?$format_validation_base@DV?$string_output_adapter@D@__crt_stdio_output@@@__crt_stdio_output@@IAE_NXZ 100275a4 f i libucrt:output.obj
 0001:000265d5       ?validate_and_update_state_at_end_of_format_string@?$format_validation_base@_WV?$stream_output_adapter@_W@__crt_stdio_output@@@__crt_stdio_output@@IAE_NXZ 100275d5 f i libucrt:output.obj
 0001:00026606       ?validate_and_update_state_at_end_of_format_string@?$format_validation_base@_WV?$string_output_adapter@_W@__crt_stdio_output@@@__crt_stdio_output@@IAE_NXZ 10027606 f i libucrt:output.obj
 0001:00026637       ?validate_and_update_state_at_end_of_format_string@?$positional_parameter_base@DV?$stream_output_adapter@D@__crt_stdio_output@@@__crt_stdio_output@@IAE_NXZ 10027637 f i libucrt:output.obj
 0001:000266f1       ?validate_and_update_state_at_end_of_format_string@?$positional_parameter_base@DV?$string_output_adapter@D@__crt_stdio_output@@@__crt_stdio_output@@IAE_NXZ 100276f1 f i libucrt:output.obj
 0001:000267ab       ?validate_and_update_state_at_end_of_format_string@?$positional_parameter_base@_WV?$stream_output_adapter@_W@__crt_stdio_output@@@__crt_stdio_output@@IAE_NXZ 100277ab f i libucrt:output.obj
 0001:00026865       ?validate_and_update_state_at_end_of_format_string@?$positional_parameter_base@_WV?$string_output_adapter@_W@__crt_stdio_output@@@__crt_stdio_output@@IAE_NXZ 10027865 f i libucrt:output.obj
 0001:0002691f       ?validate_and_update_state_at_end_of_format_string@?$standard_base@DV?$stream_output_adapter@D@__crt_stdio_output@@@__crt_stdio_output@@IBE_NXZ 1002791f f i libucrt:output.obj
 0001:00026922       ?validate_and_update_state_at_end_of_format_string@?$standard_base@DV?$string_output_adapter@D@__crt_stdio_output@@@__crt_stdio_output@@IBE_NXZ 10027922 f i libucrt:output.obj
 0001:00026925       ?validate_and_update_state_at_end_of_format_string@?$standard_base@_WV?$stream_output_adapter@_W@__crt_stdio_output@@@__crt_stdio_output@@IBE_NXZ 10027925 f i libucrt:output.obj
 0001:00026928       ?validate_and_update_state_at_end_of_format_string@?$standard_base@_WV?$string_output_adapter@_W@__crt_stdio_output@@@__crt_stdio_output@@IBE_NXZ 10027928 f i libucrt:output.obj
 0001:0002692b       ?validate_state_for_type_case_a@?$positional_parameter_base@DV?$stream_output_adapter@D@__crt_stdio_output@@@__crt_stdio_output@@IAE_NXZ 1002792b f i libucrt:output.obj
 0001:0002698a       ?validate_state_for_type_case_a@?$positional_parameter_base@DV?$string_output_adapter@D@__crt_stdio_output@@@__crt_stdio_output@@IAE_NXZ 1002798a f i libucrt:output.obj
 0001:000269e9       ?validate_state_for_type_case_a@?$positional_parameter_base@_WV?$stream_output_adapter@_W@__crt_stdio_output@@@__crt_stdio_output@@IAE_NXZ 100279e9 f i libucrt:output.obj
 0001:00026a48       ?validate_state_for_type_case_a@?$positional_parameter_base@_WV?$string_output_adapter@_W@__crt_stdio_output@@@__crt_stdio_output@@IAE_NXZ 10027a48 f i libucrt:output.obj
 0001:00026aa7       ?validate_state_for_type_case_a@?$standard_base@DV?$stream_output_adapter@D@__crt_stdio_output@@@__crt_stdio_output@@IBE_NXZ 10027aa7 f i libucrt:output.obj
 0001:00026aaa       ?validate_state_for_type_case_a@?$standard_base@DV?$string_output_adapter@D@__crt_stdio_output@@@__crt_stdio_output@@IBE_NXZ 10027aaa f i libucrt:output.obj
 0001:00026aad       ?validate_state_for_type_case_a@?$standard_base@_WV?$stream_output_adapter@_W@__crt_stdio_output@@@__crt_stdio_output@@IBE_NXZ 10027aad f i libucrt:output.obj
 0001:00026ab0       ?validate_state_for_type_case_a@?$standard_base@_WV?$string_output_adapter@_W@__crt_stdio_output@@@__crt_stdio_output@@IBE_NXZ 10027ab0 f i libucrt:output.obj
 0001:00026ab3       ?validate_stream_is_ansi_if_required@?$__acrt_stdio_char_traits@D@@SA_NQAU_iobuf@@@Z 10027ab3 f i libucrt:output.obj
 0001:00026b3a       ?validate_stream_is_ansi_if_required@?$__acrt_stdio_char_traits@_W@@SA_NQAU_iobuf@@@Z 10027b3a f i libucrt:output.obj
 0001:00026b3d       ?wide_character_to_digit@__crt_strtox@@YAH_W@Z 10027b3d f i libucrt:output.obj
 0001:00026cde       ?wide_null_string@?$output_processor@DV?$stream_output_adapter@D@__crt_stdio_output@@V?$format_validation_base@DV?$stream_output_adapter@D@__crt_stdio_output@@@2@@__crt_stdio_output@@CAPA_WXZ 10027cde f i libucrt:output.obj
 0001:00026ce4       ?wide_null_string@?$output_processor@DV?$stream_output_adapter@D@__crt_stdio_output@@V?$positional_parameter_base@DV?$stream_output_adapter@D@__crt_stdio_output@@@2@@__crt_stdio_output@@CAPA_WXZ 10027ce4 f i libucrt:output.obj
 0001:00026cea       ?wide_null_string@?$output_processor@DV?$stream_output_adapter@D@__crt_stdio_output@@V?$standard_base@DV?$stream_output_adapter@D@__crt_stdio_output@@@2@@__crt_stdio_output@@CAPA_WXZ 10027cea f i libucrt:output.obj
 0001:00026cf0       ?wide_null_string@?$output_processor@DV?$string_output_adapter@D@__crt_stdio_output@@V?$format_validation_base@DV?$string_output_adapter@D@__crt_stdio_output@@@2@@__crt_stdio_output@@CAPA_WXZ 10027cf0 f i libucrt:output.obj
 0001:00026cf6       ?wide_null_string@?$output_processor@DV?$string_output_adapter@D@__crt_stdio_output@@V?$positional_parameter_base@DV?$string_output_adapter@D@__crt_stdio_output@@@2@@__crt_stdio_output@@CAPA_WXZ 10027cf6 f i libucrt:output.obj
 0001:00026cfc       ?wide_null_string@?$output_processor@DV?$string_output_adapter@D@__crt_stdio_output@@V?$standard_base@DV?$string_output_adapter@D@__crt_stdio_output@@@2@@__crt_stdio_output@@CAPA_WXZ 10027cfc f i libucrt:output.obj
 0001:00026d02       ?wide_null_string@?$output_processor@_WV?$stream_output_adapter@_W@__crt_stdio_output@@V?$format_validation_base@_WV?$stream_output_adapter@_W@__crt_stdio_output@@@2@@__crt_stdio_output@@CAPA_WXZ 10027d02 f i libucrt:output.obj
 0001:00026d08       ?wide_null_string@?$output_processor@_WV?$stream_output_adapter@_W@__crt_stdio_output@@V?$positional_parameter_base@_WV?$stream_output_adapter@_W@__crt_stdio_output@@@2@@__crt_stdio_output@@CAPA_WXZ 10027d08 f i libucrt:output.obj
 0001:00026d0e       ?wide_null_string@?$output_processor@_WV?$stream_output_adapter@_W@__crt_stdio_output@@V?$standard_base@_WV?$stream_output_adapter@_W@__crt_stdio_output@@@2@@__crt_stdio_output@@CAPA_WXZ 10027d0e f i libucrt:output.obj
 0001:00026d14       ?wide_null_string@?$output_processor@_WV?$string_output_adapter@_W@__crt_stdio_output@@V?$format_validation_base@_WV?$string_output_adapter@_W@__crt_stdio_output@@@2@@__crt_stdio_output@@CAPA_WXZ 10027d14 f i libucrt:output.obj
 0001:00026d1a       ?wide_null_string@?$output_processor@_WV?$string_output_adapter@_W@__crt_stdio_output@@V?$positional_parameter_base@_WV?$string_output_adapter@_W@__crt_stdio_output@@@2@@__crt_stdio_output@@CAPA_WXZ 10027d1a f i libucrt:output.obj
 0001:00026d20       ?wide_null_string@?$output_processor@_WV?$string_output_adapter@_W@__crt_stdio_output@@V?$standard_base@_WV?$string_output_adapter@_W@__crt_stdio_output@@@2@@__crt_stdio_output@@CAPA_WXZ 10027d20 f i libucrt:output.obj
 0001:00026d26       ?write_character@?$output_adapter_common@DV?$stream_output_adapter@D@__crt_stdio_output@@@__crt_stdio_output@@QBEXDQAHAAV__crt_cached_ptd_host@@@Z 10027d26 f i libucrt:output.obj
 0001:00026d48       ?write_character@?$output_adapter_common@_WV?$stream_output_adapter@_W@__crt_stdio_output@@@__crt_stdio_output@@QBEX_WQAHAAV__crt_cached_ptd_host@@@Z 10027d48 f i libucrt:output.obj
 0001:00026d6a       ?write_character@?$string_output_adapter@D@__crt_stdio_output@@QBE_NDQAHAAV__crt_cached_ptd_host@@@Z 10027d6a f i libucrt:output.obj
 0001:00026dac       ?write_character@?$string_output_adapter@_W@__crt_stdio_output@@QBE_N_WQAHAAV__crt_cached_ptd_host@@@Z 10027dac f i libucrt:output.obj
 0001:00026df1       ?write_character_without_count_update@?$stream_output_adapter@D@__crt_stdio_output@@QBE_NDAAV__crt_cached_ptd_host@@@Z 10027df1 f i libucrt:output.obj
 0001:00026e2b       ?write_character_without_count_update@?$stream_output_adapter@_W@__crt_stdio_output@@QBE_N_WAAV__crt_cached_ptd_host@@@Z 10027e2b f i libucrt:output.obj
 0001:00026e68       ?write_stored_string_tchar@?$output_processor@DV?$stream_output_adapter@D@__crt_stdio_output@@V?$format_validation_base@DV?$stream_output_adapter@D@__crt_stdio_output@@@2@@__crt_stdio_output@@AAE_ND@Z 10027e68 f i libucrt:output.obj
 0001:00026f13       ?write_stored_string_tchar@?$output_processor@DV?$stream_output_adapter@D@__crt_stdio_output@@V?$positional_parameter_base@DV?$stream_output_adapter@D@__crt_stdio_output@@@2@@__crt_stdio_output@@AAE_ND@Z 10027f13 f i libucrt:output.obj
 0001:00026fbe       ?write_stored_string_tchar@?$output_processor@DV?$stream_output_adapter@D@__crt_stdio_output@@V?$standard_base@DV?$stream_output_adapter@D@__crt_stdio_output@@@2@@__crt_stdio_output@@AAE_ND@Z 10027fbe f i libucrt:output.obj
 0001:00027069       ?write_stored_string_tchar@?$output_processor@DV?$string_output_adapter@D@__crt_stdio_output@@V?$format_validation_base@DV?$string_output_adapter@D@__crt_stdio_output@@@2@@__crt_stdio_output@@AAE_ND@Z 10028069 f i libucrt:output.obj
 0001:00027114       ?write_stored_string_tchar@?$output_processor@DV?$string_output_adapter@D@__crt_stdio_output@@V?$positional_parameter_base@DV?$string_output_adapter@D@__crt_stdio_output@@@2@@__crt_stdio_output@@AAE_ND@Z 10028114 f i libucrt:output.obj
 0001:000271bf       ?write_stored_string_tchar@?$output_processor@DV?$string_output_adapter@D@__crt_stdio_output@@V?$standard_base@DV?$string_output_adapter@D@__crt_stdio_output@@@2@@__crt_stdio_output@@AAE_ND@Z 100281bf f i libucrt:output.obj
 0001:0002726a       ?write_stored_string_tchar@?$output_processor@_WV?$stream_output_adapter@_W@__crt_stdio_output@@V?$format_validation_base@_WV?$stream_output_adapter@_W@__crt_stdio_output@@@2@@__crt_stdio_output@@AAE_N_W@Z 1002826a f i libucrt:output.obj
 0001:00027317       ?write_stored_string_tchar@?$output_processor@_WV?$stream_output_adapter@_W@__crt_stdio_output@@V?$positional_parameter_base@_WV?$stream_output_adapter@_W@__crt_stdio_output@@@2@@__crt_stdio_output@@AAE_N_W@Z 10028317 f i libucrt:output.obj
 0001:000273c4       ?write_stored_string_tchar@?$output_processor@_WV?$stream_output_adapter@_W@__crt_stdio_output@@V?$standard_base@_WV?$stream_output_adapter@_W@__crt_stdio_output@@@2@@__crt_stdio_output@@AAE_N_W@Z 100283c4 f i libucrt:output.obj
 0001:00027471       ?write_stored_string_tchar@?$output_processor@_WV?$string_output_adapter@_W@__crt_stdio_output@@V?$format_validation_base@_WV?$string_output_adapter@_W@__crt_stdio_output@@@2@@__crt_stdio_output@@AAE_N_W@Z 10028471 f i libucrt:output.obj
 0001:0002754e       ?write_stored_string_tchar@?$output_processor@_WV?$string_output_adapter@_W@__crt_stdio_output@@V?$positional_parameter_base@_WV?$string_output_adapter@_W@__crt_stdio_output@@@2@@__crt_stdio_output@@AAE_N_W@Z 1002854e f i libucrt:output.obj
 0001:0002762b       ?write_stored_string_tchar@?$output_processor@_WV?$string_output_adapter@_W@__crt_stdio_output@@V?$standard_base@_WV?$string_output_adapter@_W@__crt_stdio_output@@@2@@__crt_stdio_output@@AAE_N_W@Z 1002862b f i libucrt:output.obj
 0001:00027708       ?write_string@?$stream_output_adapter@D@__crt_stdio_output@@QBEXQBDHQAHAAV__crt_cached_ptd_host@@@Z 10028708 f i libucrt:output.obj
 0001:00027734       ?write_string@?$stream_output_adapter@_W@__crt_stdio_output@@QBEXQB_WHQAHAAV__crt_cached_ptd_host@@@Z 10028734 f i libucrt:output.obj
 0001:00027760       ?write_string@?$string_output_adapter@D@__crt_stdio_output@@QBEXQBDHQAHAAV__crt_cached_ptd_host@@@Z 10028760 f i libucrt:output.obj
 0001:000277c7       ?write_string@?$string_output_adapter@_W@__crt_stdio_output@@QBEXQB_WHQAHAAV__crt_cached_ptd_host@@@Z 100287c7 f i libucrt:output.obj
 0001:00027838       ?write_string_impl@?$output_adapter_common@DV?$stream_output_adapter@D@__crt_stdio_output@@@__crt_stdio_output@@IBEXQBDHQAHAAV__crt_cached_ptd_host@@@Z 10028838 f i libucrt:output.obj
 0001:000278b7       ?write_string_impl@?$output_adapter_common@_WV?$stream_output_adapter@_W@__crt_stdio_output@@@__crt_stdio_output@@IBEXQB_WHQAHAAV__crt_cached_ptd_host@@@Z 100288b7 f i libucrt:output.obj
 0001:00027939       ___acrt_disable_global_locale_sync 10028939 f i libucrt:output.obj
 0001:0002794c       ___acrt_enable_global_locale_sync 1002894c f i libucrt:output.obj
 0001:00027961       ___acrt_isleadbyte_l_noupdate 10028961 f i libucrt:output.obj
 0001:0002797f       ___acrt_locale_changed     1002897f f i libucrt:output.obj
 0001:0002798a       ___acrt_locale_get_ctype_array_value 1002898a f i libucrt:output.obj
 0001:000279ac       ___ascii_iswalpha          100289ac f i libucrt:output.obj
 0001:000279cf       ___ascii_toupper           100289cf f i libucrt:output.obj
 0001:000279e6       ___ascii_towupper          100289e6 f i libucrt:output.obj
 0001:000279fd       ___stdio_common_vfprintf   100289fd f   libucrt:output.obj
 0001:00027aa1       ___stdio_common_vfprintf_p 10028aa1 f   libucrt:output.obj
 0001:00027b45       ___stdio_common_vfprintf_s 10028b45 f   libucrt:output.obj
 0001:00027be9       ___stdio_common_vfwprintf  10028be9 f   libucrt:output.obj
 0001:00027c8d       ___stdio_common_vfwprintf_p 10028c8d f   libucrt:output.obj
 0001:00027d31       ___stdio_common_vfwprintf_s 10028d31 f   libucrt:output.obj
 0001:00027dd5       ___stdio_common_vsnprintf_s 10028dd5 f   libucrt:output.obj
 0001:00027e19       ___stdio_common_vsnwprintf_s 10028e19 f   libucrt:output.obj
 0001:00027e5d       ___stdio_common_vsprintf   10028e5d f   libucrt:output.obj
 0001:00027e9e       ___stdio_common_vsprintf_p 10028e9e f   libucrt:output.obj
 0001:00027edf       ___stdio_common_vsprintf_s 10028edf f   libucrt:output.obj
 0001:00027f20       ___stdio_common_vswprintf  10028f20 f   libucrt:output.obj
 0001:00027f61       ___stdio_common_vswprintf_p 10028f61 f   libucrt:output.obj
 0001:00027fa2       ___stdio_common_vswprintf_s 10028fa2 f   libucrt:output.obj
 0001:00027fe3       __ctype_fast_check_internal 10028fe3 f i libucrt:output.obj
 0001:00027ffd       __isdigit_fast_internal    10028ffd f i libucrt:output.obj
 0001:00028017       __tolower_fast_internal    10029017 f i libucrt:output.obj
 0001:00028046       __get_terminate            10029046 f   libucrt:terminate.obj
 0001:00028058       _set_terminate             10029058 f   libucrt:terminate.obj
 0001:00028078       _terminate                 10029078 f   libucrt:terminate.obj
 0001:000280b4       ??$?B$$A6AHI@Z@__crt_fast_encoded_nullptr_t@@QBEP6AHI@ZXZ 100290b4 f i libucrt:new_handler.obj
 0001:000280ba       ??$__crt_fast_decode_pointer@P6AHI@Z@@YAP6AHI@ZQ6AHI@Z@Z 100290ba f i libucrt:new_handler.obj
 0001:000280d5       ??$__crt_fast_encode_pointer@P6AHI@Z@@YAP6AHI@ZQ6AHI@Z@Z 100290d5 f i libucrt:new_handler.obj
 0001:000280f4       ?__crt_fast_encode_pointer@@YA?AU__crt_fast_encoded_nullptr_t@@$$T@Z 100290f4 f i libucrt:new_handler.obj
 0001:000280ff       ?__crt_rotate_pointer_value@@YAIIH@Z 100290ff f i libucrt:new_handler.obj
 0001:0002810e       ?_set_new_handler@@YAP6AHI@ZH@Z 1002910e f   libucrt:new_handler.obj
 0001:0002811b       ?get_current_state_index@__crt_state_management@@YAIXZ 1002911b f i libucrt:new_handler.obj
 0001:0002811e       ?initialize@?$dual_state_global@P6AHI@Z@__crt_state_management@@QAEXQ6AHI@Z@Z 1002911e f i libucrt:new_handler.obj
 0001:0002813a       ?value@?$dual_state_global@P6AHI@Z@__crt_state_management@@QAEAAP6AHI@ZXZ 1002913a f i libucrt:new_handler.obj
 0001:0002813d       ___acrt_initialize_new_handler 1002913d f   libucrt:new_handler.obj
 0001:0002814c       __callnewh                 1002914c f   libucrt:new_handler.obj
 0001:00028178       __query_new_handler        10029178 f   libucrt:new_handler.obj
 0001:000281cf       __set_new_handler          100291cf f   libucrt:new_handler.obj
 0001:00028258       __seh_filter_dll           10029258 f   libucrt:exception_filter.obj
 0001:00028278       __seh_filter_exe           10029278 f   libucrt:exception_filter.obj
 0001:000283be       ??$?B$$A6GXPAXK0@Z@__crt_fast_encoded_nullptr_t@@QBEP6GXPAXK0@ZXZ 100293be f i libucrt:exit.obj
 0001:00028466       ??$__crt_fast_decode_pointer@P6GXPAXK0@Z@@YAP6GXPAXK0@ZQ6GX0K0@Z@Z 10029466 f i libucrt:exit.obj
 0001:00028481       ??$__crt_fast_encode_pointer@P6GXPAXK0@Z@@YAP6GXPAXK0@ZQ6GX0K0@Z@Z 10029481 f i libucrt:exit.obj
 0001:000284a0       ??$__crt_get_proc_address@P6GXI@Z@@YAP6GXI@ZQAUHINSTANCE__@@QBD@Z 100294a0 f i libucrt:exit.obj
 0001:000284f3       ??0?$__crt_unique_handle_t@U__crt_hmodule_traits@@@@QAE@QAUHINSTANCE__@@@Z 100294f3 f i libucrt:exit.obj
 0001:00028503       ??1?$__crt_unique_handle_t@U__crt_hmodule_traits@@@@QAE@XZ 10029503 f i libucrt:exit.obj
 0001:00028614       ?__acrt_select_exit_lock@@YA?AW4__acrt_lock_id@@XZ 10029614 f i libucrt:exit.obj
 0001:0002862b       ?close@?$__crt_unique_handle_t@U__crt_hmodule_traits@@@@QAEXXZ 1002962b f i libucrt:exit.obj
 0001:00028642       ?close@__crt_hmodule_traits@@SA_NPAUHINSTANCE__@@@Z 10029642 f i libucrt:exit.obj
 0001:0002871f       ?get@?$__crt_unique_handle_t@U__crt_hmodule_traits@@@@QBEPAUHINSTANCE__@@XZ 1002971f f i libucrt:exit.obj
 0001:00028722       ?get_address_of@?$__crt_unique_handle_t@U__crt_hmodule_traits@@@@QAEPAPAUHINSTANCE__@@XZ 10029722 f i libucrt:exit.obj
 0001:00028725       ?get_invalid_value@__crt_hmodule_traits@@SAPAUHINSTANCE__@@XZ 10029725 f i libucrt:exit.obj
 0001:00028805       __Exit                     10029805 f   libucrt:exit.obj
 0001:0002881b       ___acrt_initialize_thread_local_exit_callback 1002981b f   libucrt:exit.obj
 0001:0002882a       __c_exit                   1002982a f   libucrt:exit.obj
 0001:00028839       __cexit                    10029839 f   libucrt:exit.obj
 0001:00028848       __exit                     10029848 f   libucrt:exit.obj
 0001:0002885e       __is_c_termination_complete 1002985e f   libucrt:exit.obj
 0001:00028865       __register_thread_local_exe_atexit_callback 10029865 f   libucrt:exit.obj
 0001:0002888b       _exit                      1002988b f   libucrt:exit.obj
 0001:000288a1       _quick_exit                100298a1 f   libucrt:exit.obj
 0001:000288b7       ??$?RE@__crt_internal_free_policy@@QBEXQBE@Z 100298b7 f i libucrt:argv_parsing.obj
 0001:000288c9       ??$?RPAD@__crt_internal_free_policy@@QBEXQBQAD@Z 100298c9 f i libucrt:argv_parsing.obj
 0001:000288db       ??$?RPA_W@__crt_internal_free_policy@@QBEXQBQA_W@Z 100298db f i libucrt:argv_parsing.obj
 0001:00028b60       ??$get_module_file_name@$$TAAY0BAF@DH@?$__crt_char_traits@D@@SAK$$QA$$TAAY0BAF@D$$QAH@Z 10029b60 f i libucrt:argv_parsing.obj
 0001:00028b7c       ??$get_module_file_name@$$TAAY0BAF@_WH@?$__crt_char_traits@_W@@SAK$$QA$$TAAY0BAF@_W$$QAH@Z 10029b7c f i libucrt:argv_parsing.obj
 0001:00028eab       ??$set_program_name@PAD@?$__crt_char_traits@D@@SAX$$QAPAD@Z 10029eab f i libucrt:argv_parsing.obj
 0001:00028ebc       ??$set_program_name@PA_W@?$__crt_char_traits@_W@@SAX$$QAPA_W@Z 10029ebc f i libucrt:argv_parsing.obj
 0001:00028eed       ??0?$__crt_unique_heap_ptr@EU__crt_internal_free_policy@@@@QAE@QAE@Z 10029eed f i libucrt:argv_parsing.obj
 0001:00028efd       ??0?$__crt_unique_heap_ptr@PADU__crt_internal_free_policy@@@@QAE@QAPAD@Z 10029efd f i libucrt:argv_parsing.obj
 0001:00028f0d       ??0?$__crt_unique_heap_ptr@PA_WU__crt_internal_free_policy@@@@QAE@QAPA_W@Z 10029f0d f i libucrt:argv_parsing.obj
 0001:00028f1d       ??1?$__crt_unique_heap_ptr@EU__crt_internal_free_policy@@@@QAE@XZ 10029f1d f i libucrt:argv_parsing.obj
 0001:00028f2f       ??1?$__crt_unique_heap_ptr@PADU__crt_internal_free_policy@@@@QAE@XZ 10029f2f f i libucrt:argv_parsing.obj
 0001:00028f41       ??1?$__crt_unique_heap_ptr@PA_WU__crt_internal_free_policy@@@@QAE@XZ 10029f41 f i libucrt:argv_parsing.obj
 0001:00028f53       ??B?$__crt_unique_heap_ptr@EU__crt_internal_free_policy@@@@QBE_NXZ 10029f53 f i libucrt:argv_parsing.obj
 0001:00028f86       ?detach@?$__crt_unique_heap_ptr@EU__crt_internal_free_policy@@@@QAEPAEXZ 10029f86 f i libucrt:argv_parsing.obj
 0001:00028f8c       ?detach@?$__crt_unique_heap_ptr@PADU__crt_internal_free_policy@@@@QAEPAPADXZ 10029f8c f i libucrt:argv_parsing.obj
 0001:00028f92       ?detach@?$__crt_unique_heap_ptr@PA_WU__crt_internal_free_policy@@@@QAEPAPA_WXZ 10029f92 f i libucrt:argv_parsing.obj
 0001:00028fb6       ?get@?$__crt_unique_heap_ptr@EU__crt_internal_free_policy@@@@QBEPAEXZ 10029fb6 f i libucrt:argv_parsing.obj
 0001:00028fb9       ?get@?$__crt_unique_heap_ptr@PADU__crt_internal_free_policy@@@@QBEPAPADXZ 10029fb9 f i libucrt:argv_parsing.obj
 0001:00028fbc       ?get@?$__crt_unique_heap_ptr@PA_WU__crt_internal_free_policy@@@@QBEPAPA_WXZ 10029fbc f i libucrt:argv_parsing.obj
 0001:00028fbf       ?get_address_of@?$__crt_unique_heap_ptr@PADU__crt_internal_free_policy@@@@QAEPAPAPADXZ 10029fbf f i libucrt:argv_parsing.obj
 0001:00028fc2       ?get_address_of@?$__crt_unique_heap_ptr@PA_WU__crt_internal_free_policy@@@@QAEPAPAPA_WXZ 10029fc2 f i libucrt:argv_parsing.obj
 0001:00028fdd       ?is_valid@?$__crt_unique_heap_ptr@EU__crt_internal_free_policy@@@@QBE_NXZ 10029fdd f i libucrt:argv_parsing.obj
 0001:00028fe4       ?release@?$__crt_unique_heap_ptr@EU__crt_internal_free_policy@@@@QAEXXZ 10029fe4 f i libucrt:argv_parsing.obj
 0001:00028ff6       ?release@?$__crt_unique_heap_ptr@PADU__crt_internal_free_policy@@@@QAEXXZ 10029ff6 f i libucrt:argv_parsing.obj
 0001:00029008       ?release@?$__crt_unique_heap_ptr@PA_WU__crt_internal_free_policy@@@@QAEXXZ 1002a008 f i libucrt:argv_parsing.obj
 0001:00029034       ___acrt_allocate_buffer_for_argv 1002a034 f   libucrt:argv_parsing.obj
 0001:00029083       __configure_narrow_argv    1002a083 f   libucrt:argv_parsing.obj
 0001:0002908e       __configure_wide_argv      1002a08e f   libucrt:argv_parsing.obj
 0001:00029099       __set_pgmptr               1002a099 f i libucrt:argv_parsing.obj
 0001:000290a8       __set_wpgmptr              1002a0a8 f i libucrt:argv_parsing.obj
 0001:000290b7       ??$?R_W@__crt_internal_free_policy@@QBEXQB_W@Z 1002a0b7 f i libucrt:environment_initialization.obj
 0001:000294d3       ??$get_environment_from_os@$$V@?$__crt_char_traits@D@@SAPADXZ 1002a4d3 f i libucrt:environment_initialization.obj
 0001:000294d8       ??$get_environment_from_os@$$V@?$__crt_char_traits@_W@@SAPA_WXZ 1002a4d8 f i libucrt:environment_initialization.obj
 0001:000295e1       ??$set_variable_in_environment_nolock@PADH@?$__crt_char_traits@D@@SAH$$QAPAD$$QAH@Z 1002a5e1 f i libucrt:environment_initialization.obj
 0001:000295f9       ??$set_variable_in_environment_nolock@PA_WH@?$__crt_char_traits@_W@@SAH$$QAPA_W$$QAH@Z 1002a5f9 f i libucrt:environment_initialization.obj
 0001:00029611       ??$tcscpy_s@PADABIAAPAD@?$__crt_char_traits@D@@SAH$$QAPADABIAAPAD@Z 1002a611 f i libucrt:environment_initialization.obj
 0001:0002962f       ??$tcscpy_s@PA_WABIAAPA_W@?$__crt_char_traits@_W@@SAH$$QAPA_WABIAAPA_W@Z 1002a62f f i libucrt:environment_initialization.obj
 0001:0002964d       ??$tcslen@AAPAD@?$__crt_char_traits@D@@SAIAAPAD@Z 1002a64d f i libucrt:environment_initialization.obj
 0001:00029665       ??$tcslen@AAPA_W@?$__crt_char_traits@_W@@SAIAAPA_W@Z 1002a665 f i libucrt:environment_initialization.obj
 0001:00029683       ??$uninitialize@A6AXAAPAPAD@_E@?$dual_state_global@PAPAD@__crt_state_management@@QAEXA6AXAAPAPAD@_E@Z 1002a683 f i libucrt:environment_initialization.obj
 0001:000296db       ??$uninitialize@A6AXAAPAPA_W@_E@?$dual_state_global@PAPA_W@__crt_state_management@@QAEXA6AXAAPAPA_W@_E@Z 1002a6db f i libucrt:environment_initialization.obj
 0001:00029769       ??0?$__crt_unique_heap_ptr@_WU__crt_internal_free_policy@@@@QAE@QA_W@Z 1002a769 f i libucrt:environment_initialization.obj
 0001:00029779       ??1?$__crt_unique_heap_ptr@_WU__crt_internal_free_policy@@@@QAE@XZ 1002a779 f i libucrt:environment_initialization.obj
 0001:0002978b       ??B?$__crt_unique_heap_ptr@PADU__crt_internal_free_policy@@@@QBE_NXZ 1002a78b f i libucrt:environment_initialization.obj
 0001:00029792       ??B?$__crt_unique_heap_ptr@PA_WU__crt_internal_free_policy@@@@QBE_NXZ 1002a792 f i libucrt:environment_initialization.obj
 0001:00029799       ??B?$__crt_unique_heap_ptr@_WU__crt_internal_free_policy@@@@QBE_NXZ 1002a799 f i libucrt:environment_initialization.obj
 0001:000297a0       ?__crt_compute_required_transform_buffer_count@@YAIIQBD@Z 1002a7a0 f i libucrt:environment_initialization.obj
 0001:000297bc       ?__crt_compute_required_transform_buffer_count@@YAIIQB_W@Z 1002a7bc f i libucrt:environment_initialization.obj
 0001:000297da       ?__crt_transform_string@@YAIIQBDQA_WI@Z 1002a7da f i libucrt:environment_initialization.obj
 0001:000297f9       ?__crt_transform_string@@YAIIQB_WQADI@Z 1002a7f9 f i libucrt:environment_initialization.obj
 0001:0002981b       ?detach@?$__crt_unique_heap_ptr@DU__crt_internal_free_policy@@@@QAEPADXZ 1002a81b f i libucrt:environment_initialization.obj
 0001:00029821       ?detach@?$__crt_unique_heap_ptr@_WU__crt_internal_free_policy@@@@QAEPA_WXZ 1002a821 f i libucrt:environment_initialization.obj
 0001:00029827       ?get@?$__crt_unique_heap_ptr@_WU__crt_internal_free_policy@@@@QBEPA_WXZ 1002a827 f i libucrt:environment_initialization.obj
 0001:0002984e       ?initialize@?$dual_state_global@PAPAD@__crt_state_management@@QAEXQAPAD@Z 1002a84e f i libucrt:environment_initialization.obj
 0001:0002986a       ?initialize@?$dual_state_global@PAPA_W@__crt_state_management@@QAEXQAPA_W@Z 1002a86a f i libucrt:environment_initialization.obj
 0001:00029886       ?is_valid@?$__crt_unique_heap_ptr@PADU__crt_internal_free_policy@@@@QBE_NXZ 1002a886 f i libucrt:environment_initialization.obj
 0001:0002988d       ?is_valid@?$__crt_unique_heap_ptr@PA_WU__crt_internal_free_policy@@@@QBE_NXZ 1002a88d f i libucrt:environment_initialization.obj
 0001:00029894       ?is_valid@?$__crt_unique_heap_ptr@_WU__crt_internal_free_policy@@@@QBE_NXZ 1002a894 f i libucrt:environment_initialization.obj
 0001:000298a3       ?release@?$__crt_unique_heap_ptr@_WU__crt_internal_free_policy@@@@QAEXXZ 1002a8a3 f i libucrt:environment_initialization.obj
 0001:000298b5       ?value@?$dual_state_global@PAPAD@__crt_state_management@@QAEAAPAPADXZ 1002a8b5 f i libucrt:environment_initialization.obj
 0001:000298b8       ?value@?$dual_state_global@PAPA_W@__crt_state_management@@QAEAAPAPA_WXZ 1002a8b8 f i libucrt:environment_initialization.obj
 0001:000298bb       ___dcrt_get_or_create_narrow_environment_nolock 1002a8bb f   libucrt:environment_initialization.obj
 0001:000298c0       ___dcrt_get_or_create_wide_environment_nolock 1002a8c0 f   libucrt:environment_initialization.obj
 0001:000298c5       ___dcrt_uninitialize_environments_nolock 1002a8c5 f   libucrt:environment_initialization.obj
 0001:00029916       ___p__environ              1002a916 f   libucrt:environment_initialization.obj
 0001:0002991c       ___p__wenviron             1002a91c f   libucrt:environment_initialization.obj
 0001:00029922       __get_initial_narrow_environment 1002a922 f   libucrt:environment_initialization.obj
 0001:00029936       __get_initial_wide_environment 1002a936 f   libucrt:environment_initialization.obj
 0001:0002994a       __initialize_narrow_environment 1002a94a f   libucrt:environment_initialization.obj
 0001:0002994f       __initialize_wide_environment 1002a94f f   libucrt:environment_initialization.obj
 0001:00029954       __invoke_watson_if_error   1002a954 f i libucrt:environment_initialization.obj
 0001:00029976       ??$?B$$A6AXXZ@__crt_fast_encoded_nullptr_t@@QBEP6AXXZXZ 1002a976 f i libucrt:onexit.obj
 0001:0002997c       ??$?BP6AXXZ@__crt_fast_encoded_nullptr_t@@QBEPAP6AXXZXZ 1002a97c f i libucrt:onexit.obj
 0001:00029982       ??$?RP6AXXZ@__crt_internal_free_policy@@QBEXQBQ6AXXZ@Z 1002a982 f i libucrt:onexit.obj
 0001:00029ac5       ??$__crt_fast_decode_pointer@P6AXXZ@@YAP6AXXZQ6AXXZ@Z 1002aac5 f i libucrt:onexit.obj
 0001:00029ae0       ??$__crt_fast_decode_pointer@PAP6AXXZ@@YAPAP6AXXZQAP6AXXZ@Z 1002aae0 f i libucrt:onexit.obj
 0001:00029afb       ??$__crt_fast_encode_pointer@P6AHXZ@@YAP6AHXZQ6AHXZ@Z 1002aafb f i libucrt:onexit.obj
 0001:00029b1a       ??$__crt_fast_encode_pointer@P6AXXZ@@YAP6AXXZQ6AXXZ@Z 1002ab1a f i libucrt:onexit.obj
 0001:00029b39       ??$__crt_fast_encode_pointer@PAP6AXXZ@@YAPAP6AXXZQAP6AXXZ@Z 1002ab39 f i libucrt:onexit.obj
 0001:00029bc6       ??0?$__crt_unique_heap_ptr@P6AXXZU__crt_internal_free_policy@@@@QAE@QAP6AXXZ@Z 1002abc6 f i libucrt:onexit.obj
 0001:00029bd6       ??1?$__crt_unique_heap_ptr@P6AXXZU__crt_internal_free_policy@@@@QAE@XZ 1002abd6 f i libucrt:onexit.obj
 0001:00029be8       ??1scoped_global_state_reset@__crt_state_management@@QAE@XZ 1002abe8 f i libucrt:onexit.obj
 0001:00029deb       ?detach@?$__crt_unique_heap_ptr@P6AXXZU__crt_internal_free_policy@@@@QAEPAP6AXXZXZ 1002adeb f i libucrt:onexit.obj
 0001:00029df1       ?release@?$__crt_unique_heap_ptr@P6AXXZU__crt_internal_free_policy@@@@QAEXXZ 1002adf1 f i libucrt:onexit.obj
 0001:00029e03       __crt_at_quick_exit        1002ae03 f   libucrt:onexit.obj
 0001:00029e19       __crt_atexit               1002ae19 f   libucrt:onexit.obj
 0001:00029e2f       __execute_onexit_table     1002ae2f f   libucrt:onexit.obj
 0001:00029e6d       __initialize_onexit_table  1002ae6d f   libucrt:onexit.obj
 0001:00029e96       __register_onexit_function 1002ae96 f   libucrt:onexit.obj
 0001:00029fa5       ??$?BX@__crt_fast_encoded_nullptr_t@@QBEPAXXZ 1002afa5 f i libucrt:initialization.obj
 0001:00029fab       ??$__crt_fast_encode_pointer@PAX@@YAPAXQAX@Z 1002afab f i libucrt:initialization.obj
 0001:0002a01c       ?__acrt_stdio_is_initialized@@YA_NXZ 1002b01c f i libucrt:initialization.obj
 0001:0002a027       ?initialize@?$dual_state_global@PAU__crt_locale_data@@@__crt_state_management@@QAEXQAU__crt_locale_data@@@Z 1002b027 f i libucrt:initialization.obj
 0001:0002a043       ___acrt_initialize         1002b043 f   libucrt:initialization.obj
 0001:0002a055       ___acrt_thread_attach      1002b055 f   libucrt:initialization.obj
 0001:0002a060       ___acrt_thread_detach      1002b060 f   libucrt:initialization.obj
 0001:0002a068       ___acrt_uninitialize       1002b068 f   libucrt:initialization.obj
 0001:0002a098       ___acrt_uninitialize_critical 1002b098 f   libucrt:initialization.obj
 0001:0002a0aa       __initterm                 1002b0aa f   libucrt:initterm.obj
 0001:0002a0d5       __initterm_e               1002b0d5 f   libucrt:initterm.obj
 0001:0002a103       __set_abort_behavior       1002b103 f   libucrt:abort.obj
 0001:0002a124       _abort                     1002b124 f   libucrt:abort.obj
 0001:0002a168       _calloc                    1002b168 f   libucrt:calloc.obj
 0001:0002a173       ??$is_overflow_condition@_K@__crt_strtox@@YA_NI_K@Z 1002b173 f i libucrt:atox.obj
 0001:0002a1b4       ??$make_c_string_character_source@D$$T@__crt_strtox@@YA?AV?$c_string_character_source@D@0@QBD$$T@Z 1002b1b4 f i libucrt:atox.obj
 0001:0002a1cf       ??$make_c_string_character_source@_W$$T@__crt_strtox@@YA?AV?$c_string_character_source@_W@0@QB_W$$T@Z 1002b1cf f i libucrt:atox.obj
 0001:0002a1ea       ??$parse_integer@KV?$c_string_character_source@D@__crt_strtox@@$00@__crt_strtox@@YAKAAV__crt_cached_ptd_host@@V?$c_string_character_source@D@0@H_N@Z 1002b1ea f i libucrt:atox.obj
 0001:0002a431       ??$parse_integer@KV?$c_string_character_source@_W@__crt_strtox@@$00@__crt_strtox@@YAKAAV__crt_cached_ptd_host@@V?$c_string_character_source@_W@0@H_N@Z 1002b431 f i libucrt:atox.obj
 0001:0002aa3f       ??$parse_integer@_KV?$c_string_character_source@D@__crt_strtox@@$00@__crt_strtox@@YA_KAAV__crt_cached_ptd_host@@V?$c_string_character_source@D@0@H_N@Z 1002ba3f f i libucrt:atox.obj
 0001:0002ad07       ??$parse_integer@_KV?$c_string_character_source@_W@__crt_strtox@@$00@__crt_strtox@@YA_KAAV__crt_cached_ptd_host@@V?$c_string_character_source@_W@0@H_N@Z 1002bd07 f i libucrt:atox.obj
 0001:0002b38d       ??$parse_integer_from_string@JD$$T@__crt_strtox@@YAJQBD$$THQAU__crt_locale_pointers@@@Z 1002c38d f i libucrt:atox.obj
 0001:0002b3d4       ??$parse_integer_from_string@J_W$$T@__crt_strtox@@YAJQB_W$$THQAU__crt_locale_pointers@@@Z 1002c3d4 f i libucrt:atox.obj
 0001:0002b41b       ??$parse_integer_from_string@_JD$$T@__crt_strtox@@YA_JQBD$$THQAU__crt_locale_pointers@@@Z 1002c41b f i libucrt:atox.obj
 0001:0002b468       ??$parse_integer_from_string@_J_W$$T@__crt_strtox@@YA_JQB_W$$THQAU__crt_locale_pointers@@@Z 1002c468 f i libucrt:atox.obj
 0001:0002b4b5       ?is_space@__crt_strtox@@YA_NDQAU__crt_locale_pointers@@@Z 1002c4b5 f i libucrt:atox.obj
 0001:0002b4d3       ?is_space@__crt_strtox@@YA_N_WPAU__crt_locale_pointers@@@Z 1002c4d3 f i libucrt:atox.obj
 0001:0002b4eb       ?maximum_signed_value@__crt_strtox@@YA_J_K@Z 1002c4eb f i libucrt:atox.obj
 0001:0002b4f4       ?minimum_signed_value@__crt_strtox@@YA_J_K@Z 1002c4f4 f i libucrt:atox.obj
 0001:0002b4fc       ___acrt_get_locale_data_prefix 1002c4fc f i libucrt:atox.obj
 0001:0002b508       __atoi64                   1002c508 f   libucrt:atox.obj
 0001:0002b54d       __atoi64_l                 1002c54d f   libucrt:atox.obj
 0001:0002b593       __atoi_l                   1002c593 f   libucrt:atox.obj
 0001:0002b5d3       __atol_l                   1002c5d3 f   libucrt:atox.obj
 0001:0002b613       __atoll_l                  1002c613 f   libucrt:atox.obj
 0001:0002b659       __chvalidchk_l             1002c659 f i libucrt:atox.obj
 0001:0002b681       __ischartype_l             1002c681 f i libucrt:atox.obj
 0001:0002b6d8       __wtoi                     1002c6d8 f   libucrt:atox.obj
 0001:0002b717       __wtoi64                   1002c717 f   libucrt:atox.obj
 0001:0002b75c       __wtoi64_l                 1002c75c f   libucrt:atox.obj
 0001:0002b7a2       __wtoi_l                   1002c7a2 f   libucrt:atox.obj
 0001:0002b7e2       __wtol                     1002c7e2 f   libucrt:atox.obj
 0001:0002b821       __wtol_l                   1002c821 f   libucrt:atox.obj
 0001:0002b861       __wtoll                    1002c861 f   libucrt:atox.obj
 0001:0002b8a6       __wtoll_l                  1002c8a6 f   libucrt:atox.obj
 0001:0002b8ec       _atoi                      1002c8ec f   libucrt:atox.obj
 0001:0002b92b       _atol                      1002c92b f   libucrt:atox.obj
 0001:0002b96a       _atoll                     1002c96a f   libucrt:atox.obj
 0001:0002b9b0       _strncmp                   1002c9b0 f   libucrt:strncmp.obj
 0001:0002ba28       _wcsncmp                   1002ca28 f   libucrt:wcsncmp.obj
 0001:0002ba62       ??$__crt_fast_decode_pointer@P6AXPB_W00II@Z@@YAP6AXPB_W00II@ZQ6AX000II@Z@Z 1002ca62 f i libucrt:invalid_parameter.obj
 0001:0002ba7d       ??$__crt_fast_encode_pointer@P6AXPB_W00II@Z@@YAP6AXPB_W00II@ZQ6AX000II@Z@Z 1002ca7d f i libucrt:invalid_parameter.obj
 0001:0002ba9c       ??$initialize_from_array@$$BY00Q6AXPB_W00II@Z@?$dual_state_global@P6AXPB_W00II@Z@__crt_state_management@@QAAXAAY00Q6AXPB_W00II@Z@Z 1002ca9c f i libucrt:invalid_parameter.obj
 0001:0002baad       ?check_synchronize_global_state_index@__crt_cached_ptd_host@@AAEIXZ 1002caad f i libucrt:invalid_parameter.obj
 0001:0002bad6       ?dangerous_get_state_array@?$dual_state_global@P6AXPB_W00II@Z@__crt_state_management@@QAEPAP6AXPB_W00II@ZXZ 1002cad6 f i libucrt:invalid_parameter.obj
 0001:0002bad9       ?get_current_global_state_index@__crt_cached_ptd_host@@QAEIXZ 1002cad9 f i libucrt:invalid_parameter.obj
 0001:0002bade       ?get_raw_ptd_noexit@__crt_cached_ptd_host@@QAEPAU__acrt_ptd@@XZ 1002cade f i libucrt:invalid_parameter.obj
 0001:0002bae9       ?try_synchronize_per_thread_data@__crt_cached_ptd_host@@AAEPAU__acrt_ptd@@XZ 1002cae9 f i libucrt:invalid_parameter.obj
 0001:0002baf4       ?value@?$dual_state_global@P6AXPB_W00II@Z@__crt_state_management@@QAEAAP6AXPB_W00II@ZAAV__crt_cached_ptd_host@@@Z 1002caf4 f i libucrt:invalid_parameter.obj
 0001:0002bb0c       ?value@?$dual_state_global@P6AXPB_W00II@Z@__crt_state_management@@QAEAAP6AXPB_W00II@ZXZ 1002cb0c f i libucrt:invalid_parameter.obj
 0001:0002bb0f       ___acrt_call_reportfault   1002cb0f f   libucrt:invalid_parameter.obj
 0001:0002bc48       ___acrt_initialize_invalid_parameter_handler 1002cc48 f   libucrt:invalid_parameter.obj
 0001:0002bc57       __get_invalid_parameter_handler 1002cc57 f   libucrt:invalid_parameter.obj
 0001:0002bc6e       __get_thread_local_invalid_parameter_handler 1002cc6e f   libucrt:invalid_parameter.obj
 0001:0002bc7f       __invalid_parameter        1002cc7f f   libucrt:invalid_parameter.obj
 0001:0002bcb6       __invalid_parameter_internal 1002ccb6 f   libucrt:invalid_parameter.obj
 0001:0002bd33       __invalid_parameter_noinfo 1002cd33 f   libucrt:invalid_parameter.obj
 0001:0002bd43       __invalid_parameter_noinfo_noreturn 1002cd43 f   libucrt:invalid_parameter.obj
 0001:0002bd60       __invoke_watson            1002cd60 f   libucrt:invalid_parameter.obj
 0001:0002bd94       __set_invalid_parameter_handler 1002cd94 f   libucrt:invalid_parameter.obj
 0001:0002bdc4       __set_thread_local_invalid_parameter_handler 1002cdc4 f   libucrt:invalid_parameter.obj
 0001:0002bde1       ?get_doserrno@__crt_cached_ptd_host@@QAE@XZ 1002cde1 f i libucrt:errno.obj
 0001:0002bde5       ?set@?$cached@K@__crt_cached_ptd_host@@QAEKK@Z 1002cde5 f i libucrt:errno.obj
 0001:0002bdf7       ___acrt_errno_from_os_error 1002cdf7 f   libucrt:errno.obj
 0001:0002be3a       ___acrt_errno_map_os_error 1002ce3a f   libucrt:errno.obj
 0001:0002be5d       ___acrt_errno_map_os_error_ptd 1002ce5d f   libucrt:errno.obj
 0001:0002be81       ___doserrno                1002ce81 f   libucrt:errno.obj
 0001:0002be94       __errno                    1002ce94 f   libucrt:errno.obj
 0001:0002bea7       __get_doserrno             1002cea7 f   libucrt:errno.obj
 0001:0002becc       __get_errno                1002cecc f   libucrt:errno.obj
 0001:0002bef1       __set_doserrno             1002cef1 f   libucrt:errno.obj
 0001:0002bf12       __set_errno                1002cf12 f   libucrt:errno.obj
 0001:0002bf39       __free_base                1002cf39 f   libucrt:free_base.obj
 0001:0002bf73       __malloc_base              1002cf73 f   libucrt:malloc_base.obj
 0001:0002bfc1       __realloc_base             1002cfc1 f   libucrt:realloc_base.obj
 0001:0002c825       ??1?$__crt_simd_cleanup_guard@$00@@QAE@XZ 1002d825 f i libucrt:strnlen.obj
 0001:0002c829       ??1?$__crt_simd_cleanup_guard@$0A@@@QAE@XZ 1002d829 f i libucrt:strnlen.obj
 0001:0002c82c       ?compare_equals@?$__crt_simd_traits@$00E@@SA?AT__m256i@@T2@0@Z 1002d82c f i libucrt:strnlen.obj
 0001:0002c831       ?compare_equals@?$__crt_simd_traits@$00G@@SA?AT__m256i@@T2@0@Z 1002d831 f i libucrt:strnlen.obj
 0001:0002c836       ?compare_equals@?$__crt_simd_traits@$0A@E@@SA?AT__m128i@@T2@0@Z 1002d836 f i libucrt:strnlen.obj
 0001:0002c83b       ?compare_equals@?$__crt_simd_traits@$0A@G@@SA?AT__m128i@@T2@0@Z 1002d83b f i libucrt:strnlen.obj
 0001:0002c840       ?compute_byte_mask@?$__crt_simd_pack_traits@$00@@SAHT__m256i@@@Z 1002d840 f i libucrt:strnlen.obj
 0001:0002c845       ?compute_byte_mask@?$__crt_simd_pack_traits@$0A@@@SAHT__m128i@@@Z 1002d845 f i libucrt:strnlen.obj
 0001:0002c84a       ?get_zero_pack@?$__crt_simd_pack_traits@$00@@SA?AT__m256i@@XZ 1002d84a f i libucrt:strnlen.obj
 0001:0002c84f       ?get_zero_pack@?$__crt_simd_pack_traits@$0A@@@SA?AT__m128i@@XZ 1002d84f f i libucrt:strnlen.obj
 0001:0002c853       _strnlen                   1002d853 f   libucrt:strnlen.obj
 0001:0002c975       _wcslen                    1002d975 f   libucrt:strnlen.obj
 0001:0002ca9d       _wcsnlen                   1002da9d f   libucrt:strnlen.obj
 0001:0002cc4d       ?value@?$dual_state_global@PAU__crt_locale_data@@@__crt_state_management@@QAEAAPAU__crt_locale_data@@XZ 1002dc4d f i libucrt:locale_update.obj
 0001:0002cc50       ?value@?$dual_state_global@PAU__crt_multibyte_data@@@__crt_state_management@@QAEAAPAU__crt_multibyte_data@@XZ 1002dc50 f i libucrt:locale_update.obj
 0001:0002cc53       ?value_explicit@?$dual_state_global@PAU__crt_locale_data@@@__crt_state_management@@QAEAAPAU__crt_locale_data@@I@Z 1002dc53 f i libucrt:locale_update.obj
 0001:0002cc62       ?value_explicit@?$dual_state_global@PAU__crt_multibyte_data@@@__crt_state_management@@QAEAAPAU__crt_multibyte_data@@I@Z 1002dc62 f i libucrt:locale_update.obj
 0001:0002cc71       ___acrt_should_sync_with_global_locale 1002dc71 f i libucrt:locale_update.obj
 0001:0002cc8d       ___acrt_update_locale_info 1002dc8d f   libucrt:locale_update.obj
 0001:0002ccba       ___acrt_update_locale_info_explicit 1002dcba f   libucrt:locale_update.obj
 0001:0002cceb       ___acrt_update_multibyte_info 1002dceb f   libucrt:locale_update.obj
 0001:0002cd18       ___acrt_update_multibyte_info_explicit 1002dd18 f   libucrt:locale_update.obj
 0001:0002cd49       ?__acrt_fp_classify@@YA?AW4__acrt_fp_class@@ABN@Z 1002dd49 f i libucrt:cvt.obj
 0001:0002cdab       ?__acrt_fp_is_negative@@YA_NABN@Z 1002ddab f i libucrt:cvt.obj
 0001:0002d73a       ?strrchr@@YAPADQADH@Z      1002e73a f i libucrt:cvt.obj
 0001:0002d745       ___acrt_fp_format          1002e745 f   libucrt:cvt.obj
 0001:0002d8c6       ?value_or@?$cached@H@__crt_cached_ptd_host@@QBEHH@Z 1002e8c6 f i libucrt:wctomb.obj
 0001:0002d8dc       __wctomb_internal          1002e8dc f   libucrt:wctomb.obj
 0001:0002da46       __wctomb_l                 1002ea46 f   libucrt:wctomb.obj
 0001:0002daa1       __wctomb_s_l               1002eaa1 f   libucrt:wctomb.obj
 0001:0002dadc       _wctomb                    1002eadc f   libucrt:wctomb.obj
 0001:0002db28       _wctomb_s                  1002eb28 f   libucrt:wctomb.obj
 0001:0002db62       __isleadbyte_fast_internal 1002eb62 f i libucrt:mbtowc.obj
 0001:0002db80       __mbtowc_internal          1002eb80 f   libucrt:mbtowc.obj
 0001:0002dcb3       __mbtowc_l                 1002ecb3 f   libucrt:mbtowc.obj
 0001:0002dceb       _mbtowc                    1002eceb f   libucrt:mbtowc.obj
 0001:0002dd22       ?lowio_handle@__crt_stdio_stream@@QBEHXZ 1002ed22 f i libucrt:fileno.obj
 0001:0002dd29       __fileno                   1002ed29 f   libucrt:fileno.obj
 0001:0002dd50       ??$?RPAU__crt_stdio_stream_data@@@__crt_internal_free_policy@@QBEXQBQAU__crt_stdio_stream_data@@@Z 1002ed50 f i libucrt:_file.obj
 0001:0002dd62       ??0?$__crt_unique_heap_ptr@PAU__crt_stdio_stream_data@@U__crt_internal_free_policy@@@@QAE@QAPAU__crt_stdio_stream_data@@@Z 1002ed62 f i libucrt:_file.obj
 0001:0002dd72       ??1?$__crt_unique_heap_ptr@PAU__crt_stdio_stream_data@@U__crt_internal_free_policy@@@@QAE@XZ 1002ed72 f i libucrt:_file.obj
 0001:0002dd84       ?detach@?$__crt_unique_heap_ptr@PAU__crt_stdio_stream_data@@U__crt_internal_free_policy@@@@QAEPAPAU__crt_stdio_stream_data@@XZ 1002ed84 f i libucrt:_file.obj
 0001:0002dd8a       ?release@?$__crt_unique_heap_ptr@PAU__crt_stdio_stream_data@@U__crt_internal_free_policy@@@@QAEXXZ 1002ed8a f i libucrt:_file.obj
 0001:0002dd9c       ___acrt_initialize_stdio   1002ed9c f   libucrt:_file.obj
 0001:0002de64       ___acrt_iob_func           1002ee64 f   libucrt:_file.obj
 0001:0002de74       ___acrt_uninitialize_stdio 1002ee74 f   libucrt:_file.obj
 0001:0002dec0       __get_stream_buffer_pointers 1002eec0 f   libucrt:_file.obj
 0001:0002df06       __lock_file                1002ef06 f   libucrt:_file.obj
 0001:0002df1a       __unlock_file              1002ef1a f   libucrt:_file.obj
 0001:0002df2e       __get_printf_count_output  1002ef2e f   libucrt:printf_count_output.obj
 0001:0002df43       __set_printf_count_output  1002ef43 f   libucrt:printf_count_output.obj
 0001:0002e031       __fputwc_nolock            1002f031 f   libucrt:fputwc.obj
 0001:0002e067       __fputwc_nolock_internal   1002f067 f   libucrt:fputwc.obj
 0001:0002e19f       __fputwchar                1002f19f f   libucrt:fputwc.obj
 0001:0002e1b9       __putwc_nolock             1002f1b9 f   libucrt:fputwc.obj
 0001:0002e1c4       _fputwc                    1002f1c4 f   libucrt:fputwc.obj
 0001:0002e1fa       _putwc                     1002f1fa f   libucrt:fputwc.obj
 0001:0002e205       _putwchar                  1002f205 f   libucrt:fputwc.obj
 0001:0002e344       __fputc_nolock             1002f344 f   libucrt:fputc.obj
 0001:0002e378       __fputc_nolock_internal    1002f378 f   libucrt:fputc.obj
 0001:0002e3a5       __fputchar                 1002f3a5 f   libucrt:fputc.obj
 0001:0002e3bf       __putc_nolock              1002f3bf f   libucrt:fputc.obj
 0001:0002e3ca       _fputc                     1002f3ca f   libucrt:fputc.obj
 0001:0002e3fe       _putc                      1002f3fe f   libucrt:fputc.obj
 0001:0002e409       _putchar                   1002f409 f   libucrt:fputc.obj
 0001:0002e414       ?has_any_buffer@__crt_stdio_stream@@QBE_NXZ 1002f414 f i libucrt:_sftbuf.obj
 0001:0002e423       ?has_any_of@__crt_stdio_stream@@QBE_NJ@Z 1002f423 f i libucrt:_sftbuf.obj
 0001:0002e438       ?has_temporary_buffer@__crt_stdio_stream@@QBE_NXZ 1002f438 f i libucrt:_sftbuf.obj
 0001:0002e444       ?set_flags@__crt_stdio_stream@@QBE_NJ@Z 1002f444 f i libucrt:_sftbuf.obj
 0001:0002e468       ?unset_flags@__crt_stdio_stream@@QBE_NJ@Z 1002f468 f i libucrt:_sftbuf.obj
 0001:0002e491       ___acrt_should_use_temporary_buffer 1002f491 f   libucrt:_sftbuf.obj
 0001:0002e4cf       ___acrt_stdio_begin_temporary_buffering_nolock 1002f4cf f   libucrt:_sftbuf.obj
 0001:0002e57a       ___acrt_stdio_end_temporary_buffering_nolock 1002f57a f   libucrt:_sftbuf.obj
 0001:0002e5b8       ??$?RU__acrt_ptd@@@__crt_internal_free_policy@@QBEXQBU__acrt_ptd@@@Z 1002f5b8 f i libucrt:per_thread_data.obj
 0001:0002e8a4       ??0?$__crt_unique_heap_ptr@U__acrt_ptd@@U__crt_internal_free_policy@@@@QAE@QAU__acrt_ptd@@@Z 1002f8a4 f i libucrt:per_thread_data.obj
 0001:0002e8b4       ??1?$__crt_unique_heap_ptr@U__acrt_ptd@@U__crt_internal_free_policy@@@@QAE@XZ 1002f8b4 f i libucrt:per_thread_data.obj
 0001:0002e8c6       ??B?$__crt_unique_heap_ptr@U__acrt_ptd@@U__crt_internal_free_policy@@@@QBE_NXZ 1002f8c6 f i libucrt:per_thread_data.obj
 0001:0002ea14       ?dangerous_get_state_array@?$dual_state_global@PAU__crt_locale_data@@@__crt_state_management@@QAEPAPAU__crt_locale_data@@XZ 1002fa14 f i libucrt:per_thread_data.obj
 0001:0002eb0a       ?detach@?$__crt_unique_heap_ptr@U__acrt_ptd@@U__crt_internal_free_policy@@@@QAEPAU__acrt_ptd@@XZ 1002fb0a f i libucrt:per_thread_data.obj
 0001:0002eb10       ?get@?$__crt_unique_heap_ptr@U__acrt_ptd@@U__crt_internal_free_policy@@@@QBEPAU__acrt_ptd@@XZ 1002fb10 f i libucrt:per_thread_data.obj
 0001:0002ecf5       ?is_valid@?$__crt_unique_heap_ptr@U__acrt_ptd@@U__crt_internal_free_policy@@@@QBE_NXZ 1002fcf5 f i libucrt:per_thread_data.obj
 0001:0002ecfc       ?release@?$__crt_unique_heap_ptr@U__acrt_ptd@@U__crt_internal_free_policy@@@@QAEXXZ 1002fcfc f i libucrt:per_thread_data.obj
 0001:0002ed6d       ___acrt_freeptd            1002fd6d f   libucrt:per_thread_data.obj
 0001:0002ed99       ___acrt_getptd             1002fd99 f   libucrt:per_thread_data.obj
 0001:0002ee54       ___acrt_getptd_head        1002fe54 f   libucrt:per_thread_data.obj
 0001:0002eeea       ___acrt_getptd_noexit      1002feea f   libucrt:per_thread_data.obj
 0001:0002ef9b       ___acrt_getptd_noexit_explicit 1002ff9b f   libucrt:per_thread_data.obj
 0001:0002f03e       ___acrt_initialize_ptd     1003003e f   libucrt:per_thread_data.obj
 0001:0002f06a       ___acrt_uninitialize_ptd   1003006a f   libucrt:per_thread_data.obj
 0001:0002f084       ___threadhandle            10030084 f   libucrt:per_thread_data.obj
 0001:0002f08a       ___threadid                1003008a f   libucrt:per_thread_data.obj
 0001:0002f093       ??$?RU__crt_locale_data@@@__crt_internal_free_policy@@QBEXQBU__crt_locale_data@@@Z 10030093 f i libucrt:wsetlocale.obj
 0001:0002f0a5       ??$?RU__crt_locale_pointers@@@__crt_internal_free_policy@@QBEXQBU__crt_locale_pointers@@@Z 100300a5 f i libucrt:wsetlocale.obj
 0001:0002f0b7       ??$?RU__crt_multibyte_data@@@__crt_internal_free_policy@@QBEXQBU__crt_multibyte_data@@@Z 100300b7 f i libucrt:wsetlocale.obj
 0001:0002f460       ??0?$__crt_unique_heap_ptr@U__crt_locale_data@@U__crt_internal_free_policy@@@@QAE@QAU__crt_locale_data@@@Z 10030460 f i libucrt:wsetlocale.obj
 0001:0002f470       ??0?$__crt_unique_heap_ptr@U__crt_locale_pointers@@U__crt_internal_free_policy@@@@QAE@QAU__crt_locale_pointers@@@Z 10030470 f i libucrt:wsetlocale.obj
 0001:0002f480       ??0?$__crt_unique_heap_ptr@U__crt_multibyte_data@@U__crt_internal_free_policy@@@@QAE@QAU__crt_multibyte_data@@@Z 10030480 f i libucrt:wsetlocale.obj
 0001:0002f490       ??0_expandlocale_locale_name_cache@@QAE@QA_WIQAU__crt_qualified_locale_data@@@Z 10030490 f i libucrt:wsetlocale.obj
 0001:0002f4da       ??1?$__crt_unique_heap_ptr@U__crt_locale_data@@U__crt_internal_free_policy@@@@QAE@XZ 100304da f i libucrt:wsetlocale.obj
 0001:0002f4ec       ??1?$__crt_unique_heap_ptr@U__crt_locale_pointers@@U__crt_internal_free_policy@@@@QAE@XZ 100304ec f i libucrt:wsetlocale.obj
 0001:0002f4fe       ??1?$__crt_unique_heap_ptr@U__crt_multibyte_data@@U__crt_internal_free_policy@@@@QAE@XZ 100304fe f i libucrt:wsetlocale.obj
 0001:0002f510       ??1_expandlocale_locale_name_cache@@QAE@XZ 10030510 f i libucrt:wsetlocale.obj
 0001:0002f540       ??B?$__crt_unique_heap_ptr@U__crt_locale_data@@U__crt_internal_free_policy@@@@QBE_NXZ 10030540 f i libucrt:wsetlocale.obj
 0001:0002f547       ??B?$__crt_unique_heap_ptr@U__crt_locale_pointers@@U__crt_internal_free_policy@@@@QBE_NXZ 10030547 f i libucrt:wsetlocale.obj
 0001:0002f54e       ??B?$__crt_unique_heap_ptr@U__crt_multibyte_data@@U__crt_internal_free_policy@@@@QBE_NXZ 1003054e f i libucrt:wsetlocale.obj
 0001:0002f76e       ?commit_locale_name@_expandlocale_locale_name_cache@@QAEXQB_WI@Z 1003076e f i libucrt:wsetlocale.obj
 0001:0002f7b2       ?commit_locale_name_cache_already_updated@_expandlocale_locale_name_cache@@QAEXQB_WI@Z 100307b2 f i libucrt:wsetlocale.obj
 0001:0002f7e7       ?detach@?$__crt_unique_heap_ptr@U__crt_locale_data@@U__crt_internal_free_policy@@@@QAEPAU__crt_locale_data@@XZ 100307e7 f i libucrt:wsetlocale.obj
 0001:0002f7ed       ?detach@?$__crt_unique_heap_ptr@U__crt_locale_pointers@@U__crt_internal_free_policy@@@@QAEPAU__crt_locale_pointers@@XZ 100307ed f i libucrt:wsetlocale.obj
 0001:0002f7f3       ?detach@?$__crt_unique_heap_ptr@U__crt_multibyte_data@@U__crt_internal_free_policy@@@@QAEPAU__crt_multibyte_data@@XZ 100307f3 f i libucrt:wsetlocale.obj
 0001:0002f7f9       ?get@?$__crt_unique_heap_ptr@U__crt_locale_data@@U__crt_internal_free_policy@@@@QBEPAU__crt_locale_data@@XZ 100307f9 f i libucrt:wsetlocale.obj
 0001:0002f7fc       ?get@?$__crt_unique_heap_ptr@U__crt_locale_pointers@@U__crt_internal_free_policy@@@@QBEPAU__crt_locale_pointers@@XZ 100307fc f i libucrt:wsetlocale.obj
 0001:0002f7ff       ?get@?$__crt_unique_heap_ptr@U__crt_multibyte_data@@U__crt_internal_free_policy@@@@QBEPAU__crt_multibyte_data@@XZ 100307ff f i libucrt:wsetlocale.obj
 0001:0002f802       ?is_valid@?$__crt_unique_heap_ptr@U__crt_locale_data@@U__crt_internal_free_policy@@@@QBE_NXZ 10030802 f i libucrt:wsetlocale.obj
 0001:0002f809       ?is_valid@?$__crt_unique_heap_ptr@U__crt_locale_pointers@@U__crt_internal_free_policy@@@@QBE_NXZ 10030809 f i libucrt:wsetlocale.obj
 0001:0002f810       ?is_valid@?$__crt_unique_heap_ptr@U__crt_multibyte_data@@U__crt_internal_free_policy@@@@QBE_NXZ 10030810 f i libucrt:wsetlocale.obj
 0001:0002f817       ?release@?$__crt_unique_heap_ptr@U__crt_locale_data@@U__crt_internal_free_policy@@@@QAEXXZ 10030817 f i libucrt:wsetlocale.obj
 0001:0002f829       ?release@?$__crt_unique_heap_ptr@U__crt_locale_pointers@@U__crt_internal_free_policy@@@@QAEXXZ 10030829 f i libucrt:wsetlocale.obj
 0001:0002f83b       ?release@?$__crt_unique_heap_ptr@U__crt_multibyte_data@@U__crt_internal_free_policy@@@@QAEXXZ 1003083b f i libucrt:wsetlocale.obj
 0001:0002f84d       ___acrt_copy_locale_name   1003084d f   libucrt:wsetlocale.obj
 0001:0002f8ad       ___acrt_set_locale_changed 100308ad f   libucrt:wsetlocale.obj
 0001:0002f8b8       ___acrt_uninitialize_locale 100308b8 f   libucrt:wsetlocale.obj
 0001:0002f8df       ___ascii_tolower           100308df f i libucrt:wsetlocale.obj
 0001:0002f8f6       ___ascii_towlower          100308f6 f i libucrt:wsetlocale.obj
 0001:0002f90d       ___lc_lctowcs              1003090d f   libucrt:wsetlocale.obj
 0001:0002f97d       ___lc_wcstolc              1003097d f   libucrt:wsetlocale.obj
 0001:0002faba       __configthreadlocale       10030aba f   libucrt:wsetlocale.obj
 0001:0002fb4b       __create_locale            10030b4b f   libucrt:wsetlocale.obj
 0001:0002ff75       __free_locale              10030f75 f   libucrt:wsetlocale.obj
 0001:00030037       __get_current_locale       10031037 f   libucrt:wsetlocale.obj
 0001:000300d2       __wcreate_locale           100310d2 f   libucrt:wsetlocale.obj
 0001:000301d9       __wcscats                  100311d9 f   libucrt:wsetlocale.obj
 0001:0003021a       __wsetlocale               1003121a f   libucrt:wsetlocale.obj
 0001:00030f98       ___p___mb_cur_max          10031f98 f   libucrt:nlsdata.obj
 0001:00031145       ___acrt_initialize_lowio   10032145 f   libucrt:ioinit.obj
 0001:000311a5       ___acrt_uninitialize_lowio 100321a5 f   libucrt:ioinit.obj
 0001:000311d1       ___acrt_initialize_locks   100321d1 f   libucrt:locks.obj
 0001:00031212       ___acrt_lock               10032212 f   libucrt:locks.obj
 0001:00031229       ___acrt_uninitialize_locks 10032229 f   libucrt:locks.obj
 0001:0003125a       ___acrt_unlock             1003225a f   libucrt:locks.obj
 0001:00031271       __lock_locales             10032271 f   libucrt:locks.obj
 0001:0003127f       __unlock_locales           1003227f f   libucrt:locks.obj
 0001:00031288       ___acrt_app_verifier_enabled 10032288 f   libucrt:peb_access.obj
 0001:0003129a       ___acrt_is_secure_process  1003229a f   libucrt:peb_access.obj
 0001:00031446       ___acrt_get_begin_thread_init_policy 10032446 f   libucrt:win_policies.obj
 0001:00031480       ___acrt_get_developer_information_policy 10032480 f   libucrt:win_policies.obj
 0001:000314be       ___acrt_get_process_end_policy 100324be f   libucrt:win_policies.obj
 0001:000314e5       ___acrt_get_windowing_model_policy 100324e5 f   libucrt:win_policies.obj
 0001:00031540       __calloc_base              10032540 f   libucrt:calloc_base.obj
 0001:000315cd       ??$__acrt_convert_wcs_mbs_cp@D_WV<lambda_62f6974d9771e494a5ea317cc32e971c>@@U__crt_win32_buffer_internal_dynamic_resizing@@@@YAHQBDAAV?$__crt_win32_buffer@_WU__crt_win32_buffer_internal_dynamic_resizing@@@@ABV<lambda_62f6974d9771e494a5ea317cc32e971c>@@I@Z 100325cd f i libucrt:argv_wildcards.obj
 0001:0003167f       ??$__acrt_convert_wcs_mbs_cp@_WDV<lambda_28bda7af82a03b66c1cb3803a755f95d>@@U__crt_win32_buffer_internal_dynamic_resizing@@@@YAHQB_WAAV?$__crt_win32_buffer@DU__crt_win32_buffer_internal_dynamic_resizing@@@@ABV<lambda_28bda7af82a03b66c1cb3803a755f95d>@@I@Z 1003267f f i libucrt:argv_wildcards.obj
 0001:00031745       ??$__acrt_mbs_to_wcs_cp@U__crt_win32_buffer_internal_dynamic_resizing@@@@YAHQBDAAV?$__crt_win32_buffer@_WU__crt_win32_buffer_internal_dynamic_resizing@@@@I@Z 10032745 f i libucrt:argv_wildcards.obj
 0001:00031762       ??$__acrt_wcs_to_mbs_cp@U__crt_win32_buffer_internal_dynamic_resizing@@@@YAHQB_WAAV?$__crt_win32_buffer@DU__crt_win32_buffer_internal_dynamic_resizing@@@@I@Z 10032762 f i libucrt:argv_wildcards.obj
 0001:00032014       ??$tcslen@ABQBD@?$__crt_char_traits@D@@SAIABQBD@Z 10033014 f i libucrt:argv_wildcards.obj
 0001:0003202c       ??$tcslen@ABQB_W@?$__crt_char_traits@_W@@SAIABQB_W@Z 1003302c f i libucrt:argv_wildcards.obj
 0001:0003204a       ??$tcsncpy_s@AAPADIAAPADABI@?$__crt_char_traits@D@@SAHAAPAD$$QAI0ABI@Z 1003304a f i libucrt:argv_wildcards.obj
 0001:0003206d       ??$tcsncpy_s@AAPA_WIAAPA_WABI@?$__crt_char_traits@_W@@SAHAAPA_W$$QAI0ABI@Z 1003306d f i libucrt:argv_wildcards.obj
 0001:00032090       ??$tcsncpy_s@PADABIABQBDABI@?$__crt_char_traits@D@@SAH$$QAPADABIABQBD1@Z 10033090 f i libucrt:argv_wildcards.obj
 0001:000320b3       ??$tcsncpy_s@PADIABQBDABI@?$__crt_char_traits@D@@SAH$$QAPAD$$QAIABQBDABI@Z 100330b3 f i libucrt:argv_wildcards.obj
 0001:000320d6       ??$tcsncpy_s@PA_WABIABQB_WABI@?$__crt_char_traits@_W@@SAH$$QAPA_WABIABQB_W1@Z 100330d6 f i libucrt:argv_wildcards.obj
 0001:000320f9       ??$tcsncpy_s@PA_WIABQB_WABI@?$__crt_char_traits@_W@@SAH$$QAPA_W$$QAIABQB_WABI@Z 100330f9 f i libucrt:argv_wildcards.obj
 0001:0003211c       ??$tcspbrk@AAPADAAY02$$CBD@?$__crt_char_traits@D@@SAPADAAPADAAY02$$CBD@Z 1003311c f i libucrt:argv_wildcards.obj
 0001:00032132       ??$tcspbrk@AAPA_WAAY02$$CB_W@?$__crt_char_traits@_W@@SAPA_WAAPA_WAAY02$$CB_W@Z 10033132 f i libucrt:argv_wildcards.obj
 0001:00032148       ??0?$__crt_unique_handle_t@U__crt_findfile_traits@@@@QAE@QAX@Z 10033148 f i libucrt:argv_wildcards.obj
 0001:00032158       ??0?$__crt_win32_buffer@DU__crt_win32_buffer_internal_dynamic_resizing@@@@QAE@XZ 10033158 f i libucrt:argv_wildcards.obj
 0001:0003216e       ??0?$__crt_win32_buffer@_WU__crt_win32_buffer_internal_dynamic_resizing@@@@QAE@XZ 1003316e f i libucrt:argv_wildcards.obj
 0001:0003219e       ??0_LocaleUpdate@@QAE@QAU__crt_locale_pointers@@@Z 1003319e f i libucrt:argv_wildcards.obj
 0001:00032220       ??1?$__crt_unique_handle_t@U__crt_findfile_traits@@@@QAE@XZ 10033220 f i libucrt:argv_wildcards.obj
 0001:00032237       ??1?$__crt_win32_buffer@DU__crt_win32_buffer_internal_dynamic_resizing@@@@QAE@XZ 10033237 f i libucrt:argv_wildcards.obj
 0001:0003223c       ??1?$__crt_win32_buffer@_WU__crt_win32_buffer_internal_dynamic_resizing@@@@QAE@XZ 1003323c f i libucrt:argv_wildcards.obj
 0001:0003228b       ??1_LocaleUpdate@@QAE@XZ   1003328b f i libucrt:argv_wildcards.obj
 0001:000322a7       ??R<lambda_28bda7af82a03b66c1cb3803a755f95d>@@QBE@IQB_WQADI@Z 100332a7 f i libucrt:argv_wildcards.obj
 0001:000322e9       ??R<lambda_62f6974d9771e494a5ea317cc32e971c>@@QBE@IQBDQA_WI@Z 100332e9 f i libucrt:argv_wildcards.obj
 0001:00032362       ?GetLocaleT@_LocaleUpdate@@QAEPAU__crt_locale_pointers@@XZ 10033362 f i libucrt:argv_wildcards.obj
 0001:00032366       ?__acrt_get_utf8_acp_compatibility_codepage@@YAIXZ 10033366 f i libucrt:argv_wildcards.obj
 0001:000323a5       ?_deallocate@?$__crt_win32_buffer@DU__crt_win32_buffer_internal_dynamic_resizing@@@@AAEXXZ 100333a5 f i libucrt:argv_wildcards.obj
 0001:000323bf       ?_deallocate@?$__crt_win32_buffer@_WU__crt_win32_buffer_internal_dynamic_resizing@@@@AAEXXZ 100333bf f i libucrt:argv_wildcards.obj
 0001:000323d9       ?allocate@?$__crt_win32_buffer@DU__crt_win32_buffer_internal_dynamic_resizing@@@@QAEHI@Z 100333d9 f i libucrt:argv_wildcards.obj
 0001:00032415       ?allocate@?$__crt_win32_buffer@_WU__crt_win32_buffer_internal_dynamic_resizing@@@@QAEHI@Z 10033415 f i libucrt:argv_wildcards.obj
 0001:00032454       ?allocate@__crt_win32_buffer_internal_dynamic_resizing@@SAHQAPAXIABV__crt_win32_buffer_empty_debug_info@@@Z 10033454 f i libucrt:argv_wildcards.obj
 0001:000324e3       ?capacity@?$__crt_win32_buffer@DU__crt_win32_buffer_internal_dynamic_resizing@@@@QBEIXZ 100334e3 f i libucrt:argv_wildcards.obj
 0001:000324e7       ?capacity@?$__crt_win32_buffer@_WU__crt_win32_buffer_internal_dynamic_resizing@@@@QBEIXZ 100334e7 f i libucrt:argv_wildcards.obj
 0001:000324eb       ?close@?$__crt_unique_handle_t@U__crt_findfile_traits@@@@QAEXXZ 100334eb f i libucrt:argv_wildcards.obj
 0001:00032502       ?close@__crt_findfile_traits@@SA_NPAX@Z 10033502 f i libucrt:argv_wildcards.obj
 0001:00032517       ?data@?$__crt_win32_buffer@DU__crt_win32_buffer_internal_dynamic_resizing@@@@QAEPADXZ 10033517 f i libucrt:argv_wildcards.obj
 0001:0003251b       ?data@?$__crt_win32_buffer@_WU__crt_win32_buffer_internal_dynamic_resizing@@@@QAEPA_WXZ 1003351b f i libucrt:argv_wildcards.obj
 0001:0003251f       ?deallocate@__crt_win32_buffer_internal_dynamic_resizing@@SAXQAXABV__crt_win32_buffer_empty_debug_info@@@Z 1003351f f i libucrt:argv_wildcards.obj
 0001:0003252f       ?debug_info@?$__crt_win32_buffer@DU__crt_win32_buffer_internal_dynamic_resizing@@@@QBEABV__crt_win32_buffer_empty_debug_info@@XZ 1003352f f i libucrt:argv_wildcards.obj
 0001:00032532       ?debug_info@?$__crt_win32_buffer@_WU__crt_win32_buffer_internal_dynamic_resizing@@@@QBEABV__crt_win32_buffer_empty_debug_info@@XZ 10033532 f i libucrt:argv_wildcards.obj
 0001:0003264b       ?get@?$__crt_unique_handle_t@U__crt_findfile_traits@@@@QBEPAXXZ 1003364b f i libucrt:argv_wildcards.obj
 0001:00032681       ?get_invalid_value@__crt_findfile_traits@@SAPAXXZ 10033681 f i libucrt:argv_wildcards.obj
 0001:000326d0       ?set_to_nullptr@?$__crt_win32_buffer@DU__crt_win32_buffer_internal_dynamic_resizing@@@@QAEXXZ 100336d0 f i libucrt:argv_wildcards.obj
 0001:000326e7       ?set_to_nullptr@?$__crt_win32_buffer@_WU__crt_win32_buffer_internal_dynamic_resizing@@@@QAEXXZ 100336e7 f i libucrt:argv_wildcards.obj
 0001:000326fe       ?size@?$__crt_win32_buffer@DU__crt_win32_buffer_internal_dynamic_resizing@@@@QAEXI@Z 100336fe f i libucrt:argv_wildcards.obj
 0001:0003270d       ?size@?$__crt_win32_buffer@_WU__crt_win32_buffer_internal_dynamic_resizing@@@@QAEXI@Z 1003370d f i libucrt:argv_wildcards.obj
 0001:0003272e       ?strpbrk@@YAPADQADQBD@Z    1003372e f i libucrt:argv_wildcards.obj
 0001:00032739       ?wcspbrk@@YAPA_WPA_WPB_W@Z 10033739 f i libucrt:argv_wildcards.obj
 0001:00032744       ___acrt_expand_narrow_argv_wildcards 10033744 f   libucrt:argv_wildcards.obj
 0001:0003274f       ___acrt_expand_wide_argv_wildcards 1003374f f   libucrt:argv_wildcards.obj
 0001:0003275a       ??$__acrt_convert_wcs_mbs_cp@_WDV<lambda_0fec1a7b3f42a53036604e18c2d5e07e>@@U__crt_win32_buffer_no_resizing@@@@YAHQB_WAAV?$__crt_win32_buffer@DU__crt_win32_buffer_no_resizing@@@@ABV<lambda_0fec1a7b3f42a53036604e18c2d5e07e>@@I@Z 1003375a f i libucrt:getmodulefilenamea.obj
 0001:0003281c       ??$__acrt_wcs_to_mbs_cp@U__crt_win32_buffer_no_resizing@@@@YAHQB_WAAV?$__crt_win32_buffer@DU__crt_win32_buffer_no_resizing@@@@I@Z 1003381c f i libucrt:getmodulefilenamea.obj
 0001:00032839       ??0?$__crt_win32_buffer@DU__crt_win32_buffer_no_resizing@@@@QAE@QADI@Z 10033839 f i libucrt:getmodulefilenamea.obj
 0001:0003285d       ??1?$__crt_win32_buffer@DU__crt_win32_buffer_no_resizing@@@@QAE@XZ 1003385d f i libucrt:getmodulefilenamea.obj
 0001:00032868       ??R<lambda_0fec1a7b3f42a53036604e18c2d5e07e>@@QBE@IQB_WQADI@Z 10033868 f i libucrt:getmodulefilenamea.obj
 0001:0003288c       ?_deallocate@?$__crt_win32_buffer@DU__crt_win32_buffer_no_resizing@@@@AAEXXZ 1003388c f i libucrt:getmodulefilenamea.obj
 0001:00032897       ?allocate@?$__crt_win32_buffer@DU__crt_win32_buffer_no_resizing@@@@QAEHI@Z 10033897 f i libucrt:getmodulefilenamea.obj
 0001:000328be       ?allocate@__crt_win32_buffer_no_resizing@@SAHQAPAXIABV__crt_win32_buffer_empty_debug_info@@@Z 100338be f i libucrt:getmodulefilenamea.obj
 0001:000328cb       ?capacity@?$__crt_win32_buffer@DU__crt_win32_buffer_no_resizing@@@@QBEIXZ 100338cb f i libucrt:getmodulefilenamea.obj
 0001:000328cf       ?data@?$__crt_win32_buffer@DU__crt_win32_buffer_no_resizing@@@@QAEPADXZ 100338cf f i libucrt:getmodulefilenamea.obj
 0001:000328d3       ?deallocate@__crt_win32_buffer_no_resizing@@SAXQAXABV__crt_win32_buffer_empty_debug_info@@@Z 100338d3 f i libucrt:getmodulefilenamea.obj
 0001:000328d6       ?debug_info@?$__crt_win32_buffer@DU__crt_win32_buffer_no_resizing@@@@QBEABV__crt_win32_buffer_empty_debug_info@@XZ 100338d6 f i libucrt:getmodulefilenamea.obj
 0001:000328d9       ?set_to_nullptr@?$__crt_win32_buffer@DU__crt_win32_buffer_no_resizing@@@@QAEXXZ 100338d9 f i libucrt:getmodulefilenamea.obj
 0001:000328ed       ?size@?$__crt_win32_buffer@DU__crt_win32_buffer_no_resizing@@@@QAEXI@Z 100338ed f i libucrt:getmodulefilenamea.obj
 0001:000328fc       ?size@?$__crt_win32_buffer@DU__crt_win32_buffer_no_resizing@@@@QBEIXZ 100338fc f i libucrt:getmodulefilenamea.obj
 0001:00032900       ___acrt_GetModuleFileNameA 10033900 f   libucrt:getmodulefilenamea.obj
 0001:00032a14       ??$initialize_from_array@$$BY10BAA@E@?$dual_state_global@PAE@__crt_state_management@@QAAXAAY10BAA@E@Z 10033a14 f i libucrt:mbctype.obj
 0001:00032a23       ??$initialize_from_array@$$BY10BAB@E@?$dual_state_global@PAE@__crt_state_management@@QAAXAAY10BAB@E@Z 10033a23 f i libucrt:mbctype.obj
 0001:00032b3f       ?dangerous_get_state_array@?$dual_state_global@PAE@__crt_state_management@@QAEPAPAEXZ 10033b3f f i libucrt:mbctype.obj
 0001:00032b42       ?dangerous_get_state_array@?$dual_state_global@PAU__crt_multibyte_data@@@__crt_state_management@@QAEPAPAU__crt_multibyte_data@@XZ 10033b42 f i libucrt:mbctype.obj
 0001:00032bb6       ?initialize@?$dual_state_global@PAU__crt_multibyte_data@@@__crt_state_management@@QAEXQAU__crt_multibyte_data@@@Z 10033bb6 f i libucrt:mbctype.obj
 0001:00032fcf       ?value@?$dual_state_global@PAE@__crt_state_management@@QAEAAPAEXZ 10033fcf f i libucrt:mbctype.obj
 0001:00032fd2       ___acrt_initialize_multibyte 10033fd2 f   libucrt:mbctype.obj
 0001:0003301a       ___acrt_update_thread_multibyte_data 1003401a f   libucrt:mbctype.obj
 0001:0003302d       ___p__mbcasemap            1003402d f   libucrt:mbctype.obj
 0001:00033033       ___p__mbctype              10034033 f   libucrt:mbctype.obj
 0001:00033039       __getmbcp                  10034039 f   libucrt:mbctype.obj
 0001:0003306d       __setmbcp                  1003406d f   libucrt:mbctype.obj
 0001:0003308c       __setmbcp_nolock           1003408c f   libucrt:mbctype.obj
 0001:00033362       __ismbbalnum               10034362 f   libucrt:ismbbyte.obj
 0001:0003337d       __ismbbalnum_l             1003437d f   libucrt:ismbbyte.obj
 0001:00033399       __ismbbalpha               10034399 f   libucrt:ismbbyte.obj
 0001:000333b4       __ismbbalpha_l             100343b4 f   libucrt:ismbbyte.obj
 0001:000333d0       __ismbbblank               100343d0 f   libucrt:ismbbyte.obj
 0001:000333f3       __ismbbblank_l             100343f3 f   libucrt:ismbbyte.obj
 0001:00033417       __ismbbgraph               10034417 f   libucrt:ismbbyte.obj
 0001:00033432       __ismbbgraph_l             10034432 f   libucrt:ismbbyte.obj
 0001:0003344e       __ismbbkalnum              1003444e f   libucrt:ismbbyte.obj
 0001:00033466       __ismbbkalnum_l            10034466 f   libucrt:ismbbyte.obj
 0001:0003347f       __ismbbkana                1003447f f   libucrt:ismbbyte.obj
 0001:00033492       __ismbbkana_l              10034492 f   libucrt:ismbbyte.obj
 0001:000334e1       __ismbbkprint              100344e1 f   libucrt:ismbbyte.obj
 0001:000334f9       __ismbbkprint_l            100344f9 f   libucrt:ismbbyte.obj
 0001:00033512       __ismbbkpunct              10034512 f   libucrt:ismbbyte.obj
 0001:0003352a       __ismbbkpunct_l            1003452a f   libucrt:ismbbyte.obj
 0001:00033543       __ismbblead                10034543 f   libucrt:ismbbyte.obj
 0001:0003355b       __ismbblead_l              1003455b f   libucrt:ismbbyte.obj
 0001:00033574       __ismbbprint               10034574 f   libucrt:ismbbyte.obj
 0001:0003358f       __ismbbprint_l             1003458f f   libucrt:ismbbyte.obj
 0001:000335ab       __ismbbpunct               100345ab f   libucrt:ismbbyte.obj
 0001:000335c3       __ismbbpunct_l             100345c3 f   libucrt:ismbbyte.obj
 0001:000335dc       __ismbbtrail               100345dc f   libucrt:ismbbyte.obj
 0001:000335f4       __ismbbtrail_l             100345f4 f   libucrt:ismbbyte.obj
 0001:0003360d       ___acrt_initialize_command_line 1003460d f   libucrt:argv_data.obj
 0001:00033626       ___acrt_uninitialize_command_line 10034626 f   libucrt:argv_data.obj
 0001:00033629       ___p___argc                10034629 f   libucrt:argv_data.obj
 0001:0003362f       ___p___argv                1003462f f   libucrt:argv_data.obj
 0001:00033635       ___p___wargv               10034635 f   libucrt:argv_data.obj
 0001:0003363b       ___p__acmdln               1003463b f   libucrt:argv_data.obj
 0001:00033641       ___p__pgmptr               10034641 f   libucrt:argv_data.obj
 0001:00033647       ___p__wcmdln               10034647 f   libucrt:argv_data.obj
 0001:0003364d       ___p__wpgmptr              1003464d f   libucrt:argv_data.obj
 0001:00033653       __get_pgmptr               10034653 f   libucrt:argv_data.obj
 0001:00033684       __get_wpgmptr              10034684 f   libucrt:argv_data.obj
 0001:00033719       _wcscpy_s                  10034719 f   libucrt:wcscpy_s.obj
 0001:00033815       ___acrt_MultiByteToWideChar 10034815 f   libucrt:multibytetowidechar.obj
 0001:000338cf       ___acrt_WideCharToMultiByte 100348cf f   libucrt:widechartomultibyte.obj
 0001:000339d6       ___dcrt_get_narrow_environment_from_os 100349d6 f   libucrt:get_environment_from_os.obj
 0001:00033a76       ___dcrt_get_wide_environment_from_os 10034a76 f   libucrt:get_environment_from_os.obj
 0001:000341fe       ??$get_or_create_environment_nolock@$$V@?$__crt_char_traits@D@@SAPAPADXZ 100351fe f i libucrt:setenv.obj
 0001:00034203       ??$get_or_create_environment_nolock@$$V@?$__crt_char_traits@_W@@SAPAPA_WXZ 10035203 f i libucrt:setenv.obj
 0001:00034208       ??$set_environment_variable@ABQADQAD@?$__crt_char_traits@D@@SAHABQAD$$QBQAD@Z 10035208 f i libucrt:setenv.obj
 0001:00034220       ??$set_environment_variable@ABQA_WQA_W@?$__crt_char_traits@_W@@SAHABQA_W$$QBQA_W@Z 10035220 f i libucrt:setenv.obj
 0001:00034237       ??$tcschr@ABQADD@?$__crt_char_traits@D@@SAPADABQAD$$QAD@Z 10035237 f i libucrt:setenv.obj
 0001:00034251       ??$tcschr@ABQA_WD@?$__crt_char_traits@_W@@SAPA_WABQA_W$$QAD@Z 10035251 f i libucrt:setenv.obj
 0001:0003426f       ??$tcscpy_s@AAPADABIAAPAD@?$__crt_char_traits@D@@SAHAAPADABI0@Z 1003526f f i libucrt:setenv.obj
 0001:0003428d       ??$tcscpy_s@AAPA_WABIAAPA_W@?$__crt_char_traits@_W@@SAHAAPA_WABI0@Z 1003528d f i libucrt:setenv.obj
 0001:000342ab       ??$tcscpy_s@ABQADABIABQAD@?$__crt_char_traits@D@@SAHABQADABI0@Z 100352ab f i libucrt:setenv.obj
 0001:000342c9       ??$tcscpy_s@ABQA_WABIABQA_W@?$__crt_char_traits@_W@@SAHABQA_WABI0@Z 100352c9 f i libucrt:setenv.obj
 0001:000342e7       ??$tcslen@ABQAD@?$__crt_char_traits@D@@SAIABQAD@Z 100352e7 f i libucrt:setenv.obj
 0001:000342ff       ??$tcslen@ABQA_W@?$__crt_char_traits@_W@@SAIABQA_W@Z 100352ff f i libucrt:setenv.obj
 0001:0003431d       ??$tcsnicoll@ABQBDAAPADABI@?$__crt_char_traits@D@@SAHABQBDAAPADABI@Z 1003531d f i libucrt:setenv.obj
 0001:0003433b       ??$tcsnicoll@ABQB_WAAPA_WABI@?$__crt_char_traits@_W@@SAHABQB_WAAPA_WABI@Z 1003533b f i libucrt:setenv.obj
 0001:0003437d       ?strchr@@YAPADQADH@Z       1003537d f i libucrt:setenv.obj
 0001:00034388       ?wcschr@@YAPA_WPA_W_W@Z    10035388 f i libucrt:setenv.obj
 0001:00034393       ___dcrt_set_variable_in_narrow_environment_nolock 10035393 f   libucrt:setenv.obj
 0001:0003439e       ___dcrt_set_variable_in_wide_environment_nolock 1003539e f   libucrt:setenv.obj
 0001:000343a9       __recalloc                 100353a9 f   libucrt:recalloc.obj
 0001:000343b4       __recalloc_base            100353b4 f   libucrt:recalloc.obj
 0001:0003442e       ??$?B$$A6GHPA_WKJ@Z@__crt_fast_encoded_nullptr_t@@QBEP6GHPA_WKJ@ZXZ 1003542e f i libucrt:winapi_thunks.obj
 0001:000344d6       ??$__crt_fast_decode_pointer@P6GHPA_WKJ@Z@@YAP6GHPA_WKJ@ZQ6GH0KJ@Z@Z 100354d6 f i libucrt:winapi_thunks.obj
 0001:000344f1       ??$__crt_fast_decode_pointer@PAX@@YAPAXQAX@Z 100354f1 f i libucrt:winapi_thunks.obj
 0001:0003450c       ??$__crt_fast_encode_pointer@P6GHPA_WKJ@Z@@YAP6GHPA_WKJ@ZQ6GH0KJ@Z@Z 1003550c f i libucrt:winapi_thunks.obj
 0001:00034bbc       _GetCurrentThreadEffectiveToken 10035bbc f i libucrt:winapi_thunks.obj
 0001:00034bc0       ___acrt_AppPolicyGetProcessTerminationMethodInternal@4 10035bc0 f   libucrt:winapi_thunks.obj
 0001:00034c00       ___acrt_AppPolicyGetShowDeveloperDiagnosticInternal@4 10035c00 f   libucrt:winapi_thunks.obj
 0001:00034c40       ___acrt_AppPolicyGetThreadInitializationTypeInternal@4 10035c40 f   libucrt:winapi_thunks.obj
 0001:00034c80       ___acrt_AppPolicyGetWindowingModelInternal@4 10035c80 f   libucrt:winapi_thunks.obj
 0001:00034cc0       ___acrt_AreFileApisANSI@0  10035cc0 f   libucrt:winapi_thunks.obj
 0001:00034cdf       ___acrt_CompareStringEx@36 10035cdf f   libucrt:winapi_thunks.obj
 0001:00034d3c       ___acrt_EnumSystemLocalesEx@16 10035d3c f   libucrt:winapi_thunks.obj
 0001:00034d90       ___acrt_FlsAlloc@4         10035d90 f   libucrt:winapi_thunks.obj
 0001:00034dcf       ___acrt_FlsFree@4          10035dcf f   libucrt:winapi_thunks.obj
 0001:00034e0e       ___acrt_FlsGetValue@4      10035e0e f   libucrt:winapi_thunks.obj
 0001:00034e4d       ___acrt_FlsSetValue@8      10035e4d f   libucrt:winapi_thunks.obj
 0001:00034e8f       ___acrt_GetDateFormatEx@28 10035e8f f   libucrt:winapi_thunks.obj
 0001:00034ee6       ___acrt_GetEnabledXStateFeatures@0 10035ee6 f   libucrt:winapi_thunks.obj
 0001:00034f1a       ___acrt_GetLocaleInfoEx@16 10035f1a f   libucrt:winapi_thunks.obj
 0001:00034f59       ___acrt_GetSystemTimePreciseAsFileTime@4 10035f59 f   libucrt:winapi_thunks.obj
 0001:00034f98       ___acrt_GetTempPath2W@8    10035f98 f   libucrt:winapi_thunks.obj
 0001:00034fda       ___acrt_GetTimeFormatEx@24 10035fda f   libucrt:winapi_thunks.obj
 0001:0003501f       ___acrt_GetUserDefaultLocaleName@8 1003601f f   libucrt:winapi_thunks.obj
 0001:0003505b       ___acrt_GetXStateFeaturesMask@8 1003605b f   libucrt:winapi_thunks.obj
 0001:0003509b       ___acrt_InitializeCriticalSectionEx@12 1003609b f   libucrt:winapi_thunks.obj
 0001:000350e6       ___acrt_IsValidLocaleName@4 100360e6 f   libucrt:winapi_thunks.obj
 0001:0003511e       ___acrt_LCIDToLocaleName@16 1003611e f   libucrt:winapi_thunks.obj
 0001:0003515d       ___acrt_LCMapStringEx@36   1003615d f   libucrt:winapi_thunks.obj
 0001:000351ba       ___acrt_LocaleNameToLCID@8 100361ba f   libucrt:winapi_thunks.obj
 0001:000351eb       ___acrt_LocateXStateFeature@12 100361eb f   libucrt:winapi_thunks.obj
 0001:0003521a       ___acrt_MessageBoxA@16     1003621a f   libucrt:winapi_thunks.obj
 0001:0003524c       ___acrt_MessageBoxW@16     1003624c f   libucrt:winapi_thunks.obj
 0001:0003527e       ___acrt_RoInitialize@4     1003627e f   libucrt:winapi_thunks.obj
 0001:000352b9       ___acrt_RoUninitialize@0   100362b9 f   libucrt:winapi_thunks.obj
 0001:000352e7       ___acrt_RtlGenRandom@8     100362e7 f   libucrt:winapi_thunks.obj
 0001:00035327       ___acrt_SetThreadStackGuarantee@4 10036327 f   libucrt:winapi_thunks.obj
 0001:00035362       ___acrt_can_show_message_box 10036362 f   libucrt:winapi_thunks.obj
 0001:00035389       ___acrt_can_use_vista_locale_apis 10036389 f   libucrt:winapi_thunks.obj
 0001:00035394       ___acrt_can_use_xstate_apis 10036394 f   libucrt:winapi_thunks.obj
 0001:0003539f       ___acrt_eagerly_load_locale_apis 1003639f f   libucrt:winapi_thunks.obj
 0001:000353d6       ___acrt_get_parent_window  100363d6 f   libucrt:winapi_thunks.obj
 0001:0003543e       ___acrt_initialize_winapi_thunks 1003643e f   libucrt:winapi_thunks.obj
 0001:00035452       ___acrt_is_interactive     10036452 f   libucrt:winapi_thunks.obj
 0001:000354f2       ___acrt_uninitialize_winapi_thunks 100364f2 f   libucrt:winapi_thunks.obj
 0001:00035528       ___acrt_getheap            10036528 f   libucrt:heap_handle.obj
 0001:0003552e       ___acrt_initialize_heap    1003652e f   libucrt:heap_handle.obj
 0001:0003553f       ___acrt_uninitialize_heap  1003653f f   libucrt:heap_handle.obj
 0001:00035549       __get_heap_handle          10036549 f   libucrt:heap_handle.obj
 0001:0003554f       ___acrt_execute_initializers 1003654f f   libucrt:shared_initialization.obj
 0001:000355b7       ___acrt_execute_uninitializers 100365b7 f   libucrt:shared_initialization.obj
 0001:000355e8       ??$?B$$A6AXH@Z@__crt_fast_encoded_nullptr_t@@QBEP6AXH@ZXZ 100365e8 f i libucrt:signal.obj
 0001:0003567c       ??$__crt_fast_decode_pointer@P6AXH@Z@@YAP6AXH@ZQ6AXH@Z@Z 1003667c f i libucrt:signal.obj
 0001:00035697       ??$__crt_fast_encode_pointer@P6AXH@Z@@YAP6AXH@ZQ6AXH@Z@Z 10036697 f i libucrt:signal.obj
 0001:000357f3       ?initialize@?$dual_state_global@P6AXH@Z@__crt_state_management@@QAEXQ6AXH@Z@Z 100367f3 f i libucrt:signal.obj
 0001:0003589d       ?value@?$dual_state_global@P6AXH@Z@__crt_state_management@@QAEAAP6AXH@ZXZ 1003689d f i libucrt:signal.obj
 0001:000358a0       ___acrt_get_sigabrt_handler 100368a0 f   libucrt:signal.obj
 0001:000358c7       ___acrt_initialize_signal_handlers 100368c7 f   libucrt:signal.obj
 0001:000358e5       ___fpecode                 100368e5 f   libucrt:signal.obj
 0001:000358ee       ___pxcptinfoptrs           100368ee f   libucrt:signal.obj
 0001:000358f7       _raise                     100368f7 f   libucrt:signal.obj
 0001:00035ae9       _signal                    10036ae9 f   libucrt:signal.obj
 0001:00035cad       ??$__crt_fast_decode_pointer@P6AHPAU_exception@@@Z@@YAP6AHPAU_exception@@@ZQ6AH0@Z@Z 10036cad f i libucrt:matherr.obj
 0001:00035cc8       ??$__crt_fast_encode_pointer@P6AHPAU_exception@@@Z@@YAP6AHPAU_exception@@@ZQ6AH0@Z@Z 10036cc8 f i libucrt:matherr.obj
 0001:00035ce7       ?initialize@?$dual_state_global@P6AHPAU_exception@@@Z@__crt_state_management@@QAEXQ6AHPAU_exception@@@Z@Z 10036ce7 f i libucrt:matherr.obj
 0001:00035d03       ?value@?$dual_state_global@P6AHPAU_exception@@@Z@__crt_state_management@@QAEAAP6AHPAU_exception@@@ZXZ 10036d03 f i libucrt:matherr.obj
 0001:00035d06       ___acrt_has_user_matherr   10036d06 f   libucrt:matherr.obj
 0001:00035d23       ___acrt_initialize_user_matherr 10036d23 f   libucrt:matherr.obj
 0001:00035d32       ___acrt_invoke_user_matherr 10036d32 f   libucrt:matherr.obj
 0001:00035d68       ___setusermatherr          10036d68 f   libucrt:matherr.obj
 0001:00036041       ??0__crt_stdio_stream@@QAE@QAU__crt_stdio_stream_data@@@Z 10037041 f i libucrt:fflush.obj
 0001:0003614d       ?__acrt_stdio_reset_buffer@@YAXV__crt_stdio_stream@@@Z 1003714d f i libucrt:fflush.obj
 0001:0003622f       ?has_all_of@__crt_stdio_stream@@QBE_NJ@Z 1003722f f i libucrt:fflush.obj
 0001:00036294       ___acrt_stdio_flush_nolock 10037294 f   libucrt:fflush.obj
 0001:000362fd       __fflush_nolock            100372fd f   libucrt:fflush.obj
 0001:00036362       __flushall                 10037362 f   libucrt:fflush.obj
 0001:0003636b       _fflush                    1003736b f   libucrt:fflush.obj
 0001:000363be       ___pctype_func             100373be f   libucrt:ctype.obj
 0001:000363e2       ___pwctype_func            100373e2 f   libucrt:ctype.obj
 0001:000363e8       __iswctype_l               100373e8 f   libucrt:iswctype.obj
 0001:000363fc       _iswctype                  100373fc f   libucrt:iswctype.obj
 0001:00036465       __isctype                  10037465 f   libucrt:isctype.obj
 0001:00036498       __isctype_l                10037498 f   libucrt:isctype.obj
 0001:00036563       ?value@?$dual_state_global@J@__crt_state_management@@QAEAAJXZ 10037563 f i libucrt:new_mode.obj
 0001:00036566       __query_new_mode           10037566 f   libucrt:new_mode.obj
 0001:0003656d       __set_new_mode             1003756d f   libucrt:new_mode.obj
 0001:0003659c       ___acrt_add_locale_ref     1003759c f   libucrt:locale_refcounting.obj
 0001:00036619       ___acrt_free_locale        10037619 f   libucrt:locale_refcounting.obj
 0001:00036761       ___acrt_locale_add_lc_time_reference 10037761 f   libucrt:locale_refcounting.obj
 0001:0003678a       ___acrt_locale_free_lc_time_if_unreferenced 1003778a f   libucrt:locale_refcounting.obj
 0001:000367bb       ___acrt_locale_release_lc_time_reference 100377bb f   libucrt:locale_refcounting.obj
 0001:000367e4       ___acrt_release_locale_ref 100377e4 f   libucrt:locale_refcounting.obj
 0001:00036865       ___acrt_update_thread_locale_data 10037865 f   libucrt:locale_refcounting.obj
 0001:000368e6       __updatetlocinfoEx_nolock  100378e6 f   libucrt:locale_refcounting.obj
 0001:000369e7       ___acrt_fp_strflt_to_string 100379e7 f   libucrt:_fptostr.obj
 0001:00037da0       ??0big_integer@__crt_strtox@@QAE@ABU01@@Z 10038da0 f i libucrt:cfout.obj
 0001:00037de0       ??0big_integer@__crt_strtox@@QAE@XZ 10038de0 f i libucrt:cfout.obj
 0001:00037e70       ??4big_integer@__crt_strtox@@QAEAAU01@ABU01@@Z 10038e70 f i libucrt:cfout.obj
 0001:00037eb0       ??8__crt_strtox@@YA_NABUbig_integer@0@0@Z 10038eb0 f i libucrt:cfout.obj
 0001:00037ef0       ??9__crt_strtox@@YA_NABUbig_integer@0@0@Z 10038ef0 f i libucrt:cfout.obj
 0001:00037f30       ?add_carry@__crt_strtox@@YAIAAIII@Z 10038f30 f i libucrt:cfout.obj
 0001:00037f50       ?add_multiply_carry@__crt_strtox@@YAIAAIIII@Z 10038f50 f i libucrt:cfout.obj
 0001:00037f80       ?bit_scan_reverse@__crt_strtox@@YAII@Z 10038f80 f i libucrt:cfout.obj
 0001:00037fa0       ?count_sequential_high_zeroes@__crt_strtox@@YAII@Z 10038fa0 f i libucrt:cfout.obj
 0001:00037fc0       ?divide@__crt_strtox@@YA_KAAUbig_integer@1@ABU21@@Z 10038fc0 f i libucrt:cfout.obj
 0001:00038470       ?is_zero@__crt_strtox@@YA_NABUbig_integer@1@@Z 10039470 f i libucrt:cfout.obj
 0001:00038480       ?make_big_integer@__crt_strtox@@YA?AUbig_integer@1@_K@Z 10039480 f i libucrt:cfout.obj
 0001:000384a0       ?make_big_integer_power_of_two@__crt_strtox@@YA?AUbig_integer@1@I@Z 100394a0 f i libucrt:cfout.obj
 0001:000384f0       ?multiply@__crt_strtox@@YA_NAAUbig_integer@1@ABU21@@Z 100394f0 f i libucrt:cfout.obj
 0001:00038850       ?multiply@__crt_strtox@@YA_NAAUbig_integer@1@I@Z 10039850 f i libucrt:cfout.obj
 0001:00038920       ?multiply_64_32@__crt_strtox@@YA_K_KI@Z 10039920 f i libucrt:cfout.obj
 0001:00038940       ?multiply_by_power_of_ten@__crt_strtox@@YA_NAAUbig_integer@1@I@Z 10039940 f i libucrt:cfout.obj
 0001:00038ed0       ?multiply_core@__crt_strtox@@YAIQAIII@Z 10039ed0 f i libucrt:cfout.obj
 0001:00038f10       ?shift_left@__crt_strtox@@YA_NAAUbig_integer@1@I@Z 10039f10 f i libucrt:cfout.obj
 0001:0003903f       ___acrt_fltout             1003a03f f   libucrt:cfout.obj
 0001:0003a6a8       ___fpe_flt_rounds          1003b6a8 f   libucrt:fegetround.obj
 0001:0003a6dc       _fegetround                1003b6dc f   libucrt:fegetround.obj
 0001:0003a6e9       ??$?RG@__crt_internal_free_policy@@QBEXQBG@Z 1003b6e9 f i libucrt:initctype.obj
 0001:0003a6fb       ??$?RJ@__crt_internal_free_policy@@QBEXQBJ@Z 1003b6fb f i libucrt:initctype.obj
 0001:0003a70d       ??0?$__crt_unique_heap_ptr@GU__crt_internal_free_policy@@@@QAE@QAG@Z 1003b70d f i libucrt:initctype.obj
 0001:0003a71d       ??0?$__crt_unique_heap_ptr@JU__crt_internal_free_policy@@@@QAE@QAJ@Z 1003b71d f i libucrt:initctype.obj
 0001:0003a72d       ??1?$__crt_unique_heap_ptr@GU__crt_internal_free_policy@@@@QAE@XZ 1003b72d f i libucrt:initctype.obj
 0001:0003a73f       ??1?$__crt_unique_heap_ptr@JU__crt_internal_free_policy@@@@QAE@XZ 1003b73f f i libucrt:initctype.obj
 0001:0003a751       ?detach@?$__crt_unique_heap_ptr@GU__crt_internal_free_policy@@@@QAEPAGXZ 1003b751 f i libucrt:initctype.obj
 0001:0003a757       ?detach@?$__crt_unique_heap_ptr@JU__crt_internal_free_policy@@@@QAEPAJXZ 1003b757 f i libucrt:initctype.obj
 0001:0003a75d       ?release@?$__crt_unique_heap_ptr@GU__crt_internal_free_policy@@@@QAEXXZ 1003b75d f i libucrt:initctype.obj
 0001:0003a76f       ?release@?$__crt_unique_heap_ptr@JU__crt_internal_free_policy@@@@QAEXXZ 1003b76f f i libucrt:initctype.obj
 0001:0003a781       ____lc_codepage_func       1003b781 f   libucrt:initctype.obj
 0001:0003a7a6       ____lc_collate_cp_func     1003b7a6 f   libucrt:initctype.obj
 0001:0003a7cb       ____lc_locale_name_func    1003b7cb f   libucrt:initctype.obj
 0001:0003a7f2       ____mb_cur_max_func        1003b7f2 f   libucrt:initctype.obj
 0001:0003a817       ____mb_cur_max_l_func      1003b817 f   libucrt:initctype.obj
 0001:0003a830       ___acrt_locale_initialize_ctype 1003b830 f   libucrt:initctype.obj
 0001:0003ac8d       ?__c32rtomb_utf8@__crt_mbstring@@YAIPAD_UPAU_Mbstatet@@AAV__crt_cached_ptd_host@@@Z 1003bc8d f   libucrt:c32rtomb.obj
 0001:0003ad3d       _c32rtomb                  1003bd3d f   libucrt:c32rtomb.obj
 0001:0003ada0       ?__mbrtowc_utf8@__crt_mbstring@@YAIPA_WPBDIPAU_Mbstatet@@AAV__crt_cached_ptd_host@@@Z 1003bda0 f   libucrt:mbrtowc.obj
 0001:0003ade3       ?__mbsrtowcs_utf8@__crt_mbstring@@YAIPA_WPAPBDIPAU_Mbstatet@@AAV__crt_cached_ptd_host@@@Z 1003bde3 f   libucrt:mbrtowc.obj
 0001:0003b31d       _btowc                     1003c31d f   libucrt:mbrtowc.obj
 0001:0003b38e       _mbrlen                    1003c38e f   libucrt:mbrtowc.obj
 0001:0003b3d6       _mbrtowc                   1003c3d6 f   libucrt:mbrtowc.obj
 0001:0003b43d       _mbsrtowcs                 1003c43d f   libucrt:mbrtowc.obj
 0001:0003b477       _mbsrtowcs_s               1003c477 f   libucrt:mbrtowc.obj
 0001:0003b4b7       ?is_in_use@__crt_stdio_stream@@QBE_NXZ 1003c4b7 f i libucrt:closeall.obj
 0001:0003b4c3       __fcloseall                1003c4c3 f   libucrt:closeall.obj
 0001:0003b56e       ?has_crt_buffer@__crt_stdio_stream@@QBE_NXZ 1003c56e f i libucrt:_freebuf.obj
 0001:0003b57a       ___acrt_stdio_free_buffer_nolock 1003c57a f   libucrt:_freebuf.obj
 0001:0003b950       ?has_big_buffer@__crt_stdio_stream@@QBE_NXZ 1003c950 f i libucrt:_flsbuf.obj
 0001:0003b9e1       ___acrt_stdio_flush_and_write_narrow_nolock 1003c9e1 f   libucrt:_flsbuf.obj
 0001:0003b9ec       ___acrt_stdio_flush_and_write_wide_nolock 1003c9ec f   libucrt:_flsbuf.obj
 0001:0003b9f7       __isatty                   1003c9f7 f   libucrt:isatty.obj
 0001:0003ba4d       ??$?RUlconv@@@__crt_internal_free_policy@@QBEXQBUlconv@@@Z 1003ca4d f i libucrt:initmon.obj
 0001:0003ba5f       ??0?$__crt_unique_heap_ptr@Ulconv@@U__crt_internal_free_policy@@@@QAE@QAUlconv@@@Z 1003ca5f f i libucrt:initmon.obj
 0001:0003ba6f       ??1?$__crt_unique_heap_ptr@Ulconv@@U__crt_internal_free_policy@@@@QAE@XZ 1003ca6f f i libucrt:initmon.obj
 0001:0003ba81       ?detach@?$__crt_unique_heap_ptr@Ulconv@@U__crt_internal_free_policy@@@@QAEPAUlconv@@XZ 1003ca81 f i libucrt:initmon.obj
 0001:0003ba87       ?release@?$__crt_unique_heap_ptr@Ulconv@@U__crt_internal_free_policy@@@@QAEXXZ 1003ca87 f i libucrt:initmon.obj
 0001:0003ba99       ___acrt_locale_free_monetary 1003ca99 f   libucrt:initmon.obj
 0001:0003bb97       ___acrt_locale_initialize_monetary 1003cb97 f   libucrt:initmon.obj
 0001:0003bf2f       ___acrt_locale_free_numeric 1003cf2f f   libucrt:initnum.obj
 0001:0003bf98       ___acrt_locale_initialize_numeric 1003cf98 f   libucrt:initnum.obj
 0001:0003c1ec       ??$?RU__crt_lc_time_data@@@__crt_internal_free_policy@@QBEXQBU__crt_lc_time_data@@@Z 1003d1ec f i libucrt:inittime.obj
 0001:0003c270       ??0?$__crt_unique_heap_ptr@U__crt_lc_time_data@@U__crt_internal_free_policy@@@@QAE@QAU__crt_lc_time_data@@@Z 1003d270 f i libucrt:inittime.obj
 0001:0003c280       ??1?$__crt_unique_heap_ptr@U__crt_lc_time_data@@U__crt_internal_free_policy@@@@QAE@XZ 1003d280 f i libucrt:inittime.obj
 0001:0003c292       ??B?$__crt_unique_heap_ptr@U__crt_lc_time_data@@U__crt_internal_free_policy@@@@QBE_NXZ 1003d292 f i libucrt:inittime.obj
 0001:0003c299       ?detach@?$__crt_unique_heap_ptr@U__crt_lc_time_data@@U__crt_internal_free_policy@@@@QAEPAU__crt_lc_time_data@@XZ 1003d299 f i libucrt:inittime.obj
 0001:0003c2c4       ?get@?$__crt_unique_heap_ptr@U__crt_lc_time_data@@U__crt_internal_free_policy@@@@QBEPAU__crt_lc_time_data@@XZ 1003d2c4 f i libucrt:inittime.obj
 0001:0003c5af       ?is_valid@?$__crt_unique_heap_ptr@U__crt_lc_time_data@@U__crt_internal_free_policy@@@@QBE_NXZ 1003d5af f i libucrt:inittime.obj
 0001:0003c5b6       ?release@?$__crt_unique_heap_ptr@U__crt_lc_time_data@@U__crt_internal_free_policy@@@@QAEXXZ 1003d5b6 f i libucrt:inittime.obj
 0001:0003c5c8       ___acrt_locale_free_time   1003d5c8 f   libucrt:inittime.obj
 0001:0003c6ac       ___acrt_locale_initialize_time 1003d6ac f   libucrt:inittime.obj
 0001:0003c797       _wcscat_s                  1003d797 f   libucrt:wcscat_s.obj
 0001:0003c8ee       _wcsncat_s                 1003d8ee f   libucrt:wcsncat_s.obj
 0001:0003c9c7       _wcsncpy_s                 1003d9c7 f   libucrt:wcsncpy_s.obj
 0001:0003c9d2       _wcscspn                   1003d9d2 f   libucrt:wcscspn.obj
 0001:0003ca2b       _wcspbrk                   1003da2b f   libucrt:wcspbrk.obj
 0001:0003ca79       ??0?$__crt_scoped_stack_ptr@_W@@QAE@U?$__crt_scoped_stack_ptr_tag@_W@@@Z 1003da79 f i libucrt:getstringtypea.obj
 0001:0003ca89       ??0?$__crt_scoped_stack_ptr_tag@_W@@QAE@QA_W@Z 1003da89 f i libucrt:getstringtypea.obj
 0001:0003ca99       ??1?$__crt_scoped_stack_ptr@_W@@QAE@XZ 1003da99 f i libucrt:getstringtypea.obj
 0001:0003caa2       ?get@?$__crt_scoped_stack_ptr@_W@@QBEPA_WXZ 1003daa2 f i libucrt:getstringtypea.obj
 0001:0003caa5       __MallocaComputeSize       1003daa5 f i libucrt:getstringtypea.obj
 0001:0003cab8       __MarkAllocaS              1003dab8 f i libucrt:getstringtypea.obj
 0001:0003cace       ___acrt_GetStringTypeA     1003dace f   libucrt:getstringtypea.obj
 0001:0003cbcf       __freea_crt                1003dbcf f i libucrt:getstringtypea.obj
 0001:0003d32f       ___acrt_get_qualified_locale 1003e32f f   libucrt:get_qualified_locale.obj
 0001:0003dcc2       ___acrt_get_qualified_locale_downlevel 1003ecc2 f   libucrt:getqloc_downlevel.obj
 0001:0003deb2       _localeconv                1003eeb2 f   libucrt:localeconv.obj
 0001:0003deda       ??$?RU__crt_lowio_handle_data@@@__crt_internal_free_policy@@QBEXQBU__crt_lowio_handle_data@@@Z 1003eeda f i libucrt:osfinfo.obj
 0001:0003deec       ??0?$__crt_unique_heap_ptr@U__crt_lowio_handle_data@@U__crt_internal_free_policy@@@@QAE@QAU__crt_lowio_handle_data@@@Z 1003eeec f i libucrt:osfinfo.obj
 0001:0003defc       ??1?$__crt_unique_heap_ptr@U__crt_lowio_handle_data@@U__crt_internal_free_policy@@@@QAE@XZ 1003eefc f i libucrt:osfinfo.obj
 0001:0003df0e       ??B?$__crt_unique_heap_ptr@U__crt_lowio_handle_data@@U__crt_internal_free_policy@@@@QBE_NXZ 1003ef0e f i libucrt:osfinfo.obj
 0001:0003df15       ?detach@?$__crt_unique_heap_ptr@U__crt_lowio_handle_data@@U__crt_internal_free_policy@@@@QAEPAU__crt_lowio_handle_data@@XZ 1003ef15 f i libucrt:osfinfo.obj
 0001:0003df1b       ?get@?$__crt_unique_heap_ptr@U__crt_lowio_handle_data@@U__crt_internal_free_policy@@@@QBEPAU__crt_lowio_handle_data@@XZ 1003ef1b f i libucrt:osfinfo.obj
 0001:0003df1e       ?is_valid@?$__crt_unique_heap_ptr@U__crt_lowio_handle_data@@U__crt_internal_free_policy@@@@QBE_NXZ 1003ef1e f i libucrt:osfinfo.obj
 0001:0003df25       ?release@?$__crt_unique_heap_ptr@U__crt_lowio_handle_data@@U__crt_internal_free_policy@@@@QAEXXZ 1003ef25 f i libucrt:osfinfo.obj
 0001:0003df37       ___acrt_lowio_create_handle_array 1003ef37 f   libucrt:osfinfo.obj
 0001:0003dfb2       ___acrt_lowio_destroy_handle_array 1003efb2 f   libucrt:osfinfo.obj
 0001:0003dfe7       ___acrt_lowio_ensure_fh_exists 1003efe7 f   libucrt:osfinfo.obj
 0001:0003e085       ___acrt_lowio_lock_fh      1003f085 f   libucrt:osfinfo.obj
 0001:0003e0a8       ___acrt_lowio_set_os_handle 1003f0a8 f   libucrt:osfinfo.obj
 0001:0003e13a       ___acrt_lowio_unlock_fh    1003f13a f   libucrt:osfinfo.obj
 0001:0003e15d       __alloc_osfhnd             1003f15d f   libucrt:osfinfo.obj
 0001:0003e270       __free_osfhnd              1003f270 f   libucrt:osfinfo.obj
 0001:0003e301       __get_osfhandle            1003f301 f   libucrt:osfinfo.obj
 0001:0003e36b       __open_osfhandle           1003f36b f   libucrt:osfinfo.obj
 0001:0003e560       _qsort                     1003f560 f   libucrt:qsort.obj
 0001:0003ea50       _strpbrk                   1003fa50 f   libucrt:strpbrk.obj
 0001:0003ea90       __mbsdec                   1003fa90 f   libucrt:mbsdec.obj
 0001:0003eaa7       __mbsdec_l                 1003faa7 f   libucrt:mbsdec.obj
 0001:0003eb34       ??B?$__crt_scoped_stack_ptr@_W@@QBE_NXZ 1003fb34 f i libucrt:lcmapstringa.obj
 0001:0003ed2a       ___acrt_LCMapStringA       1003fd2a f   libucrt:lcmapstringa.obj
 0001:0003ed82       __wcsnicoll                1003fd82 f   libucrt:wcsnicol.obj
 0001:0003edef       __wcsnicoll_l              1003fdef f   libucrt:wcsnicol.obj
 0001:0003eeaf       __strnicoll                1003feaf f   libucrt:strnicol.obj
 0001:0003eed8       __strnicoll_l              1003fed8 f   libucrt:strnicol.obj
 0001:0003efa0       ___acrt_SetEnvironmentVariableA 1003ffa0 f   libucrt:setenvironmentvariablea.obj
 0001:0003f035       __msize                    10040035 f   libucrt:msize.obj
 0001:0003f040       __msize_base               10040040 f   libucrt:msize.obj
 0001:0003f0fa       ___acrt_DownlevelLCIDToLocaleName 100400fa f   libucrt:lcidtoname_downlevel.obj
 0001:0003f19d       ___acrt_DownlevelLocaleNameToLCID 1004019d f   libucrt:lcidtoname_downlevel.obj
 0001:0003f32c       __commit                   1004032c f   libucrt:commit.obj
 0001:0003fb9a       __utf8_no_of_trailbytes    10040b9a f i libucrt:write.obj
 0001:0003fbab       __write                    10040bab f   libucrt:write.obj
 0001:0003fbe2       __write_internal           10040be2 f   libucrt:write.obj
 0001:0003fcf3       __write_nolock             10040cf3 f   libucrt:write.obj
 0001:0003ff0f       ___acrt_GetStringTypeW     10040f0f f   libucrt:getstringtypew.obj
 0001:0003ff28       __controlfp_s              10040f28 f   libucrt:contrlfp.obj
 0001:0003ff87       _fegetenv                  10040f87 f   libucrt:fegetenv.obj
 0001:0003ffa4       _fesetenv                  10040fa4 f   libucrt:fesetenv.obj
 0001:0003fff0       _feholdexcept              10040ff0 f   libucrt:feholdexcept.obj
 0001:00040040       __CIlog10                  10041040 f   libucrt:log10_impl.obj
 0001:0004007b       __CIlog10_default          1004107b f   libucrt:log10_impl.obj
 0001:0004008f       __log10_default            1004108f     libucrt:log10_impl.obj
 0001:00040150       _ceil                      10041150 f   libucrt:ceil_pentium4.obj
 0001:00040190       __ceil_pentium4            10041190 f   libucrt:ceil_pentium4.obj
 0001:0004026d       ??$__acrt_fenv_shift_bits@W4__acrt_fenv_abstract_control@@@@YA?AW4__acrt_fenv_abstract_control@@W40@0I@Z 1004126d f i libucrt:_fenvutils.obj
 0001:0004027f       ??$__acrt_fenv_shift_bits@W4__acrt_fenv_abstract_status@@@@YA?AW4__acrt_fenv_abstract_status@@W40@0I@Z 1004127f f i libucrt:_fenvutils.obj
 0001:00040291       ??$__acrt_fenv_translate_bit@W4__acrt_fenv_abstract_control@@W4__acrt_fenv_machine_sse_control@@@@YA?AW4__acrt_fenv_abstract_control@@W4__acrt_fenv_machine_sse_control@@0W40@1@Z 10041291 f i libucrt:_fenvutils.obj
 0001:000402a9       ??$__acrt_fenv_translate_bit@W4__acrt_fenv_abstract_control@@W4__acrt_fenv_machine_x87_control@@@@YA?AW4__acrt_fenv_abstract_control@@W4__acrt_fenv_machine_x87_control@@0W40@1@Z 100412a9 f i libucrt:_fenvutils.obj
 0001:000402c1       ??$__acrt_fenv_translate_bit@W4__acrt_fenv_abstract_status@@W4__acrt_fenv_machine_sse_status@@@@YA?AW4__acrt_fenv_abstract_status@@W4__acrt_fenv_machine_sse_status@@0W40@1@Z 100412c1 f i libucrt:_fenvutils.obj
 0001:000402d6       ??$__acrt_fenv_translate_bit@W4__acrt_fenv_abstract_status@@W4__acrt_fenv_machine_x87_status@@@@YA?AW4__acrt_fenv_abstract_status@@W4__acrt_fenv_machine_x87_status@@0W40@1@Z 100412d6 f i libucrt:_fenvutils.obj
 0001:000402eb       ??$__acrt_fenv_translate_bit@W4__acrt_fenv_machine_sse_control@@W4__acrt_fenv_abstract_control@@@@YA?AW4__acrt_fenv_machine_sse_control@@W4__acrt_fenv_abstract_control@@0W40@1@Z 100412eb f i libucrt:_fenvutils.obj
 0001:00040302       ??$__acrt_fenv_translate_bit@W4__acrt_fenv_machine_sse_status@@W4__acrt_fenv_abstract_status@@@@YA?AW4__acrt_fenv_machine_sse_status@@W4__acrt_fenv_abstract_status@@0W40@1@Z 10041302 f i libucrt:_fenvutils.obj
 0001:00040317       ??$__acrt_fenv_translate_bit@W4__acrt_fenv_machine_x87_control@@W4__acrt_fenv_abstract_control@@@@YA?AW4__acrt_fenv_machine_x87_control@@W4__acrt_fenv_abstract_control@@0W40@1@Z 10041317 f i libucrt:_fenvutils.obj
 0001:0004032e       ??$__acrt_fenv_translate_bit@W4__acrt_fenv_machine_x87_status@@W4__acrt_fenv_abstract_status@@@@YA?AW4__acrt_fenv_machine_x87_status@@W4__acrt_fenv_abstract_status@@0W40@1@Z 1004132e f i libucrt:_fenvutils.obj
 0001:00040343       ??$__acrt_fenv_unshift_bits@W4__acrt_fenv_abstract_control@@@@YA?AW4__acrt_fenv_abstract_control@@W40@0I@Z 10041343 f i libucrt:_fenvutils.obj
 0001:00040355       ??$__acrt_fenv_unshift_bits@W4__acrt_fenv_abstract_status@@@@YA?AW4__acrt_fenv_abstract_status@@W40@0I@Z 10041355 f i libucrt:_fenvutils.obj
 0001:0004074a       ??I@YA?AW4__acrt_fenv_abstract_control@@W40@0@Z 1004174a f i libucrt:_fenvutils.obj
 0001:00040757       ??I@YA?AW4__acrt_fenv_abstract_status@@W40@0@Z 10041757 f i libucrt:_fenvutils.obj
 0001:00040764       ??I@YA?AW4__acrt_fenv_machine_sse_control@@W40@0@Z 10041764 f i libucrt:_fenvutils.obj
 0001:00040771       ??I@YA?AW4__acrt_fenv_machine_sse_status@@W40@0@Z 10041771 f i libucrt:_fenvutils.obj
 0001:0004077e       ??I@YA?AW4__acrt_fenv_machine_x87_control@@W40@0@Z 1004177e f i libucrt:_fenvutils.obj
 0001:0004078b       ??I@YA?AW4__acrt_fenv_machine_x87_status@@W40@0@Z 1004178b f i libucrt:_fenvutils.obj
 0001:00040798       ??U@YA?AW4__acrt_fenv_abstract_control@@W40@0@Z 10041798 f i libucrt:_fenvutils.obj
 0001:000407a5       ??U@YA?AW4__acrt_fenv_abstract_status@@W40@0@Z 100417a5 f i libucrt:_fenvutils.obj
 0001:000407b2       ??U@YA?AW4__acrt_fenv_machine_sse_control@@W40@0@Z 100417b2 f i libucrt:_fenvutils.obj
 0001:000407bf       ??U@YA?AW4__acrt_fenv_machine_x87_control@@W40@0@Z 100417bf f i libucrt:_fenvutils.obj
 0001:000407cc       ??_5@YAAAW4__acrt_fenv_abstract_control@@AAW40@W40@@Z 100417cc f i libucrt:_fenvutils.obj
 0001:000407db       ??_5@YAAAW4__acrt_fenv_abstract_status@@AAW40@W40@@Z 100417db f i libucrt:_fenvutils.obj
 0001:000407ea       ??_5@YAAAW4__acrt_fenv_machine_sse_control@@AAW40@W40@@Z 100417ea f i libucrt:_fenvutils.obj
 0001:000407fb       ??_5@YAAAW4__acrt_fenv_machine_sse_status@@AAW40@W40@@Z 100417fb f i libucrt:_fenvutils.obj
 0001:0004080a       ??_5@YAAAW4__acrt_fenv_machine_x87_control@@AAW40@W40@@Z 1004180a f i libucrt:_fenvutils.obj
 0001:0004081b       ??_5@YAAAW4__acrt_fenv_machine_x87_status@@AAW40@W40@@Z 1004181b f i libucrt:_fenvutils.obj
 0001:0004082a       ?__acrt_fenv_shift_abstract_sse_control@@YA?AW4__acrt_fenv_abstract_control@@W41@@Z 1004182a f i libucrt:_fenvutils.obj
 0001:00040847       ?__acrt_fenv_shift_abstract_sse_status@@YA?AW4__acrt_fenv_abstract_status@@W41@@Z 10041847 f i libucrt:_fenvutils.obj
 0001:00040857       ?__acrt_fenv_shift_abstract_x87_control@@YA?AW4__acrt_fenv_abstract_control@@W41@@Z 10041857 f i libucrt:_fenvutils.obj
 0001:00040874       ?__acrt_fenv_shift_abstract_x87_status@@YA?AW4__acrt_fenv_abstract_status@@W41@@Z 10041874 f i libucrt:_fenvutils.obj
 0001:00040884       ?__acrt_fenv_unshift_abstract_sse_control@@YA?AW4__acrt_fenv_abstract_control@@W41@@Z 10041884 f i libucrt:_fenvutils.obj
 0001:000408a3       ?__acrt_fenv_unshift_abstract_sse_status@@YA?AW4__acrt_fenv_abstract_status@@W41@@Z 100418a3 f i libucrt:_fenvutils.obj
 0001:000408b3       ?__acrt_fenv_unshift_abstract_x87_control@@YA?AW4__acrt_fenv_abstract_control@@W41@@Z 100418b3 f i libucrt:_fenvutils.obj
 0001:000408d2       ?__acrt_fenv_unshift_abstract_x87_status@@YA?AW4__acrt_fenv_abstract_status@@W41@@Z 100418d2 f i libucrt:_fenvutils.obj
 0001:00040de5       ___acrt_fenv_expand_round_control 10041de5 f   libucrt:_fenvutils.obj
 0001:00040e1b       ___acrt_fenv_get_common_round_control 10041e1b f   libucrt:_fenvutils.obj
 0001:00040e3d       ___acrt_fenv_get_control   10041e3d f   libucrt:_fenvutils.obj
 0001:00040ebd       ___acrt_fenv_get_fp_status_word_from_exception_mask 10041ebd f   libucrt:_fenvutils.obj
 0001:00040ed7       ___acrt_fenv_get_status    10041ed7 f   libucrt:_fenvutils.obj
 0001:00040f81       ___acrt_fenv_set_control   10041f81 f   libucrt:_fenvutils.obj
 0001:00040ffc       ___acrt_fenv_set_status    10041ffc f   libucrt:_fenvutils.obj
 0001:000411d7       ___acrt_GetLocaleInfoA     100421d7 f   libucrt:getlocaleinfoa.obj
 0001:00041387       ?reset_and_return@__crt_mbstring@@YAIIPAU_Mbstatet@@@Z 10042387 f   libucrt:common_utf8.obj
 0001:0004139b       ?return_illegal_sequence@__crt_mbstring@@YAIPAU_Mbstatet@@AAV__crt_cached_ptd_host@@@Z 1004239b f   libucrt:common_utf8.obj
 0001:000413bd       ?__mbrtoc32_utf8@__crt_mbstring@@YAIPA_UPBDIPAU_Mbstatet@@AAV__crt_cached_ptd_host@@@Z 100423bd f   libucrt:mbrtoc32.obj
 0001:0004156e       _mbrtoc32                  1004256e f   libucrt:mbrtoc32.obj
 0001:000416cd       __fclose_nolock            100426cd f   libucrt:fclose.obj
 0001:000416fd       _fclose                    100426fd f   libucrt:fclose.obj
 0001:00041b0d       __lseek                    10042b0d f   libucrt:lseek.obj
 0001:00041b44       __lseek_internal           10042b44 f   libucrt:lseek.obj
 0001:00041b4f       __lseek_nolock             10042b4f f   libucrt:lseek.obj
 0001:00041b86       __lseek_nolock_internal    10042b86 f   libucrt:lseek.obj
 0001:00041b91       __lseeki64                 10042b91 f   libucrt:lseek.obj
 0001:00041bd1       __lseeki64_internal        10042bd1 f   libucrt:lseek.obj
 0001:00041bef       __lseeki64_nolock          10042bef f   libucrt:lseek.obj
 0001:00041c2f       __lseeki64_nolock_internal 10042c2f f   libucrt:lseek.obj
 0001:00041c4d       ___acrt_stdio_allocate_buffer_nolock 10042c4d f   libucrt:_getbuf.obj
 0001:00041ca9       ___ascii_wcsicmp           10042ca9 f   libucrt:wcsicmp.obj
 0001:00041ce6       __towlower_fast_internal   10042ce6 f i libucrt:wcsicmp.obj
 0001:00041d11       __towlower_internal        10042d11 f i libucrt:wcsicmp.obj
 0001:00041d50       __wcsicmp                  10042d50 f   libucrt:wcsicmp.obj
 0001:00041d99       __wcsicmp_l                10042d99 f   libucrt:wcsicmp.obj
 0001:00041e51       ___ascii_wcsnicmp          10042e51 f   libucrt:wcsnicmp.obj
 0001:00041ea0       __wcsnicmp                 10042ea0 f   libucrt:wcsnicmp.obj
 0001:00041eec       __wcsnicmp_l               10042eec f   libucrt:wcsnicmp.obj
 0001:0004205f       ___acrt_report_runtime_error 1004305f f   libucrt:report_runtime_error.obj
 0001:00042174       __query_app_type           10043174 f   libucrt:report_runtime_error.obj
 0001:0004217a       __set_app_type             1004317a f   libucrt:report_runtime_error.obj
 0001:00042189       ___strncnt                 10043189 f   libucrt:strncnt.obj
 0001:000421a5       ___acrt_CompareStringW     100431a5 f   libucrt:comparestringw.obj
 0001:0004220a       __strnicmp                 1004320a f   libucrt:strnicmp.obj
 0001:00042277       __strnicmp_l               10043277 f   libucrt:strnicmp.obj
 0001:000425e1       ___acrt_CompareStringA     100435e1 f   libucrt:comparestringa.obj
 0001:00042708       __putwch                   10043708 f   libucrt:putwch.obj
 0001:00042735       __putwch_nolock            10043735 f   libucrt:putwch.obj
 0001:00042767       __putwch_nolock_internal   10043767 f   libucrt:putwch.obj
 0001:00042cb5       __read                     10043cb5 f   libucrt:read.obj
 0001:00042dce       __read_nolock              10043dce f   libucrt:read.obj
 0001:0004329c       ___control87_2             1004429c f   libucrt:ieee87.obj
 0001:00043734       ___fpreset_sse2            10044734 f   libucrt:ieee87.obj
 0001:0004390a       __clearfp                  1004490a f   libucrt:ieee87.obj
 0001:000439e8       __control87                100449e8 f   libucrt:ieee87.obj
 0001:00043ce9       __controlfp                10044ce9 f   libucrt:ieee87.obj
 0001:00043d03       __fpreset                  10044d03 f   libucrt:ieee87.obj
 0001:00043dd9       __set_controlfp            10044dd9 f   libucrt:ieee87.obj
 0001:00043e4c       __statusfp                 10044e4c f   libucrt:ieee87.obj
 0001:00043ee7       __statusfp2                10044ee7 f   libucrt:ieee87.obj
 0001:00043f4a       ___acrt_initialize_sse2    10044f4a f   libucrt:mathfcns.obj
 0001:00043f5a       __set_SSE2_enable          10044f5a f   libucrt:mathfcns.obj
 0001:00043f80       __CIlog10_pentium4         10044f80 f   libucrt:log10_pentium4.obj
 0001:00043f98       __log10_pentium4           10044f98     libucrt:log10_pentium4.obj
 0001:00044230       __fFEXP                    10045230 f   libucrt:87tran.obj
 0001:00044287       __rtinfpopse               10045287     libucrt:87tran.obj
 0001:00044289       __rtinfnpopse              10045289     libucrt:87tran.obj
 0001:00044299       __fFLN                     10045299     libucrt:87tran.obj
 0001:0004434e       __rtinfpop                 1004534e     libucrt:87tran.obj
 0001:00044350       __rtinfnpop                10045350     libucrt:87tran.obj
 0001:00044360       __rtforexpinf              10045360 f   libucrt:87tran.obj
 0001:0004436d       __ffexpm1                  1004536d     libucrt:87tran.obj
 0001:00044420       __trandisp1                10045420 f   libucrt:87disp.obj
 0001:00044495       __trandisp2                10045495 f   libucrt:87disp.obj
 0001:0004452f       __rttospopde               1004552f     libucrt:87disp.obj
 0001:00044534       __rttospop                 10045534     libucrt:87disp.obj
 0001:00044540       __rtnospop                 10045540 f   libucrt:87disp.obj
 0001:00044550       __rttosnpop                10045550 f   libucrt:87disp.obj
 0001:00044551       __rtnospopde               10045551     libucrt:87disp.obj
 0001:00044558       __rtzeropop                10045558     libucrt:87disp.obj
 0001:0004455a       __rtzeronpop               1004555a     libucrt:87disp.obj
 0001:00044560       __rtzerospop               10045560 f   libucrt:87disp.obj
 0001:0004456d       __rtonepop                 1004556d     libucrt:87disp.obj
 0001:00044570       __rtonenpop                10045570 f   libucrt:87disp.obj
 0001:00044580       __tosnan1                  10045580 f   libucrt:87disp.obj
 0001:000445b0       __nosnan2                  100455b0 f   libucrt:87disp.obj
 0001:000445c0       __tosnan2                  100455c0 f   libucrt:87disp.obj
 0001:000445f0       __nan2                     100455f0 f   libucrt:87disp.obj
 0001:00044630       __rtindfpop                10045630 f   libucrt:87disp.obj
 0001:00044632       __rtindfnpop               10045632     libucrt:87disp.obj
 0001:00044643       __rttosnpopde              10045643     libucrt:87disp.obj
 0001:00044650       __rtatan2inf               10045650 f   libucrt:87disp.obj
 0001:0004466d       __rtchsifneg               1004566d     libucrt:87disp.obj
 0001:00044674       ___setfflag                10045674 f   libucrt:fp_flags.obj
 0001:00044690       __twoToTOS                 10045690 f   libucrt:common.obj
 0001:000446a5       __load_CW                  100456a5 f   libucrt:common.obj
 0001:000446bc       __convertTOStoQNaN         100456bc f   libucrt:common.obj
 0001:000446d5       __fload_withFB             100456d5 f   libucrt:common.obj
 0001:00044718       __checkTOS_withFB          10045718 f   libucrt:common.obj
 0001:0004472e       __fast_exit                1004572e f   libucrt:common.obj
 0001:0004473b       __math_exit                1004573b f   libucrt:common.obj
 0001:00044765       __check_overflow_exit      10045765 f   libucrt:common.obj
 0001:00044779       __check_range_exit         10045779 f   libucrt:common.obj
 0001:00044820       __startTwoArgErrorHandling 10045820 f   libucrt:genexcep.obj
 0001:00044837       __startOneArgErrorHandling 10045837 f   libucrt:genexcep.obj
 0001:00044873       ___libm_error_support      10045873 f   libucrt:libm_error.obj
 0001:00044a67       ___libm_setusermatherr     10045a67 f   libucrt:libm_error.obj
 0001:00044a8e       __ceil_default             10045a8e f   libucrt:ceil.obj
 0001:00044cf9       __close                    10045cf9 f   libucrt:close.obj
 0001:00044d29       __close_internal           10045d29 f   libucrt:close.obj
 0001:00044dcc       __close_nolock             10045dcc f   libucrt:close.obj
 0001:00044dfc       __close_nolock_internal    10045dfc f   libucrt:close.obj
 0001:00044e9c       ??$?RU__crt_stdio_stream_data@@@__crt_internal_free_policy@@QBEXQBU__crt_stdio_stream_data@@@Z 10045e9c f i libucrt:stream.obj
 0001:00044eae       ??0?$__crt_unique_heap_ptr@U__crt_stdio_stream_data@@U__crt_internal_free_policy@@@@QAE@QAU__crt_stdio_stream_data@@@Z 10045eae f i libucrt:stream.obj
 0001:00044ebe       ??0__crt_stdio_stream@@QAE@XZ 10045ebe f i libucrt:stream.obj
 0001:00044ec4       ??1?$__crt_unique_heap_ptr@U__crt_stdio_stream_data@@U__crt_internal_free_policy@@@@QAE@XZ 10045ec4 f i libucrt:stream.obj
 0001:00044ed6       ?__acrt_stdio_allocate_stream@@YA?AV__crt_stdio_stream@@XZ 10045ed6 f   libucrt:stream.obj
 0001:00044f3f       ?__acrt_stdio_free_stream@@YAXV__crt_stdio_stream@@@Z 10045f3f f   libucrt:stream.obj
 0001:00044f7a       ?deallocate@__crt_stdio_stream@@QAEXXZ 10045f7a f i libucrt:stream.obj
 0001:00044f84       ?detach@?$__crt_unique_heap_ptr@U__crt_stdio_stream_data@@U__crt_internal_free_policy@@@@QAEPAU__crt_stdio_stream_data@@XZ 10045f84 f i libucrt:stream.obj
 0001:0004504c       ?lock@__crt_stdio_stream@@QBEXXZ 1004604c f i libucrt:stream.obj
 0001:00045055       ?release@?$__crt_unique_heap_ptr@U__crt_stdio_stream_data@@U__crt_internal_free_policy@@@@QAEXXZ 10046055 f i libucrt:stream.obj
 0001:00045067       ?try_allocate@__crt_stdio_stream@@QAE_NXZ 10046067 f i libucrt:stream.obj
 0001:00045087       ?unlock@__crt_stdio_stream@@QBEXXZ 10046087 f i libucrt:stream.obj
 0001:00045090       __towlower_l               10046090 f   libucrt:towlower.obj
 0001:00045164       _towlower                  10046164 f   libucrt:towlower.obj
 0001:00045177       __set_error_mode           10046177 f   libucrt:set_error_mode.obj
 0001:000452b9       ??$message_box@$$TABQBDABQBDK@?$__crt_char_traits@D@@SAH$$QA$$TABQBD1$$QAK@Z 100462b9 f i libucrt:crtmbox.obj
 0001:000452d9       ??$message_box@$$TABQB_WABQB_WK@?$__crt_char_traits@_W@@SAH$$QA$$TABQB_W1$$QAK@Z 100462d9 f i libucrt:crtmbox.obj
 0001:000452f9       ??$message_box@PAUHWND__@@ABQBDABQBDABI@?$__crt_char_traits@D@@SAH$$QAPAUHWND__@@ABQBD1ABI@Z 100462f9 f i libucrt:crtmbox.obj
 0001:00045319       ??$message_box@PAUHWND__@@ABQB_WABQB_WABI@?$__crt_char_traits@_W@@SAH$$QAPAUHWND__@@ABQB_W1ABI@Z 10046319 f i libucrt:crtmbox.obj
 0001:00045339       ??$output_debug_string@ABQBD@?$__crt_char_traits@D@@SAXABQBD@Z 10046339 f i libucrt:crtmbox.obj
 0001:0004534a       ??$output_debug_string@ABQB_W@?$__crt_char_traits@_W@@SAXABQB_W@Z 1004634a f i libucrt:crtmbox.obj
 0001:0004535c       ___acrt_show_narrow_message_box 1004635c f   libucrt:crtmbox.obj
 0001:00045367       ___acrt_show_wide_message_box 10046367 f   libucrt:crtmbox.obj
 0001:00045380       ___ascii_strnicmp          10046380 f   libucrt:_strnicm.obj
 0001:00045491       ___dcrt_lowio_ensure_console_output_initialized 10046491 f   libucrt:initcon.obj
 0001:000454b0       ___dcrt_terminate_console_output 100464b0 f   libucrt:initcon.obj
 0001:000454c7       ___dcrt_write_console      100464c7 f   libucrt:initcon.obj
 0001:0004551c       ___clrfp_sse2              1004651c f   libucrt:fpctrl.obj
 0001:0004554e       ___ctrlfp_sse2             1004654e f   libucrt:fpctrl.obj
 0001:00045589       ___fclrf_sse2              10046589 f   libucrt:fpctrl.obj
 0001:000455a6       ___get_fpsr_sse2           100465a6 f   libucrt:fpctrl.obj
 0001:000455c2       ___set_fpsr_sse2           100465c2 f   libucrt:fpctrl.obj
 0001:00045642       ___set_statfp_sse2         10046642 f   libucrt:fpctrl.obj
 0001:0004565d       ___statfp_sse2             1004665d f   libucrt:fpctrl.obj
 0001:00045672       __clrfp                    10046672 f   libucrt:fpctrl.obj
 0001:00045683       __ctrlfp                   10046683 f   libucrt:fpctrl.obj
 0001:000456ad       __set_statfp               100466ad f   libucrt:fpctrl.obj
 0001:00045706       __statfp                   10046706 f   libucrt:fpctrl.obj
 0001:00045716       __d_inttype                10046716 f   libucrt:powhlp.obj
 0001:0004577e       __powhlp                   1004677e f   libucrt:powhlp.obj
 0001:000458a9       __87except                 100468a9 f   libucrt:87except.obj
 0001:000459b9       __frnd                     100469b9 f   libucrt:frnd.obj
 0001:000459cd       ?should_round_up@__crt_strtox@@YA_N_N000@Z 100469cd f i libucrt:fpexcept.obj
 0001:00045a1a       __errcode                  10046a1a f   libucrt:fpexcept.obj
 0001:00045a4e       __except1                  10046a4e f   libucrt:fpexcept.obj
 0001:00045b1c       __except2                  10046b1c f   libucrt:fpexcept.obj
 0001:00045c24       __handle_exc               10046c24 f   libucrt:fpexcept.obj
 0001:00045ea4       __handle_qnan2             10046ea4 f   libucrt:fpexcept.obj
 0001:00045eb1       __raise_exc                10046eb1 f   libucrt:fpexcept.obj
 0001:00045ed4       __raise_exc_ex             10046ed4 f   libucrt:fpexcept.obj
 0001:000461c5       __raise_excf               100471c5 f   libucrt:fpexcept.obj
 0001:000461e8       __set_errno_from_matherr   100471e8 f   libucrt:fpexcept.obj
 0001:00046219       __umatherr                 10047219 f   libucrt:fpexcept.obj
 0001:000462b9       __add_exp                  100472b9 f   libucrt:util.obj
 0001:000462e8       __decomp                   100472e8 f   libucrt:util.obj
 0001:000463ba       __get_exp                  100473ba f   libucrt:util.obj
 0001:000463d2       __set_bexp                 100473d2 f   libucrt:util.obj
 0001:000463f9       __set_exp                  100473f9 f   libucrt:util.obj
 0001:00046426       __sptype                   10047426 f   libucrt:util.obj
 0001:00046489       ___acrt_LCMapStringW       10047489 f   libucrt:lcmapstringw.obj
 0001:000464c7       ___acrt_OutputDebugStringA@4 100474c7 f   libucrt:outputdebugstringa.obj
 0001:00046536       __chgsign                  10047536 f   libucrt:ieeemisc.obj
 0001:0004655e       __chgsignf                 1004755e f   libucrt:ieeemisc.obj
 0001:0004657f       __copysign                 1004757f f   libucrt:ieeemisc.obj
 0001:000465a2       __copysignf                100475a2 f   libucrt:ieeemisc.obj
 0001:000465be       __finite                   100475be f   libucrt:ieeemisc.obj
 0001:000465d8       __fpclass                  100475d8 f   libucrt:ieeemisc.obj
 0001:0004667c       __isnan                    1004767c f   libucrt:ieeemisc.obj
 0001:000466b3       __logb                     100476b3 f   libucrt:ieeemisc.obj
 0001:00046783       __nextafter                10047783 f   libucrt:ieeemisc.obj
 0001:000467a2       __scalb                    100477a2 f   libucrt:ieeemisc.obj
 0001:00046a5f       __mbstowcs_l               10047a5f f   libucrt:mbstowcs.obj
 0001:00046a97       __mbstowcs_s_l             10047a97 f   libucrt:mbstowcs.obj
 0001:00046ad5       _mbstowcs                  10047ad5 f   libucrt:mbstowcs.obj
 0001:00046b0c       _mbstowcs_s                10047b0c f   libucrt:mbstowcs.obj
 0001:00046b49       _ldexp                     10047b49 f   libucrt:ldexp.obj
 0001:00046d3c       _nextafter                 10047d3c f   libucrt:nextafter.obj
 0001:00046d5b       _nexttoward                10047d5b f   libucrt:nexttoward.obj
 0001:00046f46       __d_int                    10047f46 f   libucrt:_test.obj
 0001:0004704c       __dtest                    1004804c f   libucrt:_test.obj
 0001:000470b0       __fd_int                   100480b0 f   libucrt:_test.obj
 0001:0004717d       __fdtest                   1004817d f   libucrt:_test.obj
 0001:000471cb       __fperrraise               100481cb f   libucrt:_test.obj
 0001:000471ec       __ld_int                   100481ec f   libucrt:_test.obj
 0001:000471f7       __ldtest                   100481f7 f   libucrt:_test.obj
 0001:00047202       __dclass                   10048202 f   libucrt:nan.obj
 0001:00047213       __dpcomp                   10048213 f   libucrt:nan.obj
 0001:00047269       __dsign                    10048269 f   libucrt:nan.obj
 0001:00047279       _nan                       10048279 f   libucrt:nan.obj
 0001:00047280       __ldclass                  10048280 f   libucrt:nanl.obj
 0001:00047291       __ldpcomp                  10048291 f   libucrt:nanl.obj
 0001:000472e7       __ldsign                   100482e7 f   libucrt:nanl.obj
 0001:000472f7       _nanl                      100482f7 f   libucrt:nanl.obj
 0001:000472fe       ??_4@YAAAW4__acrt_fenv_abstract_status@@AAW40@W40@@Z 100482fe f i libucrt:fegetexceptflag.obj
 0001:0004730d       _fegetexceptflag           1004830d f   libucrt:fegetexceptflag.obj
 0001:0004733e       ??S@YA?AW4__acrt_fenv_abstract_status@@W40@@Z 1004833e f i libucrt:fesetexceptflag.obj
 0001:0004734a       _fesetexceptflag           1004834a f   libucrt:fesetexceptflag.obj
 0001:000473ac       _fetestexcept              100483ac f   libucrt:fetestexcept.obj
 0001:000473cc       _UnhandledExceptionFilter@4 100483cc f   kernel32:KERNEL32.dll
 0001:000473d2       _SetUnhandledExceptionFilter@4 100483d2 f   kernel32:KERNEL32.dll
 0001:000473d8       _GetCurrentProcess@0       100483d8 f   kernel32:KERNEL32.dll
 0001:000473de       _TerminateProcess@8        100483de f   kernel32:KERNEL32.dll
 0001:000473e4       _IsProcessorFeaturePresent@4 100483e4 f   kernel32:KERNEL32.dll
 0001:000473ea       _IsDebuggerPresent@0       100483ea f   kernel32:KERNEL32.dll
 0001:000473f0       _GetStartupInfoW@4         100483f0 f   kernel32:KERNEL32.dll
 0001:000473f6       _GetModuleHandleW@4        100483f6 f   kernel32:KERNEL32.dll
 0001:000473fc       _QueryPerformanceCounter@4 100483fc f   kernel32:KERNEL32.dll
 0001:00047402       _GetCurrentProcessId@0     10048402 f   kernel32:KERNEL32.dll
 0001:00047408       _GetCurrentThreadId@0      10048408 f   kernel32:KERNEL32.dll
 0001:0004740e       _GetSystemTimeAsFileTime@4 1004840e f   kernel32:KERNEL32.dll
 0001:00047414       _InitializeSListHead@4     10048414 f   kernel32:KERNEL32.dll
 0001:0004741a       _RtlUnwind@16              1004841a f   kernel32:KERNEL32.dll
 0001:00047420       _RaiseException@16         10048420 f   kernel32:KERNEL32.dll
 0001:00047426       _InterlockedPushEntrySList@8 10048426 f   kernel32:KERNEL32.dll
 0001:0004742c       _InterlockedFlushSList@4   1004842c f   kernel32:KERNEL32.dll
 0001:00047432       _GetLastError@0            10048432 f   kernel32:KERNEL32.dll
 0001:00047438       _SetLastError@4            10048438 f   kernel32:KERNEL32.dll
 0001:0004743e       _EncodePointer@4           1004843e f   kernel32:KERNEL32.dll
 0001:00047444       _EnterCriticalSection@4    10048444 f   kernel32:KERNEL32.dll
 0001:0004744a       _LeaveCriticalSection@4    1004844a f   kernel32:KERNEL32.dll
 0001:00047450       _DeleteCriticalSection@4   10048450 f   kernel32:KERNEL32.dll
 0001:00047456       _InitializeCriticalSectionAndSpinCount@8 10048456 f   kernel32:KERNEL32.dll
 0001:0004745c       _TlsAlloc@0                1004845c f   kernel32:KERNEL32.dll
 0001:00047462       _TlsGetValue@4             10048462 f   kernel32:KERNEL32.dll
 0001:00047468       _TlsSetValue@8             10048468 f   kernel32:KERNEL32.dll
 0001:0004746e       _TlsFree@4                 1004846e f   kernel32:KERNEL32.dll
 0001:00047474       _FreeLibrary@4             10048474 f   kernel32:KERNEL32.dll
 0001:0004747a       _GetProcAddress@8          1004847a f   kernel32:KERNEL32.dll
 0001:00047480       _LoadLibraryExW@12         10048480 f   kernel32:KERNEL32.dll
 0001:00047486       _ExitProcess@4             10048486 f   kernel32:KERNEL32.dll
 0001:0004748c       _GetModuleHandleExW@12     1004848c f   kernel32:KERNEL32.dll
 0001:00047492       _GetModuleFileNameW@12     10048492 f   kernel32:KERNEL32.dll
 0001:00047498       _HeapFree@12               10048498 f   kernel32:KERNEL32.dll
 0001:0004749e       _HeapAlloc@12              1004849e f   kernel32:KERNEL32.dll
 0001:000474a4       _HeapReAlloc@16            100484a4 f   kernel32:KERNEL32.dll
 0001:000474aa       _GetCurrentThread@0        100484aa f   kernel32:KERNEL32.dll
 0001:000474b0       _GetStdHandle@4            100484b0 f   kernel32:KERNEL32.dll
 0001:000474b6       _GetFileType@4             100484b6 f   kernel32:KERNEL32.dll
 0001:000474bc       _FindClose@4               100484bc f   kernel32:KERNEL32.dll
 0001:000474c2       _FindFirstFileExW@24       100484c2 f   kernel32:KERNEL32.dll
 0001:000474c8       _FindNextFileW@8           100484c8 f   kernel32:KERNEL32.dll
 0001:000474ce       _IsValidCodePage@4         100484ce f   kernel32:KERNEL32.dll
 0001:000474d4       _GetACP@0                  100484d4 f   kernel32:KERNEL32.dll
 0001:000474da       _GetOEMCP@0                100484da f   kernel32:KERNEL32.dll
 0001:000474e0       _GetCPInfo@8               100484e0 f   kernel32:KERNEL32.dll
 0001:000474e6       _GetCommandLineA@0         100484e6 f   kernel32:KERNEL32.dll
 0001:000474ec       _GetCommandLineW@0         100484ec f   kernel32:KERNEL32.dll
 0001:000474f2       _MultiByteToWideChar@24    100484f2 f   kernel32:KERNEL32.dll
 0001:000474f8       _WideCharToMultiByte@32    100484f8 f   kernel32:KERNEL32.dll
 0001:000474fe       _GetEnvironmentStringsW@0  100484fe f   kernel32:KERNEL32.dll
 0001:00047504       _FreeEnvironmentStringsW@4 10048504 f   kernel32:KERNEL32.dll
 0001:0004750a       _SetEnvironmentVariableW@8 1004850a f   kernel32:KERNEL32.dll
 0001:00047510       _GetTempPathW@8            10048510 f   kernel32:KERNEL32.dll
 0001:00047516       _GetDateFormatW@24         10048516 f   kernel32:KERNEL32.dll
 0001:0004751c       _GetTimeFormatW@24         1004851c f   kernel32:KERNEL32.dll
 0001:00047522       _CompareStringW@24         10048522 f   kernel32:KERNEL32.dll
 0001:00047528       _LCMapStringW@24           10048528 f   kernel32:KERNEL32.dll
 0001:0004752e       _GetLocaleInfoW@16         1004852e f   kernel32:KERNEL32.dll
 0001:00047534       _IsValidLocale@8           10048534 f   kernel32:KERNEL32.dll
 0001:0004753a       _GetUserDefaultLCID@0      1004853a f   kernel32:KERNEL32.dll
 0001:00047540       _EnumSystemLocalesW@8      10048540 f   kernel32:KERNEL32.dll
 0001:00047546       _GetProcessHeap@0          10048546 f   kernel32:KERNEL32.dll
 0001:0004754c       _SetConsoleCtrlHandler@8   1004854c f   kernel32:KERNEL32.dll
 0001:00047552       _GetFileSizeEx@8           10048552 f   kernel32:KERNEL32.dll
 0001:00047558       _SetFilePointerEx@20       10048558 f   kernel32:KERNEL32.dll
 0001:0004755e       _GetStringTypeW@16         1004855e f   kernel32:KERNEL32.dll
 0001:00047564       _SetStdHandle@8            10048564 f   kernel32:KERNEL32.dll
 0001:0004756a       _HeapSize@12               1004856a f   kernel32:KERNEL32.dll
 0001:00047570       _FlushFileBuffers@4        10048570 f   kernel32:KERNEL32.dll
 0001:00047576       _WriteFile@20              10048576 f   kernel32:KERNEL32.dll
 0001:0004757c       _GetConsoleOutputCP@0      1004857c f   kernel32:KERNEL32.dll
 0001:00047582       _GetConsoleMode@8          10048582 f   kernel32:KERNEL32.dll
 0001:00047588       _ReadFile@20               10048588 f   kernel32:KERNEL32.dll
 0001:0004758e       _ReadConsoleW@20           1004858e f   kernel32:KERNEL32.dll
 0001:00047594       _DecodePointer@4           10048594 f   kernel32:KERNEL32.dll
 0001:0004759a       _CloseHandle@4             1004859a f   kernel32:KERNEL32.dll
 0001:000475a0       _OutputDebugStringW@4      100485a0 f   kernel32:KERNEL32.dll
 0001:000475a6       _CreateFileW@28            100485a6 f   kernel32:KERNEL32.dll
 0001:000475ac       _WriteConsoleW@20          100485ac f   kernel32:KERNEL32.dll
 0001:000475b2       @_guard_check_icall@4      100485b2 f i LIBCMT:checkcfg.obj
 0001:000475c0       __FindPESection            100485c0 f   LIBCMT:pesect.obj
 0001:00047610       __IsNonwritableInCurrentImage 10048610 f   LIBCMT:pesect.obj
 0001:000476d0       __ValidateImageBase        100486d0 f   LIBCMT:pesect.obj
 0001:00047701       __EH_epilog3               10048701 f   LIBCMT:ehprolg3.obj
 0001:00047715       __EH_epilog3_GS            10048715 f   LIBCMT:ehprolg3.obj
 0001:00047724       __EH_epilog3_catch_GS      10048724 f   LIBCMT:ehprolg3.obj
 0001:00047733       __EH_prolog3               10048733 f   LIBCMT:ehprolg3.obj
 0001:00047766       __EH_prolog3_GS            10048766 f   LIBCMT:ehprolg3.obj
 0001:0004779c       __EH_prolog3_catch         1004879c f   LIBCMT:ehprolg3.obj
 0001:000477d2       __EH_prolog3_catch_GS      100487d2 f   LIBCMT:ehprolg3.obj
 0001:00047810       __aulldvrm                 10048810 f   LIBCMT:ulldvrm.obj
 0001:000478b0       __aulldiv                  100488b0 f   LIBCMT:ulldiv.obj
 0001:00047920       __aullrem                  10048920 f   LIBCMT:ullrem.obj
 0001:00047995       __except_handler4_noexcept 10048995 f   LIBCMT:chandler4_noexcept.obj
 0001:000479e0       __allmul                   100489e0 f   LIBCMT:llmul.obj
 0001:00047a20       __alldiv                   10048a20 f   LIBCMT:lldiv.obj
 0001:00047ad0       __allrem                   10048ad0 f   LIBCMT:llrem.obj
 0001:00047b90       __allshl                   10048b90 f   LIBCMT:llshl.obj
 0001:00047bb0       __aullshr                  10048bb0 f   LIBCMT:ullshr.obj
 0001:00047bd0       __ftol2_sse_excpt          10048bd0 f   LIBCMT:ftol2.obj
 0001:00047be0       __ftol2_sse                10048be0 f   LIBCMT:ftol2.obj
 0001:00047bf0       __ftoi2                    10048bf0 f   LIBCMT:ftol2.obj
 0001:00047c70       __ftoui2                   10048c70 f   LIBCMT:ftol2.obj
 0001:00047d20       __ftol2                    10048d20 f   LIBCMT:ftol2.obj
 0001:00047dd0       __ftoul2                   10048dd0 f   LIBCMT:ftol2.obj
 0001:00047e90       __ftoul2_legacy            10048e90 f   LIBCMT:ftol2.obj
 0001:00047eb0       __alloca_probe_16          10048eb0 f   LIBCMT:alloca16.obj
 0001:00047ec6       __alloca_probe_8           10048ec6     LIBCMT:alloca16.obj
 0001:00047ee0       __alloca_probe             10048ee0 f   LIBCMT:chkstk.obj
 0001:00047ee0       __chkstk                   10048ee0 f   LIBCMT:chkstk.obj
 0001:00047f0b       __initialize_default_precision 10048f0b f   LIBCMT:default_precision.obj
 0001:00047f30       _strrchr                   10048f30 f   libvcruntime:strrchr.obj
 0001:00048184       _memcmp                    10049184 f   libvcruntime:memcmp.obj
 0001:0004adf0       _strchr                    1004bdf0 f   libvcruntime:strchr.obj
 0001:0004ae5e       ___from_strstr_to_strchr   1004be5e     libvcruntime:strchr.obj
 0001:0004af1b       _wcschr                    1004bf1b f   libvcruntime:wcschr.obj
 0001:0004afca       __filter_x86_sse2_floating_point_exception 1004bfca f   LIBCMT:x86_exception_filter.obj
 0001:0004afca       __filter_x86_sse2_floating_point_exception_default 1004bfca f   LIBCMT:x86_exception_filter.obj
 0002:00000000       __imp__GetTickCount@0      1004d000     kernel32:KERNEL32.dll
 0002:00000004       __imp__CreateFileW@28      1004d004     kernel32:KERNEL32.dll
 0002:00000008       __imp__OutputDebugStringW@4 1004d008     kernel32:KERNEL32.dll
 0002:0000000c       __imp__CloseHandle@4       1004d00c     kernel32:KERNEL32.dll
 0002:00000010       __imp__DecodePointer@4     1004d010     kernel32:KERNEL32.dll
 0002:00000014       __imp__ReadConsoleW@20     1004d014     kernel32:KERNEL32.dll
 0002:00000018       __imp__ReadFile@20         1004d018     kernel32:KERNEL32.dll
 0002:0000001c       __imp__GetConsoleMode@8    1004d01c     kernel32:KERNEL32.dll
 0002:00000020       __imp__GetConsoleOutputCP@0 1004d020     kernel32:KERNEL32.dll
 0002:00000024       __imp__UnhandledExceptionFilter@4 1004d024     kernel32:KERNEL32.dll
 0002:00000028       __imp__SetUnhandledExceptionFilter@4 1004d028     kernel32:KERNEL32.dll
 0002:0000002c       __imp__GetCurrentProcess@0 1004d02c     kernel32:KERNEL32.dll
 0002:00000030       __imp__TerminateProcess@8  1004d030     kernel32:KERNEL32.dll
 0002:00000034       __imp__IsProcessorFeaturePresent@4 1004d034     kernel32:KERNEL32.dll
 0002:00000038       __imp__IsDebuggerPresent@0 1004d038     kernel32:KERNEL32.dll
 0002:0000003c       __imp__GetStartupInfoW@4   1004d03c     kernel32:KERNEL32.dll
 0002:00000040       __imp__GetModuleHandleW@4  1004d040     kernel32:KERNEL32.dll
 0002:00000044       __imp__QueryPerformanceCounter@4 1004d044     kernel32:KERNEL32.dll
 0002:00000048       __imp__GetCurrentProcessId@0 1004d048     kernel32:KERNEL32.dll
 0002:0000004c       __imp__GetCurrentThreadId@0 1004d04c     kernel32:KERNEL32.dll
 0002:00000050       __imp__GetSystemTimeAsFileTime@4 1004d050     kernel32:KERNEL32.dll
 0002:00000054       __imp__InitializeSListHead@4 1004d054     kernel32:KERNEL32.dll
 0002:00000058       __imp__RtlUnwind@16        1004d058     kernel32:KERNEL32.dll
 0002:0000005c       __imp__RaiseException@16   1004d05c     kernel32:KERNEL32.dll
 0002:00000060       __imp__InterlockedPushEntrySList@8 1004d060     kernel32:KERNEL32.dll
 0002:00000064       __imp__InterlockedFlushSList@4 1004d064     kernel32:KERNEL32.dll
 0002:00000068       __imp__GetLastError@0      1004d068     kernel32:KERNEL32.dll
 0002:0000006c       __imp__SetLastError@4      1004d06c     kernel32:KERNEL32.dll
 0002:00000070       __imp__EncodePointer@4     1004d070     kernel32:KERNEL32.dll
 0002:00000074       __imp__EnterCriticalSection@4 1004d074     kernel32:KERNEL32.dll
 0002:00000078       __imp__LeaveCriticalSection@4 1004d078     kernel32:KERNEL32.dll
 0002:0000007c       __imp__DeleteCriticalSection@4 1004d07c     kernel32:KERNEL32.dll
 0002:00000080       __imp__InitializeCriticalSectionAndSpinCount@8 1004d080     kernel32:KERNEL32.dll
 0002:00000084       __imp__TlsAlloc@0          1004d084     kernel32:KERNEL32.dll
 0002:00000088       __imp__TlsGetValue@4       1004d088     kernel32:KERNEL32.dll
 0002:0000008c       __imp__TlsSetValue@8       1004d08c     kernel32:KERNEL32.dll
 0002:00000090       __imp__TlsFree@4           1004d090     kernel32:KERNEL32.dll
 0002:00000094       __imp__FreeLibrary@4       1004d094     kernel32:KERNEL32.dll
 0002:00000098       __imp__GetProcAddress@8    1004d098     kernel32:KERNEL32.dll
 0002:0000009c       __imp__LoadLibraryExW@12   1004d09c     kernel32:KERNEL32.dll
 0002:000000a0       __imp__ExitProcess@4       1004d0a0     kernel32:KERNEL32.dll
 0002:000000a4       __imp__GetModuleHandleExW@12 1004d0a4     kernel32:KERNEL32.dll
 0002:000000a8       __imp__GetModuleFileNameW@12 1004d0a8     kernel32:KERNEL32.dll
 0002:000000ac       __imp__HeapFree@12         1004d0ac     kernel32:KERNEL32.dll
 0002:000000b0       __imp__HeapAlloc@12        1004d0b0     kernel32:KERNEL32.dll
 0002:000000b4       __imp__HeapReAlloc@16      1004d0b4     kernel32:KERNEL32.dll
 0002:000000b8       __imp__GetCurrentThread@0  1004d0b8     kernel32:KERNEL32.dll
 0002:000000bc       __imp__GetStdHandle@4      1004d0bc     kernel32:KERNEL32.dll
 0002:000000c0       __imp__GetFileType@4       1004d0c0     kernel32:KERNEL32.dll
 0002:000000c4       __imp__FindClose@4         1004d0c4     kernel32:KERNEL32.dll
 0002:000000c8       __imp__FindFirstFileExW@24 1004d0c8     kernel32:KERNEL32.dll
 0002:000000cc       __imp__FindNextFileW@8     1004d0cc     kernel32:KERNEL32.dll
 0002:000000d0       __imp__IsValidCodePage@4   1004d0d0     kernel32:KERNEL32.dll
 0002:000000d4       __imp__GetACP@0            1004d0d4     kernel32:KERNEL32.dll
 0002:000000d8       __imp__GetOEMCP@0          1004d0d8     kernel32:KERNEL32.dll
 0002:000000dc       __imp__GetCPInfo@8         1004d0dc     kernel32:KERNEL32.dll
 0002:000000e0       __imp__GetCommandLineA@0   1004d0e0     kernel32:KERNEL32.dll
 0002:000000e4       __imp__GetCommandLineW@0   1004d0e4     kernel32:KERNEL32.dll
 0002:000000e8       __imp__MultiByteToWideChar@24 1004d0e8     kernel32:KERNEL32.dll
 0002:000000ec       __imp__WideCharToMultiByte@32 1004d0ec     kernel32:KERNEL32.dll
 0002:000000f0       __imp__GetEnvironmentStringsW@0 1004d0f0     kernel32:KERNEL32.dll
 0002:000000f4       __imp__FreeEnvironmentStringsW@4 1004d0f4     kernel32:KERNEL32.dll
 0002:000000f8       __imp__SetEnvironmentVariableW@8 1004d0f8     kernel32:KERNEL32.dll
 0002:000000fc       __imp__GetTempPathW@8      1004d0fc     kernel32:KERNEL32.dll
 0002:00000100       __imp__GetDateFormatW@24   1004d100     kernel32:KERNEL32.dll
 0002:00000104       __imp__GetTimeFormatW@24   1004d104     kernel32:KERNEL32.dll
 0002:00000108       __imp__CompareStringW@24   1004d108     kernel32:KERNEL32.dll
 0002:0000010c       __imp__LCMapStringW@24     1004d10c     kernel32:KERNEL32.dll
 0002:00000110       __imp__GetLocaleInfoW@16   1004d110     kernel32:KERNEL32.dll
 0002:00000114       __imp__IsValidLocale@8     1004d114     kernel32:KERNEL32.dll
 0002:00000118       __imp__GetUserDefaultLCID@0 1004d118     kernel32:KERNEL32.dll
 0002:0000011c       __imp__EnumSystemLocalesW@8 1004d11c     kernel32:KERNEL32.dll
 0002:00000120       __imp__GetProcessHeap@0    1004d120     kernel32:KERNEL32.dll
 0002:00000124       __imp__SetConsoleCtrlHandler@8 1004d124     kernel32:KERNEL32.dll
 0002:00000128       __imp__GetFileSizeEx@8     1004d128     kernel32:KERNEL32.dll
 0002:0000012c       __imp__SetFilePointerEx@20 1004d12c     kernel32:KERNEL32.dll
 0002:00000130       __imp__GetStringTypeW@16   1004d130     kernel32:KERNEL32.dll
 0002:00000134       __imp__SetStdHandle@8      1004d134     kernel32:KERNEL32.dll
 0002:00000138       __imp__HeapSize@12         1004d138     kernel32:KERNEL32.dll
 0002:0000013c       __imp__FlushFileBuffers@4  1004d13c     kernel32:KERNEL32.dll
 0002:00000140       __imp__WriteFile@20        1004d140     kernel32:KERNEL32.dll
 0002:00000144       __imp__WriteConsoleW@20    1004d144     kernel32:KERNEL32.dll
 0002:00000148       \177KERNEL32_NULL_THUNK_DATA 1004d148     kernel32:KERNEL32.dll
 0002:0000014c       __imp_?RFileSize@@YAKPAX@Z 1004d14c     dmcr:dmcr.exe
 0002:00000150       __imp_?RReset@@YAPAXPBD@Z  1004d150     dmcr:dmcr.exe
 0002:00000154       __imp_??1CGSCset@@UAE@XZ   1004d154     dmcr:dmcr.exe
 0002:00000158       __imp_??1CGSCarch@@UAE@XZ  1004d158     dmcr:dmcr.exe
 0002:0000015c       __imp_?RBlockRead@@YAKPAX0K@Z 1004d15c     dmcr:dmcr.exe
 0002:00000160       __imp_?RClose@@YAXPAX@Z    1004d160     dmcr:dmcr.exe
 0002:00000164       \177dmcr_NULL_THUNK_DATA   1004d164     dmcr:dmcr.exe
 0002:00000168       ___guard_check_icall_fptr  1004d168     LIBCMT:guard_support.obj
 0002:0000016c       ___guard_xfg_check_icall_fptr 1004d16c     LIBCMT:guard_support.obj
 0002:00000170       ___castguard_check_failure_os_handled_fptr 1004d170     LIBCMT:guard_support.obj
 0002:00000174       ___xc_a                    1004d174     LIBCMT:initializers.obj
 0002:0000017c       ___xc_z                    1004d17c     LIBCMT:initializers.obj
 0002:00000180       ___xi_a                    1004d180     LIBCMT:initializers.obj
 0002:00000184       ___acrt_stdio_initializer  1004d184     libucrt:stdio_initializer.obj
 0002:00000188       ___acrt_multibyte_initializer 1004d188     libucrt:multibyte_initializer.obj
 0002:0000018c       ___acrt_tran_sse2_initializer 1004d18c     libucrt:sse2_initializer.obj
 0002:00000190       ___xi_z                    1004d190     LIBCMT:initializers.obj
 0002:00000194       ___xp_a                    1004d194     LIBCMT:initializers.obj
 0002:00000198       ___acrt_locale_terminator  1004d198     libucrt:locale_initializer.obj
 0002:0000019c       ___dcrt_console_output_terminator 1004d19c     libucrt:console_output_initializer.obj
 0002:000001a0       ___acrt_stdio_terminator   1004d1a0     libucrt:stdio_initializer.obj
 0002:000001a4       ___xp_z                    1004d1a4     LIBCMT:initializers.obj
 0002:000001a8       ___xt_a                    1004d1a8     LIBCMT:initializers.obj
 0002:000001ac       ___xt_z                    1004d1ac     LIBCMT:initializers.obj
 0002:000001b0       ??_C@_01DNKMNLPK@?$HM@     1004d1b0     ParseRQ.obj
 0002:000001b4       ??_C@_01HNPIGOCE@?$CG@     1004d1b4     ParseRQ.obj
 0002:000001bc       ??_7CGSCarch@@6B@          1004d1bc     LF_Server.obj
 0002:000001c4       ??_7CGSCset@@6B@           1004d1c4     LF_Server.obj
 0002:000001c8       ??_C@_04PMOCAHAA@open@     1004d1c8     LF_Server.obj
 0002:000001d0       ??_C@_07JMFALMPA@LW_show@  1004d1d0     LF_Server.obj
 0002:000001d8       ??_C@_03HNAFFKGA@get@      1004d1d8     LF_Server.obj
 0002:000001dc       ??_C@_08CMFFJCPF@LW_cfile@ 1004d1dc     LF_Server.obj
 0002:000001e8       ??_C@_0BA@BEIGLPHG@Internet?2Res?2?$CFs@ 1004d1e8     LF_Server.obj
 0002:000001f8       ??_C@_0BB@NDJJMOHH@Internet?2Cash?2?$CFs@ 1004d1f8     LF_Server.obj
 0002:0000020c       ??_C@_06CGIPLBJP@dnfile@   1004d20c     LF_Server.obj
 0002:00000220       ??_7type_info@@6B@         1004d220     LIBCMT:std_type_info_static.obj
 0002:00000224       __pDefaultRawDllMain       1004d224     LIBCMT:dll_dllmain.obj
 0002:00000224       __pRawDllMain              1004d224     LIBCMT:dll_dllmain.obj
 0002:0000022c       ??_7exception@std@@6B@     1004d22c     LIBCMT:throw_bad_alloc.obj
 0002:00000234       ??_C@_0BC@EOODALEL@Unknown?5exception@ 1004d234     LIBCMT:throw_bad_alloc.obj
 0002:0000024c       ??_7bad_alloc@std@@6B@     1004d24c     LIBCMT:throw_bad_alloc.obj
 0002:00000254       ??_C@_0P@GHFPNOJB@bad?5allocation@ 1004d254     LIBCMT:throw_bad_alloc.obj
 0002:00000268       ??_7bad_array_new_length@std@@6B@ 1004d268     LIBCMT:throw_bad_alloc.obj
 0002:00000270       ??_C@_0BF@KINCDENJ@bad?5array?5new?5length@ 1004d270     LIBCMT:throw_bad_alloc.obj
 0002:00000288       __pDestructExceptionObject 1004d288     libvcruntime:ehhelpers.obj
 0002:00000290       ??_7bad_exception@std@@6B@ 1004d290     libvcruntime:frame.obj
 0002:00000298       ??_C@_0O@DPKOEFFH@bad?5exception@ 1004d298     libvcruntime:frame.obj
 0002:00000630       ??_C@_08EHJDFFNH@__based?$CI@ 1004d630     libvcruntime:undname.obj
 0002:0000063c       ??_C@_07KOLFKCDI@__cdecl@  1004d63c     libvcruntime:undname.obj
 0002:00000644       ??_C@_08GHMPAG@__pascal@   1004d644     libvcruntime:undname.obj
 0002:00000650       ??_C@_09IFJBGAPI@__stdcall@ 1004d650     libvcruntime:undname.obj
 0002:0000065c       ??_C@_0L@NPHFGOKO@__thiscall@ 1004d65c     libvcruntime:undname.obj
 0002:00000668       ??_C@_0L@JMKHOMEK@__fastcall@ 1004d668     libvcruntime:undname.obj
 0002:00000674       ??_C@_0N@BCKKPABJ@__vectorcall@ 1004d674     libvcruntime:undname.obj
 0002:00000684       ??_C@_09HIJEGCPM@__clrcall@ 1004d684     libvcruntime:undname.obj
 0002:00000690       ??_C@_06GHPCKEAG@__eabi@   1004d690     libvcruntime:undname.obj
 0002:00000698       ??_C@_09IOPIDJLG@__swift_1@ 1004d698     libvcruntime:undname.obj
 0002:000006a4       ??_C@_09KFNFGKHF@__swift_2@ 1004d6a4     libvcruntime:undname.obj
 0002:000006b0       ??_C@_09LMMOFLDE@__swift_3@ 1004d6b0     libvcruntime:undname.obj
 0002:000006bc       ??_C@_07JOMMBBKO@__ptr64@  1004d6bc     libvcruntime:undname.obj
 0002:000006c4       ??_C@_0L@PILCLIHE@__restrict@ 1004d6c4     libvcruntime:undname.obj
 0002:000006d0       ??_C@_0M@GFIIJFMG@__unaligned@ 1004d6d0     libvcruntime:undname.obj
 0002:000006dc       ??_C@_09DHDLOLLB@restrict?$CI@ 1004d6dc     libvcruntime:undname.obj
 0002:000006e6       ??_C@_00CNPNBAHC@@         1004d6e6     libvcruntime:undname.obj
 0002:000006e8       ??_C@_04NIHEBCM@?5new@     1004d6e8     libvcruntime:undname.obj
 0002:000006f0       ??_C@_07FPCDHGMM@?5delete@ 1004d6f0     libvcruntime:undname.obj
 0002:000006f8       ??_C@_01NEMOKFLO@?$DN@     1004d6f8     libvcruntime:undname.obj
 0002:000006fc       ??_C@_02GPIOPFAK@?$DO?$DO@ 1004d6fc     libvcruntime:undname.obj
 0002:00000700       ??_C@_02FODMEDOG@?$DM?$DM@ 1004d700     libvcruntime:undname.obj
 0002:00000704       ??_C@_01DCLJPIOD@?$CB@     1004d704     libvcruntime:undname.obj
 0002:00000708       ??_C@_02EGOFBIJA@?$DN?$DN@ 1004d708     libvcruntime:undname.obj
 0002:0000070c       ??_C@_02FDNJECIE@?$CB?$DN@ 1004d70c     libvcruntime:undname.obj
 0002:00000710       ??_C@_02GPECMEKF@?$FL?$FN@ 1004d710     libvcruntime:undname.obj
 0002:00000714       ??_C@_08LHJFAFGD@operator@ 1004d714     libvcruntime:undname.obj
 0002:00000720       ??_C@_02HBOOOICD@?9?$DO@   1004d720     libvcruntime:undname.obj
 0002:00000724       ??_C@_01NBENCBCI@?$CK@     1004d724     libvcruntime:undname.obj
 0002:00000728       ??_C@_02ECNGHCIF@?$CL?$CL@ 1004d728     libvcruntime:undname.obj
 0002:0000072c       ??_C@_02BAABKJLB@?9?9@     1004d72c     libvcruntime:undname.obj
 0002:00000730       ??_C@_01JOAMLHOP@?9@       1004d730     libvcruntime:undname.obj
 0002:00000734       ??_C@_01MIFGBAGJ@?$CL@     1004d734     libvcruntime:undname.obj
 0002:00000738       ??_C@_03MNHNFDLC@?9?$DO?$CK@ 1004d738     libvcruntime:undname.obj
 0002:0000073c       ??_C@_01KMDKNFGN@?1@       1004d73c     libvcruntime:undname.obj
 0002:00000740       ??_C@_01FGNFDNOH@?$CF@     1004d740     libvcruntime:undname.obj
 0002:00000744       ??_C@_01MNNFJEPP@?$DM@     1004d744     libvcruntime:undname.obj
 0002:00000748       ??_C@_02EHCHHCKH@?$DM?$DN@ 1004d748     libvcruntime:undname.obj
 0002:0000074c       ??_C@_01PPODPGHN@?$DO@     1004d74c     libvcruntime:undname.obj
 0002:00000750       ??_C@_02EEKDKGMJ@?$DO?$DN@ 1004d750     libvcruntime:undname.obj
 0002:00000754       ??_C@_01IHBHIGKO@?0@       1004d754     libvcruntime:undname.obj
 0002:00000758       ??_C@_02HCKGKOFO@?$CI?$CJ@ 1004d758     libvcruntime:undname.obj
 0002:0000075c       ??_C@_01PJKLJHI@?$HO@      1004d75c     libvcruntime:undname.obj
 0002:00000760       ??_C@_01JKBOJNNK@?$FO@     1004d760     libvcruntime:undname.obj
 0002:00000764       ??_C@_02PPKAJPJL@?$CG?$CG@ 1004d764     libvcruntime:undname.obj
 0002:00000768       ??_C@_02NONPIBCD@?$HM?$HM@ 1004d768     libvcruntime:undname.obj
 0002:0000076c       ??_C@_02FPIMKNGF@?$CK?$DN@ 1004d76c     libvcruntime:undname.obj
 0002:00000770       ??_C@_02FOEOMHFC@?$CL?$DN@ 1004d770     libvcruntime:undname.obj
 0002:00000774       ??_C@_02FKMDLLOA@?9?$DN@   1004d774     libvcruntime:undname.obj
 0002:00000778       ??_C@_02FJEHGPIO@?1?$DN@   1004d778     libvcruntime:undname.obj
 0002:0000077c       ??_C@_02FENAOKFI@?$CF?$DN@ 1004d77c     libvcruntime:undname.obj
 0002:00000780       ??_C@_03IKFCCPFF@?$DO?$DO?$DN@ 1004d780     libvcruntime:undname.obj
 0002:00000784       ??_C@_03CDNPDDLA@?$DM?$DM?$DN@ 1004d784     libvcruntime:undname.obj
 0002:00000788       ??_C@_02FGJGFEAB@?$CG?$DN@ 1004d788     libvcruntime:undname.obj
 0002:0000078c       ??_C@_02DHLNPPGH@?$HM?$DN@ 1004d78c     libvcruntime:undname.obj
 0002:00000790       ??_C@_02MHEGNOJ@?$FO?$DN@  1004d790     libvcruntime:undname.obj
 0002:00000794       ??_C@_09IFPLHPGF@?$GAvftable?8@ 1004d794     libvcruntime:undname.obj
 0002:000007a0       ??_C@_09BLBHBJP@?$GAvbtable?8@ 1004d7a0     libvcruntime:undname.obj
 0002:000007ac       ??_C@_07FEEIOKP@?$GAvcall?8@ 1004d7ac     libvcruntime:undname.obj
 0002:000007b4       ??_C@_08LLFFHHDJ@?$GAtypeof?8@ 1004d7b4     libvcruntime:undname.obj
 0002:000007c0       ??_C@_0BF@KDPPACIK@?$GAlocal?5static?5guard?8@ 1004d7c0     libvcruntime:undname.obj
 0002:000007d8       ??_C@_08OBABFOLI@?$GAstring?8@ 1004d7d8     libvcruntime:undname.obj
 0002:000007e4       ??_C@_0BD@JDLKDPAB@?$GAvbase?5destructor?8@ 1004d7e4     libvcruntime:undname.obj
 0002:000007f8       ??_C@_0BN@DEGPLNFK@?$GAvector?5deleting?5destructor?8@ 1004d7f8     libvcruntime:undname.obj
 0002:00000818       ??_C@_0BO@OBMKPJIG@?$GAdefault?5constructor?5closure?8@ 1004d818     libvcruntime:undname.obj
 0002:00000838       ??_C@_0BN@IMDCHIKM@?$GAscalar?5deleting?5destructor?8@ 1004d838     libvcruntime:undname.obj
 0002:00000858       ??_C@_0BO@PFGOCPJJ@?$GAvector?5constructor?5iterator?8@ 1004d858     libvcruntime:undname.obj
 0002:00000878       ??_C@_0BN@LFPFMEDL@?$GAvector?5destructor?5iterator?8@ 1004d878     libvcruntime:undname.obj
 0002:00000898       ??_C@_0CE@IKBNEHA@?$GAvector?5vbase?5constructor?5itera@ 1004d898     libvcruntime:undname.obj
 0002:000008bc       ??_C@_0BL@NILFHHPC@?$GAvirtual?5displacement?5map?8@ 1004d8bc     libvcruntime:undname.obj
 0002:000008d8       ??_C@_0CB@JONCMFFK@?$GAeh?5vector?5constructor?5iterator@ 1004d8d8     libvcruntime:undname.obj
 0002:000008fc       ??_C@_0CA@GCEOPDGL@?$GAeh?5vector?5destructor?5iterator?8@ 1004d8fc     libvcruntime:undname.obj
 0002:0000091c       ??_C@_0CH@OOJPLCPH@?$GAeh?5vector?5vbase?5constructor?5it@ 1004d91c     libvcruntime:undname.obj
 0002:00000944       ??_C@_0BL@LLKPOHJI@?$GAcopy?5constructor?5closure?8@ 1004d944     libvcruntime:undname.obj
 0002:00000960       ??_C@_0BA@KBCDOMBN@?$GAudt?5returning?8@ 1004d960     libvcruntime:undname.obj
 0002:00000970       ??_C@_03KLGMFNMG@?$GAEH@   1004d970     libvcruntime:undname.obj
 0002:00000974       ??_C@_05KHLCHHI@?$GARTTI@  1004d974     libvcruntime:undname.obj
 0002:0000097c       ??_C@_0BA@KKLDJDLB@?$GAlocal?5vftable?8@ 1004d97c     libvcruntime:undname.obj
 0002:0000098c       ??_C@_0CE@IIHCMGGL@?$GAlocal?5vftable?5constructor?5clos@ 1004d98c     libvcruntime:undname.obj
 0002:000009b0       ??_C@_06FHBGPFGH@?5new?$FL?$FN@ 1004d9b0     libvcruntime:undname.obj
 0002:000009b8       ??_C@_09LBNFPBCA@?5delete?$FL?$FN@ 1004d9b8     libvcruntime:undname.obj
 0002:000009c4       ??_C@_0P@HJKNJFNN@?$GAomni?5callsig?8@ 1004d9c4     libvcruntime:undname.obj
 0002:000009d4       ??_C@_0BL@CNOONJFP@?$GAplacement?5delete?5closure?8@ 1004d9d4     libvcruntime:undname.obj
 0002:000009f0       ??_C@_0BN@CKNJLHMB@?$GAplacement?5delete?$FL?$FN?5closure?8@ 1004d9f0     libvcruntime:undname.obj
 0002:00000a10       ??_C@_0CG@CFDHKGGD@?$GAmanaged?5vector?5constructor?5ite@ 1004da10     libvcruntime:undname.obj
 0002:00000a38       ??_C@_0CF@IMGKMJNO@?$GAmanaged?5vector?5destructor?5iter@ 1004da38     libvcruntime:undname.obj
 0002:00000a60       ??_C@_0CG@HLDDJMAG@?$GAeh?5vector?5copy?5constructor?5ite@ 1004da60     libvcruntime:undname.obj
 0002:00000a88       ??_C@_0CM@FCBBDIGB@?$GAeh?5vector?5vbase?5copy?5construct@ 1004da88     libvcruntime:undname.obj
 0002:00000ab4       ??_C@_0BL@CLIPGLGB@?$GAdynamic?5initializer?5for?5?8@ 1004dab4     libvcruntime:undname.obj
 0002:00000ad0       ??_C@_0CB@PDBIFEP@?$GAdynamic?5atexit?5destructor?5for?5@ 1004dad0     libvcruntime:undname.obj
 0002:00000af4       ??_C@_0CD@CGAJBKEJ@?$GAvector?5copy?5constructor?5iterat@ 1004daf4     libvcruntime:undname.obj
 0002:00000b18       ??_C@_0CJ@GJELGAMM@?$GAvector?5vbase?5copy?5constructor?5@ 1004db18     libvcruntime:undname.obj
 0002:00000b44       ??_C@_0CL@FGIJHLCE@?$GAmanaged?5vector?5copy?5constructo@ 1004db44     libvcruntime:undname.obj
 0002:00000b70       ??_C@_0BM@PMGGMLDN@?$GAlocal?5static?5thread?5guard?8@ 1004db70     libvcruntime:undname.obj
 0002:00000b8c       ??_C@_0N@BDNMDMOL@operator?5?$CC?$CC?5@ 1004db8c     libvcruntime:undname.obj
 0002:00000b9c       ??_C@_0BC@GGEBGALA@operator?5co_await@ 1004db9c     libvcruntime:undname.obj
 0002:00000bb0       ??_C@_0M@GAAIMMOH@operator?$DM?$DN?$DO@ 1004dbb0     libvcruntime:undname.obj
 0002:00000bbc       ??_C@_0BC@DAFEJGAK@?5Type?5Descriptor?8@ 1004dbbc     libvcruntime:undname.obj
 0002:00000bd0       ??_C@_0BM@LDKODKLH@?5Base?5Class?5Descriptor?5at?5?$CI@ 1004dbd0     libvcruntime:undname.obj
 0002:00000bec       ??_C@_0BD@LGICGFMM@?5Base?5Class?5Array?8@ 1004dbec     libvcruntime:undname.obj
 0002:00000c00       ??_C@_0BN@MECKDCOJ@?5Class?5Hierarchy?5Descriptor?8@ 1004dc00     libvcruntime:undname.obj
 0002:00000c20       ??_C@_0BK@CFCOFLF@?5Complete?5Object?5Locator?8@ 1004dc20     libvcruntime:undname.obj
 0002:00000c3c       ??_C@_0BG@JNJLAMPM@?$GAanonymous?5namespace?8@ 1004dc3c     libvcruntime:undname.obj
 0002:00000c54       ??_C@_04HEJADOOB@CV?3?5@   1004dc54     libvcruntime:undname.obj
 0002:00000c5c       ??_C@_02MOLJINC@?3?3@      1004dc5c     libvcruntime:undname.obj
 0002:00000c60       ??_C@_0BE@JAEOCHPE@template?9parameter?9@ 1004dc60     libvcruntime:undname.obj
 0002:00000c74       ??_C@_0BF@LNLGBBNL@?$GAtemplate?9parameter?9@ 1004dc74     libvcruntime:undname.obj
 0002:00000c8c       ??_C@_0O@KHGCOMHP@generic?9type?9@ 1004dc8c     libvcruntime:undname.obj
 0002:00000c9c       ??_C@_0P@ODDENDLM@?$GAgeneric?9type?9@ 1004dc9c     libvcruntime:undname.obj
 0002:00000cac       ??_C@_02OHHJMEON@?8?8@     1004dcac     libvcruntime:undname.obj
 0002:00000cb0       ??_C@_0BN@IBLMMFAP@?$GAnon?9type?9template?9parameter@ 1004dcb0     libvcruntime:undname.obj
 0002:00000cd0       ??_C@_03DLDNIBIK@?$CFlf@   1004dcd0     libvcruntime:undname.obj
 0002:00000cd4       ??_C@_04OFALKAJ@?$DP?$DP_C@ 1004dcd4     libvcruntime:undname.obj
 0002:00000cdc       ??_C@_03KHICJKCI@?4?4?4@   1004dcdc     libvcruntime:undname.obj
 0002:00000ce0       ??_C@_04HIBGFPH@NULL@      1004dce0     libvcruntime:undname.obj
 0002:00000ce8       ??_C@_02DPKJAMEF@?$CFd@    1004dce8     libvcruntime:undname.obj
 0002:00000cec       ??_C@_0BK@IHCCFNEL@?$GAtemplate?9type?9parameter?9@ 1004dcec     libvcruntime:undname.obj
 0002:00000d08       ??_C@_0BK@OFCNNNKO@?$GAgeneric?9class?9parameter?9@ 1004dd08     libvcruntime:undname.obj
 0002:00000d24       ??_C@_0BL@NGJBLFIL@?$GAgeneric?9method?9parameter?9@ 1004dd24     libvcruntime:undname.obj
 0002:00000d40       ??_C@_07OHNGEDJK@nullptr@  1004dd40     libvcruntime:undname.obj
 0002:00000d48       ??_C@_06COJIGPIB@lambda@   1004dd48     libvcruntime:undname.obj
 0002:00000d50       ??_C@_04GKJNKENE@void@     1004dd50     libvcruntime:undname.obj
 0002:00000d58       ??_C@_0BE@EODMJLIF@?$GAtemplate?9parameter@ 1004dd58     libvcruntime:undname.obj
 0002:00000d6c       ??_C@_03OPGICMGF@?$HN?8?5@ 1004dd6c     libvcruntime:undname.obj
 0002:00000d70       ??_C@_02IGFCGPIL@?$HN?8@   1004dd70     libvcruntime:undname.obj
 0002:00000d74       ??_C@_0N@CBHHHENL@?$GAvtordispex?$HL@ 1004dd74     libvcruntime:undname.obj
 0002:00000d84       ??_C@_0L@GHPFDFH@?$GAvtordisp?$HL@ 1004dd84     libvcruntime:undname.obj
 0002:00000d90       ??_C@_0L@HNGCOGAE@?$GAadjustor?$HL@ 1004dd90     libvcruntime:undname.obj
 0002:00000d9c       ??_C@_0CB@KJDOOODE@?$GAlocal?5static?5destructor?5helper@ 1004dd9c     libvcruntime:undname.obj
 0002:00000dc0       ??_C@_0DB@ILEFOCIJ@?$GAtemplate?5static?5data?5member?5co@ 1004ddc0     libvcruntime:undname.obj
 0002:00000df4       ??_C@_0DA@HGFJFBBE@?$GAtemplate?5static?5data?5member?5de@ 1004ddf4     libvcruntime:undname.obj
 0002:00000e24       ??_C@_07PGOEDBHP@static?5@ 1004de24     libvcruntime:undname.obj
 0002:00000e2c       ??_C@_08NIEOINHE@virtual?5@ 1004de2c     libvcruntime:undname.obj
 0002:00000e38       ??_C@_09LAPHOOG@private?3?5@ 1004de38     libvcruntime:undname.obj
 0002:00000e44       ??_C@_0M@GAIFPFIP@protected?3?5@ 1004de44     libvcruntime:undname.obj
 0002:00000e50       ??_C@_08GPDDCMKI@public?3?5@ 1004de50     libvcruntime:undname.obj
 0002:00000e5c       ??_C@_08KJLFOPNE@?$FLthunk?$FN?3@ 1004de5c     libvcruntime:undname.obj
 0002:00000e68       ??_C@_0M@DHNBOJMP@extern?5?$CCC?$CC?5@ 1004de68     libvcruntime:undname.obj
 0002:00000e74       ??_C@_02KCKGHPCA@?$CJ?5@   1004de74     libvcruntime:undname.obj
 0002:00000e78       ??_C@_05CIHEBHNO@char?5@   1004de78     libvcruntime:undname.obj
 0002:00000e80       ??_C@_06EHJMALKF@short?5@  1004de80     libvcruntime:undname.obj
 0002:00000e88       ??_C@_04LAHKHJMA@int?5@    1004de88     libvcruntime:undname.obj
 0002:00000e90       ??_C@_05CJIMAING@long?5@   1004de90     libvcruntime:undname.obj
 0002:00000e98       ??_C@_09EBBEKKIH@unsigned?5@ 1004de98     libvcruntime:undname.obj
 0002:00000ea4       ??_C@_05BEFAKPML@void?5@   1004dea4     libvcruntime:undname.obj
 0002:00000eac       ??_C@_09GAIEOBLP@volatile?5@ 1004deac     libvcruntime:undname.obj
 0002:00000eb8       ??_C@_08PABEKFH@volatile@  1004deb8     libvcruntime:undname.obj
 0002:00000ec4       ??_C@_0BA@LKIJLKPP@std?3?3nullptr_t?5@ 1004dec4     libvcruntime:undname.obj
 0002:00000ed4       ??_C@_0P@GCOCNKDM@std?3?3nullptr_t@ 1004ded4     libvcruntime:undname.obj
 0002:00000ee4       ??_C@_0L@EGPHHEKN@?$DMellipsis?$DO@ 1004dee4     libvcruntime:undname.obj
 0002:00000ef0       ??_C@_04EENFHACM@?0?4?4?4@ 1004def0     libvcruntime:undname.obj
 0002:00000ef8       ??_C@_0M@ELJOJFFH@?0?$DMellipsis?$DO@ 1004def8     libvcruntime:undname.obj
 0002:00000f04       ??_C@_09DNHFEOJI@?5noexcept@ 1004df04     libvcruntime:undname.obj
 0002:00000f10       ??_C@_03PBJBJNON@cpu@      1004df10     libvcruntime:undname.obj
 0002:00000f14       ??_C@_03DCBBJBAA@amp@      1004df14     libvcruntime:undname.obj
 0002:00000f18       ??_C@_02KEGNLNML@?0?5@     1004df18     libvcruntime:undname.obj
 0002:00000f1c       ??_C@_04ENMBGAPA@char@     1004df1c     libvcruntime:undname.obj
 0002:00000f24       ??_C@_05BFKKPKCG@short@    1004df24     libvcruntime:undname.obj
 0002:00000f2c       ??_C@_03JBIPMCLC@int@      1004df2c     libvcruntime:undname.obj
 0002:00000f30       ??_C@_04GOKPGOLB@long@     1004df30     libvcruntime:undname.obj
 0002:00000f38       ??_C@_05KNFBNCOH@float@    1004df38     libvcruntime:undname.obj
 0002:00000f40       ??_C@_06BNJCAIGJ@double@   1004df40     libvcruntime:undname.obj
 0002:00000f48       ??_C@_04DDKJGDCM@bool@     1004df48     libvcruntime:undname.obj
 0002:00000f50       ??_C@_06EBGKOKIG@__int8@   1004df50     libvcruntime:undname.obj
 0002:00000f58       ??_C@_07ICFHOGAF@__int16@  1004df58     libvcruntime:undname.obj
 0002:00000f60       ??_C@_07OFLPPHGP@__int32@  1004df60     libvcruntime:undname.obj
 0002:00000f68       ??_C@_07LFCOJCAC@__int64@  1004df68     libvcruntime:undname.obj
 0002:00000f70       ??_C@_08GAHOLHEO@__int128@ 1004df70     libvcruntime:undname.obj
 0002:00000f7c       ??_C@_09EEKGDCPH@?$DMunknown?$DO@ 1004df7c     libvcruntime:undname.obj
 0002:00000f88       ??_C@_07CFHGOPCN@char8_t@  1004df88     libvcruntime:undname.obj
 0002:00000f90       ??_C@_08HBIPOFJB@char16_t@ 1004df90     libvcruntime:undname.obj
 0002:00000f9c       ??_C@_08IECNCBKG@char32_t@ 1004df9c     libvcruntime:undname.obj
 0002:00000fa8       ??_C@_07CLGGIAMF@wchar_t@  1004dfa8     libvcruntime:undname.obj
 0002:00000fb0       ??_C@_04HAPDLBFF@auto@     1004dfb0     libvcruntime:undname.obj
 0002:00000fb8       ??_C@_0P@LHCGKIGK@decltype?$CIauto?$CJ@ 1004dfb8     libvcruntime:undname.obj
 0002:00000fc8       ??_C@_05PCNBGHCF@this?5@   1004dfc8     libvcruntime:undname.obj
 0002:00000fd0       ??_C@_06GCICPBLB@__w64?5@  1004dfd0     libvcruntime:undname.obj
 0002:00000fd8       ??_C@_07NFANNNEC@UNKNOWN@  1004dfd8     libvcruntime:undname.obj
 0002:00000fe0       ??_C@_07EDHNAJHC@signed?5@ 1004dfe0     libvcruntime:undname.obj
 0002:00000fe8       ??_C@_05BNCCCJPP@const@    1004dfe8     libvcruntime:undname.obj
 0002:00000ff0       ??_C@_09EFNPDFFP@?5volatile@ 1004dff0     libvcruntime:undname.obj
 0002:00000ffc       ??_C@_0P@GCIFDJCJ@?$GAunknown?5ecsu?8@ 1004dffc     libvcruntime:undname.obj
 0002:0000100c       ??_C@_06MOJHIBMG@union?5@  1004e00c     libvcruntime:undname.obj
 0002:00001014       ??_C@_07DIBCDNGL@struct?5@ 1004e014     libvcruntime:undname.obj
 0002:0000101c       ??_C@_06LJBABKPM@class?5@  1004e01c     libvcruntime:undname.obj
 0002:00001024       ??_C@_08KOFANOFK@coclass?5@ 1004e024     libvcruntime:undname.obj
 0002:00001030       ??_C@_0N@DLIEFKNA@cointerface?5@ 1004e030     libvcruntime:undname.obj
 0002:00001040       ??_C@_05LJGMCFOG@enum?5@   1004e040     libvcruntime:undname.obj
 0002:00001048       ??_C@_06LIJLOJAG@const?5@  1004e048     libvcruntime:undname.obj
 0002:00001050       ??_C@_02KJPKDIBN@?$CG?5@   1004e050     libvcruntime:undname.obj
 0002:00001054       ??_C@_03PCKGMOPB@?$CG?$CG?5@ 1004e054     libvcruntime:undname.obj
 0002:00001058       ??_C@_0M@EALIELKG@cli?3?3array?$DM@ 1004e058     libvcruntime:undname.obj
 0002:00001064       ??_C@_0O@GKABPPIF@cli?3?3pin_ptr?$DM@ 1004e064     libvcruntime:undname.obj
 0002:00001074       ??_C@_02GOGNNPBN@?$CJ?$FL@ 1004e074     libvcruntime:undname.obj
 0002:00001078       ??_C@_06EEGAIFAK@?$HLflat?$HN@ 1004e078     libvcruntime:undname.obj
 0002:00001080       ??_C@_05JIBOFOHK@?$HLfor?5@ 1004e080     libvcruntime:undname.obj
 0002:00001088       ??_C@_02MDINNEEG@s?5@      1004e088     libvcruntime:undname.obj
 0002:00001090       ??_7DNameNode@@6B@         1004e090     libvcruntime:undname.obj
 0002:000010a4       ??_7charNode@@6B@          1004e0a4     libvcruntime:undname.obj
 0002:000010b8       ??_7pcharNode@@6B@         1004e0b8     libvcruntime:undname.obj
 0002:000010cc       ??_7pDNameNode@@6B@        1004e0cc     libvcruntime:undname.obj
 0002:000010e0       ??_7DNameStatusNode@@6B@   1004e0e0     libvcruntime:undname.obj
 0002:000010f4       ??_7pairNode@@6B@          1004e0f4     libvcruntime:undname.obj
 0002:00001208       ??_C@_04OKOHEJBO@?5?$DP?$DP?5@ 1004e208     libvcruntime:undname.obj
 0002:00001210       ?nodes@?1??make@DNameStatusNode@@SAPBV2@W4DNameStatus@@@Z@4QBV2@B 1004e210     libvcruntime:undname.obj
 0002:0000124c       ??_C@_1DM@KHCHBNEB@?$AAa?$AAp?$AAi?$AA?9?$AAm?$AAs?$AA?9?$AAw?$AAi?$AAn?$AA?9?$AAc?$AAo?$AAr?$AAe@ 1004e24c     libvcruntime:winapi_downlevel.obj
 0002:00001288       ??_C@_1DK@LPPGFMPP@?$AAa?$AAp?$AAi?$AA?9?$AAm?$AAs?$AA?9?$AAw?$AAi?$AAn?$AA?9?$AAc?$AAo?$AAr?$AAe@ 1004e288     libvcruntime:winapi_downlevel.obj
 0002:000012c4       ??_C@_1BC@GDMECMAK@?$AAk?$AAe?$AAr?$AAn?$AAe?$AAl?$AA3?$AA2@ 1004e2c4     libvcruntime:winapi_downlevel.obj
 0002:000012d8       ??_C@_1BA@PFFKHIOG@?$AAa?$AAp?$AAi?$AA?9?$AAm?$AAs?$AA?9@ 1004e2d8     libvcruntime:winapi_downlevel.obj
 0002:000012f0       ??_C@_08KNHFBNJ@FlsAlloc@  1004e2f0     libvcruntime:winapi_downlevel.obj
 0002:00001304       ??_C@_07PEJMOBNF@FlsFree@  1004e304     libvcruntime:winapi_downlevel.obj
 0002:00001314       ??_C@_0M@GDNOONDI@FlsGetValue@ 1004e314     libvcruntime:winapi_downlevel.obj
 0002:00001328       ??_C@_0M@JCPCPOEF@FlsSetValue@ 1004e328     libvcruntime:winapi_downlevel.obj
 0002:0000133c       ??_C@_0BM@HCFOFFN@InitializeCriticalSectionEx@ 1004e33c     libvcruntime:winapi_downlevel.obj
 0002:00001358       __Fenv1                    1004e358     libucrt:output.obj
 0002:00001360       ?standard_lookup_table_spectre@__crt_stdio_output@@3V?$spectre_mitigated_lookup_table@Ustate_transition_pair@__crt_stdio_output@@$0IA@@1@B 1004e360     libucrt:output.obj
 0002:00001460       ?format_validation_lookup_table_spectre@__crt_stdio_output@@3V?$spectre_mitigated_lookup_table@Ustate_transition_pair@__crt_stdio_output@@$0IA@@1@B 1004e460     libucrt:output.obj
 0002:00001560       ??_C@_1O@CEDCILHN@?$AA?$CI?$AAn?$AAu?$AAl?$AAl?$AA?$CJ@ 1004e560     libucrt:output.obj
 0002:00001570       ??_C@_06OJHGLDPL@?$CInull?$CJ@ 1004e570     libucrt:output.obj
 0002:00001578       ___acrt_exception_action_table 1004e578     libucrt:exception_filter.obj
 0002:00001608       ___acrt_signal_action_table_count 1004e608     libucrt:exception_filter.obj
 0002:0000160c       ___acrt_signal_action_table_size 1004e60c     libucrt:exception_filter.obj
 0002:00001610       ___acrt_signal_action_first_fpe_index 1004e610     libucrt:exception_filter.obj
 0002:00001614       ___acrt_signal_action_fpe_count 1004e614     libucrt:exception_filter.obj
 0002:00001618       ??_C@_1BI@BGOHAHKC@?$AAm?$AAs?$AAc?$AAo?$AAr?$AAe?$AAe?$AA?4?$AAd?$AAl?$AAl@ 1004e618     libucrt:exit.obj
 0002:00001630       ??_C@_0P@MIGLKIOC@CorExitProcess@ 1004e630     libucrt:exit.obj
 0002:00001868       ??_C@_03OEIAHPBN@INF@      1004e868     libucrt:cvt.obj
 0002:0000186c       ??_C@_03OJHLLCGB@inf@      1004e86c     libucrt:cvt.obj
 0002:00001870       ??_C@_03LKNCIKJB@NAN@      1004e870     libucrt:cvt.obj
 0002:00001874       ??_C@_03LHCJEHON@nan@      1004e874     libucrt:cvt.obj
 0002:00001878       ??_C@_09OFJJIMPC@NAN?$CISNAN?$CJ@ 1004e878     libucrt:cvt.obj
 0002:00001884       ??_C@_09IPFBKMDL@nan?$CIsnan?$CJ@ 1004e884     libucrt:cvt.obj
 0002:00001890       ??_C@_08IKHNHAJ@NAN?$CIIND?$CJ@ 1004e890     libucrt:cvt.obj
 0002:0000189c       ??_C@_08OFCDMILK@nan?$CIind?$CJ@ 1004e89c     libucrt:cvt.obj
 0002:000018a8       ??_C@_05KLBDPFGC@e?$CL000@ 1004e8a8     libucrt:cvt.obj
 0002:00001930       ___lc_category             1004e930     libucrt:wsetlocale.obj
 0002:00001978       ??_C@_1O@GIFLHMA@?$AAL?$AAC?$AA_?$AAA?$AAL?$AAL@ 1004e978     libucrt:wsetlocale.obj
 0002:00001988       ??_C@_1BG@PPOMIBNJ@?$AAL?$AAC?$AA_?$AAC?$AAO?$AAL?$AAL?$AAA?$AAT?$AAE@ 1004e988     libucrt:wsetlocale.obj
 0002:000019a0       ??_C@_1BC@FFJGAPJM@?$AAL?$AAC?$AA_?$AAC?$AAT?$AAY?$AAP?$AAE@ 1004e9a0     libucrt:wsetlocale.obj
 0002:000019b4       ??_C@_1BI@PCKFNJFB@?$AAL?$AAC?$AA_?$AAM?$AAO?$AAN?$AAE?$AAT?$AAA?$AAR?$AAY@ 1004e9b4     libucrt:wsetlocale.obj
 0002:000019cc       ??_C@_1BG@ENIEDKID@?$AAL?$AAC?$AA_?$AAN?$AAU?$AAM?$AAE?$AAR?$AAI?$AAC@ 1004e9cc     libucrt:wsetlocale.obj
 0002:000019e4       ??_C@_1BA@HAAOMIIG@?$AAL?$AAC?$AA_?$AAT?$AAI?$AAM?$AAE@ 1004e9e4     libucrt:wsetlocale.obj
 0002:000019f4       ??_C@_15NBPDDFIP@?$AA?$DN?$AA?$DL@ 1004e9f4     libucrt:wsetlocale.obj
 0002:000019fc       ??_C@_13PJJBFPED@?$AA?$DL@ 1004e9fc     libucrt:wsetlocale.obj
 0002:00001a00       ??_C@_13NMPKAAJP@?$AA?$DN@ 1004ea00     libucrt:wsetlocale.obj
 0002:00001a04       ??_C@_13IMODFHAA@?$AA?9@   1004ea04     libucrt:wsetlocale.obj
 0002:00001a08       ??_C@_17EFJLDFDO@?$AA?9?$AA_?$AA?4@ 1004ea08     libucrt:wsetlocale.obj
 0002:00001a10       ??_C@_13FHBKNHDA@?$AAC@    1004ea10     libucrt:wsetlocale.obj
 0002:00001a14       ??_C@_17MBJJLFDM@?$AA_?$AA?4?$AA?0@ 1004ea14     libucrt:wsetlocale.obj
 0002:00001a1c       ??_C@_13ENNFDPBH@?$AA_@    1004ea1c     libucrt:wsetlocale.obj
 0002:00001a20       ??_C@_13JOFGPIOO@?$AA?4@   1004ea20     libucrt:wsetlocale.obj
 0002:00001a28       ___lc_time_c               1004ea28     libucrt:nlsdata.obj
 0002:00001b8c       ??_C@_03KOEHGMDN@Sun@      1004eb8c     libucrt:nlsdata.obj
 0002:00001b90       ??_C@_03PDAGKDH@Mon@       1004eb90     libucrt:nlsdata.obj
 0002:00001b94       ??_C@_03NAGEINEP@Tue@      1004eb94     libucrt:nlsdata.obj
 0002:00001b98       ??_C@_03MHOMLAJA@Wed@      1004eb98     libucrt:nlsdata.obj
 0002:00001b9c       ??_C@_03IOFIKPDN@Thu@      1004eb9c     libucrt:nlsdata.obj
 0002:00001ba0       ??_C@_03IDIOELNC@Fri@      1004eba0     libucrt:nlsdata.obj
 0002:00001ba4       ??_C@_03FEFJNEK@Sat@       1004eba4     libucrt:nlsdata.obj
 0002:00001ba8       ??_C@_06OOPIFAJ@Sunday@    1004eba8     libucrt:nlsdata.obj
 0002:00001bb0       ??_C@_06JLEDEDGH@Monday@   1004ebb0     libucrt:nlsdata.obj
 0002:00001bb8       ??_C@_07BAAGCFCM@Tuesday@  1004ebb8     libucrt:nlsdata.obj
 0002:00001bc0       ??_C@_09DLIGFAKA@Wednesday@ 1004ebc0     libucrt:nlsdata.obj
 0002:00001bcc       ??_C@_08HACCIKIA@Thursday@ 1004ebcc     libucrt:nlsdata.obj
 0002:00001bd8       ??_C@_06JECMNKMI@Friday@   1004ebd8     libucrt:nlsdata.obj
 0002:00001be0       ??_C@_08INBOOONO@Saturday@ 1004ebe0     libucrt:nlsdata.obj
 0002:00001bec       ??_C@_03JIHJHPIE@Jan@      1004ebec     libucrt:nlsdata.obj
 0002:00001bf0       ??_C@_03HJBDCHOM@Feb@      1004ebf0     libucrt:nlsdata.obj
 0002:00001bf4       ??_C@_03ODNJBKGA@Mar@      1004ebf4     libucrt:nlsdata.obj
 0002:00001bf8       ??_C@_03LEOLGMJP@Apr@      1004ebf8     libucrt:nlsdata.obj
 0002:00001bfc       ??_C@_03CNMDKL@May@        1004ebfc     libucrt:nlsdata.obj
 0002:00001c00       ??_C@_03IDFGHECI@Jun@      1004ec00     libucrt:nlsdata.obj
 0002:00001c04       ??_C@_03LBGABGKK@Jul@      1004ec04     libucrt:nlsdata.obj
 0002:00001c08       ??_C@_03IFJFEIGA@Aug@      1004ec08     libucrt:nlsdata.obj
 0002:00001c0c       ??_C@_03GGCAPAJC@Sep@      1004ec0c     libucrt:nlsdata.obj
 0002:00001c10       ??_C@_03BMAOKBAD@Oct@      1004ec10     libucrt:nlsdata.obj
 0002:00001c14       ??_C@_03JPJOFNIA@Nov@      1004ec14     libucrt:nlsdata.obj
 0002:00001c18       ??_C@_03MKABNOCG@Dec@      1004ec18     libucrt:nlsdata.obj
 0002:00001c1c       ??_C@_07CGJPFGJA@January@  1004ec1c     libucrt:nlsdata.obj
 0002:00001c24       ??_C@_08GNJGEPFN@February@ 1004ec24     libucrt:nlsdata.obj
 0002:00001c30       ??_C@_05HPCKOFNC@March@    1004ec30     libucrt:nlsdata.obj
 0002:00001c38       ??_C@_05DMJDNLEJ@April@    1004ec38     libucrt:nlsdata.obj
 0002:00001c40       ??_C@_04CNLMGBGM@June@     1004ec40     libucrt:nlsdata.obj
 0002:00001c48       ??_C@_04MIEPOIFP@July@     1004ec48     libucrt:nlsdata.obj
 0002:00001c50       ??_C@_06LBBHFDDG@August@   1004ec50     libucrt:nlsdata.obj
 0002:00001c58       ??_C@_09BHHEALKD@September@ 1004ec58     libucrt:nlsdata.obj
 0002:00001c64       ??_C@_07JJNFCEND@October@  1004ec64     libucrt:nlsdata.obj
 0002:00001c6c       ??_C@_08HCHEGEOA@November@ 1004ec6c     libucrt:nlsdata.obj
 0002:00001c78       ??_C@_08EDHMEBNP@December@ 1004ec78     libucrt:nlsdata.obj
 0002:00001c84       ??_C@_02DEDBPAFC@AM@       1004ec84     libucrt:nlsdata.obj
 0002:00001c88       ??_C@_02CJNFDJBF@PM@       1004ec88     libucrt:nlsdata.obj
 0002:00001c8c       ??_C@_08BPBNCDIB@MM?1dd?1yy@ 1004ec8c     libucrt:nlsdata.obj
 0002:00001c98       ??_C@_0BE@CKGJFCPC@dddd?0?5MMMM?5dd?0?5yyyy@ 1004ec98     libucrt:nlsdata.obj
 0002:00001cac       ??_C@_08JCCMCCIL@HH?3mm?3ss@ 1004ecac     libucrt:nlsdata.obj
 0002:00001cb8       ??_C@_17MBGCMIPB@?$AAS?$AAu?$AAn@ 1004ecb8     libucrt:nlsdata.obj
 0002:00001cc0       ??_C@_17KBOMKBF@?$AAM?$AAo?$AAn@ 1004ecc0     libucrt:nlsdata.obj
 0002:00001cc8       ??_C@_17BMKGEGOJ@?$AAT?$AAu?$AAe@ 1004ecc8     libucrt:nlsdata.obj
 0002:00001cd0       ??_C@_17CJEDCEPE@?$AAW?$AAe?$AAd@ 1004ecd0     libucrt:nlsdata.obj
 0002:00001cd8       ??_C@_17PDPHAADD@?$AAT?$AAh?$AAu@ 1004ecd8     libucrt:nlsdata.obj
 0002:00001ce0       ??_C@_17HFOLPPLP@?$AAF?$AAr?$AAi@ 1004ece0     libucrt:nlsdata.obj
 0002:00001ce8       ??_C@_17GGIBDPIH@?$AAS?$AAa?$AAt@ 1004ece8     libucrt:nlsdata.obj
 0002:00001cf0       ??_C@_1O@IHNHDHPB@?$AAS?$AAu?$AAn?$AAd?$AAa?$AAy@ 1004ecf0     libucrt:nlsdata.obj
 0002:00001d00       ??_C@_1O@MMNBFLIA@?$AAM?$AAo?$AAn?$AAd?$AAa?$AAy@ 1004ed00     libucrt:nlsdata.obj
 0002:00001d10       ??_C@_1BA@ENFBFFEK@?$AAT?$AAu?$AAe?$AAs?$AAd?$AAa?$AAy@ 1004ed10     libucrt:nlsdata.obj
 0002:00001d20       ??_C@_1BE@EBOGMDOH@?$AAW?$AAe?$AAd?$AAn?$AAe?$AAs?$AAd?$AAa?$AAy@ 1004ed20     libucrt:nlsdata.obj
 0002:00001d34       ??_C@_1BC@HHMNLIHE@?$AAT?$AAh?$AAu?$AAr?$AAs?$AAd?$AAa?$AAy@ 1004ed34     libucrt:nlsdata.obj
 0002:00001d48       ??_C@_1O@PDICJHAG@?$AAF?$AAr?$AAi?$AAd?$AAa?$AAy@ 1004ed48     libucrt:nlsdata.obj
 0002:00001d58       ??_C@_1BC@ENMNNPAJ@?$AAS?$AAa?$AAt?$AAu?$AAr?$AAd?$AAa?$AAy@ 1004ed58     libucrt:nlsdata.obj
 0002:00001d6c       ??_C@_17DKNBKCHM@?$AAJ?$AAa?$AAn@ 1004ed6c     libucrt:nlsdata.obj
 0002:00001d74       ??_C@_17LMDJEKJN@?$AAF?$AAe?$AAb@ 1004ed74     libucrt:nlsdata.obj
 0002:00001d7c       ??_C@_17CKNLEDEC@?$AAM?$AAa?$AAr@ 1004ed7c     libucrt:nlsdata.obj
 0002:00001d84       ??_C@_17LFPOIHDD@?$AAA?$AAp?$AAr@ 1004ed84     libucrt:nlsdata.obj
 0002:00001d8c       ??_C@_17PNNKMEED@?$AAM?$AAa?$AAy@ 1004ed8c     libucrt:nlsdata.obj
 0002:00001d94       ??_C@_17KCJGOCPB@?$AAJ?$AAu?$AAn@ 1004ed94     libucrt:nlsdata.obj
 0002:00001d9c       ??_C@_17IJPCKHK@?$AAJ?$AAu?$AAl@ 1004ed9c     libucrt:nlsdata.obj
 0002:00001da4       ??_C@_17ICPELBCN@?$AAA?$AAu?$AAg@ 1004eda4     libucrt:nlsdata.obj
 0002:00001dac       ??_C@_17HCHCOKMG@?$AAS?$AAe?$AAp@ 1004edac     libucrt:nlsdata.obj
 0002:00001db4       ??_C@_17FNLKOI@?$AAO?$AAc?$AAt@ 1004edb4     libucrt:nlsdata.obj
 0002:00001dbc       ??_C@_17BBDMLCIG@?$AAN?$AAo?$AAv@ 1004edbc     libucrt:nlsdata.obj
 0002:00001dc4       ??_C@_17EGKACKIF@?$AAD?$AAe?$AAc@ 1004edc4     libucrt:nlsdata.obj
 0002:00001dcc       ??_C@_1BA@EFMEIEBA@?$AAJ?$AAa?$AAn?$AAu?$AAa?$AAr?$AAy@ 1004edcc     libucrt:nlsdata.obj
 0002:00001ddc       ??_C@_1BC@JGDDFFAM@?$AAF?$AAe?$AAb?$AAr?$AAu?$AAa?$AAr?$AAy@ 1004eddc     libucrt:nlsdata.obj
 0002:00001df0       ??_C@_1M@IKEENEDF@?$AAM?$AAa?$AAr?$AAc?$AAh@ 1004edf0     libucrt:nlsdata.obj
 0002:00001dfc       ??_C@_1M@GJNLMHFD@?$AAA?$AAp?$AAr?$AAi?$AAl@ 1004edfc     libucrt:nlsdata.obj
 0002:00001e08       ??_C@_19EPFLPGAP@?$AAJ?$AAu?$AAn?$AAe@ 1004ee08     libucrt:nlsdata.obj
 0002:00001e14       ??_C@_19BIFMLPCD@?$AAJ?$AAu?$AAl?$AAy@ 1004ee14     libucrt:nlsdata.obj
 0002:00001e20       ??_C@_1O@PAHLKOAC@?$AAA?$AAu?$AAg?$AAu?$AAs?$AAt@ 1004ee20     libucrt:nlsdata.obj
 0002:00001e30       ??_C@_1BE@DKAAMBJL@?$AAS?$AAe?$AAp?$AAt?$AAe?$AAm?$AAb?$AAe?$AAr@ 1004ee30     libucrt:nlsdata.obj
 0002:00001e44       ??_C@_1BA@EPANDLNG@?$AAO?$AAc?$AAt?$AAo?$AAb?$AAe?$AAr@ 1004ee44     libucrt:nlsdata.obj
 0002:00001e54       ??_C@_1BC@BGLIFPF@?$AAN?$AAo?$AAv?$AAe?$AAm?$AAb?$AAe?$AAr@ 1004ee54     libucrt:nlsdata.obj
 0002:00001e68       ??_C@_1BC@FEMKIFH@?$AAD?$AAe?$AAc?$AAe?$AAm?$AAb?$AAe?$AAr@ 1004ee68     libucrt:nlsdata.obj
 0002:00001e7c       ??_C@_15ODEHAHHF@?$AAA?$AAM@ 1004ee7c     libucrt:nlsdata.obj
 0002:00001e84       ??_C@_15CLMNNGEL@?$AAP?$AAM@ 1004ee84     libucrt:nlsdata.obj
 0002:00001e8c       ??_C@_1BC@IEBCMHCM@?$AAM?$AAM?$AA?1?$AAd?$AAd?$AA?1?$AAy?$AAy@ 1004ee8c     libucrt:nlsdata.obj
 0002:00001ea0       ??_C@_1CI@KNAKOEBC@?$AAd?$AAd?$AAd?$AAd?$AA?0?$AA?5?$AAM?$AAM?$AAM?$AAM?$AA?5?$AAd?$AAd?$AA?0?$AA?5@ 1004eea0     libucrt:nlsdata.obj
 0002:00001ec8       ??_C@_1BC@GDGBMEMK@?$AAH?$AAH?$AA?3?$AAm?$AAm?$AA?3?$AAs?$AAs@ 1004eec8     libucrt:nlsdata.obj
 0002:00001edc       ??_C@_1M@BMHNFIME@?$AAe?$AAn?$AA?9?$AAU?$AAS@ 1004eedc     libucrt:nlsdata.obj
 0002:00001ee8       _RtlNtPathSeperatorString  1004eee8     libucrt:peb_access.obj
 0002:00001ef0       ??_C@_13FPGAJAPJ@?$AA?2@   1004eef0     libucrt:peb_access.obj
 0002:00001ef4       _RtlDosPathSeperatorsString 1004eef4     libucrt:peb_access.obj
 0002:00001efc       ??_C@_15MNCACJLI@?$AA?2?$AA?1@ 1004eefc     libucrt:peb_access.obj
 0002:00001f04       _RtlAlternateDosPathSeperatorString 1004ef04     libucrt:peb_access.obj
 0002:00001f0c       ??_C@_13CGOKJPIL@?$AA?1@   1004ef0c     libucrt:peb_access.obj
 0002:00001f20       ??_C@_1M@HPNHIDJI@?$AAj?$AAa?$AA?9?$AAJ?$AAP@ 1004ef20     libucrt:mbctype.obj
 0002:00001f2c       ??_C@_1M@BIBDDEMK@?$AAz?$AAh?$AA?9?$AAC?$AAN@ 1004ef2c     libucrt:mbctype.obj
 0002:00001f38       ??_C@_1M@JLOOOEGK@?$AAk?$AAo?$AA?9?$AAK?$AAR@ 1004ef38     libucrt:mbctype.obj
 0002:00001f44       ??_C@_1M@CLNBBOPM@?$AAz?$AAh?$AA?9?$AAT?$AAW@ 1004ef44     libucrt:mbctype.obj
 0002:00001fa8       ??_C@_1EA@JGEFHKEI@?$AAa?$AAp?$AAi?$AA?9?$AAm?$AAs?$AA?9?$AAw?$AAi?$AAn?$AA?9?$AAc?$AAo?$AAr?$AAe@ 1004efa8     libucrt:winapi_thunks.obj
 0002:00001fe8       ??_C@_1DI@KMEPCBPN@?$AAa?$AAp?$AAi?$AA?9?$AAm?$AAs?$AA?9?$AAw?$AAi?$AAn?$AA?9?$AAc?$AAo?$AAr?$AAe@ 1004efe8     libucrt:winapi_thunks.obj
 0002:00002020       ??_C@_1DI@IJCEHOCB@?$AAa?$AAp?$AAi?$AA?9?$AAm?$AAs?$AA?9?$AAw?$AAi?$AAn?$AA?9?$AAc?$AAo?$AAr?$AAe@ 1004f020     libucrt:winapi_thunks.obj
 0002:00002058       ??_C@_1EI@MPIAOHOC@?$AAa?$AAp?$AAi?$AA?9?$AAm?$AAs?$AA?9?$AAw?$AAi?$AAn?$AA?9?$AAc?$AAo?$AAr?$AAe@ 1004f058     libucrt:winapi_thunks.obj
 0002:000020a0       ??_C@_1FK@FPHCKFIE@?$AAa?$AAp?$AAi?$AA?9?$AAm?$AAs?$AA?9?$AAw?$AAi?$AAn?$AA?9?$AAc?$AAo?$AAr?$AAe@ 1004f0a0     libucrt:winapi_thunks.obj
 0002:00002100       ??_C@_1EM@DILCGIIO@?$AAa?$AAp?$AAi?$AA?9?$AAm?$AAs?$AA?9?$AAw?$AAi?$AAn?$AA?9?$AAc?$AAo?$AAr?$AAe@ 1004f100     libucrt:winapi_thunks.obj
 0002:0000214c       ??_C@_1DM@LNCGDDPN@?$AAa?$AAp?$AAi?$AA?9?$AAm?$AAs?$AA?9?$AAw?$AAi?$AAn?$AA?9?$AAc?$AAo?$AAr?$AAe@ 1004f14c     libucrt:winapi_thunks.obj
 0002:00002188       ??_C@_1DO@FPAPJEMD@?$AAa?$AAp?$AAi?$AA?9?$AAm?$AAs?$AA?9?$AAw?$AAi?$AAn?$AA?9?$AAc?$AAo?$AAr?$AAe@ 1004f188     libucrt:winapi_thunks.obj
 0002:000021c8       ??_C@_1DK@NDHNAHIO@?$AAa?$AAp?$AAi?$AA?9?$AAm?$AAs?$AA?9?$AAw?$AAi?$AAn?$AA?9?$AAc?$AAo?$AAr?$AAe@ 1004f1c8     libucrt:winapi_thunks.obj
 0002:00002204       ??_C@_1DM@KGHDGBCM@?$AAa?$AAp?$AAi?$AA?9?$AAm?$AAs?$AA?9?$AAw?$AAi?$AAn?$AA?9?$AAc?$AAo?$AAr?$AAe@ 1004f204     libucrt:winapi_thunks.obj
 0002:00002240       ??_C@_1EO@IJIOEFOH@?$AAa?$AAp?$AAi?$AA?9?$AAm?$AAs?$AA?9?$AAw?$AAi?$AAn?$AA?9?$AAr?$AAt?$AAc?$AAo@ 1004f240     libucrt:winapi_thunks.obj
 0002:00002290       ??_C@_1FG@HHGEKANL@?$AAa?$AAp?$AAi?$AA?9?$AAm?$AAs?$AA?9?$AAw?$AAi?$AAn?$AA?9?$AAs?$AAe?$AAc?$AAu@ 1004f290     libucrt:winapi_thunks.obj
 0002:000022e8       ??_C@_1EG@DBIOJECG@?$AAe?$AAx?$AAt?$AA?9?$AAm?$AAs?$AA?9?$AAw?$AAi?$AAn?$AA?9?$AAn?$AAt?$AAu?$AAs@ 1004f2e8     libucrt:winapi_thunks.obj
 0002:00002330       ??_C@_1EO@FIHMJCLF@?$AAe?$AAx?$AAt?$AA?9?$AAm?$AAs?$AA?9?$AAw?$AAi?$AAn?$AA?9?$AAn?$AAt?$AAu?$AAs@ 1004f330     libucrt:winapi_thunks.obj
 0002:00002380       ??_C@_1BC@DNHGCMLG@?$AAa?$AAd?$AAv?$AAa?$AAp?$AAi?$AA3?$AA2@ 1004f380     libucrt:winapi_thunks.obj
 0002:00002394       ??_C@_1BG@CJPGBMEF@?$AAk?$AAe?$AAr?$AAn?$AAe?$AAl?$AAb?$AAa?$AAs?$AAe@ 1004f394     libucrt:winapi_thunks.obj
 0002:000023ac       ??_C@_1M@OAIMIKLP@?$AAn?$AAt?$AAd?$AAl?$AAl@ 1004f3ac     libucrt:winapi_thunks.obj
 0002:000023b8       ??_C@_1EG@DPGNFKGC@?$AAa?$AAp?$AAi?$AA?9?$AAm?$AAs?$AA?9?$AAw?$AAi?$AAn?$AA?9?$AAa?$AAp?$AAp?$AAm@ 1004f3b8     libucrt:winapi_thunks.obj
 0002:00002400       ??_C@_1O@BCCLBEOE@?$AAu?$AAs?$AAe?$AAr?$AA3?$AA2@ 1004f400     libucrt:winapi_thunks.obj
 0002:00002410       ??_C@_1DM@BPJLHKCE@?$AAa?$AAp?$AAi?$AA?9?$AAm?$AAs?$AA?9?$AAw?$AAi?$AAn?$AA?9?$AAc?$AAo?$AAr?$AAe@ 1004f410     libucrt:winapi_thunks.obj
 0002:0000244c       ??_C@_1BA@IAIFMGEF@?$AAe?$AAx?$AAt?$AA?9?$AAm?$AAs?$AA?9@ 1004f44c     libucrt:winapi_thunks.obj
 0002:00002460       ??_C@_0BA@FHFNEAED@AreFileApisANSI@ 1004f460     libucrt:winapi_thunks.obj
 0002:00002478       ??_C@_0BA@IHGNDAEB@CompareStringEx@ 1004f478     libucrt:winapi_thunks.obj
 0002:00002490       ??_C@_0BE@LJANKFHF@EnumSystemLocalesEx@ 1004f490     libucrt:winapi_thunks.obj
 0002:000024ac       ??_C@_0BA@HNOPNCHB@GetActiveWindow@ 1004f4ac     libucrt:winapi_thunks.obj
 0002:000024c4       ??_C@_0BA@EPCJIIPD@GetDateFormatEx@ 1004f4c4     libucrt:winapi_thunks.obj
 0002:000024dc       ??_C@_0O@NNMIPI@GetTempPath2W@ 1004f4dc     libucrt:winapi_thunks.obj
 0002:000024f4       ??_C@_0BJ@DIBIJBHA@GetEnabledXStateFeatures@ 1004f4f4     libucrt:winapi_thunks.obj
 0002:00002518       ??_C@_0BD@HHGDFDBJ@GetLastActivePopup@ 1004f518     libucrt:winapi_thunks.obj
 0002:00002534       ??_C@_0BA@ONOKGCMP@GetLocaleInfoEx@ 1004f534     libucrt:winapi_thunks.obj
 0002:0000254c       ??_C@_0BI@DFKBFLJE@GetProcessWindowStation@ 1004f54c     libucrt:winapi_thunks.obj
 0002:00002568       ??_C@_0BP@FPNJPEJC@GetSystemTimePreciseAsFileTime@ 1004f568     libucrt:winapi_thunks.obj
 0002:00002590       ??_C@_0BA@CIJJKCJJ@GetTimeFormatEx@ 1004f590     libucrt:winapi_thunks.obj
 0002:000025a8       ??_C@_0BJ@PBCCBIPI@GetUserDefaultLocaleName@ 1004f5a8     libucrt:winapi_thunks.obj
 0002:000025cc       ??_C@_0BK@DEKFELLI@GetUserObjectInformationW@ 1004f5cc     libucrt:winapi_thunks.obj
 0002:000025f0       ??_C@_0BG@IKLDMBLM@GetXStateFeaturesMask@ 1004f5f0     libucrt:winapi_thunks.obj
 0002:00002618       ??_C@_0BC@CELBKLLA@IsValidLocaleName@ 1004f618     libucrt:winapi_thunks.obj
 0002:00002634       ??_C@_0O@KKBNKAPF@LCMapStringEx@ 1004f634     libucrt:winapi_thunks.obj
 0002:0000264c       ??_C@_0BB@CDHDDLLP@LCIDToLocaleName@ 1004f64c     libucrt:winapi_thunks.obj
 0002:00002668       ??_C@_0BB@HBDEELFH@LocaleNameToLCID@ 1004f668     libucrt:winapi_thunks.obj
 0002:00002684       ??_C@_0BE@KINNKFDA@LocateXStateFeature@ 1004f684     libucrt:winapi_thunks.obj
 0002:000026a0       ??_C@_0M@CHKKJDAI@MessageBoxA@ 1004f6a0     libucrt:winapi_thunks.obj
 0002:000026b4       ??_C@_0M@DLDCCGNP@MessageBoxW@ 1004f6b4     libucrt:winapi_thunks.obj
 0002:000026c4       ??_C@_0N@PPOMPGGK@RoInitialize@ 1004f6c4     libucrt:winapi_thunks.obj
 0002:000026d8       ??_C@_0P@LLFHBIJD@RoUninitialize@ 1004f6d8     libucrt:winapi_thunks.obj
 0002:000026ec       ??_C@_0CF@OJOFEIGO@AppPolicyGetProcessTerminationM@ 1004f6ec     libucrt:winapi_thunks.obj
 0002:00002718       ??_C@_0CF@NNDFDCOC@AppPolicyGetThreadInitializatio@ 1004f718     libucrt:winapi_thunks.obj
 0002:00002744       ??_C@_0CE@OICFMIKE@AppPolicyGetShowDeveloperDiagno@ 1004f744     libucrt:winapi_thunks.obj
 0002:0000276c       ??_C@_0BL@ODDJNEDA@AppPolicyGetWindowingModel@ 1004f76c     libucrt:winapi_thunks.obj
 0002:00002790       ??_C@_0BI@BKLFFAPO@SetThreadStackGuarantee@ 1004f790     libucrt:winapi_thunks.obj
 0002:000027b0       ??_C@_0BC@JEAENNKH@SystemFunction036@ 1004f7b0     libucrt:winapi_thunks.obj
 0002:000027e8       ___newctype                1004f7e8     libucrt:ctype.obj
 0002:00002ae8       ___newclmap                1004fae8     libucrt:ctype.obj
 0002:00002c68       ___newcumap                1004fc68     libucrt:ctype.obj
 0002:00002de8       __wctype                   1004fde8     libucrt:ctype.obj
 0002:00002ff0       ?large_power_data@?1??multiply_by_power_of_ten@__crt_strtox@@YA_NAAUbig_integer@2@I@Z@4QBIB 1004fff0     libucrt:cfout.obj
 0002:000038f8       ?large_power_indices@?1??multiply_by_power_of_ten@__crt_strtox@@YA_NAAUbig_integer@2@I@Z@4QBUunpack_index@?1??12@YA_N0I@Z@B 100508f8     libucrt:cfout.obj
 0002:00003990       ?small_powers_of_ten@?1??multiply_by_power_of_ten@__crt_strtox@@YA_NAAUbig_integer@2@I@Z@4QBIB 10050990     libucrt:cfout.obj
 0002:000039b4       ??_C@_01GBGANLPD@0@        100509b4     libucrt:cfout.obj
 0002:000039b8       ??_C@_05DNEBIAHO@1?$CDINF@ 100509b8     libucrt:cfout.obj
 0002:000039c0       ??_C@_06IMKFLFPG@1?$CDQNAN@ 100509c0     libucrt:cfout.obj
 0002:000039c8       ??_C@_06PGGFOGJG@1?$CDSNAN@ 100509c8     libucrt:cfout.obj
 0002:000039d0       ??_C@_05PHHOCPM@1?$CDIND@  100509d0     libucrt:cfout.obj
 0002:000039d8       ___acrt_rg_language        100509d8     libucrt:get_qualified_locale.obj
 0002:00003ce4       ___acrt_rg_language_count  10050ce4     libucrt:get_qualified_locale.obj
 0002:00003ce8       ___acrt_rg_country         10050ce8     libucrt:get_qualified_locale.obj
 0002:00003dfc       ___acrt_rg_country_count   10050dfc     libucrt:get_qualified_locale.obj
 0002:00003e00       ??_C@_1BC@LLOKLNP@?$AAa?$AAm?$AAe?$AAr?$AAi?$AAc?$AAa?$AAn@ 10050e00     libucrt:get_qualified_locale.obj
 0002:00003e14       ??_C@_1CC@HEIGCDGG@?$AAa?$AAm?$AAe?$AAr?$AAi?$AAc?$AAa?$AAn?$AA?5?$AAe?$AAn?$AAg?$AAl?$AAi?$AAs@ 10050e14     libucrt:get_qualified_locale.obj
 0002:00003e38       ??_C@_1CC@IHCNOMIN@?$AAa?$AAm?$AAe?$AAr?$AAi?$AAc?$AAa?$AAn?$AA?9?$AAe?$AAn?$AAg?$AAl?$AAi?$AAs@ 10050e38     libucrt:get_qualified_locale.obj
 0002:00003e5c       ??_C@_1BG@GKAGPCGG@?$AAa?$AAu?$AAs?$AAt?$AAr?$AAa?$AAl?$AAi?$AAa?$AAn@ 10050e5c     libucrt:get_qualified_locale.obj
 0002:00003e74       ??_C@_1BA@GMENCENF@?$AAb?$AAe?$AAl?$AAg?$AAi?$AAa?$AAn@ 10050e74     libucrt:get_qualified_locale.obj
 0002:00003e84       ??_C@_1BC@PJMIIAAN@?$AAc?$AAa?$AAn?$AAa?$AAd?$AAi?$AAa?$AAn@ 10050e84     libucrt:get_qualified_locale.obj
 0002:00003e98       ??_C@_17NOIMNFBF@?$AAc?$AAh?$AAh@ 10050e98     libucrt:get_qualified_locale.obj
 0002:00003ea0       ??_C@_17GGDALCHA@?$AAc?$AAh?$AAi@ 10050ea0     libucrt:get_qualified_locale.obj
 0002:00003ea8       ??_C@_1BA@NPNJKIBL@?$AAc?$AAh?$AAi?$AAn?$AAe?$AAs?$AAe@ 10050ea8     libucrt:get_qualified_locale.obj
 0002:00003eb8       ??_C@_1CC@DINBAMMJ@?$AAc?$AAh?$AAi?$AAn?$AAe?$AAs?$AAe?$AA?9?$AAh?$AAo?$AAn?$AAg?$AAk?$AAo?$AAn@ 10050eb8     libucrt:get_qualified_locale.obj
 0002:00003edc       ??_C@_1CG@IOBJPACO@?$AAc?$AAh?$AAi?$AAn?$AAe?$AAs?$AAe?$AA?9?$AAs?$AAi?$AAm?$AAp?$AAl?$AAi?$AAf@ 10050edc     libucrt:get_qualified_locale.obj
 0002:00003f04       ??_C@_1CE@GAJNDCKG@?$AAc?$AAh?$AAi?$AAn?$AAe?$AAs?$AAe?$AA?9?$AAs?$AAi?$AAn?$AAg?$AAa?$AAp?$AAo@ 10050f04     libucrt:get_qualified_locale.obj
 0002:00003f28       ??_C@_1CI@PAJPIOOD@?$AAc?$AAh?$AAi?$AAn?$AAe?$AAs?$AAe?$AA?9?$AAt?$AAr?$AAa?$AAd?$AAi?$AAt?$AAi@ 10050f28     libucrt:get_qualified_locale.obj
 0002:00003f50       ??_C@_1BM@NILJBMMD@?$AAd?$AAu?$AAt?$AAc?$AAh?$AA?9?$AAb?$AAe?$AAl?$AAg?$AAi?$AAa?$AAn@ 10050f50     libucrt:get_qualified_locale.obj
 0002:00003f6c       ??_C@_1CC@OOJPJNEJ@?$AAe?$AAn?$AAg?$AAl?$AAi?$AAs?$AAh?$AA?9?$AAa?$AAm?$AAe?$AAr?$AAi?$AAc?$AAa@ 10050f6c     libucrt:get_qualified_locale.obj
 0002:00003f90       ??_C@_1BI@IOLFEEM@?$AAe?$AAn?$AAg?$AAl?$AAi?$AAs?$AAh?$AA?9?$AAa?$AAu?$AAs@ 10050f90     libucrt:get_qualified_locale.obj
 0002:00003fa8       ??_C@_1BO@HFFNLENJ@?$AAe?$AAn?$AAg?$AAl?$AAi?$AAs?$AAh?$AA?9?$AAb?$AAe?$AAl?$AAi?$AAz?$AAe@ 10050fa8     libucrt:get_qualified_locale.obj
 0002:00003fc8       ??_C@_1BI@HAPKJMPO@?$AAe?$AAn?$AAg?$AAl?$AAi?$AAs?$AAh?$AA?9?$AAc?$AAa?$AAn@ 10050fc8     libucrt:get_qualified_locale.obj
 0002:00003fe0       ??_C@_1CE@HLNDMIOJ@?$AAe?$AAn?$AAg?$AAl?$AAi?$AAs?$AAh?$AA?9?$AAc?$AAa?$AAr?$AAi?$AAb?$AAb?$AAe@ 10050fe0     libucrt:get_qualified_locale.obj
 0002:00004004       ??_C@_1BI@LDHJHHAC@?$AAe?$AAn?$AAg?$AAl?$AAi?$AAs?$AAh?$AA?9?$AAi?$AAr?$AAe@ 10051004     libucrt:get_qualified_locale.obj
 0002:0000401c       ??_C@_1CA@NJMMCFOC@?$AAe?$AAn?$AAg?$AAl?$AAi?$AAs?$AAh?$AA?9?$AAj?$AAa?$AAm?$AAa?$AAi?$AAc?$AAa@ 1005101c     libucrt:get_qualified_locale.obj
 0002:0000403c       ??_C@_1BG@BHJEBBGG@?$AAe?$AAn?$AAg?$AAl?$AAi?$AAs?$AAh?$AA?9?$AAn?$AAz@ 1005103c     libucrt:get_qualified_locale.obj
 0002:00004054       ??_C@_1CK@FGOEJJCO@?$AAe?$AAn?$AAg?$AAl?$AAi?$AAs?$AAh?$AA?9?$AAs?$AAo?$AAu?$AAt?$AAh?$AA?5?$AAa@ 10051054     libucrt:get_qualified_locale.obj
 0002:00004080       ??_C@_1DE@PDBJPCJ@?$AAe?$AAn?$AAg?$AAl?$AAi?$AAs?$AAh?$AA?9?$AAt?$AAr?$AAi?$AAn?$AAi?$AAd?$AAa@ 10051080     libucrt:get_qualified_locale.obj
 0002:000040b4       ??_C@_1BG@JGCANDME@?$AAe?$AAn?$AAg?$AAl?$AAi?$AAs?$AAh?$AA?9?$AAu?$AAk@ 100510b4     libucrt:get_qualified_locale.obj
 0002:000040cc       ??_C@_1BG@DINKMLE@?$AAe?$AAn?$AAg?$AAl?$AAi?$AAs?$AAh?$AA?9?$AAu?$AAs@ 100510cc     libucrt:get_qualified_locale.obj
 0002:000040e4       ??_C@_1BI@NMFDBHJE@?$AAe?$AAn?$AAg?$AAl?$AAi?$AAs?$AAh?$AA?9?$AAu?$AAs?$AAa@ 100510e4     libucrt:get_qualified_locale.obj
 0002:000040fc       ??_C@_1BO@OIHKJKII@?$AAf?$AAr?$AAe?$AAn?$AAc?$AAh?$AA?9?$AAb?$AAe?$AAl?$AAg?$AAi?$AAa?$AAn@ 100510fc     libucrt:get_qualified_locale.obj
 0002:0000411c       ??_C@_1CA@NKAELJKI@?$AAf?$AAr?$AAe?$AAn?$AAc?$AAh?$AA?9?$AAc?$AAa?$AAn?$AAa?$AAd?$AAi?$AAa?$AAn@ 1005111c     libucrt:get_qualified_locale.obj
 0002:0000413c       ??_C@_1CE@MGKCNLGN@?$AAf?$AAr?$AAe?$AAn?$AAc?$AAh?$AA?9?$AAl?$AAu?$AAx?$AAe?$AAm?$AAb?$AAo?$AAu@ 1005113c     libucrt:get_qualified_locale.obj
 0002:00004160       ??_C@_1BK@CEGEAILM@?$AAf?$AAr?$AAe?$AAn?$AAc?$AAh?$AA?9?$AAs?$AAw?$AAi?$AAs?$AAs@ 10051160     libucrt:get_qualified_locale.obj
 0002:0000417c       ??_C@_1CA@PAFKEOCC@?$AAg?$AAe?$AAr?$AAm?$AAa?$AAn?$AA?9?$AAa?$AAu?$AAs?$AAt?$AAr?$AAi?$AAa?$AAn@ 1005117c     libucrt:get_qualified_locale.obj
 0002:0000419c       ??_C@_1CI@HCFHGOFD@?$AAg?$AAe?$AAr?$AAm?$AAa?$AAn?$AA?9?$AAl?$AAi?$AAc?$AAh?$AAt?$AAe?$AAn?$AAs@ 1005119c     libucrt:get_qualified_locale.obj
 0002:000041c4       ??_C@_1CE@FEDDNPDG@?$AAg?$AAe?$AAr?$AAm?$AAa?$AAn?$AA?9?$AAl?$AAu?$AAx?$AAe?$AAm?$AAb?$AAo?$AAu@ 100511c4     libucrt:get_qualified_locale.obj
 0002:000041e8       ??_C@_1BK@LIMINNMN@?$AAg?$AAe?$AAr?$AAm?$AAa?$AAn?$AA?9?$AAs?$AAw?$AAi?$AAs?$AAs@ 100511e8     libucrt:get_qualified_locale.obj
 0002:00004204       ??_C@_1BM@LGMDBEPD@?$AAi?$AAr?$AAi?$AAs?$AAh?$AA?9?$AAe?$AAn?$AAg?$AAl?$AAi?$AAs?$AAh@ 10051204     libucrt:get_qualified_locale.obj
 0002:00004220       ??_C@_1BM@NNCFBAEE@?$AAi?$AAt?$AAa?$AAl?$AAi?$AAa?$AAn?$AA?9?$AAs?$AAw?$AAi?$AAs?$AAs@ 10051220     libucrt:get_qualified_locale.obj
 0002:0000423c       ??_C@_1BE@FEDJNPIB@?$AAn?$AAo?$AAr?$AAw?$AAe?$AAg?$AAi?$AAa?$AAn@ 1005123c     libucrt:get_qualified_locale.obj
 0002:00004250       ??_C@_1CC@CILKDEIE@?$AAn?$AAo?$AAr?$AAw?$AAe?$AAg?$AAi?$AAa?$AAn?$AA?9?$AAb?$AAo?$AAk?$AAm?$AAa@ 10051250     libucrt:get_qualified_locale.obj
 0002:00004274       ??_C@_1CE@DHMMHEPL@?$AAn?$AAo?$AAr?$AAw?$AAe?$AAg?$AAi?$AAa?$AAn?$AA?9?$AAn?$AAy?$AAn?$AAo?$AAr@ 10051274     libucrt:get_qualified_locale.obj
 0002:00004298       ??_C@_1CK@OPNMHECD@?$AAp?$AAo?$AAr?$AAt?$AAu?$AAg?$AAu?$AAe?$AAs?$AAe?$AA?9?$AAb?$AAr?$AAa?$AAz@ 10051298     libucrt:get_qualified_locale.obj
 0002:000042c4       ??_C@_1CE@KEEHCDB@?$AAs?$AAp?$AAa?$AAn?$AAi?$AAs?$AAh?$AA?9?$AAa?$AAr?$AAg?$AAe?$AAn?$AAt?$AAi@ 100512c4     libucrt:get_qualified_locale.obj
 0002:000042e8       ??_C@_1CA@GIAOLHJD@?$AAs?$AAp?$AAa?$AAn?$AAi?$AAs?$AAh?$AA?9?$AAb?$AAo?$AAl?$AAi?$AAv?$AAi?$AAa@ 100512e8     libucrt:get_qualified_locale.obj
 0002:00004308       ??_C@_1BM@OJNDFNPD@?$AAs?$AAp?$AAa?$AAn?$AAi?$AAs?$AAh?$AA?9?$AAc?$AAh?$AAi?$AAl?$AAe@ 10051308     libucrt:get_qualified_locale.obj
 0002:00004324       ??_C@_1CC@OCOLPALL@?$AAs?$AAp?$AAa?$AAn?$AAi?$AAs?$AAh?$AA?9?$AAc?$AAo?$AAl?$AAo?$AAm?$AAb?$AAi@ 10051324     libucrt:get_qualified_locale.obj
 0002:00004348       ??_C@_1CG@BPOFMKBB@?$AAs?$AAp?$AAa?$AAn?$AAi?$AAs?$AAh?$AA?9?$AAc?$AAo?$AAs?$AAt?$AAa?$AA?5?$AAr@ 10051348     libucrt:get_qualified_locale.obj
 0002:00004370       ??_C@_1DG@IGOBAPBB@?$AAs?$AAp?$AAa?$AAn?$AAi?$AAs?$AAh?$AA?9?$AAd?$AAo?$AAm?$AAi?$AAn?$AAi?$AAc@ 10051370     libucrt:get_qualified_locale.obj
 0002:000043a8       ??_C@_1CA@JHAPGEGI@?$AAs?$AAp?$AAa?$AAn?$AAi?$AAs?$AAh?$AA?9?$AAe?$AAc?$AAu?$AAa?$AAd?$AAo?$AAr@ 100513a8     libucrt:get_qualified_locale.obj
 0002:000043c8       ??_C@_1CI@LAPALJPP@?$AAs?$AAp?$AAa?$AAn?$AAi?$AAs?$AAh?$AA?9?$AAe?$AAl?$AA?5?$AAs?$AAa?$AAl?$AAv@ 100513c8     libucrt:get_qualified_locale.obj
 0002:000043f0       ??_C@_1CE@PDGBOFOM@?$AAs?$AAp?$AAa?$AAn?$AAi?$AAs?$AAh?$AA?9?$AAg?$AAu?$AAa?$AAt?$AAe?$AAm?$AAa@ 100513f0     libucrt:get_qualified_locale.obj
 0002:00004414       ??_C@_1CC@NBEBAODI@?$AAs?$AAp?$AAa?$AAn?$AAi?$AAs?$AAh?$AA?9?$AAh?$AAo?$AAn?$AAd?$AAu?$AAr?$AAa@ 10051414     libucrt:get_qualified_locale.obj
 0002:00004438       ??_C@_1CA@LLKGHBMF@?$AAs?$AAp?$AAa?$AAn?$AAi?$AAs?$AAh?$AA?9?$AAm?$AAe?$AAx?$AAi?$AAc?$AAa?$AAn@ 10051438     libucrt:get_qualified_locale.obj
 0002:00004458       ??_C@_1BO@LKNDOIGD@?$AAs?$AAp?$AAa?$AAn?$AAi?$AAs?$AAh?$AA?9?$AAm?$AAo?$AAd?$AAe?$AAr?$AAn@ 10051458     libucrt:get_qualified_locale.obj
 0002:00004478       ??_C@_1CE@NMDMOEEB@?$AAs?$AAp?$AAa?$AAn?$AAi?$AAs?$AAh?$AA?9?$AAn?$AAi?$AAc?$AAa?$AAr?$AAa?$AAg@ 10051478     libucrt:get_qualified_locale.obj
 0002:0000449c       ??_C@_1BO@LLCBEJGB@?$AAs?$AAp?$AAa?$AAn?$AAi?$AAs?$AAh?$AA?9?$AAp?$AAa?$AAn?$AAa?$AAm?$AAa@ 1005149c     libucrt:get_qualified_locale.obj
 0002:000044bc       ??_C@_1CC@FKPGGIHO@?$AAs?$AAp?$AAa?$AAn?$AAi?$AAs?$AAh?$AA?9?$AAp?$AAa?$AAr?$AAa?$AAg?$AAu?$AAa@ 100514bc     libucrt:get_qualified_locale.obj
 0002:000044e0       ??_C@_1BK@CDEIHOOP@?$AAs?$AAp?$AAa?$AAn?$AAi?$AAs?$AAh?$AA?9?$AAp?$AAe?$AAr?$AAu@ 100514e0     libucrt:get_qualified_locale.obj
 0002:000044fc       ??_C@_1CI@GAHAKKGP@?$AAs?$AAp?$AAa?$AAn?$AAi?$AAs?$AAh?$AA?9?$AAp?$AAu?$AAe?$AAr?$AAt?$AAo?$AA?5@ 100514fc     libucrt:get_qualified_locale.obj
 0002:00004524       ??_C@_1CA@NKJBCAGP@?$AAs?$AAp?$AAa?$AAn?$AAi?$AAs?$AAh?$AA?9?$AAu?$AAr?$AAu?$AAg?$AAu?$AAa?$AAy@ 10051524     libucrt:get_qualified_locale.obj
 0002:00004544       ??_C@_1CE@ODILCONM@?$AAs?$AAp?$AAa?$AAn?$AAi?$AAs?$AAh?$AA?9?$AAv?$AAe?$AAn?$AAe?$AAz?$AAu?$AAe@ 10051544     libucrt:get_qualified_locale.obj
 0002:00004568       ??_C@_1CA@OBNMCGFO@?$AAs?$AAw?$AAe?$AAd?$AAi?$AAs?$AAh?$AA?9?$AAf?$AAi?$AAn?$AAl?$AAa?$AAn?$AAd@ 10051568     libucrt:get_qualified_locale.obj
 0002:00004588       ??_C@_1M@PIPDDPPI@?$AAs?$AAw?$AAi?$AAs?$AAs@ 10051588     libucrt:get_qualified_locale.obj
 0002:00004594       ??_C@_15PJPFLCCM@?$AAu?$AAk@ 10051594     libucrt:get_qualified_locale.obj
 0002:0000459c       ??_C@_15GMFIMNFM@?$AAu?$AAs@ 1005159c     libucrt:get_qualified_locale.obj
 0002:000045a4       ??_C@_17HAEBFAGL@?$AAu?$AAs?$AAa@ 100515a4     libucrt:get_qualified_locale.obj
 0002:000045ac       ??_C@_1BA@DPFJEPHB@?$AAa?$AAm?$AAe?$AAr?$AAi?$AAc?$AAa@ 100515ac     libucrt:get_qualified_locale.obj
 0002:000045bc       ??_C@_1BA@ELOGGFK@?$AAb?$AAr?$AAi?$AAt?$AAa?$AAi?$AAn@ 100515bc     libucrt:get_qualified_locale.obj
 0002:000045cc       ??_C@_1M@GHBGIGDA@?$AAc?$AAh?$AAi?$AAn?$AAa@ 100515cc     libucrt:get_qualified_locale.obj
 0002:000045d8       ??_C@_1M@NCHEJOPO@?$AAc?$AAz?$AAe?$AAc?$AAh@ 100515d8     libucrt:get_qualified_locale.obj
 0002:000045e4       ??_C@_1BA@BKPAPBLA@?$AAe?$AAn?$AAg?$AAl?$AAa?$AAn?$AAd@ 100515e4     libucrt:get_qualified_locale.obj
 0002:000045f4       ??_C@_1BM@HKBCKIPC@?$AAg?$AAr?$AAe?$AAa?$AAt?$AA?5?$AAb?$AAr?$AAi?$AAt?$AAa?$AAi?$AAn@ 100515f4     libucrt:get_qualified_locale.obj
 0002:00004610       ??_C@_1BA@PPCHPGJB@?$AAh?$AAo?$AAl?$AAl?$AAa?$AAn?$AAd@ 10051610     libucrt:get_qualified_locale.obj
 0002:00004620       ??_C@_1BE@JBMPEGDG@?$AAh?$AAo?$AAn?$AAg?$AA?9?$AAk?$AAo?$AAn?$AAg@ 10051620     libucrt:get_qualified_locale.obj
 0002:00004634       ??_C@_1BI@KOELBBPJ@?$AAn?$AAe?$AAw?$AA?9?$AAz?$AAe?$AAa?$AAl?$AAa?$AAn?$AAd@ 10051634     libucrt:get_qualified_locale.obj
 0002:0000464c       ??_C@_15HIEBHAIO@?$AAn?$AAz@ 1005164c     libucrt:get_qualified_locale.obj
 0002:00004654       ??_C@_1BC@CHBCPFPI@?$AAp?$AAr?$AA?5?$AAc?$AAh?$AAi?$AAn?$AAa@ 10051654     libucrt:get_qualified_locale.obj
 0002:00004668       ??_C@_1BC@JAOIIFKD@?$AAp?$AAr?$AA?9?$AAc?$AAh?$AAi?$AAn?$AAa@ 10051668     libucrt:get_qualified_locale.obj
 0002:0000467c       ??_C@_1BI@BEHPPHKC@?$AAp?$AAu?$AAe?$AAr?$AAt?$AAo?$AA?9?$AAr?$AAi?$AAc?$AAo@ 1005167c     libucrt:get_qualified_locale.obj
 0002:00004694       ??_C@_1O@PAEOFKDI@?$AAs?$AAl?$AAo?$AAv?$AAa?$AAk@ 10051694     libucrt:get_qualified_locale.obj
 0002:000046a4       ??_C@_1BK@FIHMCKAM@?$AAs?$AAo?$AAu?$AAt?$AAh?$AA?5?$AAa?$AAf?$AAr?$AAi?$AAc?$AAa@ 100516a4     libucrt:get_qualified_locale.obj
 0002:000046c0       ??_C@_1BI@NAEOODKB@?$AAs?$AAo?$AAu?$AAt?$AAh?$AA?5?$AAk?$AAo?$AAr?$AAe?$AAa@ 100516c0     libucrt:get_qualified_locale.obj
 0002:000046d8       ??_C@_1BK@FBDGGIFF@?$AAs?$AAo?$AAu?$AAt?$AAh?$AA?9?$AAa?$AAf?$AAr?$AAi?$AAc?$AAa@ 100516d8     libucrt:get_qualified_locale.obj
 0002:000046f4       ??_C@_1BI@GHLEJDPK@?$AAs?$AAo?$AAu?$AAt?$AAh?$AA?9?$AAk?$AAo?$AAr?$AAe?$AAa@ 100516f4     libucrt:get_qualified_locale.obj
 0002:0000470c       ??_C@_1CE@PLHLOMJF@?$AAt?$AAr?$AAi?$AAn?$AAi?$AAd?$AAa?$AAd?$AA?5?$AA?$CG?$AA?5?$AAt?$AAo?$AAb?$AAa@ 1005170c     libucrt:get_qualified_locale.obj
 0002:00004730       ??_C@_1BO@MODIMHHI@?$AAu?$AAn?$AAi?$AAt?$AAe?$AAd?$AA?9?$AAk?$AAi?$AAn?$AAg?$AAd?$AAo?$AAm@ 10051730     libucrt:get_qualified_locale.obj
 0002:00004750       ??_C@_1BM@FFHJONBJ@?$AAu?$AAn?$AAi?$AAt?$AAe?$AAd?$AA?9?$AAs?$AAt?$AAa?$AAt?$AAe?$AAs@ 10051750     libucrt:get_qualified_locale.obj
 0002:0000476c       ??_C@_19MPDNHKDG@?$AAu?$AAt?$AAf?$AA8@ 1005176c     libucrt:get_qualified_locale.obj
 0002:00004778       ??_C@_17DNCLJFIF@?$AAA?$AAC?$AAP@ 10051778     libucrt:get_qualified_locale.obj
 0002:00004780       ??_C@_1M@FPEIIFAM@?$AAu?$AAt?$AAf?$AA?9?$AA8@ 10051780     libucrt:get_qualified_locale.obj
 0002:0000478c       ??_C@_17CIKBIHLH@?$AAO?$AAC?$AAP@ 1005178c     libucrt:get_qualified_locale.obj
 0002:00004794       ___rglangidNotDefault      10051794     libucrt:getqloc_downlevel.obj
 0002:00004ec8       ??_C@_15EMKDOKLE@?$AAa?$AAr@ 10051ec8     libucrt:lcidtoname_downlevel.obj
 0002:00004ed0       ??_C@_15KNPADPLH@?$AAb?$AAg@ 10051ed0     libucrt:lcidtoname_downlevel.obj
 0002:00004ed8       ??_C@_15EDMHLDMO@?$AAc?$AAa@ 10051ed8     libucrt:lcidtoname_downlevel.obj
 0002:00004ee0       ??_C@_1O@BPEAJADD@?$AAz?$AAh?$AA?9?$AAC?$AAH?$AAS@ 10051ee0     libucrt:lcidtoname_downlevel.obj
 0002:00004ef0       ??_C@_15LJNHCMNK@?$AAc?$AAs@ 10051ef0     libucrt:lcidtoname_downlevel.obj
 0002:00004ef8       ??_C@_15FOMCIDHG@?$AAd?$AAa@ 10051ef8     libucrt:lcidtoname_downlevel.obj
 0002:00004f00       ??_C@_15NBKABECB@?$AAd?$AAe@ 10051f00     libucrt:lcidtoname_downlevel.obj
 0002:00004f08       ??_C@_15GHPEIIAO@?$AAe?$AAl@ 10051f08     libucrt:lcidtoname_downlevel.obj
 0002:00004f10       ??_C@_15MNPNEAIF@?$AAe?$AAn@ 10051f10     libucrt:lcidtoname_downlevel.obj
 0002:00004f18       ??_C@_15GPIOMPMH@?$AAe?$AAs@ 10051f18     libucrt:lcidtoname_downlevel.obj
 0002:00004f20       ??_C@_15NGLOAKJC@?$AAf?$AAi@ 10051f20     libucrt:lcidtoname_downlevel.obj
 0002:00004f28       ??_C@_15FBKGNKAM@?$AAf?$AAr@ 10051f28     libucrt:lcidtoname_downlevel.obj
 0002:00004f30       ??_C@_15KGGCNEFK@?$AAh?$AAe@ 10051f30     libucrt:lcidtoname_downlevel.obj
 0002:00004f38       ??_C@_15PGHLIDMF@?$AAh?$AAu@ 10051f38     libucrt:lcidtoname_downlevel.obj
 0002:00004f40       ??_C@_15BIEMAPLM@?$AAi?$AAs@ 10051f40     libucrt:lcidtoname_downlevel.obj
 0002:00004f48       ??_C@_15IFJLDHAF@?$AAi?$AAt@ 10051f48     libucrt:lcidtoname_downlevel.obj
 0002:00004f50       ??_C@_15GEMIOCAG@?$AAj?$AAa@ 10051f50     libucrt:lcidtoname_downlevel.obj
 0002:00004f58       ??_C@_15EPELEGJA@?$AAk?$AAo@ 10051f58     libucrt:lcidtoname_downlevel.obj
 0002:00004f60       ??_C@_15NDDHIMN@?$AAn?$AAl@ 10051f60     libucrt:lcidtoname_downlevel.obj
 0002:00004f68       ??_C@_15BPIGNHCD@?$AAn?$AAo@ 10051f68     libucrt:lcidtoname_downlevel.obj
 0002:00004f70       ??_C@_15DEOPBLCG@?$AAp?$AAl@ 10051f70     libucrt:lcidtoname_downlevel.obj
 0002:00004f78       ??_C@_15KBECGEFG@?$AAp?$AAt@ 10051f78     libucrt:lcidtoname_downlevel.obj
 0002:00004f80       ??_C@_15GLJCBFMD@?$AAr?$AAo@ 10051f80     libucrt:lcidtoname_downlevel.obj
 0002:00004f88       ??_C@_15FEDGKCDI@?$AAr?$AAu@ 10051f88     libucrt:lcidtoname_downlevel.obj
 0002:00004f90       ??_C@_15GLKMLLHM@?$AAh?$AAr@ 10051f90     libucrt:lcidtoname_downlevel.obj
 0002:00004f98       ??_C@_15CPKMFBDB@?$AAs?$AAk@ 10051f98     libucrt:lcidtoname_downlevel.obj
 0002:00004fa0       ??_C@_15BAAIOGMK@?$AAs?$AAq@ 10051fa0     libucrt:lcidtoname_downlevel.obj
 0002:00004fa8       ??_C@_15INNPNOHD@?$AAs?$AAv@ 10051fa8     libucrt:lcidtoname_downlevel.obj
 0002:00004fb0       ??_C@_15CABMMOGH@?$AAt?$AAh@ 10051fb0     libucrt:lcidtoname_downlevel.obj
 0002:00004fb8       ??_C@_15BPLIHJJM@?$AAt?$AAr@ 10051fb8     libucrt:lcidtoname_downlevel.obj
 0002:00004fc0       ??_C@_15NEOEKKDJ@?$AAu?$AAr@ 10051fc0     libucrt:lcidtoname_downlevel.obj
 0002:00004fc8       ??_C@_15NFICGAJK@?$AAi?$AAd@ 10051fc8     libucrt:lcidtoname_downlevel.obj
 0002:00004fd0       ??_C@_15HPJPHDM@?$AAb?$AAe@ 10051fd0     libucrt:lcidtoname_downlevel.obj
 0002:00004fd8       ??_C@_15LCHLGJII@?$AAs?$AAl@ 10051fd8     libucrt:lcidtoname_downlevel.obj
 0002:00004fe0       ??_C@_15PCFJPHHO@?$AAe?$AAt@ 10051fe0     libucrt:lcidtoname_downlevel.obj
 0002:00004fe8       ??_C@_15HPFPGODN@?$AAl?$AAv@ 10051fe8     libucrt:lcidtoname_downlevel.obj
 0002:00004ff0       ??_C@_15NFFGKGLG@?$AAl?$AAt@ 10051ff0     libucrt:lcidtoname_downlevel.obj
 0002:00004ff8       ??_C@_15BDAKCCHN@?$AAf?$AAa@ 10051ff8     libucrt:lcidtoname_downlevel.obj
 0002:00005000       ??_C@_15NFGIAIAJ@?$AAv?$AAi@ 10052000     libucrt:lcidtoname_downlevel.obj
 0002:00005008       ??_C@_15LMKNDMHN@?$AAh?$AAy@ 10052008     libucrt:lcidtoname_downlevel.obj
 0002:00005010       ??_C@_15IJBHMCFL@?$AAa?$AAz@ 10052010     libucrt:lcidtoname_downlevel.obj
 0002:00005018       ??_C@_15EKOFJABL@?$AAe?$AAu@ 10052018     libucrt:lcidtoname_downlevel.obj
 0002:00005020       ??_C@_15BGHADCNK@?$AAm?$AAk@ 10052020     libucrt:lcidtoname_downlevel.obj
 0002:00005028       ??_C@_15JDNICKHM@?$AAa?$AAf@ 10052028     libucrt:lcidtoname_downlevel.obj
 0002:00005030       ??_C@_15KPJEDBKD@?$AAk?$AAa@ 10052030     libucrt:lcidtoname_downlevel.obj
 0002:00005038       ??_C@_15PDNFFFEO@?$AAf?$AAo@ 10052038     libucrt:lcidtoname_downlevel.obj
 0002:00005040       ??_C@_15OMLEGLOC@?$AAh?$AAi@ 10052040     libucrt:lcidtoname_downlevel.obj
 0002:00005048       ??_C@_15IDNNENKK@?$AAm?$AAs@ 10052048     libucrt:lcidtoname_downlevel.obj
 0002:00005050       ??_C@_15MACJNBMH@?$AAk?$AAk@ 10052050     libucrt:lcidtoname_downlevel.obj
 0002:00005058       ??_C@_15DKDJEOND@?$AAk?$AAy@ 10052058     libucrt:lcidtoname_downlevel.obj
 0002:00005060       ??_C@_15DFGDLJBG@?$AAs?$AAw@ 10052060     libucrt:lcidtoname_downlevel.obj
 0002:00005068       ??_C@_15BBFAICNG@?$AAu?$AAz@ 10052068     libucrt:lcidtoname_downlevel.obj
 0002:00005070       ??_C@_15DKNDCGEA@?$AAt?$AAt@ 10052070     libucrt:lcidtoname_downlevel.obj
 0002:00005078       ??_C@_15MGIFMDPL@?$AAp?$AAa@ 10052078     libucrt:lcidtoname_downlevel.obj
 0002:00005080       ??_C@_15HCNDBBA@?$AAg?$AAu@ 10052080     libucrt:lcidtoname_downlevel.obj
 0002:00005088       ??_C@_15FNBEIBON@?$AAt?$AAa@ 10052088     libucrt:lcidtoname_downlevel.obj
 0002:00005090       ??_C@_15NCHGBGLK@?$AAt?$AAe@ 10052090     libucrt:lcidtoname_downlevel.obj
 0002:00005098       ??_C@_15PHPHCBPF@?$AAk?$AAn@ 10052098     libucrt:lcidtoname_downlevel.obj
 0002:000050a0       ??_C@_15DLGBCKMP@?$AAm?$AAr@ 100520a0     libucrt:lcidtoname_downlevel.obj
 0002:000050a8       ??_C@_15EABBLBFF@?$AAs?$AAa@ 100520a8     libucrt:lcidtoname_downlevel.obj
 0002:000050b0       ??_C@_15CBKOMCOI@?$AAm?$AAn@ 100520b0     libucrt:lcidtoname_downlevel.obj
 0002:000050b8       ??_C@_15CKDMCJAF@?$AAg?$AAl@ 100520b8     libucrt:lcidtoname_downlevel.obj
 0002:000050c0       ??_C@_17CNJFBPG@?$AAk?$AAo?$AAk@ 100520c0     libucrt:lcidtoname_downlevel.obj
 0002:000050c8       ??_C@_17FFBJICPL@?$AAs?$AAy?$AAr@ 100520c8     libucrt:lcidtoname_downlevel.obj
 0002:000050d0       ??_C@_17KPNDCPAF@?$AAd?$AAi?$AAv@ 100520d0     libucrt:lcidtoname_downlevel.obj
 0002:000050d8       ??_C@_11LOCGONAA@@         100520d8     libucrt:lcidtoname_downlevel.obj
 0002:000050dc       ??_C@_1M@OKAHONE@?$AAa?$AAr?$AA?9?$AAS?$AAA@ 100520dc     libucrt:lcidtoname_downlevel.obj
 0002:000050e8       ??_C@_1M@FFFIGIGK@?$AAb?$AAg?$AA?9?$AAB?$AAG@ 100520e8     libucrt:lcidtoname_downlevel.obj
 0002:000050f4       ??_C@_1M@BJNKEDC@?$AAc?$AAa?$AA?9?$AAE?$AAS@ 100520f4     libucrt:lcidtoname_downlevel.obj
 0002:00005100       ??_C@_1M@IJJHFJHA@?$AAc?$AAs?$AA?9?$AAC?$AAZ@ 10052100     libucrt:lcidtoname_downlevel.obj
 0002:0000510c       ??_C@_1M@CLPEOBGI@?$AAd?$AAa?$AA?9?$AAD?$AAK@ 1005210c     libucrt:lcidtoname_downlevel.obj
 0002:00005118       ??_C@_1M@MCMADGCB@?$AAd?$AAe?$AA?9?$AAD?$AAE@ 10052118     libucrt:lcidtoname_downlevel.obj
 0002:00005124       ??_C@_1M@OOCKEMAM@?$AAe?$AAl?$AA?9?$AAG?$AAR@ 10052124     libucrt:lcidtoname_downlevel.obj
 0002:00005130       ??_C@_1M@DDNJFGID@?$AAf?$AAi?$AA?9?$AAF?$AAI@ 10052130     libucrt:lcidtoname_downlevel.obj
 0002:0000513c       ??_C@_1M@GLIPPMAC@?$AAf?$AAr?$AA?9?$AAF?$AAR@ 1005213c     libucrt:lcidtoname_downlevel.obj
 0002:00005148       ??_C@_1M@GFMCHPE@?$AAh?$AAe?$AA?9?$AAI?$AAL@ 10052148     libucrt:lcidtoname_downlevel.obj
 0002:00005154       ??_C@_1M@MHLPGNKM@?$AAh?$AAu?$AA?9?$AAH?$AAU@ 10052154     libucrt:lcidtoname_downlevel.obj
 0002:00005160       ??_C@_1M@LPDDNNPN@?$AAi?$AAs?$AA?9?$AAI?$AAS@ 10052160     libucrt:lcidtoname_downlevel.obj
 0002:0000516c       ??_C@_1M@MADIPODN@?$AAi?$AAt?$AA?9?$AAI?$AAT@ 1005216c     libucrt:lcidtoname_downlevel.obj
 0002:00005178       ??_C@_1M@IHBJJGG@?$AAn?$AAl?$AA?9?$AAN?$AAL@ 10052178     libucrt:lcidtoname_downlevel.obj
 0002:00005184       ??_C@_1M@EANAGDL@?$AAn?$AAb?$AA?9?$AAN?$AAO@ 10052184     libucrt:lcidtoname_downlevel.obj
 0002:00005190       ??_C@_1M@NEIEMEGP@?$AAp?$AAl?$AA?9?$AAP?$AAL@ 10052190     libucrt:lcidtoname_downlevel.obj
 0002:0000519c       ??_C@_1M@BOCFIGEP@?$AAp?$AAt?$AA?9?$AAB?$AAR@ 1005219c     libucrt:lcidtoname_downlevel.obj
 0002:000051a8       ??_C@_1M@IMPFOPBG@?$AAr?$AAo?$AA?9?$AAR?$AAO@ 100521a8     libucrt:lcidtoname_downlevel.obj
 0002:000051b4       ??_C@_1M@IDNNEJMM@?$AAr?$AAu?$AA?9?$AAR?$AAU@ 100521b4     libucrt:lcidtoname_downlevel.obj
 0002:000051c0       ??_C@_1M@LILEEOGM@?$AAh?$AAr?$AA?9?$AAH?$AAR@ 100521c0     libucrt:lcidtoname_downlevel.obj
 0002:000051cc       ??_C@_1M@FKIFEHPB@?$AAs?$AAk?$AA?9?$AAS?$AAK@ 100521cc     libucrt:lcidtoname_downlevel.obj
 0002:000051d8       ??_C@_1M@LJMAMNPJ@?$AAs?$AAq?$AA?9?$AAA?$AAL@ 100521d8     libucrt:lcidtoname_downlevel.obj
 0002:000051e4       ??_C@_1M@GIAKDKJK@?$AAs?$AAv?$AA?9?$AAS?$AAE@ 100521e4     libucrt:lcidtoname_downlevel.obj
 0002:000051f0       ??_C@_1M@MKJKIKCL@?$AAt?$AAh?$AA?9?$AAT?$AAH@ 100521f0     libucrt:lcidtoname_downlevel.obj
 0002:000051fc       ??_C@_1M@MFLCCMPB@?$AAt?$AAr?$AA?9?$AAT?$AAR@ 100521fc     libucrt:lcidtoname_downlevel.obj
 0002:00005208       ??_C@_1M@OIJHDKJN@?$AAu?$AAr?$AA?9?$AAP?$AAK@ 10052208     libucrt:lcidtoname_downlevel.obj
 0002:00005214       ??_C@_1M@LHIPCIEK@?$AAi?$AAd?$AA?9?$AAI?$AAD@ 10052214     libucrt:lcidtoname_downlevel.obj
 0002:00005220       ??_C@_1M@MFMOBGI@?$AAu?$AAk?$AA?9?$AAU?$AAA@ 10052220     libucrt:lcidtoname_downlevel.obj
 0002:0000522c       ??_C@_1M@OBGLJIPL@?$AAb?$AAe?$AA?9?$AAB?$AAY@ 1005222c     libucrt:lcidtoname_downlevel.obj
 0002:00005238       ??_C@_1M@BCFAJEAD@?$AAs?$AAl?$AA?9?$AAS?$AAI@ 10052238     libucrt:lcidtoname_downlevel.obj
 0002:00005244       ??_C@_1M@FKFFEDDN@?$AAe?$AAt?$AA?9?$AAE?$AAE@ 10052244     libucrt:lcidtoname_downlevel.obj
 0002:00005250       ??_C@_1M@KGKKAACI@?$AAl?$AAv?$AA?9?$AAL?$AAV@ 10052250     libucrt:lcidtoname_downlevel.obj
 0002:0000525c       ??_C@_1M@IFGBIJO@?$AAl?$AAt?$AA?9?$AAL?$AAT@ 1005225c     libucrt:lcidtoname_downlevel.obj
 0002:00005268       ??_C@_1M@FGEAHEDM@?$AAf?$AAa?$AA?9?$AAI?$AAR@ 10052268     libucrt:lcidtoname_downlevel.obj
 0002:00005274       ??_C@_1M@KBMAIBFN@?$AAv?$AAi?$AA?9?$AAV?$AAN@ 10052274     libucrt:lcidtoname_downlevel.obj
 0002:00005280       ??_C@_1M@GPCBKDJK@?$AAh?$AAy?$AA?9?$AAA?$AAM@ 10052280     libucrt:lcidtoname_downlevel.obj
 0002:0000528c       ??_C@_1BG@BECMDDJB@?$AAa?$AAz?$AA?9?$AAA?$AAZ?$AA?9?$AAL?$AAa?$AAt?$AAn@ 1005228c     libucrt:lcidtoname_downlevel.obj
 0002:000052a4       ??_C@_1M@MAOFCAEA@?$AAe?$AAu?$AA?9?$AAE?$AAS@ 100522a4     libucrt:lcidtoname_downlevel.obj
 0002:000052b0       ??_C@_1M@IGHABKPI@?$AAm?$AAk?$AA?9?$AAM?$AAK@ 100522b0     libucrt:lcidtoname_downlevel.obj
 0002:000052bc       ??_C@_1M@IAIGNEJG@?$AAt?$AAn?$AA?9?$AAZ?$AAA@ 100522bc     libucrt:lcidtoname_downlevel.obj
 0002:000052c8       ??_C@_1M@IIJCOJFA@?$AAx?$AAh?$AA?9?$AAZ?$AAA@ 100522c8     libucrt:lcidtoname_downlevel.obj
 0002:000052d4       ??_C@_1M@LGPJHNJH@?$AAz?$AAu?$AA?9?$AAZ?$AAA@ 100522d4     libucrt:lcidtoname_downlevel.obj
 0002:000052e0       ??_C@_1M@HOKAOIO@?$AAa?$AAf?$AA?9?$AAZ?$AAA@ 100522e0     libucrt:lcidtoname_downlevel.obj
 0002:000052ec       ??_C@_1M@DPCLHLIE@?$AAk?$AAa?$AA?9?$AAG?$AAE@ 100522ec     libucrt:lcidtoname_downlevel.obj
 0002:000052f8       ??_C@_1M@BLKMHJBI@?$AAf?$AAo?$AA?9?$AAF?$AAO@ 100522f8     libucrt:lcidtoname_downlevel.obj
 0002:00005304       ??_C@_1M@LGGJAPPB@?$AAh?$AAi?$AA?9?$AAI?$AAN@ 10052304     libucrt:lcidtoname_downlevel.obj
 0002:00005310       ??_C@_1M@FIKPIHFE@?$AAm?$AAt?$AA?9?$AAM?$AAT@ 10052310     libucrt:lcidtoname_downlevel.obj
 0002:0000531c       ??_C@_1M@HEGGPBFA@?$AAs?$AAe?$AA?9?$AAN?$AAO@ 1005231c     libucrt:lcidtoname_downlevel.obj
 0002:00005328       ??_C@_1M@EIBJEEPA@?$AAm?$AAs?$AA?9?$AAM?$AAY@ 10052328     libucrt:lcidtoname_downlevel.obj
 0002:00005334       ??_C@_1M@FHLBGMPP@?$AAk?$AAk?$AA?9?$AAK?$AAZ@ 10052334     libucrt:lcidtoname_downlevel.obj
 0002:00005340       ??_C@_1M@NGJJLCGI@?$AAk?$AAy?$AA?9?$AAK?$AAG@ 10052340     libucrt:lcidtoname_downlevel.obj
 0002:0000534c       ??_C@_1M@GIENNBFC@?$AAs?$AAw?$AA?9?$AAK?$AAE@ 1005234c     libucrt:lcidtoname_downlevel.obj
 0002:00005358       ??_C@_1BG@NDGMJIMJ@?$AAu?$AAz?$AA?9?$AAU?$AAZ?$AA?9?$AAL?$AAa?$AAt?$AAn@ 10052358     libucrt:lcidtoname_downlevel.obj
 0002:00005370       ??_C@_1M@IDCCIHBC@?$AAt?$AAt?$AA?9?$AAR?$AAU@ 10052370     libucrt:lcidtoname_downlevel.obj
 0002:0000537c       ??_C@_1M@LOICPMOJ@?$AAb?$AAn?$AA?9?$AAI?$AAN@ 1005237c     libucrt:lcidtoname_downlevel.obj
 0002:00005388       ??_C@_1M@KPKKNEAH@?$AAp?$AAa?$AA?9?$AAI?$AAN@ 10052388     libucrt:lcidtoname_downlevel.obj
 0002:00005394       ??_C@_1M@PJGPPBOG@?$AAg?$AAu?$AA?9?$AAI?$AAN@ 10052394     libucrt:lcidtoname_downlevel.obj
 0002:000053a0       ??_C@_1M@KMKMOPHI@?$AAt?$AAa?$AA?9?$AAI?$AAN@ 100523a0     libucrt:lcidtoname_downlevel.obj
 0002:000053ac       ??_C@_1M@KFEHEPAC@?$AAt?$AAe?$AA?9?$AAI?$AAN@ 100523ac     libucrt:lcidtoname_downlevel.obj
 0002:000053b8       ??_C@_1M@CDCLMGHI@?$AAk?$AAn?$AA?9?$AAI?$AAN@ 100523b8     libucrt:lcidtoname_downlevel.obj
 0002:000053c4       ??_C@_1M@MIODLDKF@?$AAm?$AAl?$AA?9?$AAI?$AAN@ 100523c4     libucrt:lcidtoname_downlevel.obj
 0002:000053d0       ??_C@_1M@PBIEACPO@?$AAm?$AAr?$AA?9?$AAI?$AAN@ 100523d0     libucrt:lcidtoname_downlevel.obj
 0002:000053dc       ??_C@_1M@NIDEAGPH@?$AAs?$AAa?$AA?9?$AAI?$AAN@ 100523dc     libucrt:lcidtoname_downlevel.obj
 0002:000053e8       ??_C@_1M@FHIHCBIO@?$AAm?$AAn?$AA?9?$AAM?$AAN@ 100523e8     libucrt:lcidtoname_downlevel.obj
 0002:000053f4       ??_C@_1M@JAIJPENP@?$AAc?$AAy?$AA?9?$AAG?$AAB@ 100523f4     libucrt:lcidtoname_downlevel.obj
 0002:00005400       ??_C@_1M@PHGFBEPN@?$AAg?$AAl?$AA?9?$AAE?$AAS@ 10052400     libucrt:lcidtoname_downlevel.obj
 0002:0000540c       ??_C@_1O@KPIPDNCP@?$AAk?$AAo?$AAk?$AA?9?$AAI?$AAN@ 1005240c     libucrt:lcidtoname_downlevel.obj
 0002:0000541c       ??_C@_1O@KNHJLDJA@?$AAs?$AAy?$AAr?$AA?9?$AAS?$AAY@ 1005241c     libucrt:lcidtoname_downlevel.obj
 0002:0000542c       ??_C@_1O@MKEKBLAH@?$AAd?$AAi?$AAv?$AA?9?$AAM?$AAV@ 1005242c     libucrt:lcidtoname_downlevel.obj
 0002:0000543c       ??_C@_1O@OHDCKDDF@?$AAq?$AAu?$AAz?$AA?9?$AAB?$AAO@ 1005243c     libucrt:lcidtoname_downlevel.obj
 0002:0000544c       ??_C@_1M@LEPJNLFD@?$AAn?$AAs?$AA?9?$AAZ?$AAA@ 1005244c     libucrt:lcidtoname_downlevel.obj
 0002:00005458       ??_C@_1M@OMLEIIJB@?$AAm?$AAi?$AA?9?$AAN?$AAZ@ 10052458     libucrt:lcidtoname_downlevel.obj
 0002:00005464       ??_C@_1M@PMPEAILG@?$AAa?$AAr?$AA?9?$AAI?$AAQ@ 10052464     libucrt:lcidtoname_downlevel.obj
 0002:00005470       ??_C@_1M@CNKPNOEE@?$AAd?$AAe?$AA?9?$AAC?$AAH@ 10052470     libucrt:lcidtoname_downlevel.obj
 0002:0000547c       ??_C@_1M@LKMGMLKO@?$AAe?$AAn?$AA?9?$AAG?$AAB@ 1005247c     libucrt:lcidtoname_downlevel.obj
 0002:00005488       ??_C@_1M@PGKJFFGL@?$AAe?$AAs?$AA?9?$AAM?$AAX@ 10052488     libucrt:lcidtoname_downlevel.obj
 0002:00005494       ??_C@_1M@DNNANBDC@?$AAf?$AAr?$AA?9?$AAB?$AAE@ 10052494     libucrt:lcidtoname_downlevel.obj
 0002:000054a0       ??_C@_1M@HLGMDFHM@?$AAi?$AAt?$AA?9?$AAC?$AAH@ 100524a0     libucrt:lcidtoname_downlevel.obj
 0002:000054ac       ??_C@_1M@CLLBGJH@?$AAn?$AAl?$AA?9?$AAB?$AAE@ 100524ac     libucrt:lcidtoname_downlevel.obj
 0002:000054b8       ??_C@_1M@BODBOGLF@?$AAn?$AAn?$AA?9?$AAN?$AAO@ 100524b8     libucrt:lcidtoname_downlevel.obj
 0002:000054c4       ??_C@_1M@HFFAHKAD@?$AAp?$AAt?$AA?9?$AAP?$AAT@ 100524c4     libucrt:lcidtoname_downlevel.obj
 0002:000054d0       ??_C@_1BG@LNOAKHIE@?$AAs?$AAr?$AA?9?$AAS?$AAP?$AA?9?$AAL?$AAa?$AAt?$AAn@ 100524d0     libucrt:lcidtoname_downlevel.obj
 0002:000054e8       ??_C@_1M@HBMHBGAK@?$AAs?$AAv?$AA?9?$AAF?$AAI@ 100524e8     libucrt:lcidtoname_downlevel.obj
 0002:000054f4       ??_C@_1BG@DGCJGJBE@?$AAa?$AAz?$AA?9?$AAA?$AAZ?$AA?9?$AAC?$AAy?$AAr?$AAl@ 100524f4     libucrt:lcidtoname_downlevel.obj
 0002:0000550c       ??_C@_1M@KEJDAAHB@?$AAs?$AAe?$AA?9?$AAS?$AAE@ 1005250c     libucrt:lcidtoname_downlevel.obj
 0002:00005518       ??_C@_1M@HEIBJJAD@?$AAm?$AAs?$AA?9?$AAB?$AAN@ 10052518     libucrt:lcidtoname_downlevel.obj
 0002:00005524       ??_C@_1BG@PBGJMCEM@?$AAu?$AAz?$AA?9?$AAU?$AAZ?$AA?9?$AAC?$AAy?$AAr?$AAl@ 10052524     libucrt:lcidtoname_downlevel.obj
 0002:0000553c       ??_C@_1O@LAOBCMDF@?$AAq?$AAu?$AAz?$AA?9?$AAE?$AAC@ 1005253c     libucrt:lcidtoname_downlevel.obj
 0002:0000554c       ??_C@_1M@POEEMAIO@?$AAa?$AAr?$AA?9?$AAE?$AAG@ 1005254c     libucrt:lcidtoname_downlevel.obj
 0002:00005558       ??_C@_1M@EFAKDEDL@?$AAz?$AAh?$AA?9?$AAH?$AAK@ 10052558     libucrt:lcidtoname_downlevel.obj
 0002:00005564       ??_C@_1M@HKKIJHGI@?$AAd?$AAe?$AA?9?$AAA?$AAT@ 10052564     libucrt:lcidtoname_downlevel.obj
 0002:00005570       ??_C@_1M@KBFBEHJF@?$AAe?$AAn?$AA?9?$AAA?$AAU@ 10052570     libucrt:lcidtoname_downlevel.obj
 0002:0000557c       ??_C@_1M@MNPLFAAH@?$AAe?$AAs?$AA?9?$AAE?$AAS@ 1005257c     libucrt:lcidtoname_downlevel.obj
 0002:00005588       ??_C@_1M@HJOOJFMA@?$AAf?$AAr?$AA?9?$AAC?$AAA@ 10052588     libucrt:lcidtoname_downlevel.obj
 0002:00005594       ??_C@_1BG@JPOFPNAB@?$AAs?$AAr?$AA?9?$AAS?$AAP?$AA?9?$AAC?$AAy?$AAr?$AAl@ 10052594     libucrt:lcidtoname_downlevel.obj
 0002:000055ac       ??_C@_1M@LNFOCMOB@?$AAs?$AAe?$AA?9?$AAF?$AAI@ 100525ac     libucrt:lcidtoname_downlevel.obj
 0002:000055b8       ??_C@_1O@MGJBOAMB@?$AAq?$AAu?$AAz?$AA?9?$AAP?$AAE@ 100525b8     libucrt:lcidtoname_downlevel.obj
 0002:000055c8       ??_C@_1M@GJINLBOK@?$AAa?$AAr?$AA?9?$AAL?$AAY@ 100525c8     libucrt:lcidtoname_downlevel.obj
 0002:000055d4       ??_C@_1M@GGMNHJNL@?$AAz?$AAh?$AA?9?$AAS?$AAG@ 100525d4     libucrt:lcidtoname_downlevel.obj
 0002:000055e0       ??_C@_1M@HOIKODND@?$AAd?$AAe?$AA?9?$AAL?$AAU@ 100525e0     libucrt:lcidtoname_downlevel.obj
 0002:000055ec       ??_C@_1M@DDOCCGFG@?$AAe?$AAn?$AA?9?$AAC?$AAA@ 100525ec     libucrt:lcidtoname_downlevel.obj
 0002:000055f8       ??_C@_1M@BNOEMJLF@?$AAe?$AAs?$AA?9?$AAG?$AAT@ 100525f8     libucrt:lcidtoname_downlevel.obj
 0002:00005604       ??_C@_1M@EOGNKEK@?$AAf?$AAr?$AA?9?$AAC?$AAH@ 10052604     libucrt:lcidtoname_downlevel.obj
 0002:00005610       ??_C@_1M@FLIDJFHL@?$AAh?$AAr?$AA?9?$AAB?$AAA@ 10052610     libucrt:lcidtoname_downlevel.obj
 0002:0000561c       ??_C@_1O@FMCELNAJ@?$AAs?$AAm?$AAj?$AA?9?$AAN?$AAO@ 1005261c     libucrt:lcidtoname_downlevel.obj
 0002:0000562c       ??_C@_1M@JHGLJMGJ@?$AAa?$AAr?$AA?9?$AAD?$AAZ@ 1005262c     libucrt:lcidtoname_downlevel.obj
 0002:00005638       ??_C@_1M@JKKFDCNP@?$AAz?$AAh?$AA?9?$AAM?$AAO@ 10052638     libucrt:lcidtoname_downlevel.obj
 0002:00005644       ??_C@_1M@GEEFALPE@?$AAd?$AAe?$AA?9?$AAL?$AAI@ 10052644     libucrt:lcidtoname_downlevel.obj
 0002:00005650       ??_C@_1M@IGEOFBG@?$AAe?$AAn?$AA?9?$AAN?$AAZ@ 10052650     libucrt:lcidtoname_downlevel.obj
 0002:0000565c       ??_C@_1M@KDBONEHP@?$AAe?$AAs?$AA?9?$AAC?$AAR@ 1005265c     libucrt:lcidtoname_downlevel.obj
 0002:00005668       ??_C@_1M@FHMDOHNN@?$AAf?$AAr?$AA?9?$AAL?$AAU@ 10052668     libucrt:lcidtoname_downlevel.obj
 0002:00005674       ??_C@_1BG@NFKKMAFG@?$AAb?$AAs?$AA?9?$AAB?$AAA?$AA?9?$AAL?$AAa?$AAt?$AAn@ 10052674     libucrt:lcidtoname_downlevel.obj
 0002:0000568c       ??_C@_1O@IMNBEMCI@?$AAs?$AAm?$AAj?$AA?9?$AAS?$AAE@ 1005268c     libucrt:lcidtoname_downlevel.obj
 0002:0000569c       ??_C@_1M@DHHMBNDP@?$AAa?$AAr?$AA?9?$AAM?$AAA@ 1005269c     libucrt:lcidtoname_downlevel.obj
 0002:000056a8       ??_C@_1M@BNBLJCGH@?$AAe?$AAn?$AA?9?$AAI?$AAE@ 100526a8     libucrt:lcidtoname_downlevel.obj
 0002:000056b4       ??_C@_1M@GEPAFMDL@?$AAe?$AAs?$AA?9?$AAP?$AAA@ 100526b4     libucrt:lcidtoname_downlevel.obj
 0002:000056c0       ??_C@_1M@OJONDMDL@?$AAf?$AAr?$AA?9?$AAM?$AAC@ 100526c0     libucrt:lcidtoname_downlevel.obj
 0002:000056cc       ??_C@_1BG@OBCNFJB@?$AAs?$AAr?$AA?9?$AAB?$AAA?$AA?9?$AAL?$AAa?$AAt?$AAn@ 100526cc     libucrt:lcidtoname_downlevel.obj
 0002:000056e4       ??_C@_1O@KEMEEGPO@?$AAs?$AAm?$AAa?$AA?9?$AAN?$AAO@ 100526e4     libucrt:lcidtoname_downlevel.obj
 0002:000056f4       ??_C@_1M@ELMGFODK@?$AAa?$AAr?$AA?9?$AAT?$AAN@ 100526f4     libucrt:lcidtoname_downlevel.obj
 0002:00005700       ??_C@_1M@BHDLHFAF@?$AAe?$AAn?$AA?9?$AAZ?$AAA@ 10052700     libucrt:lcidtoname_downlevel.obj
 0002:0000570c       ??_C@_1M@BMGIGLIF@?$AAe?$AAs?$AA?9?$AAD?$AAO@ 1005270c     libucrt:lcidtoname_downlevel.obj
 0002:00005718       ??_C@_1BG@CMBHIPBE@?$AAs?$AAr?$AA?9?$AAB?$AAA?$AA?9?$AAC?$AAy?$AAr?$AAl@ 10052718     libucrt:lcidtoname_downlevel.obj
 0002:00005730       ??_C@_1O@HEDBLHNP@?$AAs?$AAm?$AAa?$AA?9?$AAS?$AAE@ 10052730     libucrt:lcidtoname_downlevel.obj
 0002:00005740       ??_C@_1M@DAGCADIM@?$AAa?$AAr?$AA?9?$AAO?$AAM@ 10052740     libucrt:lcidtoname_downlevel.obj
 0002:0000574c       ??_C@_1M@FODLMICG@?$AAe?$AAn?$AA?9?$AAJ?$AAM@ 1005274c     libucrt:lcidtoname_downlevel.obj
 0002:00005758       ??_C@_1M@DNMLCIHB@?$AAe?$AAs?$AA?9?$AAV?$AAE@ 10052758     libucrt:lcidtoname_downlevel.obj
 0002:00005764       ??_C@_1O@EOKHMKJK@?$AAs?$AAm?$AAs?$AA?9?$AAF?$AAI@ 10052764     libucrt:lcidtoname_downlevel.obj
 0002:00005774       ??_C@_1M@CAFJMKOF@?$AAa?$AAr?$AA?9?$AAY?$AAE@ 10052774     libucrt:lcidtoname_downlevel.obj
 0002:00005780       ??_C@_1M@CBFHIJLI@?$AAe?$AAn?$AA?9?$AAC?$AAB@ 10052780     libucrt:lcidtoname_downlevel.obj
 0002:0000578c       ??_C@_1M@BGNFLDN@?$AAe?$AAs?$AA?9?$AAC?$AAO@ 1005278c     libucrt:lcidtoname_downlevel.obj
 0002:00005798       ??_C@_1O@JMPHMAMC@?$AAs?$AAm?$AAn?$AA?9?$AAF?$AAI@ 10052798     libucrt:lcidtoname_downlevel.obj
 0002:000057a8       ??_C@_1M@JLANABKE@?$AAa?$AAr?$AA?9?$AAS?$AAY@ 100527a8     libucrt:lcidtoname_downlevel.obj
 0002:000057b4       ??_C@_1M@HPKGCFGN@?$AAe?$AAn?$AA?9?$AAB?$AAZ@ 100527b4     libucrt:lcidtoname_downlevel.obj
 0002:000057c0       ??_C@_1M@OLJCMLGM@?$AAe?$AAs?$AA?9?$AAP?$AAE@ 100527c0     libucrt:lcidtoname_downlevel.obj
 0002:000057cc       ??_C@_1M@MKKGFKLE@?$AAa?$AAr?$AA?9?$AAJ?$AAO@ 100527cc     libucrt:lcidtoname_downlevel.obj
 0002:000057d8       ??_C@_1M@EKPGLDNI@?$AAe?$AAn?$AA?9?$AAT?$AAT@ 100527d8     libucrt:lcidtoname_downlevel.obj
 0002:000057e4       ??_C@_1M@OONGHFHE@?$AAe?$AAs?$AA?9?$AAA?$AAR@ 100527e4     libucrt:lcidtoname_downlevel.obj
 0002:000057f0       ??_C@_1M@OOJFGBHE@?$AAa?$AAr?$AA?9?$AAL?$AAB@ 100527f0     libucrt:lcidtoname_downlevel.obj
 0002:000057fc       ??_C@_1M@GCEJHNEG@?$AAe?$AAn?$AA?9?$AAZ?$AAW@ 100527fc     libucrt:lcidtoname_downlevel.obj
 0002:00005808       ??_C@_1M@JNOCAHJI@?$AAe?$AAs?$AA?9?$AAE?$AAC@ 10052808     libucrt:lcidtoname_downlevel.obj
 0002:00005814       ??_C@_1M@JEFHPGGB@?$AAa?$AAr?$AA?9?$AAK?$AAW@ 10052814     libucrt:lcidtoname_downlevel.obj
 0002:00005820       ??_C@_1M@MLKIBJOJ@?$AAe?$AAn?$AA?9?$AAP?$AAH@ 10052820     libucrt:lcidtoname_downlevel.obj
 0002:0000582c       ??_C@_1M@BDNIPEND@?$AAe?$AAs?$AA?9?$AAC?$AAL@ 1005282c     libucrt:lcidtoname_downlevel.obj
 0002:00005838       ??_C@_1M@MPNMEKBD@?$AAa?$AAr?$AA?9?$AAA?$AAE@ 10052838     libucrt:lcidtoname_downlevel.obj
 0002:00005844       ??_C@_1M@KBJALCPI@?$AAe?$AAs?$AA?9?$AAU?$AAY@ 10052844     libucrt:lcidtoname_downlevel.obj
 0002:00005850       ??_C@_1M@LLCCOAGA@?$AAa?$AAr?$AA?9?$AAB?$AAH@ 10052850     libucrt:lcidtoname_downlevel.obj
 0002:0000585c       ??_C@_1M@PBFNCDEL@?$AAe?$AAs?$AA?9?$AAP?$AAY@ 1005285c     libucrt:lcidtoname_downlevel.obj
 0002:00005868       ??_C@_1M@EDGINPNP@?$AAa?$AAr?$AA?9?$AAQ?$AAA@ 10052868     libucrt:lcidtoname_downlevel.obj
 0002:00005874       ??_C@_1M@MKDBIIJI@?$AAe?$AAs?$AA?9?$AAB?$AAO@ 10052874     libucrt:lcidtoname_downlevel.obj
 0002:00005880       ??_C@_1M@CPKKEBLD@?$AAe?$AAs?$AA?9?$AAS?$AAV@ 10052880     libucrt:lcidtoname_downlevel.obj
 0002:0000588c       ??_C@_1M@NDBGMMJL@?$AAe?$AAs?$AA?9?$AAH?$AAN@ 1005288c     libucrt:lcidtoname_downlevel.obj
 0002:00005898       ??_C@_1M@JIJIBHDP@?$AAe?$AAs?$AA?9?$AAN?$AAI@ 10052898     libucrt:lcidtoname_downlevel.obj
 0002:000058a4       ??_C@_1M@CGFMKEEK@?$AAe?$AAs?$AA?9?$AAP?$AAR@ 100528a4     libucrt:lcidtoname_downlevel.obj
 0002:000058b0       ??_C@_1O@ICJHKIIK@?$AAz?$AAh?$AA?9?$AAC?$AAH?$AAT@ 100528b0     libucrt:lcidtoname_downlevel.obj
 0002:000058c0       ??_C@_15CLNEJCE@?$AAs?$AAr@ 100528c0     libucrt:lcidtoname_downlevel.obj
 0002:00005fe8       ??_C@_1M@KAHEKEIG@?$AAa?$AAf?$AA?9?$AAz?$AAa@ 10052fe8     libucrt:lcidtoname_downlevel.obj
 0002:00005ff4       ??_C@_1M@GIECOABL@?$AAa?$AAr?$AA?9?$AAa?$AAe@ 10052ff4     libucrt:lcidtoname_downlevel.obj
 0002:00006000       ??_C@_1M@BMLMEKGI@?$AAa?$AAr?$AA?9?$AAb?$AAh@ 10053000     libucrt:lcidtoname_downlevel.obj
 0002:0000600c       ??_C@_1M@DAPFDGGB@?$AAa?$AAr?$AA?9?$AAd?$AAz@ 1005300c     libucrt:lcidtoname_downlevel.obj
 0002:00006018       ??_C@_1M@FJNKGKIG@?$AAa?$AAr?$AA?9?$AAe?$AAg@ 10053018     libucrt:lcidtoname_downlevel.obj
 0002:00006024       ??_C@_1M@FLGKKCLO@?$AAa?$AAr?$AA?9?$AAi?$AAq@ 10053024     libucrt:lcidtoname_downlevel.obj
 0002:00006030       ??_C@_1M@GNDIPALM@?$AAa?$AAr?$AA?9?$AAj?$AAo@ 10053030     libucrt:lcidtoname_downlevel.obj
 0002:0000603c       ??_C@_1M@DDMJFMGJ@?$AAa?$AAr?$AA?9?$AAk?$AAw@ 1005303c     libucrt:lcidtoname_downlevel.obj
 0002:00006048       ??_C@_1M@EJALMLHM@?$AAa?$AAr?$AA?9?$AAl?$AAb@ 10053048     libucrt:lcidtoname_downlevel.obj
 0002:00006054       ??_C@_1M@MOBDBLOC@?$AAa?$AAr?$AA?9?$AAl?$AAy@ 10053054     libucrt:lcidtoname_downlevel.obj
 0002:00006060       ??_C@_1M@JAOCLHDH@?$AAa?$AAr?$AA?9?$AAm?$AAa@ 10053060     libucrt:lcidtoname_downlevel.obj
 0002:0000606c       ??_C@_1M@JHPMKJIE@?$AAa?$AAr?$AA?9?$AAo?$AAm@ 1005306c     libucrt:lcidtoname_downlevel.obj
 0002:00006078       ??_C@_1M@OEPGHFNH@?$AAa?$AAr?$AA?9?$AAq?$AAa@ 10053078     libucrt:lcidtoname_downlevel.obj
 0002:00006084       ??_C@_1M@KJDONENM@?$AAa?$AAr?$AA?9?$AAs?$AAa@ 10053084     libucrt:lcidtoname_downlevel.obj
 0002:00006090       ??_C@_1M@DMJDKLKM@?$AAa?$AAr?$AA?9?$AAs?$AAy@ 10053090     libucrt:lcidtoname_downlevel.obj
 0002:0000609c       ??_C@_1M@OMFIPEDC@?$AAa?$AAr?$AA?9?$AAt?$AAn@ 1005309c     libucrt:lcidtoname_downlevel.obj
 0002:000060a8       ??_C@_1M@IHMHGAON@?$AAa?$AAr?$AA?9?$AAy?$AAe@ 100530a8     libucrt:lcidtoname_downlevel.obj
 0002:000060b4       ??_C@_1BG@KDCPGJGB@?$AAa?$AAz?$AA?9?$AAa?$AAz?$AA?9?$AAc?$AAy?$AAr?$AAl@ 100530b4     libucrt:lcidtoname_downlevel.obj
 0002:000060cc       ??_C@_1BG@IBCKDDOE@?$AAa?$AAz?$AA?9?$AAa?$AAz?$AA?9?$AAl?$AAa?$AAt?$AAn@ 100530cc     libucrt:lcidtoname_downlevel.obj
 0002:000060e4       ??_C@_1M@EGPFDCPD@?$AAb?$AAe?$AA?9?$AAb?$AAy@ 100530e4     libucrt:lcidtoname_downlevel.obj
 0002:000060f0       ??_C@_1M@PCMGMCGC@?$AAb?$AAg?$AA?9?$AAb?$AAg@ 100530f0     libucrt:lcidtoname_downlevel.obj
 0002:000060fc       ??_C@_1M@BJBMFGOB@?$AAb?$AAn?$AA?9?$AAi?$AAn@ 100530fc     libucrt:lcidtoname_downlevel.obj
 0002:00006108       ??_C@_1BG@EAKMMACD@?$AAb?$AAs?$AA?9?$AAb?$AAa?$AA?9?$AAl?$AAa?$AAt?$AAn@ 10053108     libucrt:lcidtoname_downlevel.obj
 0002:00006120       ??_C@_1M@KGADAODK@?$AAc?$AAa?$AA?9?$AAe?$AAs@ 10053120     libucrt:lcidtoname_downlevel.obj
 0002:0000612c       ??_C@_1M@COAJPDHI@?$AAc?$AAs?$AA?9?$AAc?$AAz@ 1005312c     libucrt:lcidtoname_downlevel.obj
 0002:00006138       ??_C@_1M@DHBHFONH@?$AAc?$AAy?$AA?9?$AAg?$AAb@ 10053138     libucrt:lcidtoname_downlevel.obj
 0002:00006144       ??_C@_1M@IMGKELGA@?$AAd?$AAa?$AA?9?$AAd?$AAk@ 10053144     libucrt:lcidtoname_downlevel.obj
 0002:00006150       ??_C@_1M@NNDGDNGA@?$AAd?$AAe?$AA?9?$AAa?$AAt@ 10053150     libucrt:lcidtoname_downlevel.obj
 0002:0000615c       ??_C@_1M@IKDBHEEM@?$AAd?$AAe?$AA?9?$AAc?$AAh@ 1005315c     libucrt:lcidtoname_downlevel.obj
 0002:00006168       ??_C@_1M@GFFOJMCJ@?$AAd?$AAe?$AA?9?$AAd?$AAe@ 10053168     libucrt:lcidtoname_downlevel.obj
 0002:00006174       ??_C@_1M@MDNLKBPM@?$AAd?$AAe?$AA?9?$AAl?$AAi@ 10053174     libucrt:lcidtoname_downlevel.obj
 0002:00006180       ??_C@_1M@NJBEEJNL@?$AAd?$AAe?$AA?9?$AAl?$AAu@ 10053180     libucrt:lcidtoname_downlevel.obj
 0002:0000618c       ??_C@_1O@GNNELBAP@?$AAd?$AAi?$AAv?$AA?9?$AAm?$AAv@ 1005318c     libucrt:lcidtoname_downlevel.obj
 0002:0000619c       ??_C@_1M@EJLEOGAE@?$AAe?$AAl?$AA?9?$AAg?$AAr@ 1005319c     libucrt:lcidtoname_downlevel.obj
 0002:000061a8       ??_C@_1M@GMPONJN@?$AAe?$AAn?$AA?9?$AAa?$AAu@ 100531a8     libucrt:lcidtoname_downlevel.obj
 0002:000061b4       ??_C@_1M@NIDIIPGF@?$AAe?$AAn?$AA?9?$AAb?$AAz@ 100531b4     libucrt:lcidtoname_downlevel.obj
 0002:000061c0       ??_C@_1M@JEHMIMFO@?$AAe?$AAn?$AA?9?$AAc?$AAa@ 100531c0     libucrt:lcidtoname_downlevel.obj
 0002:000061cc       ??_C@_1M@IGMJCDLA@?$AAe?$AAn?$AA?9?$AAc?$AAb@ 100531cc     libucrt:lcidtoname_downlevel.obj
 0002:000061d8       ??_C@_1M@BNFIGBKG@?$AAe?$AAn?$AA?9?$AAg?$AAb@ 100531d8     libucrt:lcidtoname_downlevel.obj
 0002:000061e4       ??_C@_1M@LKIFDIGP@?$AAe?$AAn?$AA?9?$AAi?$AAe@ 100531e4     libucrt:lcidtoname_downlevel.obj
 0002:000061f0       ??_C@_1M@PJKFGCCO@?$AAe?$AAn?$AA?9?$AAj?$AAm@ 100531f0     libucrt:lcidtoname_downlevel.obj
 0002:000061fc       ??_C@_1M@KPPKEPBO@?$AAe?$AAn?$AA?9?$AAn?$AAz@ 100531fc     libucrt:lcidtoname_downlevel.obj
 0002:00006208       ??_C@_1M@GMDGLDOB@?$AAe?$AAn?$AA?9?$AAp?$AAh@ 10053208     libucrt:lcidtoname_downlevel.obj
 0002:00006214       ??_C@_1M@ONGIBJNA@?$AAe?$AAn?$AA?9?$AAt?$AAt@ 10053214     libucrt:lcidtoname_downlevel.obj
 0002:00006220       ??_C@_1M@LLODPCMM@?$AAe?$AAn?$AA?9?$AAu?$AAs@ 10053220     libucrt:lcidtoname_downlevel.obj
 0002:0000622c       ??_C@_1M@LAKFNPAN@?$AAe?$AAn?$AA?9?$AAz?$AAa@ 1005322c     libucrt:lcidtoname_downlevel.obj
 0002:00006238       ??_C@_1M@MFNHNHEO@?$AAe?$AAn?$AA?9?$AAz?$AAw@ 10053238     libucrt:lcidtoname_downlevel.obj
 0002:00006244       ??_C@_1M@EJEINPHM@?$AAe?$AAs?$AA?9?$AAa?$AAr@ 10053244     libucrt:lcidtoname_downlevel.obj
 0002:00006250       ??_C@_1M@GNKPCCJA@?$AAe?$AAs?$AA?9?$AAb?$AAo@ 10053250     libucrt:lcidtoname_downlevel.obj
 0002:0000625c       ??_C@_1M@LEEGFONL@?$AAe?$AAs?$AA?9?$AAc?$AAl@ 1005325c     libucrt:lcidtoname_downlevel.obj
 0002:00006268       ??_C@_1M@KGPDPBDF@?$AAe?$AAs?$AA?9?$AAc?$AAo@ 10053268     libucrt:lcidtoname_downlevel.obj
 0002:00006274       ??_C@_1M@EIAHOHH@?$AAe?$AAs?$AA?9?$AAc?$AAr@ 10053274     libucrt:lcidtoname_downlevel.obj
 0002:00006280       ??_C@_1M@LLPGMBIN@?$AAe?$AAs?$AA?9?$AAd?$AAo@ 10053280     libucrt:lcidtoname_downlevel.obj
 0002:0000628c       ??_C@_1M@DKHMKNJA@?$AAe?$AAs?$AA?9?$AAe?$AAc@ 1005328c     libucrt:lcidtoname_downlevel.obj
 0002:00006298       ??_C@_1M@GKGFPKAP@?$AAe?$AAs?$AA?9?$AAe?$AAs@ 10053298     libucrt:lcidtoname_downlevel.obj
 0002:000062a4       ??_C@_1M@LKHKGDLN@?$AAe?$AAs?$AA?9?$AAg?$AAt@ 100532a4     libucrt:lcidtoname_downlevel.obj
 0002:000062b0       ??_C@_1M@HEIIGGJD@?$AAe?$AAs?$AA?9?$AAh?$AAn@ 100532b0     libucrt:lcidtoname_downlevel.obj
 0002:000062bc       ??_C@_1M@FBDHPPGD@?$AAe?$AAs?$AA?9?$AAm?$AAx@ 100532bc     libucrt:lcidtoname_downlevel.obj
 0002:000062c8       ??_C@_1M@DPAGLNDH@?$AAe?$AAs?$AA?9?$AAn?$AAi@ 100532c8     libucrt:lcidtoname_downlevel.obj
 0002:000062d4       ??_C@_1M@MDGOPGDD@?$AAe?$AAs?$AA?9?$AAp?$AAa@ 100532d4     libucrt:lcidtoname_downlevel.obj
 0002:000062e0       ??_C@_1M@EMAMGBGE@?$AAe?$AAs?$AA?9?$AAp?$AAe@ 100532e0     libucrt:lcidtoname_downlevel.obj
 0002:000062ec       ??_C@_1M@IBMCAOEC@?$AAe?$AAs?$AA?9?$AAp?$AAr@ 100532ec     libucrt:lcidtoname_downlevel.obj
 0002:000062f8       ??_C@_1M@FGMDIJED@?$AAe?$AAs?$AA?9?$AAp?$AAy@ 100532f8     libucrt:lcidtoname_downlevel.obj
 0002:00006304       ??_C@_1M@IIDEOLLL@?$AAe?$AAs?$AA?9?$AAs?$AAv@ 10053304     libucrt:lcidtoname_downlevel.obj
 0002:00006310       ??_C@_1M@GAOBIPA@?$AAe?$AAs?$AA?9?$AAu?$AAy@ 10053310     libucrt:lcidtoname_downlevel.obj
 0002:0000631c       ??_C@_1M@JKFFICHJ@?$AAe?$AAs?$AA?9?$AAv?$AAe@ 1005331c     libucrt:lcidtoname_downlevel.obj
 0002:00006328       ??_C@_1M@PNMLOJDF@?$AAe?$AAt?$AA?9?$AAe?$AAe@ 10053328     libucrt:lcidtoname_downlevel.obj
 0002:00006334       ??_C@_1M@GHHLIKEI@?$AAe?$AAu?$AA?9?$AAe?$AAs@ 10053334     libucrt:lcidtoname_downlevel.obj
 0002:00006340       ??_C@_1M@PBNONODE@?$AAf?$AAa?$AA?9?$AAi?$AAr@ 10053340     libucrt:lcidtoname_downlevel.obj
 0002:0000634c       ??_C@_1M@JEEHPMIL@?$AAf?$AAi?$AA?9?$AAf?$AAi@ 1005334c     libucrt:lcidtoname_downlevel.obj
 0002:00006358       ??_C@_1M@LMDCNDBA@?$AAf?$AAo?$AA?9?$AAf?$AAo@ 10053358     libucrt:lcidtoname_downlevel.obj
 0002:00006364       ??_C@_1M@JKEOHLDK@?$AAf?$AAr?$AA?9?$AAb?$AAe@ 10053364     libucrt:lcidtoname_downlevel.obj
 0002:00006370       ??_C@_1M@NOHADPMI@?$AAf?$AAr?$AA?9?$AAc?$AAa@ 10053370     libucrt:lcidtoname_downlevel.obj
 0002:0000637c       ??_C@_1M@KDHIHAEC@?$AAf?$AAr?$AA?9?$AAc?$AAh@ 1005337c     libucrt:lcidtoname_downlevel.obj
 0002:00006388       ??_C@_1M@MMBBFGAK@?$AAf?$AAr?$AA?9?$AAf?$AAr@ 10053388     libucrt:lcidtoname_downlevel.obj
 0002:00006394       ??_C@_1M@PAFNENNF@?$AAf?$AAr?$AA?9?$AAl?$AAu@ 10053394     libucrt:lcidtoname_downlevel.obj
 0002:000063a0       ??_C@_1M@EOHDJGDD@?$AAf?$AAr?$AA?9?$AAm?$AAc@ 100533a0     libucrt:lcidtoname_downlevel.obj
 0002:000063ac       ??_C@_1M@FAPLLOPF@?$AAg?$AAl?$AA?9?$AAe?$AAs@ 100533ac     libucrt:lcidtoname_downlevel.obj
 0002:000063b8       ??_C@_1M@FOPBFLOO@?$AAg?$AAu?$AA?9?$AAi?$AAn@ 100533b8     libucrt:lcidtoname_downlevel.obj
 0002:000063c4       ??_C@_1M@KBMCINPM@?$AAh?$AAe?$AA?9?$AAi?$AAl@ 100533c4     libucrt:lcidtoname_downlevel.obj
 0002:000063d0       ??_C@_1M@BBPHKFPJ@?$AAh?$AAi?$AA?9?$AAi?$AAn@ 100533d0     libucrt:lcidtoname_downlevel.obj
 0002:000063dc       ??_C@_1M@PMBNDPHD@?$AAh?$AAr?$AA?9?$AAb?$AAa@ 100533dc     libucrt:lcidtoname_downlevel.obj
 0002:000063e8       ??_C@_1M@BPCKOEGE@?$AAh?$AAr?$AA?9?$AAh?$AAr@ 100533e8     libucrt:lcidtoname_downlevel.obj
 0002:000063f4       ??_C@_1M@GACBMHKE@?$AAh?$AAu?$AA?9?$AAh?$AAu@ 100533f4     libucrt:lcidtoname_downlevel.obj
 0002:00006400       ??_C@_1M@MILPAJJC@?$AAh?$AAy?$AA?9?$AAa?$AAm@ 10053400     libucrt:lcidtoname_downlevel.obj
 0002:0000640c       ??_C@_1M@BABBICEC@?$AAi?$AAd?$AA?9?$AAi?$AAd@ 1005340c     libucrt:lcidtoname_downlevel.obj
 0002:00006418       ??_C@_1M@BIKNHHPF@?$AAi?$AAs?$AA?9?$AAi?$AAs@ 10053418     libucrt:lcidtoname_downlevel.obj
 0002:00006424       ??_C@_1M@NMPCJPHE@?$AAi?$AAt?$AA?9?$AAc?$AAh@ 10053424     libucrt:lcidtoname_downlevel.obj
 0002:00006430       ??_C@_1M@GHKGFEDF@?$AAi?$AAt?$AA?9?$AAi?$AAt@ 10053430     libucrt:lcidtoname_downlevel.obj
 0002:0000643c       ??_C@_1M@NIEJCJJA@?$AAj?$AAa?$AA?9?$AAj?$AAp@ 1005343c     libucrt:lcidtoname_downlevel.obj
 0002:00006448       ??_C@_1M@JILFNBIM@?$AAk?$AAa?$AA?9?$AAg?$AAe@ 10053448     libucrt:lcidtoname_downlevel.obj
 0002:00006454       ??_C@_1M@PACPMGPH@?$AAk?$AAk?$AA?9?$AAk?$AAz@ 10053454     libucrt:lcidtoname_downlevel.obj
 0002:00006460       ??_C@_1M@IELFGMHA@?$AAk?$AAn?$AA?9?$AAi?$AAn@ 10053460     libucrt:lcidtoname_downlevel.obj
 0002:0000646c       ??_C@_1O@IBBJHCH@?$AAk?$AAo?$AAk?$AA?9?$AAi?$AAn@ 1005346c     libucrt:lcidtoname_downlevel.obj
 0002:0000647c       ??_C@_1M@DMHAEOGC@?$AAk?$AAo?$AA?9?$AAk?$AAr@ 1005347c     libucrt:lcidtoname_downlevel.obj
 0002:00006488       ??_C@_1M@HBAHBIGA@?$AAk?$AAy?$AA?9?$AAk?$AAg@ 10053488     libucrt:lcidtoname_downlevel.obj
 0002:00006494       ??_C@_1M@KPMILCJG@?$AAl?$AAt?$AA?9?$AAl?$AAt@ 10053494     libucrt:lcidtoname_downlevel.obj
 0002:000064a0       ??_C@_1M@BDEKKCA@?$AAl?$AAv?$AA?9?$AAl?$AAv@ 100534a0     libucrt:lcidtoname_downlevel.obj
 0002:000064ac       ??_C@_1M@ELCKCCJJ@?$AAm?$AAi?$AA?9?$AAn?$AAz@ 100534ac     libucrt:lcidtoname_downlevel.obj
 0002:000064b8       ??_C@_1M@CBOOLAPA@?$AAm?$AAk?$AA?9?$AAm?$AAk@ 100534b8     libucrt:lcidtoname_downlevel.obj
 0002:000064c4       ??_C@_1M@GPHNBJKN@?$AAm?$AAl?$AA?9?$AAi?$AAn@ 100534c4     libucrt:lcidtoname_downlevel.obj
 0002:000064d0       ??_C@_1M@PABJILIG@?$AAm?$AAn?$AA?9?$AAm?$AAn@ 100534d0     libucrt:lcidtoname_downlevel.obj
